ARM GAS  /tmp/cc7G9W1x.s 			page 1


   1              		.syntax unified
   2              		.cpu cortex-m4
   3              		.fpu softvfp
   4              		.eabi_attribute 20, 1
   5              		.eabi_attribute 21, 1
   6              		.eabi_attribute 23, 3
   7              		.eabi_attribute 24, 1
   8              		.eabi_attribute 25, 1
   9              		.eabi_attribute 26, 1
  10              		.eabi_attribute 30, 2
  11              		.eabi_attribute 34, 1
  12              		.eabi_attribute 18, 4
  13              		.thumb
  14              		.file	"chdynamic.c"
  15              		.text
  16              	.Ltext0:
  17              		.section	.gnu.lto_.jmpfuncs.76350ab42d7220a5,"",%progbits
  18 0000 789C758D 		.ascii	"x\234u\215\301\015\2000\014\003m\267\274\031\201\251"
  18      C10D8030 
  18      0C036DB7 
  18      BC1981A9 
  19 0010 90588105 		.ascii	"\220X\201\005:(S\260\005\270M\221\250\004\371\\\034"
  19      3A2853B0 
  19      05B84D91 
  19      A804F95C 
  19      1C
  20 0021 39B6207C 		.ascii	"9\266 |\315\3219\2016$o\005 E\032>,\262:\271q\247\265"
  20      CDD13981 
  20      36246F05 
  20      20451A3E 
  20      2CB23AB9 
  21 0038 2AD9ECD5 		.ascii	"*\331\354\325\313\322\240@\012\344\000\302\254uP\227"
  21      CBD2A040 
  21      0AE400C2 
  21      AC755097 
  22 0048 9FD55AF8 		.ascii	"\237\325Z\370\004\344\371U\241\241\342\277\344?\235"
  22      04E4F955 
  22      A1A1E2BF 
  22      E43F9D
  23 0057 3D1D37FC 		.ascii	"=\0357\374\367\021/"
  23      F7112F
  24              		.text
  25              		.section	.gnu.lto_.inline.76350ab42d7220a5,"",%progbits
  26 0000 789C6362 		.ascii	"x\234cb`b\300\006$\030!4+\003\003\217\010#3\003\220"
  26      6062C006 
  26      24182134 
  26      2B03038F 
  26      08233303 
  27 0015 CBBC8011 		.ascii	"\313\274\200\021L5@)\026\016\326\016u\006\366\016u&"
  27      4C354029 
  27      160ED60E 
  27      7506F60E 
  27      7526
  28 0027 06C617EC 		.ascii	"\006\306\027\354,\020\022Dp\200\231\034 B\000\314\024"
  28      2C101244 
  28      7080991C 
  28      204200CC 
ARM GAS  /tmp/cc7G9W1x.s 			page 2


  28      14
  29 0038 0099C4CC 		.ascii	"\000\231\304\314\303\300\3004\301o\202\037#\003\007"
  29      C3C0C034 
  29      C16F821F 
  29      230307
  30 0047 3B230313 		.ascii	";#\003\023\307\001;\006\216\017z`\353\231\030\344\370"
  30      C7013B06 
  30      8E0F7A60 
  30      EB9918E4 
  30      F8
  31 0058 8042EA2B 		.ascii	"\200B\352+\332\030\031x\347\230C\304\270\031\030\030"
  31      DA181978 
  31      E79843C4 
  31      B8191818 
  32 0068 27F84129 		.ascii	"'\370A)f\006\205\223@k\231\370\236d2\260-\220gB2\221"
  32      66068593 
  32      406B99F8 
  32      9E6432B0 
  32      2D906742 
  33 007e 01643E2B 		.ascii	"\001d>+\310d\010d\341\005J\201\030\014\250,\260\345"
  33      C8640864 
  33      E1054A81 
  33      180CA82C 
  33      B0E5
  34 0090 2C0C4AA7 		.ascii	",\014J\247A\346\010\235i\007\272c\212\036\251\006\201"
  34      41E6089D 
  34      6907BA63 
  34      8A1EA906 
  34      81
  35 00a1 94029DC3 		.ascii	"\224\002\235\303\000\000\334(,\220"
  35      0000DC28 
  35      2C90
  36              		.text
  37              		.section	.gnu.lto_.pureconst.76350ab42d7220a5,"",%progbits
  38 0000 789C6362 		.ascii	"x\234cb`b\340f\200\000V\006)F+&+f+\026+\000\006)\001"
  38      6062E066 
  38      80005606 
  38      29462B26 
  38      2B662B16 
  39 0019 21       		.ascii	"!"
  40              		.text
  41              		.section	.gnu.lto_chThdRelease.part.0.76350ab42d7220a5,"",%progbits
  42 0000 789CAD92 		.ascii	"x\234\255\222\277J\003A\020\306\347\333\335\323`\345"
  42      BF4A0341 
  42      10C6E7DB 
  42      DDD360E5 
  43 0010 23482CC4 		.ascii	"#H,\304\004r\255O \330'\240v\311F\317-\242p\247\205"
  43      0472AD4F 
  43      20D827A0 
  43      76C946CF 
  43      2DA270A7 
  44 0025 58644F0C 		.ascii	"XdO\014X\006\033E\033\305\007\360\025\322\213\212]\260"
  44      58061B45 
  44      1BC507F0 
  44      15D28B8A 
  44      5DB0
  45 0037 BA37B0D6 		.ascii	"\2727\260\326\010\347\354\235\027\377\004\261q\271\233"
ARM GAS  /tmp/cc7G9W1x.s 			page 3


  45      08E7EC9D 
  45      17FF04B1 
  45      71B99B
  46 0046 D919E637 		.ascii	"\331\031\3467\337\354\336\011\022\364sU\371]\346t\215"
  46      DFECDE09 
  46      12F47355 
  46      F95DE674 
  46      8D
  47 0057 3D3C82EA 		.ascii	"=<\202\352\337\363FAd^@:\037\227$\3406\004\352*!\321"
  47      DFF34641 
  47      645E403A 
  47      1F9724E0 
  47      3604EA2A 
  48 006d 5D838345 		.ascii	"]\203\203E\007T\246+kO\222\336\363\020\247v\020_\332"
  48      0754A62B 
  48      6B4F92DE 
  48      F310A776 
  48      105FDA
  49 0080 B734050C 		.ascii	"\2674\005\014X\253\002\322\240U\016P\312\234\300w\361"
  49      58AB02D2 
  49      A0550E50 
  49      CA9CC077 
  49      F1
  50 0091 1B619334 		.ascii	"\033a\2234}IK3@\007\020d \2453\312\031\217\215\342*"
  50      7D494B33 
  50      40071064 
  50      20A533CA 
  50      198F8DE2 
  51 00a6 8F8EACED 		.ascii	"\217\216\254\355\3175q\2052\207:kRg\353&\252s\011{\331"
  51      CF357185 
  51      32873A6B 
  51      5267EB26 
  51      AA73097B 
  52 00bb 60DAF95B 		.ascii	"`\332\371[\036\266\211k>J\2333tG\207Og\243\245<\023"
  52      1EB6896B 
  52      3E4A9B33 
  52      7447874F 
  52      67A3A53C 
  53 00d0 4054A9C2 		.ascii	"@T\251\302\235/\350<\266v\326\300\013\0007\230\314\306"
  53      9D2FE83C 
  53      B676D6C0 
  53      0B003798 
  53      CCC6
  54 00e2 698DC763 		.ascii	"i\215\307cl\275`\344\037\014>\231\225\234\231\004\304"
  54      6CBD60E4 
  54      1F0C3E99 
  54      959C9904 
  54      C4
  55 00f3 2410B8F8 		.ascii	"$\020\270\370\253\216\372\007\0355y\230\240\270\206"
  55      AB8EFA07 
  55      1D357998 
  55      A0B886
  56 0102 E1281185 		.ascii	"\341(\021\205\226\227\241\352W\255\342?y\240\336`1\207"
  56      9697A1EA 
  56      57ADE23F 
  56      79A0DE60 
  56      3187
ARM GAS  /tmp/cc7G9W1x.s 			page 4


  57 0114 880EE8D5 		.ascii	"\210\016\350\325\036\273\352)=>\203\003\015\246\363"
  57      1EBBEA29 
  57      3D3E8303 
  57      0DA6F3
  58 0123 EA06F3C5 		.ascii	"\352\006\363\3057 \276\177\356\366Hq\222\316\027\035"
  58      3720BE7F 
  58      EEF64871 
  58      92CE171D 
  59 0133 F255679A 		.ascii	"\362Ug\232\313\234\306\202\277\027\205~\024j_o\231\226"
  59      CB9CC682 
  59      BF17857E 
  59      146A5F6F 
  59      9996
  60 0145 D9897C7E 		.ascii	"\331\211|~\302\335\217L{\177\273\3311\272\246I\205\033"
  60      C2DD8F4C 
  60      7B7FBBD9 
  60      31BAA649 
  60      851B
  61 0157 9BD13BD7 		.ascii	"\233\321;\327\211\206e"
  61      898665
  62              		.text
  63              		.section	.gnu.lto_chThdAddRef.76350ab42d7220a5,"",%progbits
  64 0000 789C8552 		.ascii	"x\234\205RMh\023A\024~o&\333\006s\351U\220\260\024\244"
  64      4D681341 
  64      147E6F26 
  64      DB0673E9 
  64      5590B014 
  65 0015 624B5741 		.ascii	"bKWA\360\252\024\204\036riZP\020d3]\222\201nRv\223\320"
  65      F0AA1484 
  65      1E72695A 
  65      50106433 
  65      5D92816E 
  66 002d 9CBA4D7B 		.ascii	"\234\272M{P\360P\004!m)X\005\301\037\024\005\361Rh@"
  66      50F05004 
  66      216D2958 
  66      05C11F14 
  66      05F15268 
  67 0042 502A6D51 		.ascii	"P*mQ\274\365\224\223\240=H\217\212\020\337\314f\267"
  67      BCF59493 
  67      A03D488F 
  67      8A10DFCC 
  67      66B7
  68 0054 26583BCC 		.ascii	"&X;\314\317\233\367\276\367\2767\037\303\200A\3578M"
  68      CF9BF7BE 
  68      F7BE371F 
  68      C38041EF 
  68      384D
  69 0066 EB19B9F7 		.ascii	"\353\031\271\367\351D\016\310\226\367\000\026\222\014"
  69      E9440EC8 
  69      96F70016 
  69      920C
  70 0074 51198030 		.ascii	"Q\031\2000\317p\376\006j\354K\326l\265\333/\032\357"
  70      CF70FE06 
  70      6AEC4BD6 
  70      6CB5DB2F 
  70      1AEF
  71 0086 1FEFE00A 		.ascii	"\037\357\340\012;\305\321EH\200D0\324F\303\200\245 "
ARM GAS  /tmp/cc7G9W1x.s 			page 5


  71      3BC5D145 
  71      48804430 
  71      D446C380 
  71      A520
  72 0098 58365DA4 		.ascii	"X6]\244\233\320\236I\332U\241)d\352\344\333PO\002\014"
  72      9BD09E49 
  72      DA55A129 
  72      64EAE4DB 
  72      504F020C 
  73 00ac C24610DC 		.ascii	"\302F\020\334k\2759|;\262\0224\227\036\004\277\333m"
  73      6BBD397C 
  73      3BB21234 
  73      971E04BF 
  73      DB6D
  74 00be 448904BA 		.ascii	"D\211\004\272\211*\363:]\230\251\017\236\350nX\371\320"
  74      892AF33A 
  74      5D98A90F 
  74      9EE86E58 
  74      F9D0
  75 00d0 24630FEA 		.ascii	"$c\017\352\207\037\337\275\276\313;\254\021}\363\340"
  75      871FDFBD 
  75      BECB3BAC 
  75      117DF3E0 
  76 00e0 D78F0166 		.ascii	"\327\217\001f\343C\034\214[jn\335\337L\235\211ow>P["
  76      E3431C8C 
  76      5B6A6EDD 
  76      DF4C9D89 
  76      6F773E50 
  77 00f5 366EA041 		.ascii	"6n\240Ad\212\220\321\342\240\337\213\260E&)\302C\265"
  77      648A90D1 
  77      E2A0DF8B 
  77      B0452629 
  77      C243B5
  78 0108 D2F009D7 		.ascii	"\322\360\011\327\203\306\025\211\211.\372\243\370\227"
  78      83C61589 
  78      892EFAA3 
  78      F897
  79 0116 4EDC081B 		.ascii	"N\334\010\033\334\205\372~\343\353\271\260|\036\023"
  79      DC85FA7E 
  79      E3EBB9B0 
  79      7C1E13
  80 0125 C3705E62 		.ascii	"\303p^b\337\032\254Rf\177\036\271\252\220\324\310\034"
  80      DF1AAC52 
  80      667F1EB9 
  80      AA90D4C8 
  80      1C
  81 0136 468FDA85 		.ascii	"F\217\332\205\305\333\213\325(\305\240,\205\352\303"
  81      C5DB8BD5 
  81      28C5A02C 
  81      85EAC3
  82 0145 B0DC7818 		.ascii	"\260\334x\030\030\206\247\001\215\324\011\325\362\252"
  82      1886A701 
  82      8DD409D5 
  82      F2AA
  83 0153 916E9DBF 		.ascii	"\221n\235\277m\366\350l\343#\375\346\023\205\206\377"
  83      6DF6E86C 
  83      E323FDE6 
ARM GAS  /tmp/cc7G9W1x.s 			page 6


  83      138586FF 
  84 0163 0AFDFDA7 		.ascii	"\012\375\375\247\022\372U\267\320\007\251t\374\023b"
  84      12FA55B7 
  84      D007A974 
  84      FC1362
  85 0172 F7F6CE5F 		.ascii	"\367\366\316_\212k\"\241\315^\321m|BFL\035\211l\343"
  85      8A6B22A1 
  85      CD5ED16D 
  85      7C42464C 
  85      1D896CE3 
  86 0186 734C876D 		.ascii	"sL\207m}\206\205\326\232\210\244\342\241s\222\340\364"
  86      7D8685D6 
  86      9A88A4E2 
  86      A17392E0 
  86      F4
  87 0197 BD1476C8 		.ascii	"\275\024v\310\252\370\236\345{\302\022\005\231\223%"
  87      AAF89EE5 
  87      7BC21205 
  87      999325
  88 01a6 DFA2E995 		.ascii	"\337\242\351\225;\236\351Z\321v\245\030\025p\361\030"
  88      3B9EE95A 
  88      D176A518 
  88      1570F118 
  89 01b6 DC6CC92B 		.ascii	"\334l\311+\373\326\325\211\314Xf\216B\242\3449\267\252"
  89      FBD6D589 
  89      CC58668E 
  89      42A2E439 
  89      B7AA
  90 01c8 97DDD102 		.ascii	"\227\335\321\002\030U{\246\342\\\372W\2363W\266\306"
  90      18557BA6 
  90      E25CFA57 
  90      9E3357B6 
  90      C6
  91 01d9 32D9F1AC 		.ascii	"2\331\361\254%\213b\2462\355X:O\270\327*EA\251\3075"
  91      258B62A6 
  91      32ED583A 
  91      4FB8D72A 
  91      4541A9C7 
  92 01ee 15A30B7E 		.ascii	"\025\243\013~\315'\334@&;a\346l\337\231\365\344\210"
  92      CD27DC40 
  92      263B61E6 
  92      6CDF99F5 
  92      E488
  93 0200 79F60230 		.ascii	"y\366\0020\017\372]\307-y5\370\003\213\350\345j"
  93      0FFA5DC7 
  93      2D7935F8 
  93      038BE8E5 
  93      6A
  94              		.text
  95              		.section	.gnu.lto_chThdRelease.76350ab42d7220a5,"",%progbits
  96 0000 789CA554 		.ascii	"x\234\245TMh\023A\024~of7\273M\254\026\251\010\242%"
  96      4D681341 
  96      147E6F66 
  96      37BB4DAC 
  96      16A908A2 
  97 0015 28A26871 		.ascii	"(\242hq+\010zT\004\301C/VA\275\310v\033\333\005\323"
  97      2B087A54 
ARM GAS  /tmp/cc7G9W1x.s 			page 7


  97      04C1432F 
  97      5641BDC8 
  97      761BDB05 
  98 002a 964D5B5A 		.ascii	"\226M[Z<t\322DTP(\202P\025\361\377\242\240\240\202\007"
  98      3C74D244 
  98      54502882 
  98      5015F1FF 
  98      A2A0A082 
  99 003f 0B4694E2 		.ascii	"\013F\224\342\377\017T\020\017\032\020\025\365 *\370"
  99      FF0F5410 
  99      0F1A1015 
  99      F5202AF8 
 100 004f 8718DFCC 		.ascii	"\207\030\337\314d\267M[\365\340\220}3\373\336\373\276"
 100      64B74D5B 
 100      F5E0907D 
 100      33FBDEFB 
 100      BE
 101 0060 F7B71906 		.ascii	"\367\267\031\006\014&\256m\364\2744\001^\320\2166 \033"
 101      0C26AE6D 
 101      F4BC3401 
 101      5ED08E36 
 101      201B
 102 0072 7C0090B5 		.ascii	"|\000\220\265\031\343\243\016\210\2705\\\007b\032g\306"
 102      19E3A30E 
 102      88B8355C 
 102      07621A67 
 102      C6
 103 0083 C83CF976 		.ascii	"\310<\371v\247\201\336\014n\355\232\003\3026\225\214"
 103      A781DE0C 
 103      6EED9A03 
 103      C236958C 
 104 0093 E9335A1A 		.ascii	"\3513Z\032\030\323\007\264\020\345\016\010\375\214\033"
 104      18D307B4 
 104      10E50E08 
 104      FD8C1B
 105 00a2 66CCC2FE 		.ascii	"f\314\302\376-\250\"^`\205b\251t\376\313\310\351\237"
 105      2DA8225E 
 105      608562A9 
 105      74FECBC8 
 105      E99F
 106 00b4 788CCDE2 		.ascii	"x\214\315\342\230F0\300G0\245\260\245\250\222\"N\002"
 106      984630C0 
 106      4730A5B0 
 106      A5A89222 
 106      4E02
 107 00c6 1352544B 		.ascii	"\023RTKQ+u\264L\310\0131\230\234\017'\2048P\370>\262"
 107      512B75B4 
 107      4CC80B31 
 107      989C0F27 
 107      843850F8 
 108 00dc 7FB6288A 		.ascii	"\177\266(\212A\361\253TB\037\031\203%\010\036\302fz"
 108      41F1AB54 
 108      421F1983 
 108      25081EC2 
 108      667A
 109 00ee E1B6DA0C 		.ascii	"\341\266\332\014\254\2548\215\244\360\224r#I\231\345"
 109      ACAC388D 
ARM GAS  /tmp/cc7G9W1x.s 			page 8


 109      A4F09472 
 109      234999E5 
 110 00fe 266472E7 		.ascii	"&dr\347\267a\300\006\320\324\305k\037\257\324\037\022"
 110      B761C006 
 110      D0D4C56B 
 110      1FAFD41F 
 110      12
 111 010f 85FC71F1 		.ascii	"\205\374q\361\223\270\211\310d\340\216\221'5\271QI."
 111      93B889C8 
 111      64E08E91 
 111      2735B951 
 111      492E
 112 0121 7566920E 		.ascii	"uf\222\016\017`\340\343\303\033\027\367\361r\276a\342"
 112      0F60E0E3 
 112      C31B17F7 
 112      F172BE61 
 112      E2
 113 0132 85D28F0F 		.ascii	"\205\322\217\0175\314\305\3238?*\246\360\371\340pbn"
 113      35CCC5D3 
 113      383F2AA6 
 113      F0F9E070 
 113      626E
 114 0144 F4B6F705 		.ascii	"\364\266\367\005\245\345\342\0114)\230\014\310\350\341"
 114      A5E5E209 
 114      3429980C 
 114      C8E8E1
 115 0153 A09A8970 		.ascii	"\240\232\211p\223\2164F\256gY\007O\360\250\030Z\355"
 115      938E3446 
 115      AE675907 
 115      4FF0A818 
 115      5AED
 116 0165 63AC22FC 		.ascii	"c\254\"\374\230\375i\331n\351\004\357\303\300\263\241"
 116      98FD69D9 
 116      6EE904EF 
 116      C3C0B3A1 
 117 0175 4F8B357D 		.ascii	"O\2135}+\032Ka\011\265\355\010\034&\244\335\212\\2\350"
 117      2B1A4B61 
 117      09B5ED08 
 117      1C26A4DD 
 117      8A5C32E8 
 118 0189 8635477D 		.ascii	"\2065G}\273\017\271=\271\236\020b\022Jz\261\022j\276"
 118      BB0FB93D 
 118      B99E1062 
 118      124A7AB1 
 118      126ABE
 119 019c F5DAB214 		.ascii	"\365\332\262\024\316\012Z\211\177\320\021\001\0005\272"
 119      CE0A5A89 
 119      7FD01101 
 119      0035BA
 120 01ab 783B17D3 		.ascii	"x;\027\323@\027OR3B\375\270\001\274\035\2360\000\027"
 120      40174F52 
 120      3342FDB8 
 120      01BC1D9E 
 120      300017
 121 01be CFA866FC 		.ascii	"\317\250f\374s\002\360\327\011\274\373.'p\251r\002\357"
 121      7302F0D7 
 121      09BCFB2E 
ARM GAS  /tmp/cc7G9W1x.s 			page 9


 121      2770A972 
 121      02EF
 122 01d0 1375D1C7 		.ascii	"\023u\321\30756\212W\343F\241\002y\3528q\032.\236\243"
 122      35368A57 
 122      E346A102 
 122      79EA3871 
 122      1A2E9EA3 
 123 01e4 43143AEC 		.ascii	"C\024:\354\276\213\347\261N\247u\013n\276\271~l7\217"
 123      BE8BE7B1 
 123      4EA7750B 
 123      6EBEB97E 
 123      6C378F
 124 01f7 BA289D2B 		.ascii	"\272(\235+\022\337D\014\243\016\227\003z43t\263\325"
 124      12DF440C 
 124      A30E9703 
 124      7A343374 
 124      B3D5
 125 0209 7CAAA66E 		.ascii	"|\252\246nh\210\227\334\331\276\010\242\230gT0\033\220"
 125      688897DC 
 125      D9BE08A2 
 125      98675430 
 125      1B90
 126 021b 9BA99887 		.ascii	"\233\251\230\207\276|\303\320\261Jq\307\247\346\016"
 126      BE7CC3D0 
 126      B14A71C7 
 126      A7E60E
 127 022a 6F0A9AFD 		.ascii	"o\012\232\375\325\334\353\010SK0\305/;p\017\362\005"
 127      D5DCEB08 
 127      534B30C5 
 127      2F3B700F 
 127      F205
 128 023c 33B2EC87 		.ascii	"3\262\354\207}\331\274(|\262|\372\327\322j)s\224\365"
 128      7DD9BC28 
 128      7CB27CFA 
 128      D7D26A29 
 128      7394F5
 129 024f 97A55E41 		.ascii	"\227\245^AQ\031\371x\343hdd\312hTdoB6\306\357\322\345"
 129      5119F978 
 129      E3686464 
 129      CA685464 
 129      6F4236C6 
 130 0266 A26329AC 		.ascii	"\242c)\254*\346\353\2520z\\\325\202S\327\302\243Z\006"
 130      2AE6EBAA 
 130      307A5CD5 
 130      8253D7C2 
 130      A35A06
 131 0279 B68680C4 		.ascii	"\266\206\200\304\337\000\306\030 \372\270+\274\343\223"
 131      DF00C618 
 131      20FAB82B 
 131      BCE393
 132 0288 BD5B65D5 		.ascii	"\275[e\325\343#T\377W\204\352\311\005PX\200\207\220"
 132      E32354FF 
 132      5784EAC9 
 132      05505880 
 132      8790
 133 029a 2F3E3F15 		.ascii	"/>?\025\327\030\200\235\360C\354\0215>N\363\364\015"
 133      D718809D 
ARM GAS  /tmp/cc7G9W1x.s 			page 10


 133      F043EC11 
 133      353E4EF3 
 133      F40D
 134 02ac 405EDCA7 		.ascii	"@^\334\247\033\263\334\272\330\304\326\031\212\302\236"
 134      1BB3DCBA 
 134      D8C4D619 
 134      8AC29E
 135 02bb 849FEE95 		.ascii	"\204\237\356\225o\010\205\237\021\342-u/J\202\362@\037"
 135      6F08859F 
 135      11E22D75 
 135      2F4A82F2 
 135      401F
 136 02cd 43B6585A 		.ascii	"C\266XZ\020\302\365\332H\211\222\233\034\335\"\247;"
 136      10C2F5DA 
 136      4889929B 
 136      1CDD22A7 
 136      3B
 137 02de 133899C0 		.ascii	"\0238\231\300s\2746\277\331\357\3108\364\013\272\312"
 137      73BC36BF 
 137      D9EFC838 
 137      F40BBACA 
 138 02ee 9A96BE76 		.ascii	"\232\226\276v7\355{\313<0\202\324\366\314\362?8wv\004"
 138      37ED7BCB 
 138      3C3082D4 
 138      F6CCF23F 
 138      38777604 
 139 0302 5D1967CD 		.ascii	"]\031g\315\206\306\265\215\275d\362:\202\324\266\236"
 139      86C6B58D 
 139      BD64F23A 
 139      82D4B69E 
 140 0312 95E9656D 		.ascii	"\225\351em`\366\270;\272S+\246\302\245z\273\234\265"
 140      60F6B83B 
 140      BA532BA6 
 140      C2A57ABB 
 140      9CB5
 141 0324 8D4DEB9B 		.ascii	"\215M\353\233\034\277\335\333\321\335\222r\024\316K"
 141      1CBFDDDB 
 141      D1DD9272 
 141      14CE4B
 142 0333 AFEB6EF7 		.ascii	"\257\353n\367\010\372\247\314\"\357\266L_\206\374j\032"
 142      08FAA7CC 
 142      22EFB64C 
 142      5F86FC6A 
 142      1A
 143 0344 9B36249B 		.ascii	"\2336$\233\335L\2523\360\353\223\013\033\200\005`\245"
 143      DD4CAA33 
 143      F0EB930B 
 143      1B800560 
 143      A5
 144 0355 53E98EA0 		.ascii	"S\351\216\240\017~\003\325\332\2135"
 144      0F7E03D5 
 144      DA8B35
 145              		.text
 146              		.section	.gnu.lto_chThdCreateFromHeap.76350ab42d7220a5,"",%progbits
 147 0000 789C8D54 		.ascii	"x\234\215T]H\024Q\024>\347\316\254\273\356\372\267%"
 147      5D481451 
 147      143EE7CE 
ARM GAS  /tmp/cc7G9W1x.s 			page 11


 147      ACBBEEFA 
 147      B725
 148 0012 FD40C822 		.ascii	"\375@\310\"D`\342\024\005\275\026F\320\303\276hB=\305"
 148      4460E214 
 148      05BD1646 
 148      D0C3BE68 
 148      423DC5
 149 0025 7A5DD601 		.ascii	"z]\326\001\327]fwM\351\301iU\210\222\220\240\2602P$"
 149      D75D6677 
 149      4DE9C169 
 149      55889290 
 149      A0B03250 
 150 003a 2209957A 		.ascii	"\"\011\225z\320\300`\243\222VJ\211\036\304\242\330\036"
 150      D0C060A3 
 150      92564A89 
 150      1EC4A2D8 
 150      1E
 151 004b 2442427C 		.ascii	"$BB|\012\323\332\316\235\331Y]\363\247\313\314\275w"
 151      0AD3DACE 
 151      9DD9595D 
 151      F3A7CBCC 
 151      BD77
 152 005d CEFDCEB9 		.ascii	"\316\375\316\271\347|\337\275\303\200\301\306v\214\336"
 152      E77CDFBD 
 152      C380C1C6 
 152      768CDE
 153 006c 7E19E02B 		.ascii	"~\031\340+\215h\003d=\323\000W\034\214\311S\022\350"
 153      8D680364 
 153      3DD30057 
 153      1C8CC953 
 153      12E8
 154 007e 4E69720A 		.ascii	"Nir\012@/\220P6\3552\242\230\000B;\223dl\277\200\"\010"
 154      402F9050 
 154      36ED32A2 
 154      9800423B 
 154      93646CBF 
 155 0095 2B87015D 		.ascii	"+\207\001]\277\231z=\234\304;z\242\263__M\247\021U\244"
 155      BF997A3D 
 155      9CC43B7A 
 155      A2B35F5F 
 155      4DA71155 
 156 00aa 0D2B1038 		.ascii	"\015+\0208\302y\372@\2171097\003\3237\361s\352\306~"
 156      C279FA40 
 156      8F313039 
 156      3703D337 
 156      F173EAC6 
 157 00bf BD3FDEA3 		.ascii	"\275?\336\243\377!W\025%\006U;y\216\260D*\235\356\233"
 157      FF215715 
 157      2506553B 
 157      798EB044 
 157      2A9DEE9B 
 158 00d3 1DED7E8C 		.ascii	"\035\355~\214\303l/\002\271\311\030D\260Q\207v\360\341"
 158      C36C2F02 
 158      B9C91844 
 158      B0518776 
 158      F0E1
 159 00e5 00968383 		.ascii	"\000\226\203\203\314\262St\205dfE\324I\305\324\311n"
ARM GAS  /tmp/cc7G9W1x.s 			page 12


 159      CCB25374 
 159      85646645 
 159      D449C5D4 
 159      C96E
 160 00f7 020C1280 		.ascii	"\002\014\022\200\232\015:u\275\307c:XVn\324v\216zQr"
 160      9A0D3A75 
 160      BDC7633A 
 160      58566ED4 
 160      768E7A51 
 161 010c 1D32314A 		.ascii	"\03521J3\320\225z>\217>|@t\005\320~\031~\351W\365\022"
 161      33D0957A 
 161      3E8F3E7C 
 161      407405D0 
 161      7E197EE9 
 162 0123 156D1C0D 		.ascii	"\025m\034\015\0072\312\001\264\251\230\007\220\004f"
 162      0732CA01 
 162      B4A99807 
 162      900466
 163 0132 02CDC804 		.ascii	"\002\315\310\004\007x\003\257\276\275\370}M\312F\020"
 163      077803AF 
 163      BEBDF87D 
 163      4DCA4610 
 164 0142 A5E5D455 		.ascii	"\245\345\324U\207\022\020\357\322;\350\270\3361r\273"
 164      871210EF 
 164      D23BE8B8 
 164      DE3172BB 
 165 0152 C2423A32 		.ascii	"\302B:2`v\232@3\220g\332\001\262)\3309\262L\012v\202"
 165      60769A40 
 165      339067DA 
 165      01B229D8 
 165      39B24C0A 
 166 0168 0BAC232D 		.ascii	"\013\254#-h\311\0070\202=\333c\305r\032\020\333\216"
 166      68C90730 
 166      823DDB63 
 166      C5721A10 
 166      DB8E
 167 017a 71684FA7 		.ascii	"qhO\247\021\247\316\014\223\204\270\303\322,\365ai\254"
 167      11A7CE0C 
 167      9384B8C3 
 167      D22CF561 
 167      69AC
 168 018c 32476F27 		.ascii	"2Go'\023\254m\257\232\2609=4\231\206\370\322\334\313"
 168      13AC6DAF 
 168      9AB0393D 
 168      349986F8 
 168      D2DCCB
 169 019f 27DD5286 		.ascii	"'\335R\206}K\206\304\303\225\305\022\342\355\221\241"
 169      7D4B86C4 
 169      C395C512 
 169      E2ED91A1 
 170 01af 42C6B672 		.ascii	"B\306\266rk\302u \373\225\374A\371\231is\"\213\243L"
 170      6BC27520 
 170      FB95FC41 
 170      F9996973 
 170      228BA34C 
 171 01c3 AF28810E 		.ascii	"\257(\201\016&\302$\231h]2\217{\031\314\342}\275\367"
 171      26C22499 
ARM GAS  /tmp/cc7G9W1x.s 			page 13


 171      685D328F 
 171      7B19CCE2 
 171      7DBDF7
 172 01d6 A48AAE9C 		.ascii	"\244\212\256\234\355\327\326?f\326\013\314\004g\240"
 172      EDD7D63F 
 172      66D60BCC 
 172      0467A0
 173 01e5 577FFB69 		.ascii	"W\177\373i\237\305\224;KK!\027\232Z\364\332\002X\030"
 173      9FC5943B 
 173      4B4B2117 
 173      9A5AF4DA 
 173      025818
 174 01f8 C0A20016 		.ascii	"\300\242\000\026\253X\224#\365\240!\265[p\036\037\037"
 174      AB589423 
 174      F5A021B5 
 174      5B701E1F 
 174      1F
 175 0209 1F5BCE1C 		.ascii	"\037[\316\034\226\3030\244Ss\251X|\017\356R\032%\004"
 175      96C330A4 
 175      5373A958 
 175      7C0FEE52 
 175      1A2504
 176 021c 12E94846 		.ascii	"\022\351HF\320z\\\343\307\215F\036]\251/\363\366\177"
 176      D07A5CE3 
 176      C78D461E 
 176      5DA92FF3 
 176      F67F
 177 022e D4D9C5C5 		.ascii	"\324\331\305\30512\3220\334w\003IS\272Q\232\357\023"
 177      3132D230 
 177      DC770349 
 177      53BA519A 
 177      EF13
 178 0240 1BA4F1E1 		.ascii	"\033\244\361\341\020\262\377\321\006\266\325faYh3\236"
 178      10B2FFD1 
 178      06B6D566 
 178      61596833 
 178      9E
 179 0251 ABCD82AB 		.ascii	"\253\315\202\253,{\211\326DZ\\'\222\003\214\033\225"
 179      2C7B89D6 
 179      445A5C27 
 179      92038C1B 
 179      95
 180 0262 BF894E3E 		.ascii	"\277\211N>\034\245IvkK\027\037>\305\262\365\227B6\356"
 180      1CA54976 
 180      6B4B171F 
 180      3EC5B2F5 
 180      974236EE 
 181 0276 DF7BFA0B 		.ascii	"\337{\372\013\211\322\015\266\346\0003\004\262\325\331"
 181      89D20DB6 
 181      E6003304 
 181      B2D5D9
 182 0285 52E243EA 		.ascii	"R\342C\352\373\\ \356,\012\254\010sH\211E4%\242q\205"
 182      FB5C20EE 
 182      2C0AAC08 
 182      73488945 
 182      3425A271 
 183 029a 37AAF56A 		.ascii	"7\252\365j(\242\320\243E3\226\206\266f_P\345U\034\244"
ARM GAS  /tmp/cc7G9W1x.s 			page 14


 183      28A2D0A3 
 183      45339686 
 183      B6665F50 
 183      E5551CA4 
 184 02ae 4B91308B 		.ascii	"K\2210\213\206\217n\001\017\207\264hD9U\343\255\366"
 184      868F6E01 
 184      0F87B468 
 184      443955E3 
 184      ADF6
 185 02c0 B6D2120F 		.ascii	"\266\322\022\017i\376\213-'\202U\215`k\3615\305\374"
 185      69FE8B2D 
 185      2782558D 
 185      606BF135 
 185      C5FC
 186 02d2 C737F3F3 		.ascii	"\3077\363\363\267F\225jo\355\331ZEm\346M\261\006\277"
 186      B746956A 
 186      6FEDD95A 
 186      456DE64D 
 186      B106BF
 187 02e5 62F8F1E0 		.ascii	"b\370\361\340\231X3'\327\255r\313\242\033#m\021\302"
 187      99583327 
 187      D7AD72CB 
 187      A21B236D 
 187      11C2
 188 02f7 95786B6B 		.ascii	"\225xkk<\365\276\210?\254\251\225\236\203G\200i`\017"
 188      3CF5BE88 
 188      3FACA995 
 188      9E834780 
 188      69600F
 189 030a FA8321AD 		.ascii	"\372\203!\255\015\376\002\206\214Y7"
 189      0DFE0286 
 189      8C5937
 190              		.text
 191              		.section	.gnu.lto_chThdCreateFromMemoryPool.76350ab42d7220a5,"",%progbits
 192 0000 789C8D54 		.ascii	"x\234\215T]HTA\024>g\356\335]]\3776\355O\010Y\204\010"
 192      5D485441 
 192      143E67EE 
 192      DD5D5DFF 
 192      36ED4F08 
 193 0017 54DCA2A0 		.ascii	"T\334\242\240\327\302\010z\020B\023\352)\326qY/\270"
 193      D7C2087A 
 193      104213EA 
 193      29D67159 
 193      2FB8
 194 0029 2ABB6A4A 		.ascii	"*\273jJ\017\216\253A\221\210\004\201\025\202\"\021d"
 194      0F8EAB41 
 194      91880481 
 194      15822211 
 194      64
 195 003a 1008910F 		.ascii	"\020\010\221\017RF%i\250H\017\245\370\260R\260\204\017"
 195      52462569 
 195      A8480FA5 
 195      F8B052B0 
 195      840F
 196 004c A6126446 		.ascii	"\246\022dF\333\231\373\247\353o\227\335\271s\317|g\316"
 196      DB99FBA7 
 196      EB6F97DD 
ARM GAS  /tmp/cc7G9W1x.s 			page 15


 196      B973CF7C 
 196      67CE
 197 005e 37DFF9EE 		.ascii	"7\337\371\356e\300`\353u\232\376\227\035\000\013tG\007"
 197      65C060EB 
 197      759AFE97 
 197      1D000B74 
 197      4707
 198 0070 20EB9E02 		.ascii	" \353\236\002hKaL\235P@\270\225\261\011\000\221\256"
 198      684B614C 
 198      9D5040B8 
 198      95B10900 
 198      91AE
 199 0082 A06AC455 		.ascii	"\240j\304UD9\001\204V\246\250\330z\015\345&,\037\372"
 199      44390184 
 199      56A6A8D8 
 199      7A0DE526 
 199      2C1FFA
 200 0095 85B8177B 		.ascii	"\205\270\027{\037\037\307\007b\264\243O\374I$\0205\244"
 200      1F1FC707 
 200      62B4A34F 
 200      FC492410 
 200      35A4
 201 00a7 8205081C 		.ascii	"\202\005\010\034\341*=\240W\27715\231\201\221;\372z"
 201      E12A3DA0 
 201      57BF3135 
 201      9981913B 
 201      FA7A
 202 00b9 AA2B57F4 		.ascii	"\252+W\364E\273\305_J\325PaP\274_\346s6\032K$\346W\177"
 202      45BBC55F 
 202      4AD55061 
 202      50BC5FE6 
 202      73361A4B 
 203 00d1 7C9DC59C 		.ascii	"|\235\305\234\\\004\312R1\204\340\004?\366c>\270(\242"
 203      5C04CA52 
 203      3184E004 
 203      3FF6633E 
 203      B828A2
 204 00e4 A6D2E070 		.ascii	"\246\322\340p\313Y\206\234e\022\000\263h`\036\032\224"
 204      CB59869C 
 204      651200B3 
 204      68601E1A 
 204      94
 205 00f5 6C820E10 		.ascii	"l\202\016\020\224.\007t\010\321\3555R\215h\010\251\""
 205      942E0774 
 205      08D1ED35 
 205      528D6808 
 205      A922
 206 0107 D78F7885 		.ascii	"\327\217x\205Fy\362\012d\362\256LCGl0\216~|L\252\005"
 206      4679F20A 
 206      64F2AE4C 
 206      43476C30 
 206      8E7E7C4C 
 207 011d D179137E 		.ascii	"\321y\023~\213\333\302\243\241\223\243\236@AUC\027\300"
 207      8BDBC2A3 
 207      A193A39E 
 207      40415543 
 207      17C0
ARM GAS  /tmp/cc7G9W1x.s 			page 16


 208 012f 38300365 		.ascii	"80\003e\354LX\200\017\360.\376f\266K\261\323\345\361"
 208      EC4C5880 
 208      0FF02EFE 
 208      66B64BB1 
 208      D3E5F1
 209 0142 92CE5681 		.ascii	"\222\316V\201\012\220\366\312$\264\337m\217\367\026"
 209      0A90F6CA 
 209      24B4DF6D 
 209      8FF716
 210 0151 58489709 		.ascii	"XH\227\011f\027\0104\015N#\016`\327O\341\310\314\372"
 210      66170834 
 210      0D4E230E 
 210      60D74FE1 
 210      C8CCFA
 211 0164 4E824B6C 		.ascii	"N\202KljBj\343\006\230\204\350\334\360\322\214jm\226"
 211      6A426AE3 
 211      069884E8 
 211      DCF0D28C 
 211      6A6D96
 212 0177 5A08051A 		.ascii	"Z\010\005\032\246=\202\207mB\210^\202\246\023k\231\222"
 212      A63D8287 
 212      6D42885E 
 212      82A6136B 
 212      9992
 213 0189 A16F5169 		.ascii	"\241oQis\322i\254n\320p\353\273\247\356K\201\350\272"
 213      73D269AC 
 213      6ED070EB 
 213      BBA7EE4B 
 213      81E8BA
 214 019c 750A1506 		.ascii	"u\012\025\006\203q\210\246X-\217}Z~Y\224d\227L&\325"
 214      837188A6 
 214      582D8F7D 
 214      5A7E5994 
 214      64974C26 
 215 01b1 DEBBE932 		.ascii	"\336\273\3512\226\351\245\311\024D\227g\337\016u*f\343"
 215      96E9A5C9 
 215      14449767 
 215      DF0E752A 
 215      66E3
 216 01c3 AC0E8E3E 		.ascii	"\254\016\216>Y_\362\220\344\203z[\315\330\372\375\221"
 216      595FF290 
 216      E4837A5B 
 216      CDD8FAFD 
 216      91
 217 01d4 B463F6D3 		.ascii	"\264c\366\323\3707\005\300\240\315IgNm\346\372\021\310"
 217      F83705C0 
 217      A0CD4967 
 217      4E6DE6FA 
 217      11C8
 218 01e6 D7086314 		.ascii	"\327\010c\024\"\376\212\361\266\344\301g\354\025=\347"
 218      22FE8AF1 
 218      B6E4C167 
 218      EC153DE7 
 219 01f6 34CC4A2A 		.ascii	"4\314J*\277\261>g\256{,\251\242s_V\026\230%UF\222\310"
 219      BFB13E67 
 219      AE7B2CA9 
 219      A2735F56 
ARM GAS  /tmp/cc7G9W1x.s 			page 17


 219      16982555 
 220 020d 2DBB6B3C 		.ascii	"-\273k<\015=\242\332\312\312\266\325<\300\245c\254\206"
 220      0D3DA2DA 
 220      CACAB6D5 
 220      3CC0A563 
 220      AC86
 221 021f 66043133 		.ascii	"f\00413\210YA\244\225\354$s\015\350\346\312\326\011"
 221      885941A4 
 221      95EC2473 
 221      0DE8E6CA 
 221      D609
 222 0231 0CFF5A59 		.ascii	"\014\377ZY3\275Y\010O\251\254H\3230\207(P\331\203\004"
 222      33BD5908 
 222      4FA9AC48 
 222      D3308728 
 222      50D98304 
 223 0245 92E515B3 		.ascii	"\222\345\025\263<\332\262\036b\006\375\217=\253\333"
 223      3CDAB21E 
 223      6206FD8F 
 223      3DABDB
 224 0254 B361E76C 		.ascii	"\263a\347l\253\321\252\344\177+6\031wm\263\303a._\003"
 224      ABD1AAE4 
 224      7F2B3619 
 224      776DB3C3 
 224      612E5F03 
 225 0268 1DA5A71E 		.ascii	"\035\245\247\036\001\362\302\321\255^\370>\262\305\013"
 225      01F2C2D1 
 225      AD5EF83E 
 225      B2C50B
 226 0277 7E7C86EC 		.ascii	"~|\206\354\177\314\000{\232aqM\232\341U\262\031\026"
 226      7FCC007B 
 226      9A61714D 
 226      9AE155B2 
 226      1916
 227 0289 D3F2EC17 		.ascii	"\323\362\354\027\336\016\337\211orE\212\334\225\223"
 227      DE0EDF89 
 227      6F72458A 
 227      DC9593
 228 0298 C3B71BC3 		.ascii	"\303\267\033\303\217C4\261K[F\360\343\013\314\333\374"
 228      8F4334B1 
 228      4B5B46F0 
 228      E30BCCDB 
 228      FC
 229 02a9 02ABFA87 		.ascii	"\002\253\372\207b\206\276\232\362\350\272\314\263\200"
 229      6286BE9A 
 229      F2E8BACC 
 229      B380
 230 02b7 A6786CFE 		.ascii	"\246xl\376\247\224R\351\\O\227\037\027\224X\271\315"
 230      A79452E9 
 230      5C4F971F 
 230      179458B9 
 230      CD
 231 02c8 095F6324 		.ascii	"\011_c$\354\213\204\271\217Wk\225Z]\304G\277p\203\031"
 231      EC8B84B9 
 231      8F576B95 
 231      5A5DC447 
 231      BF708319 
ARM GAS  /tmp/cc7G9W1x.s 			page 18


 232 02dc A96AA9F5 		.ascii	"\251j\251\365\2074^\314A\271\021\251g\015\365\247v\201"
 232      87345ECC 
 232      41B911A9 
 232      670DF5A7 
 232      7681
 233 02ee D7D7851B 		.ascii	"\327\327\205\033\"\276\363e\245%\245\315\264\304\353"
 233      22BEF365 
 233      A525A5CD 
 233      B4C4EB
 234 02fd C281EB4D 		.ascii	"\302\201\353MgC\305\325\340h\362\3274\006\316\354\224"
 234      6743C5D5 
 234      E068F2D7 
 234      3406CEEC 
 234      94
 235 030e 17686EF0 		.ascii	"\027hn\360\225\224\226_*\367i\265\274\246\261*\340\323"
 235      9594965F 
 235      2AF769B5 
 235      BCA6B12A 
 235      E0D3
 236 0320 F378E862 		.ascii	"\363x\350bc-\247\324\335\270\331\350\352HK\204p\236"
 236      632DA7D4 
 236      DDB8D9E8 
 236      EA484B84 
 236      709E
 237 0332 D2F2326F 		.ascii	"\322\3622o\245?\022\250\017kE\336\343'\201\205\301\025"
 237      A53F12A8 
 237      0F6B45DE 
 237      E3278185 
 237      C115
 238 0344 0A84EAC2 		.ascii	"\012\204\352\302-\360\017\275\177\200\231"
 238      2DF00FBD 
 238      7F8099
 239              		.text
 240              		.section	.gnu.lto_.symbol_nodes.76350ab42d7220a5,"",%progbits
 241 0000 789C4DCA 		.ascii	"x\234M\3129\012\002A\024\204\341\252\356\236\375\000"
 241      390A0241 
 241      1484E1AA 
 241      EE9EFD00 
 242 0010 665EF50D 		.ascii	"f^\365\0154\250`\342\0054\361&\232\317\031\224\306\015"
 242      34A860E2 
 242      0534F126 
 242      9ACF1994 
 242      C60D
 243 0022 C52D1103 		.ascii	"\305-\021\003\305\236\005{^\362\363=JAa@\264\247\336"
 243      C59E057B 
 243      5EF2F33D 
 243      4A416140 
 243      B4A7DE
 244 0035 14605601 		.ascii	"\024`V\001\"\363\011\325\216\302\216\013\317=E\365x"
 244      22F309D5 
 244      8EC28E0B 
 244      CF3D45F5 
 244      78
 245 0046 A0E81E8F 		.ascii	"\240\350\036\217\024\023\310\013%jY\226\344\231\022"
 245      1413C80B 
 245      256A5996 
 245      E49912
ARM GAS  /tmp/cc7G9W1x.s 			page 19


 246 0055 073D2849 		.ascii	"\007=(I\320\235\222\006\335(Y\320\225\222\007=)\305"
 246      D09D9206 
 246      DD2859D0 
 246      9592073D 
 246      29C5
 247 0067 5F1A11DC 		.ascii	"_\032\021\334\366K\255b\330i\345\013\254\352\352\034"
 247      F64BAD62 
 247      D869E50B 
 247      ACEAEA1C 
 248 0077 76E3FF3A 		.ascii	"v\343\377:\203=\275\232\256\233\246X\216>C\255\023\330"
 248      833DBD9A 
 248      AE9BA658 
 248      8E3E43AD 
 248      13D8
 249 0089 B1AF29DA 		.ascii	"\261\257)\332\235\351v\276\256i\012W\357L\002\347w\370"
 249      9DE976BE 
 249      AE690A57 
 249      EF4C02E7 
 249      77F8
 250 009b 01FE8A56 		.ascii	"\001\376\212V\374"
 250      FC
 251              		.text
 252              		.section	.gnu.lto_.refs.76350ab42d7220a5,"",%progbits
 253 0000 789C6362 		.ascii	"x\234cb`b`d\200\002\000\000F\000\006"
 253      60626064 
 253      80020000 
 253      460006
 254              		.text
 255              		.section	.gnu.lto_.decls.76350ab42d7220a5,"",%progbits
 256 0000 789CBD5B 		.ascii	"x\234\275[{t\024U\232\257[\335I\247\223&\240\256\016"
 256      7B741455 
 256      9AAF5BDD 
 256      49A79326 
 256      A0AE0E
 257 0013 B83AB69E 		.ascii	"\270:\266\236q\3263\273\022\034\031\007g\367\014:\354"
 257      71D633BB 
 257      121C1907 
 257      67F70C3A 
 257      EC
 258 0024 3A78CEBA 		.ascii	":x\316\272\307\025=\263\347\314\356i\213N\221\356\245"
 258      C7153DB3 
 258      E7CCEE69 
 258      8B4E91EE 
 258      A5
 259 0035 5FD35D21 		.ascii	"_\323]!\260\377X\011\020\036#!\204g\226 \011\217\221"
 259      B0FF5809 
 259      101E2321 
 259      84679620 
 259      098F91
 260 0048 D7CA8202 		.ascii	"\327\312\202\002\202:4\314\220\360\214\204\307@|,A\203"
 260      823A34CC 
 260      90F08C84 
 260      C7407C2C 
 260      4183
 261 005a 18798C01 		.ascii	"\030y\214\001\005\302\253\367\273\267nuW\335\256\352"
 261      05C2ABF7 
 261      BBB76E75 
ARM GAS  /tmp/cc7G9W1x.s 			page 20


 261      57DDAEEA 
 262 006a AE6A66A6 		.ascii	"\256jf\246\016\267\272\036\367\373}\317\373\335\357"
 262      0EB7BA1E 
 262      F7FB7DCF 
 262      FBDDEF
 263 0079 DE0A3CC7 		.ascii	"\336\012<\307s/;8.\005\307\367\377\236\343~\346\342"
 263      732F3B38 
 263      2E05C7F7 
 263      FF9EE37E 
 263      E6E2
 264 008b B8628EE3 		.ascii	"\270b\216\343~\012\015\036s\210S\356\3338\345\360@["
 264      7E0A0D1E 
 264      738853EE 
 264      DB38E5F0 
 264      405B
 265 009d 03ED17F0 		.ascii	"\003\355\027\360\342?\240\371\241\275\005\355\020\264"
 265      E23FA0F9 
 265      A1BD05ED 
 265      10B4
 266 00ab 23D08E41 		.ascii	"#\320\216A\353\206v\032\332\227\320. .\353\300\364%"
 266      EB86761A 
 266      DA97D02E 
 266      202EEBC0 
 266      F425
 267 00bd D0AE422B 		.ascii	"\320\256B+\247\230\353\241\215\206\266\001Z?\320t\""
 267      A798EBA1 
 267      8D86B601 
 267      5A3FD074 
 267      22
 268 00ce 85FFE7D0 		.ascii	"\205\377\347\320NC\373W\270\347)-\346\345\204\337K\360"
 268      4E43FB57 
 268      B8E7292D 
 268      E6E584DF 
 268      4BF0
 269 00e0 FB32B46B 		.ascii	"\3732\264k\320\006\030>X>7\225\177\207\206\317uxp\023"
 269      D006183E 
 269      583E3795 
 269      7F8786CF 
 269      75787013 
 270 00f4 29BC3750 		.ascii	")\2747P\276\270\317\025\252'\246\273\215y\001\263\""
 270      BEB8CF15 
 270      AA27A6BB 
 270      8D7901B3 
 270      22
 271 0105 68E5D0EE 		.ascii	"h\345\320\356\342\025\336\277\204\347\177\305\353\371"
 271      E215DEBF 
 271      84E77FC5 
 271      EBF9
 272 0113 601B0CA1 		.ascii	"`\033\014\241\030\353\031\235vh\370a^\027\260\314\324"
 272      18EB199D 
 272      7668F861 
 272      5E17B0CC 
 272      D4
 273 0124 B66DF06C 		.ascii	"\266m\360l\031\264a\200\267\026\356\213\250\014\347"
 273      19B46180 
 273      B716EE8B 
 273      A80CE7
ARM GAS  /tmp/cc7G9W1x.s 			page 21


 274 0133 B1FE1ABD 		.ascii	"\261\376\032\275K(\017#\231\260\275\327PZ\001)\366\270"
 274      4B280F23 
 274      99B0BDD7 
 274      505A0129 
 274      F6B8
 275 0145 1F9EFF35 		.ascii	"\037\236\3775\264\007\0309\261\237\356\2456\326\332"
 275      B4071839 
 275      B19FEEA5 
 275      36D6DA
 276 0154 BC179E3F 		.ascii	"\274\027\236?\010}\373\340\367\273\274\342\347\317\220"
 276      087DFBE0 
 276      F7BBBCE2 
 276      E7CF90
 277 0163 5EF687E0 		.ascii	"^\366\207\340\371GH\221}\003\325\325\313+\366:\216\224"
 277      F9474891 
 277      7D03D5D5 
 277      CB2BF63A 
 277      8E94
 278 0175 7B2C7329 		.ascii	"{,s)\345\363%\365\277V\346n\032\033\252\354X\346Up\377"
 278      E5F325F5 
 278      BF56E66E 
 278      1A1BAAEC 
 278      58E65570 
 279 018a 1B686F42 		.ascii	"\033hoB[\013m=\343C\034W\303Ld\306\364\017\003\316E"
 279      5B0B6D3D 
 279      E3431C57 
 279      C34C64C6 
 279      F40F03CE 
 280 019f 46EE5F41 		.ascii	"F\356_A\333\014m\223M\035p\254\355D\212\0368\326J)\377"
 280      DB0C6D93 
 280      4D1D70AC 
 280      ED448A1E 
 280      38D64A29 
 281 01b4 0B1675E9 		.ascii	"\013\026u\351\200\373}\320\366C;\000\355\021\306\376"
 281      80FB7DD0 
 281      F6433B00 
 281      ED11C6FE 
 282 01c4 6E6EA62C 		.ascii	"nn\246,\327\311=\253\345\241K@\227\177C\002*w\203w\361"
 282      D7C93DAB 
 282      E5A14B40 
 282      977F4302 
 282      2A778377 
 283 01d9 85C74DC4 		.ascii	"\205\307M\304y\224[%\313\215=\323\017\334+;\005\324"
 283      79945B25 
 283      CB8D3DD3 
 283      0FDC2B3B 
 283      05D4
 284 01eb 86DC1074 		.ascii	"\206\334\020t\217\"\356\007\334Z\031\236\313\362\212"
 284      8F22EE07 
 284      DC5A199E 
 284      CBF28A
 285 01fa EF70D987 		.ascii	"\357p\331\207u\334\356ow9d\271D@\253\011\362x\0041\263"
 285      75DCEE6F 
 285      773964B9 
 285      4440AB09 
 285      F2780431 
 286 020f 0AFD80E2 		.ascii	"\012\375\200\342\010\010\271\265\270\344^\355\200\301"
ARM GAS  /tmp/cc7G9W1x.s 			page 22


 286      0808B9B5 
 286      B8E45EED 
 286      80C1
 287 021d C86B7A91 		.ascii	"\310kz\221\322;*o\337\207\2707\344dO\317\366\216O\205"
 287      D23B2A6F 
 287      DF87B837 
 287      E4644FCF 
 287      F68E4F85 
 288 0231 E6C6E434 		.ascii	"\346\306\34449\225z\215\273\217[\010j\311\255\365\262"
 288      39957A8D 
 288      BB8F5B08 
 288      6AC9ADF5 
 288      B2
 289 0242 8C2401FD 		.ascii	"\214$\001\375\364^Uv\257*\273\223\202\257E\367\221+"
 289      F45E5576 
 289      AF2ABB93 
 289      82AF45F7 
 289      912B
 290 0254 0719845C 		.ascii	"\007\031\204\\\0317\033k\014\204c\367\226\337\315\315"
 290      19371B6B 
 290      0C8463F7 
 290      96DFCDCD 
 291 0264 C328DEBD 		.ascii	"\303(\336\275\031\335[\235*\300?j\224\337\277\363'D"
 291      19DD5B9D 
 291      2AC03F6A 
 291      94DFBFF3 
 291      2744
 292 0276 F90DE86E 		.ascii	"\371\015\350n\200\331\205\364\332\347\205\341\301\261"
 292      80D985F4 
 292      DAE785E1 
 292      C1B1
 293 0284 98642390 		.ascii	"\230d#\220+\204\004X\356\351n\3303\025\325\202\016\312"
 293      2B840458 
 293      EEE96ED8 
 293      3315D582 
 293      0ECA
 294 0296 3B4E07AB 		.ascii	";N\007\253;\036\346ZA\356\344\342\206e\303\344\326\335"
 294      3B1EE65A 
 294      41EEE4E2 
 294      8665C3E4 
 294      D6DD
 295 02a8 D07F3D2A 		.ascii	"\320\177=*\003\334[i\\#\375\351\245r\320\016z\274\377"
 295      03DC5B69 
 295      5C23FDE9 
 295      A572D00E 
 295      7ABCFF
 296 02bb EEF4340A 		.ascii	"\356\3644\012*\3304\336.\230W\007\266\274\263\205\010"
 296      2AD834DE 
 296      2E985707 
 296      B6BCB385 
 296      08
 297 02cc 47A34AB1 		.ascii	"G\243J\2611g\010F\015\273\255\251\263\013M%\372o#q\265"
 297      31670846 
 297      0DBBADA9 
 297      B30B4D25 
 297      FA6F2371 
 298 02e1 97D79BD6 		.ascii	"\227\327\233\326:\324\364\246\373p\340\357 0\207\013"
ARM GAS  /tmp/cc7G9W1x.s 			page 23


 298      3AD4F4A6 
 298      FB70E0EF 
 298      2030870B 
 299 02f1 86E95EFD 		.ascii	"\206\351^\375\372\323\304\325\037\020\240n\236\015t"
 299      FAD3C4D5 
 299      1F10A06E 
 299      9E0D74
 300 0300 1713E82E 		.ascii	"\027\023\350.}\360\272\334\231\013<+\016\346\376\314"
 300      7DF0BADC 
 300      990B3C2B 
 300      0EE6FECC 
 301 0310 DD79AED7 		.ascii	"\335y\256\327\212\333J\314b@\3569\331p\320\321,'\247"
 301      8ADB4ACC 
 301      6240EE39 
 301      D970D0D1 
 301      2C27A7
 302 0323 39681CB7 		.ascii	"9h\034\267\026\233\331\210\347\316\021^\273\3318>q\342"
 302      169BD988 
 302      E7CE115E 
 302      BBD9383E 
 302      71E2
 303 0335 601D8DE3 		.ascii	"`\035\215\343\335\226\342x\313\376\305$T\362\016G^\345"
 303      DD96E278 
 303      CBFEC524 
 303      54F20E47 
 303      5EE5
 304 0347 FF3DC2BF 		.ascii	"\377=\302\277\315\201\371w\260\374\337[zE\035G\035\226"
 304      CD81F977 
 304      B0FCDF5B 
 304      7A451D47 
 304      1D96
 305 0359 F82F3FB2 		.ascii	"\370/?\262 \233\277i\036\241\261q\342\304\027\375\224"
 305      209BBF69 
 305      1EA1B171 
 305      E2C417FD 
 305      94
 306 036a CB013260 		.ascii	"\313\0012`N9\330\350\030]\246\367\037\334k:\360\334"
 306      4E39D8E8 
 306      185DA6F7 
 306      1FDC6B3A 
 306      F0DC
 307 037c 9769F90B 		.ascii	"\227i\371\013\032\257\240\350\301\005\250i\252\274w"
 307      1AAFA0E8 
 307      C105A869 
 307      AABC77
 308 038b 842AC339 		.ascii	"\204*\3039\333\210^\235%6\037!\031@\001\273h\005\314"
 308      DB885E9D 
 308      25361F21 
 308      194001BB 
 308      6805CC
 309 039e 3494EA92 		.ascii	"4\224\352\222\357h\301\372m\203\351%\333\252\005\373"
 309      EF68C1FA 
 309      6D83E925 
 309      DBAA05FB 
 310 03ae C60AD810 		.ascii	"\306\012\330\020s\311\336\325\202]\265\015\246\227l"
 310      73C9DED5 
 310      825DB50D 
ARM GAS  /tmp/cc7G9W1x.s 			page 24


 310      A6976C
 311 03bd 8716ECBA 		.ascii	"\207\026\354\272\025\260\241\346\222\275\257\005\273"
 311      15B0A1E6 
 311      92BDAF05 
 311      BB
 312 03ca 6D1B4C2F 		.ascii	"m\033L/\331o\265`uN\013`^\003\311\322\207\331\244\332"
 312      D96FB560 
 312      754E0B60 
 312      5E03C9D2 
 312      87D9A4DA 
 313 03de 8ED271CE 		.ascii	"\216\322q\316s\323\235jN\260\031\323\\\006c\226\323"
 313      73D39D6A 
 313      4EB019D3 
 313      5C066396 
 313      D3
 314 03ef 6E0ED3E9 		.ascii	"n\016\323\351\015\023\351\241\225h\2762.\224\311l\256"
 314      0D13E9A1 
 314      9568BE32 
 314      2E94C96C 
 314      AE
 315 0400 15C41C01 		.ascii	"\025\304\034\001\263U;3.\266\015\246w\3131\014\246\313"
 315      B3553B33 
 315      2EB60DA6 
 315      77CB310C 
 315      A6CB
 316 0412 35E9CA2B 		.ascii	"5\351\312+\231\273\362\302\245\033\257)\323\206\032"
 316      99BBF2C2 
 316      A51BAF29 
 316      D3861A
 317 0421 F715D097 		.ascii	"\367\025\320\227\350Q8\367\321:\014\277\352K\027R}\264"
 317      E85138F7 
 317      D13A0CBF 
 317      EA4B1752 
 317      7DB4
 318 0433 92E2B9E5 		.ascii	"\222\342\271\345N\203\025\225\342\323\334\244f\221\360"
 318      4E831595 
 318      E2D3DCA4 
 318      6691F0
 319 0442 85361256 		.ascii	"\2056\022VY1S\216\241p\243\263\345;rO\022Y/K\267\035"
 319      5931538E 
 319      A170A3B3 
 319      E53B724F 
 319      12592F4B 
 320 0458 39A81610 		.ascii	"9\250\026\020\027\310\204\275\336\311\246\3446\233\245"
 320      17C884BD 
 320      DEC9A6E4 
 320      369BA5
 321 0467 29CFBDC3 		.ascii	")\317\275\303\252\241\343\234w\020\366tw\366\316G\227"
 321      AAA1E39C 
 321      7710F674 
 321      77F6CE47 
 321      97
 322 0478 EBE42523 		.ascii	"\353\344%#l(\322\224V\344\022Q\344\375?\201\"\277\267"
 322      6C28D294 
 322      56E41251 
 322      E4FD3F81 
 322      22BFB7
ARM GAS  /tmp/cc7G9W1x.s 			page 25


 323 048b ADC863CC 		.ascii	"\255\310c\314\250:[\200\"\207TE\256\022E\016\376\011"
 323      A83A5B80 
 323      22875445 
 323      AE12450E 
 323      FE09
 324 049d 1439665B 		.ascii	"\0249f[\221\021\032E\240\316\356\374f\201\222\036\356"
 324      91111A45 
 324      A0CEEEFC 
 324      6681921E 
 324      EE
 325 04ae E19A72D7 		.ascii	"\341\232r\3278X\236\233\350\036]}\221\374\366C\344U"
 325      38589E9B 
 325      E81E5D7D 
 325      91FCF643 
 325      E455
 326 04c0 1EE72B2D 		.ascii	"\036\347+-\344\344\374#\232*X\266T\005\037IW\301)b\262"
 326      E4E4FC23 
 326      9A2A58B6 
 326      54051F49 
 326      57C12962 
 327 04d5 8F9D06E5 		.ascii	"\217\235\006\345\253%\2503\037\222\345_\035\217aN\027"
 327      AB25A833 
 327      1F92E55F 
 327      1D8F614E 
 327      17
 328 04e6 0CD37DEB 		.ascii	"\014\323}\353w\312jo:\001\352\313ra1\343\301b\275\007"
 328      77CA6A6F 
 328      3A01EACB 
 328      726131E3 
 328      C162BD07 
 329 04fa E11673BA 		.ascii	"\341\026s\272\206kT\364\032}\202o\\\334_\234\216\347"
 329      866B54F4 
 329      1A7D826F 
 329      5CDC5F9C 
 329      8EE7
 330 050c 2E13F1B1 		.ascii	".\023\361\261\367\012)\272\360*\355\340\002urQ\034t"
 330      F70A29BA 
 330      F02AEDE0 
 330      02757251 
 330      1C74
 331 051e FD8E10EB 		.ascii	"\375\216\020\353\222;\233\324e\334h<\275L-\2723\270"
 331      923B9BD4 
 331      65DC683C 
 331      BD4C2DBA 
 331      33B8
 332 0530 4F8EB0D3 		.ascii	"O\216\260\323\013S\327n0I\311\252\273g\267\357Bu$\000"
 332      0B53D76E 
 332      3049C9AA 
 332      BB67B7EF 
 332      42752400 
 333 0544 E7F258A0 		.ascii	"\347\362X\240\331E\254\303\327#\246\262\305\0174]\314"
 333      D945ACC3 
 333      D723A6B2 
 333      C50F345D 
 333      CC
 334 0555 865203AF 		.ascii	"\206R\003\257\231\037\226\335\231\236\340\210S\253\024"
 334      991F96DD 
ARM GAS  /tmp/cc7G9W1x.s 			page 26


 334      999EE088 
 334      53AB14
 335 0564 47E45B37 		.ascii	"G\344[7\274\252\242y\010\343\225\204\361B\236Y6t\235"
 335      BCAAA279 
 335      08E39584 
 335      F1429E59 
 335      36749D
 336 0577 EBA9A77A 		.ascii	"\353\251\247z\343w\371\307\366\307g\334r\223\307\200"
 336      E377F9C7 
 336      F6C767DC 
 336      7293C780 
 337 0587 DF33DA1A 		.ascii	"\3373\332\032%m\325c\363\3204\202\336\314\343}\203\223"
 337      256DD563 
 337      F3D03482 
 337      DECCE37D 
 337      8393
 338 0599 8C55D5F5 		.ascii	"\214U\325\365\3263f@\260^ $-\254\340\335\235W\325\365"
 338      D6336640 
 338      B05E2024 
 338      2DACE0DD 
 338      9D57D5F5 
 339 05ad 568B05C1 		.ascii	"V\213\005\301\353\222\375\277\326\356\033\010\350m\304"
 339      EB92FDBF 
 339      D6EE1B08 
 339      E86DC4
 340 05bc 53DCC222 		.ascii	"S\334\302\"\356\322\201tu$\240-\266\301\274F\242\252"
 340      EED28174 
 340      7524A02D 
 340      B6C1BC46 
 340      A2AA
 341 05ce 9195D156 		.ascii	"\221\225\321V@o\360\270\252Y\316?\014\347V8\247\017"
 341      406FF0B8 
 341      AA59CE3F 
 341      0CE75638 
 341      A70F
 342 05e0 9E1B48FB 		.ascii	"\236\033H\373\324\310t\371Gu\327\271k\213\224`\262\223"
 342      D4C874F9 
 342      4775D7B9 
 342      6B8B9460 
 342      B293
 343 05f2 A98FA999 		.ascii	"\251\217\251\231z%\311\214\265\305\354@\301\251W\247"
 343      7A25C98C 
 343      B5C5EC40 
 343      C1A957A7 
 344 0602 8EAD5435 		.ascii	"\216\255T5\243\230Q\312\352\002,}\230\015\304\005\332"
 344      A39851CA 
 344      EA022C7D 
 344      980DC405 
 344      DA
 345 0613 8138A7F8 		.ascii	"\2018\247\370\016\007b\347Y\213\003QF\332\362\230\347"
 345      0E0762E7 
 345      598B0351 
 345      46DAF298 
 345      E7
 346 0624 1610CEEB 		.ascii	"\026\020\316\353\330\200\276qi\357\014\032\320\353,"
 346      D880BE71 
 346      69EF0C1A 
ARM GAS  /tmp/cc7G9W1x.s 			page 27


 346      D0EB2C
 347 0633 8DC46FC9 		.ascii	"\215\304o\311HTG\326\2364j!\261P\227\034\350\333\207"
 347      485447D6 
 347      9E346A21 
 347      B150971C 
 347      E8DB87
 348 0646 089C52EE 		.ascii	"\010\234R\356\037b\341l.\203o\212v\015\243\304W\262"
 348      1F62E16C 
 348      2E836F8A 
 348      760DA3C4 
 348      57B2
 349 0658 FB0CAE33 		.ascii	"\373\014\2563\336&:\035\317\012-\3052\232\320Z\247\031"
 349      DE263A1D 
 349      CF0A2DC5 
 349      329AD05A 
 349      A719
 350 066a 291BC848 		.ascii	")\033\310H\371\0372R6\222\363&\355x1\013\213\315\332"
 350      F91F3252 
 350      3692F326 
 350      ED78310B 
 350      8BCDDA
 351 067d B0F8D4B6 		.ascii	"\260\370\324\266\336^\213\321\267V\313\246\367\016\243"
 351      DE5E8BD1 
 351      B756CBA6 
 351      F70EA3
 352 068c EF64E71F 		.ascii	"\357d\347\037\235d\303\312\306F\343\221\017\325\201"
 352      9D64C3CA 
 352      C646E391 
 352      0FD581
 353 069b BB9D0CDC 		.ascii	"\273\235\014\334sY\326\335\301V\245V\366\336\256\026"
 353      7359D6DD 
 353      C156A556 
 353      F6DEAE16 
 354 06ab AA4AFA80 		.ascii	"\252J\372\2005\177\261\205U\223\327\314\034\270<\271"
 354      357FB185 
 354      5593D7CC 
 354      1CB83CB9 
 355 06bb 4ACB93BC 		.ascii	"J\313\223\274\033x\351\375\354\203\265tf\332Ib\255\316"
 355      1B78E9FD 
 355      EC83B574 
 355      66DA4962 
 355      ADCE
 356 06cd 653C33E5 		.ascii	"e<3\345\330\011\234GHvg\315L\015\337\244w\002-\315L"
 356      D8099C47 
 356      487667CD 
 356      4C0DDFA4 
 356      77022DCD 
 357 06e2 470D67A6 		.ascii	"G\015g\246\335\366g&\243C+\240\200~O\206\310\036\375"
 357      DDF66726 
 357      A3432BA0 
 357      807E4F86 
 357      C81EFD
 358 06f5 34D2E6B2 		.ascii	"4\322\346\262k}\257\326\372\311\201\243-H\221_IE\353"
 358      6B7DAFD6 
 358      FAC981A3 
 358      2D48915F 
 358      4945EB
ARM GAS  /tmp/cc7G9W1x.s 			page 28


 359 0708 593CA354 		.ascii	"Y<\243T\364\230\2517\223\215\177 3\253Rgn\265\"\334"
 359      F498A937 
 359      938D7F20 
 359      33AB5267 
 359      6EB522DC 
 360 071c 0833B0BA 		.ascii	"\0103\260\272d\213\002\246\204\374\373\266\301\274:"
 360      648B02A6 
 360      84FCFBB6 
 360      C1BC3A
 361 072b B0F716A9 		.ascii	"\260\367\026\251\236ZK\212\304\016+x\243\314\205;\372"
 361      9E5A4B8A 
 361      C40E2B78 
 361      A3CC853B 
 361      FA
 362 073c 87168AA7 		.ascii	"\207\026\212\247\354\375w\331\306\323\313\327\277HW"
 362      ECFD77D9 
 362      C6D3CBD7 
 362      BF4857
 363 074b 547F6205 		.ascii	"T\177b\005\356\031\313\201\224\371v\003\231\225\354"
 363      EE19CB81 
 363      94F97603 
 363      9995EC
 364 075a B56C4638 		.ascii	"\265lF8\313\276C\316[\311y\0279\237&\347\317\311\371"
 364      CBBE43CE 
 364      5BC97917 
 364      399F26E7 
 364      CFC9F9
 365 076d 0C399F27 		.ascii	"\0149\237'\347~r\276B\3167\310\371\267$Ow\220\363>r"
 365      E77E72BE 
 365      42CE37C8 
 365      F9B7244F 
 365      7790F33E 
 366 0782 3E40CE87 		.ascii	">@\316\207\310\371Cr\356\262\222\305\231b\\@\25784!"
 366      C8F94372 
 366      EEB292C5 
 366      99625C40 
 366      AF383421 
 367 0796 DECB8CEE 		.ascii	"\336\313\214\356\357q+e\271\011\177P\353\302yc\254:"
 367      EF712B65 
 367      B9097F50 
 367      EBC27963 
 367      AC3A
 368 07a8 ED5D23FD 		.ascii	"\355]#\375\326\240\207\014\371\244\327\000\337\347V"
 368      D6A0870C 
 368      F9A4D700 
 368      DFE756
 369 07b7 E36DA939 		.ascii	"\343m\2519\362\364!\210l\231s\224Jg\257\243\274\356"
 369      F2F42188 
 369      6C997394 
 369      4A67AFA3 
 369      BCEE
 370 07c9 1B26FE88 		.ascii	"\033&\376\210\327\332\223"
 370      D7DA93
 371 07d0 6C6E9F03 		.ascii	"ln\237\003>\252K\246R\243\331ox\030\335L\277\223\274"
 371      3EAA4BA6 
 371      52A3D96F 
 371      7818DD4C 
ARM GAS  /tmp/cc7G9W1x.s 			page 29


 371      BF93BC
 372 07e3 EE239EAA 		.ascii	"\356#\236\252\260N\313\033\206Z\312\363\305\261j\367"
 372      B04ECB1B 
 372      865ACAF3 
 372      C5B16AF7 
 373 07f3 E33C4E2D 		.ascii	"\343<N-'x+\372\325\311\333z_\034\253>3\247\242\002~"
 373      27782BFA 
 373      D5C9DB7A 
 373      5F1CAB3E 
 373      33A7A202 
 374 0808 64A8EDD5 		.ascii	"d\250\355\325\372\003PV\3107S\251\251%6>Y\376\237\005"
 374      FA035056 
 374      C83753A9 
 374      A925363E 
 374      59FE9F05 
 375 081c 6D679418 		.ascii	"mg\224\030j{\243\222\321\366SK\332\312\21471\225\316"
 375      6A7BA392 
 375      D1F6534B 
 375      DACA8C37 
 375      3195CE
 376 082f 9B3D86FA 		.ascii	"\233=\206\372\365\357/\310\233\275|\376O\2623?\317l"
 376      F5EF2FC8 
 376      9BBD7CFE 
 376      4FB2333F 
 376      CF6C
 377 0841 3ACAE98F 		.ascii	":\312\351\217@^.3\207\2558\335Ag\364\263$\361~Pb8\207"
 377      405E2E33 
 377      87AD38DD 
 377      4167F4B3 
 377      24F17E50 
 378 0858 E540E2B9 		.ascii	"\345@\342\271\003\204\346+f\022K\356\254\367\340]\224"
 378      0384E62B 
 378      66124BEE 
 378      ACF7E05D 
 378      94
 379 0869 AF2C4D60 		.ascii	"\257,M`]\355-\331\237\222\030k\21467\306\037\365\306"
 379      5DED2DD9 
 379      9F92186B 
 379      8C3637C6 
 379      1FF5C6
 380 087c B05ED29C 		.ascii	"\260^\322\234\372\315\351\237l\224\345!\220XHz\237\351"
 380      FACDE99F 
 380      6C94E521 
 380      9058487A 
 380      9FE9
 381 088e 662B9A22 		.ascii	"f+\232\"\246\240)\322\0274E\356\314\005-htA\226\203"
 381      A6A029D2 
 381      173445EE 
 381      CC052D68 
 381      74419683 
 382 08a2 F7CE75FD 		.ascii	"\367\316u\375\213\350\302\371\"\231\013\336c\2303\373"
 382      8BE8C2F9 
 382      22990BDE 
 382      639833FB 
 383 08b2 0F584933 		.ascii	"\017XI3\003\\\341\313Ll\234\365\216\347\366\272U\207"
 383      035CE1CB 
 383      4C6C9CF5 
ARM GAS  /tmp/cc7G9W1x.s 			page 30


 383      8EE7F6BA 
 383      5587
 384 08c4 15523A42 		.ascii	"\025R:By\262\242\353\376\355\357\310\362\246W\351F`"
 384      79B2A2EB 
 384      FEEDEFC8 
 384      F2A657E9 
 384      4660
 385 08d6 B2581B1F 		.ascii	"\262X\033\037\314\352\373(\3416\3003\273\201\363\333"
 385      CCEAFB28 
 385      E136C033 
 385      BB81F3DB 
 386 08e6 1D5EE571 		.ascii	"\035^\345q\376\350XX?\367~\271\365\365\241\324\257\311"
 386      FEE85858 
 386      3FF77EB9 
 386      F5F5A1D4 
 386      AFC9
 387 08f8 7A7926AA 		.ascii	"zy&\252\335\364@\316\215\203\023'.\266Q\353\336\"\256"
 387      DDF440CE 
 387      8D831327 
 387      2EB651EB 
 387      DE22AE
 388 090b 3DC558D7 		.ascii	"=\305X\327\016\330\236\371\344\273\270\354\300@_\335"
 388      0ED89EF9 
 388      E4BBB8EC 
 388      C0405FDD 
 389 091b 0150F785 		.ascii	"\001P\367\2059\312\227\361\251\004\352rV\270\271\231"
 389      39CA97F1 
 389      A904EA72 
 389      56B8B999 
 390 092b 7073EBC3 		.ascii	"ps\353\303\315\355\316\\\244\324\203\375S\220?#\015"
 390      CDEDCE5C 
 390      A4D483FD 
 390      53903F23 
 390      0D
 391 093c 14DA6977 		.ascii	"\024\332iw\026\262J\304\301\263o\030\014\353L\235m\272"
 391      16B24AC4 
 391      C1B36F18 
 391      0CEB4C9D 
 391      6DBA
 392 094e 7183C59A 		.ascii	"q\203\305\232\351`\262\312\342v\274\270\303\217\363"
 392      E960B2CA 
 392      E276BCB8 
 392      C38FF3
 393 095d 2F6F97B7 		.ascii	"/o\227\267\343\231\303ci\267\372\327\016&>\233\333y"
 393      E399C363 
 393      69B7FAD7 
 393      0E263E9B 
 393      DB79
 394 096f AFF2387F 		.ascii	"\257\3628\177|.\255_f\364!\\c\244,~\015\016\315ZnZ)"
 394      7C2EAD5F 
 394      66F4215C 
 394      63A42C7E 
 394      0D0ECD5A 
 395 0986 A22214B4 		.ascii	"\242\"\024\264\226K\266\264\223\012\365\013\222Ef\025"
 395      964BB6B4 
 395      930AF50B 
 395      92456615 
ARM GAS  /tmp/cc7G9W1x.s 			page 31


 396 0996 0A963E78 		.ascii	"\012\226>x\256\201``+\027&\320\246v\265*U\322j\243m"
 396      AE816060 
 396      2B1726D0 
 396      A676B52A 
 396      55D26AA3 
 397 09ab 3C6F964C 		.ascii	"<o\226L\013K\013\014<\015\306\342R&\363\031a\230\377"
 397      0B4B0B0C 
 397      3C0DC6E2 
 397      5226F319 
 397      6198FF
 398 09be 9547F2E4 		.ascii	"\225G\362\344s\330\316\312\326\302\033,\226~3Bsi\255"
 398      73D8CECA 
 398      D6C21B2C 
 398      967E3342 
 398      7369AD
 399 09d1 36FE4AB3 		.ascii	"6\376J\263\310:O\026Y\027H\355z\215\234\027;,T\260_"
 399      C83A4F16 
 399      591748ED 
 399      7A8D9C17 
 399      3B2C54B0 
 400 09e6 643608D2 		.ascii	"d6\010\322eO\277\262\225\226\276\337\206\264\367\271"
 400      654FBFB2 
 400      9596BEDF 
 400      86B4F7B9 
 401 09f6 E6DB1CC5 		.ascii	"\346\333\034\305\3252\007S\\\215fj\253\034\323^\363"
 401      D5320753 
 401      5C8D666A 
 401      AB1CD35E 
 401      F3
 402 0a07 DBA7D5FD 		.ascii	"\333\247\325\375\342\026\007\016\330\303\2459\247=\314"
 402      E216070E 
 402      D8C3A539 
 402      A73DCC
 403 0a16 CB4C8E36 		.ascii	"\313L\2166\207\371\264\227\375N+-\227U\340\237,5.\360"
 403      87F9B497 
 403      FD4E2B2D 
 403      9755E09F 
 403      2C352EF0 
 404 0a2a 677CF219 		.ascii	"g|\362\031ZH\012|e|\235'\375>7-\011\211\023h%9\200\353"
 404      5A480A7C 
 404      657C9D27 
 404      FD3E372D 
 404      09891368 
 405 0a42 66EC0101 		.ascii	"f\354\001\001-p\3609\311\210\237\024\262\344\345\375"
 405      2D70F039 
 405      C9889F14 
 405      B2E4E5FD 
 406 0a52 6FC2F0E1 		.ascii	"o\302\360\341\3255\335\245<\034\211K)\307\2171G\305"
 406      D535DDA5 
 406      3C1C894B 
 406      29C78F31 
 406      47C5
 407 0a64 AE57F390 		.ascii	"\256W\363\220\341^*Y\012\223\221\025\337\365<T\2435"
 407      E15E2A59 
 407      0A939115 
 407      DFF53C54 
 407      A335
ARM GAS  /tmp/cc7G9W1x.s 			page 32


 408 0a76 E53DA95D 		.ascii	"\345=\251]gcA\325\012\337\214\216\372d\245\303\250\002"
 408      676341D5 
 408      0ADF8C8E 
 408      FA64A5C3 
 408      A802
 409 0a88 7EB7D3D3 		.ascii	"~\267\323\323X\333\223J=d\243\374\335\350\260\365\027"
 409      58DB934A 
 409      3D64A3FC 
 409      DDE8B0F5 
 409      17
 410 0a99 89AFAAF4 		.ascii	"\211\257\252\364\236L \336\332\326?T\251}7;\310\246"
 410      9E4C20DE 
 410      DAD63F54 
 410      A97D373B 
 410      C8A6
 411 0aab 4359DEBF 		.ascii	"CY\336\277H\324\301`1\266\260\363\323\274vR\365n\261"
 411      48D4C160 
 411      31B6B0F3 
 411      D3BC7652 
 411      F56EB1
 412 0abe 3041D525 		.ascii	"0A\325%\347\033\315\033\026\266\215\266\023I\267\263"
 412      E71BCD1B 
 412      16B68DB6 
 412      1349B7B3 
 413 0ace BCFB05AF 		.ascii	"\274\373\005\257\3624?\347\313\352^\355\273$T\366\244"
 413      F2343FE7 
 413      CBEA5EED 
 413      BB2454F6 
 413      A4
 414 0adf 010B9D33 		.ascii	"\001\013\2353\314\374\364\256v\236;D\330l)xZY\310L+"
 414      CCFCF4AE 
 414      769E3B44 
 414      D86C2978 
 414      5A59C84C 
 415 0af4 C76DE379 		.ascii	"\307m\343yuxK\224yS\251\276{\255\200\345\374j\2409\264"
 415      75784B94 
 415      7953A9BE 
 415      7BAD80E5 
 415      FC6AA039 
 416 0b09 9121A0AD 		.ascii	"\221!\240\255\016\234\316\2679p\"\337I\316\273\254\244"
 416      0E9CCEB7 
 416      397022DF 
 416      49CEBBAC 
 416      A4
 417 0b1a F34D8EEC 		.ascii	"\363M\216\354t\256O\337t\020\347Km_\227\231\244\266"
 417      74AE4FDF 
 417      7410E74B 
 417      6D5F9799 
 417      A4B6
 418 0b2c CEDFA145 		.ascii	"\316\337\241E$\265m\"a0\333\203\373\275\3450\033\373"
 418      24B56D22 
 418      6130DB83 
 418      FBBDE530 
 418      1BFB
 419 0b3e 9B341903 		.ascii	"\2334\031\003\002\275\021)\362\010h\015In\346\204\232"
 419      02BD1129 
 419      F208680D 
ARM GAS  /tmp/cc7G9W1x.s 			page 33


 419      496EE684 
 419      9A
 420 0b4f 0C957CAF 		.ascii	"\014\225|\257\363-%\271\265\220\004\275.\017\2516K\235"
 420      F32D25B9 
 420      B59004BD 
 420      2E0FA936 
 420      4B9D
 421 0b61 A2594A40 		.ascii	"\242YJ@\033\362P\351\262\324\366N&K\231\321Q\273\267"
 421      1BF250E9 
 421      B2D4F64E 
 421      264B99D1 
 421      51BBB7
 422 0b74 6767A91E 		.ascii	"gg\251\036\234.\366}w\311fy\332,\371v\3525d}\256\354"
 422      9C2EF67D 
 422      77C96679 
 422      DA2CF976 
 422      EA35647D 
 423 0b8a 64E74A6C 		.ascii	"d\347Jl\305\334\376\232\343\321\373K\025\254\313P\260"
 423      C5DCFE9A 
 423      E3D1FB4B 
 423      15ACCB50 
 423      B0
 424 0b9b 932B763D 		.ascii	"\223+v=\330,\357V\376\246[\231/yn\211\011\304Qc\210"
 424      D82CEF56 
 424      FEA65B99 
 424      2F796E89 
 424      09C45163 
 425 0bb0 861343D3 		.ascii	"\206\023C\323\020\326U;\316\252\206\015\234\276I)\241"
 425      10D6553B 
 425      CEAA860D 
 425      9CBE4929 
 425      A1
 426 0bc1 CAE8B6D2 		.ascii	"\312\350\266\322D\260\223\206\2025\277=\360\33023\243"
 426      44B09386 
 426      8235BF3D 
 426      F0D83233 
 426      A3
 427 0bd2 E79A1F3E 		.ascii	"\347\232\037>2\250P,\326D\026\007\325\377\232(\322c"
 427      32A8502C 
 427      D6441607 
 427      D5FF9A28 
 427      D263
 428 0be4 A44872E9 		.ascii	"\244Hr\351\354\327\207\311m\206\273<9\014\374Y\216Y"
 428      ECD787C9 
 428      6D86BB3C 
 428      390CFC59 
 428      8E59
 429 0bf6 4EF91320 		.ascii	"N\371\023 3\312^\203\334\321\313\250\325f\350\240\017"
 429      33CA5E83 
 429      DCD1CBA8 
 429      D566E8A0 
 429      0F
 430 0c07 4CF43A6B 		.ascii	"L\364:k\350\240\356\025\003\0174\2339(\307\216M\037"
 430      E8A0EE15 
 430      030F349B 
 430      3928C78E 
 430      4D1F
ARM GAS  /tmp/cc7G9W1x.s 			page 34


 431 0c19 EB1F5C36 		.ascii	"\353\037\\6\261\016b$;d\"\331yC\311nn\033x\320,\246"
 431      B10E6224 
 431      3B6422D9 
 431      7943C96E 
 431      6E1B78D0 
 432 0c2f 730876D1 		.ascii	"s\010v\321h\2702\202t\233\010\362\265^\020\306]\235"
 432      68B83282 
 432      749B08F2 
 432      B55E10C6 
 432      5D9D
 433 0c41 390AD9FE 		.ascii	"9\012\331\376\214\273\036\341\332\344\303\207{\266w"
 433      8CBB1EE1 
 433      DAE4C387 
 433      7BB677
 434 0c50 9C7AA2B6 		.ascii	"\234z\242\2661Y\333\212w>\021\272\213k$\305\310\022"
 434      3159DB8A 
 434      773E11BA 
 434      8B6B24C5 
 434      C812
 435 0c62 003A9BF1 		.ascii	"\000:\233\361{@\005\032Dh\265\275\372L{\011\350\033"
 435      7B40051A 
 435      4468B5BD 
 435      FA4C7B09 
 435      E81B
 436 0c74 C75DE44A 		.ascii	"\307]\344J\367\321\236\3640\023\360[G\346\017\033=\356"
 436      F7D19EF4 
 436      3013F05B 
 436      47E60F1B 
 436      3DEE
 437 0c86 CC854767 		.ascii	"\314\205Gg\000\265\027\330\350\014\261\221f\347\224"
 437      00B517D8 
 437      E80CB191 
 437      66E794
 438 0c95 1182E72E 		.ascii	"\021\202\347.z\020%\203\222\0238.\307\037o\217w\324"
 438      7A102583 
 438      9213382E 
 438      C71F6F8F 
 438      77D4
 439 0ca7 B5E215BE 		.ascii	"\265\342\025\276\321\216\270\322\245Q\236\316\033\277"
 439      D18EB8D2 
 439      A5519ECE 
 439      1BBF
 440 0cb5 A7DAB73E 		.ascii	"\247\332\267>\303\250?D\345\314S~\327m\253\177\303D"
 440      C3A83F44 
 440      E5CC537E 
 440      D76DAB7F 
 440      C344
 441 0cc7 7DA467CD 		.ascii	"}\244g\315\032~\224\332\317Eqn\332\346|\313\204s1\345"
 441      1A7E94DA 
 441      CF45716E 
 441      DAE67CCB 
 441      847331E5 
 442 0cdb 4CFE63CF 		.ascii	"L\376c\317\327=\003g\273~\271a\263,\223qX;\315\306\374"
 442      D73D0367 
 442      BB7EB961 
 442      B32C9371 
 442      583BCDC6 
ARM GAS  /tmp/cc7G9W1x.s 			page 35


 443 0cf0 94A2019F 		.ascii	"\224\242\001\237\211q\236[5\210\015p\272\303-\257\221"
 443      89719E5B 
 443      35880D70 
 443      BAC32DAF 
 443      91
 444 0d01 1D69E3DF 		.ascii	"\035i\343\337v0\033\334\2623k \202h;\226\336.\306_\232"
 444      76301BDC 
 444      B2336B20 
 444      82683B96 
 444      DE2EC65F 
 445 0d16 F1407C58 		.ascii	"\361@|X\341\307soY\342P\347d8L5\344\320\177n\327\353"
 445      E1C7736F 
 445      59E250E7 
 445      64384C35 
 445      E4D07F6E 
 446 0d2c 68DEC67A 		.ascii	"h\336\306z\031/#^[\236ltZW\277\336\311\214\367\035\244"
 446      192F235E 
 446      5B9E6C74 
 446      5A57BFDE 
 446      C98CF71D 
 447 0d41 A2D18DF7 		.ascii	"\242\321\215\367\013:aIO\236\2731\210:\237\026']JA\244"
 447      0B3A6149 
 447      4F9EBB31 
 447      883A9F16 
 447      275D4A41 
 448 0d56 FCDF9959 		.ascii	"\374\337\231Y\345\230b\272\323\254>\241\337\311\251"
 448      E59862BA 
 448      D3AC3EA1 
 448      DFC9A9
 449 0d65 CE976B5F 		.ascii	"\316\227k_\034\232\326y:\253\363LC\235\007\316\366\377"
 449      1C9AD679 
 449      3AABF34C 
 449      439D07CE 
 449      F6FF
 450 0d77 BBD6E1AA 		.ascii	"\273\326\341\252a\347\226[1l\003\313d\256\211\353\016"
 450      61E7965B 
 450      316C03CB 
 450      64AE89EB 
 450      0E
 451 0d88 B9B25CB7 		.ascii	"\271\262\\\267\324\022\207y,\207&=\207t\232\353\260"
 451      D4128779 
 451      2C87263D 
 451      87749AEB 
 451      B0
 452 0d99 90E69875 		.ascii	"\220\346\230u\227\311h\313Z\235-r\332\035m\213\235\306"
 452      97C968CB 
 452      5A9D2D72 
 452      DA1D6D8B 
 452      9DC6
 453 0dab A34DFB77 		.ascii	"\243M\373w{\231^py\305\301|\016c\204\340\2717\313\265"
 453      7B995E70 
 453      79C5C17C 
 453      0E6384E0 
 453      B937CBB5 
 454 0dbf 698E9913 		.ascii	"i\216\231\023\360\177\2543\223\245\331\231\346j\220"
 454      F07FAC33 
 454      93A5D999 
ARM GAS  /tmp/cc7G9W1x.s 			page 36


 454      E66A90
 455 0dce F9745F97 		.ascii	"\371t_\227h\362\334\242O\236F]\216\315\220KM@\030\321"
 455      68F2DCA2 
 455      4F9E465D 
 455      8ECD904B 
 455      4D4018D1 
 456 0de2 FA724C57 		.ascii	"\372rLW\3132\2421T\237\345\240z\303\224\352\243\034"
 456      CB32A231 
 456      549FE5A0 
 456      7AC394EA 
 456      A31C
 457 0df4 54CB4DA9 		.ascii	"T\313M\251\216\347\240j5\245\272\230k?\311\311L\303"
 457      8EE7A06A 
 457      35A5BA98 
 457      6B3FC9C9 
 457      4CC3
 458 0e06 C9A39DB3 		.ascii	"\311\243\235\263d$\327\313\265_\247R\203M\242\363pz"
 458      6424D7CB 
 458      B55FA752 
 458      834DA2F3 
 458      707A
 459 0e18 E3EFFE5C 		.ascii	"\343\357\376\\\341\311v\2031d;>W\233\304\3470]|\256"
 459      E1C97683 
 459      31643B3E 
 459      579BC4E7 
 459      305D7CAE 
 460 0e2c 66E353B3 		.ascii	"f\343S\263\340a\245\340\271-\272\000\345\036\251\250"
 460      E061A5E0 
 460      B92DBA00 
 460      E51EA9A8 
 461 0e3c 4EC42B82 		.ascii	"N\304+\202\021\177\250\272R\254\210\2105\241\340\370"
 461      117FA8BA 
 461      52AC8888 
 461      35A1E0F8 
 462 0e4c 8AC49444 		.ascii	"\212\304\224D\205/!U\006#\322\360\000\347\252\206\337"
 462      852F2155 
 462      0623D2F0 
 462      00E7AA86 
 462      DF
 463 0e5d 513EA9F8 		.ascii	"Q>\251\370\347\377\362\212w\014\367\270\021EX\360\007"
 463      E7FFF28A 
 463      770CF7B8 
 463      114558F0 
 463      07
 464 0e6e 8211B1C2 		.ascii	"\202\021\261\302W)N\020\252C\222O\232\022\023\023@\354"
 464      57294E10 
 464      AA43924F 
 464      9A121313 
 464      40EC
 465 0e80 F6F928F9 		.ascii	"\366\371(\371\337\020\272D\334_\001]\307\007\243\211"
 465      DF10BA44 
 465      DC5F015D 
 465      C707A389 
 466 0e90 0AF81797 		.ascii	"\012\370\027\227\350\223\312)\021!\034\364\017\367s"
 466      E893CA29 
 466      11211CF4 
 466      0FF773
ARM GAS  /tmp/cc7G9W1x.s 			page 37


 467 0e9f 7F67D24F 		.ascii	"\177g\322O\345\350\017\200x*|\211\024\210\213B\245O"
 467      E5E80F80 
 467      782A7C89 
 467      14888B42 
 467      A54F
 468 0eb1 72FB033E 		.ascii	"r\373\003>\345\372\261\374\364\300\016h\213c\276\210"
 468      E5FAB1FC 
 468      F4C00E68 
 468      8B63BE88 
 469 0ec1 3859829F 		.ascii	"8Y\202\237X\\\234\364\017&d\261h\\JT<\373\322\013c^"
 469      585C9CF4 
 469      0F2664B1 
 469      685C4A54 
 469      3CFBD20B 
 470 0ed7 985CE18F 		.ascii	"\230\\\341\217\206c\301\220\030OT\374|\314\030\350\250"
 470      8663C190 
 470      184F54FC 
 470      7CCC18E8 
 470      A8
 471 0ee8 8AE19262 		.ascii	"\212\341\222b\361`\324'\225`]\237\374\241O*U\324\306"
 471      F160D427 
 471      95605D9F 
 471      FCA14F2A 
 471      55D4C6
 472 0efb 97043F18 		.ascii	"\227\004?\030u\371\243\021\011\330=n\211O\300\037\215"
 472      75F9A311 
 472      09D83D6E 
 472      894FC01F 
 472      8D
 473 0f0c 8B005C86 		.ascii	"\213\000\\\206\037\373\000\311/M~\302:\245o\322\217"
 473      1FFB00C9 
 473      2F4D7EC2 
 473      3AA56FD2 
 473      8F
 474 0f1d C3D83A71 		.ascii	"\303\330:q\261J\210\207}\022\037\037\311\307\177\304"
 474      B14A8887 
 474      7D121F1F 
 474      C9C77FC4 
 475 0f2d C79FE2E3 		.ascii	"\307\237\342\343?\346\343\243\370\370\323\216\370\023"
 475      3FE6E3A3 
 475      F8F8D38E 
 475      F813
 476 0f3b 23A03DC1 		.ascii	"#\240=\301\207\342\360\363dQ\314\007\034\\\330\"5b\034"
 476      87E2F0F3 
 476      6451CC07 
 476      1C5CD822 
 476      35621C
 477 0f4e 7EA3A14A 		.ascii	"~\243\241J1\356\364\007\20486\223\020\026K\244\204$"
 477      31EEF407 
 477      84383693 
 477      10164BA4 
 477      8424
 478 0f60 48A24F82 		.ascii	"H\242O\202\227\344\312%\205\243\225\312\375\204\220"
 478      97E4CA25 
 478      85A395CA 
 478      FD8490
 479 0f6f 50957049 		.ascii	"P\225pIqqB\202\350\213/\212\302\211*xI\215\000a\240"
ARM GAS  /tmp/cc7G9W1x.s 			page 38


 479      71714282 
 479      E88B2F8A 
 479      C2892A78 
 479      498D0061 
 480 0f84 9A235E39 		.ascii	"\232#^9\005^\225\210\223\203\222\037\000\212k\244\350"
 480      055E9588 
 480      9383921F 
 480      008A6BA4 
 480      E8
 481 0f95 F8FF8CDD 		.ascii	"\370\377\214\335M\035\011\244b\\\214"
 481      4D1D09A4 
 481      625C8C
 482 0fa0 F801B8A8 		.ascii	"\370\001\270\250F\222\3421\01786!\206\205X\000\3642"
 482      4692E231 
 482      0F383621 
 482      86855800 
 482      F432
 483 0fb2 8B218D6F 		.ascii	"\213!\215oE\254\370`\005-\341\373U\265X\015PC\322\321"
 483      45ACF860 
 483      052DE1FB 
 483      55B5580D 
 483      5043D2D1 
 484 0fc6 411FB9E8 		.ascii	"A\037\271\350o\221?\002\261Z\224\360\301/H\002\324\261"
 484      6F913F02 
 484      B15A94F0 
 484      C12F4802 
 484      D4B1
 485 0fd8 12E81BAE 		.ascii	"\022\350\033\256\006W\345g\026\226&c\347\207)f\330\027"
 485      0657E567 
 485      16962663 
 485      E7872966 
 485      D817
 486 0fea AD8980F5 		.ascii	"\255\211\200\365\0105h\032V\342\253F\202~\2612q\222"
 486      0835681A 
 486      56E2AB46 
 486      827EB132 
 486      7192
 487 0ffc 1891C242 		.ascii	"\030\221\302B"
 488 1000 6222BC11 		.ascii	"b\"\274\021k\360\205#\346\253.W\305\012\005\023 \311"
 488      6BF08523 
 488      E6AB2E57 
 488      C50A0513 
 488      20C9
 489 1012 608DA0F8 		.ascii	"`\215\240\370\211;\346\253\021\202R0RU\032\363\201\331"
 489      893BE6AB 
 489      11825230 
 489      52551AF3 
 489      81D9
 490 1024 14A1C925 		.ascii	"\024\241\311%<\020cb\004\006i\025\364\002\026\270\177"
 490      3C106362 
 490      04066915 
 490      F40216B8 
 490      7F
 491 1035 2936BE10 		.ascii	")6\276\020\"\001\007\017c\321h\350\036\177\340\345@"
 491      2201070F 
 491      63D168E8 
 491      1E7FE0E5 
ARM GAS  /tmp/cc7G9W1x.s 			page 39


 491      40
 492 1046 E54B6248 		.ascii	"\345KbH\024\022\342\360\230\020\227\206\217\340\245"
 492      1412E2F0 
 492      98109786 
 492      8FE0A5
 493 1055 581979FC 		.ascii	"X\031y\374l%\274\231\340\321v\311?~\002\242\020\003"
 493      6C25BC99 
 493      E0D176C9 
 493      3F7E02A2 
 493      1003
 494 1067 BD0785C5 		.ascii	"\275\007\205\305p4>\305\207o}R\231\346n\004\201\300"
 494      70343EC5 
 494      876F7D52 
 494      99E66E04 
 494      81C0
 495 1079 79A1CAEF 		.ascii	"y\241\312\357\257\200\010|<\022\215\210\217\213\302"
 495      AF80087C 
 495      3C128D88 
 495      8F8BC2
 496 1088 F860C5C8 		.ascii	"\370`\305\310\341\243\322P\220b _\340\241\230\010\376"
 496      E1A3D250 
 496      9062205F 
 496      E0A19808 
 496      FE
 497 1099 17B8E96F 		.ascii	"\027\270\351o\363[\\\014\323\221\341\201\313*Q\232P"
 497      F35B5C0C 
 497      D391E181 
 497      CB2A519A 
 497      50
 498 10aa 1DF1C370 		.ascii	"\035\361\303p\013\300\030\213N\012B\314\226\021q\340"
 498      0BC0188B 
 498      4E0A42CC 
 498      961171E0 
 499 10ba 04D7A509 		.ascii	"\004\327\245\011i\242\020\012VE\350\310|jdzd\342\313"
 499      69A2100A 
 499      5645E8C8 
 499      7C6A647A 
 499      64E2CB
 500 10cd 22F2CE89 		.ascii	"\"\362\316\211\235\344\304T\250\332\211\345@\201\342"
 500      9DE4C454 
 500      A8DA89E5 
 500      4081E2
 501 10dc 806F425C 		.ascii	"\200oB\\\024\213\002\330\254\371\205\242\016#y@\221"
 501      148B02D8 
 501      ACF985A2 
 501      0E237940 
 501      91
 502 10ed 47B1F918 		.ascii	"G\261\371\030x,\211\317\305\243\341\261\200^\204Y\304"
 502      782C89CF 
 502      C5A3E1B1 
 502      805E8459 
 502      C4
 503 10fe 9CD8357C 		.ascii	"\234\3305|l\202C\210W\345\317t\240#vaBcm|\017\326&?"
 503      6C824388 
 503      57E5CF74 
 503      A0237661 
 503      42636D7C 
ARM GAS  /tmp/cc7G9W1x.s 			page 40


 504 1116 8A96AE58 		.ascii	"\212\226\256X\200\004\232+\254$\264r\370\205!%\372%"
 504      80049A2B 
 504      AC24B472 
 504      F8852125 
 504      FA25
 505 1128 1F56A72C 		.ascii	"\037V\247,\034K\033g\030#\327\013\004\363E\300\342\303"
 505      1C4B1B67 
 505      1823D70B 
 505      04F345C0 
 505      E2C3
 506 113a B1527F00 		.ascii	"\261R\177\000_=\007\232\303%\026\031_Bl\214\363\007"
 506      5F3D079A 
 506      C3251619 
 506      5F426C8C 
 506      F307
 507 114c 7E214C14 		.ascii	"~!L\024\253c\343<\032\372\347\007\323H\365\201d\023"
 507      AB63E33C 
 507      1AFAE707 
 507      D348F581 
 507      6413
 508 115e 82A15099 		.ascii	"\202\241P\231B\364l(\024\365\227)X\344\272\304\347#"
 508      42F46C28 
 508      14F59729 
 508      58E4BAC4 
 508      E723
 509 1170 56F10D52 		.ascii	"V\361\015R/\206?5\362\351Q\026\306\362\0242\203\200"
 509      2F863F35 
 509      F2E95116 
 509      C6F21432 
 509      8380
 510 1182 005312FF 		.ascii	"\000S\022\377\034\365Ot\223d\010\210\023G\032\321\202"
 510      1CF54F74 
 510      93640888 
 510      13471AD1 
 510      82
 511 1193 EA15635E 		.ascii	"\352\025c^\030\367\374\270\014\004N\205\376\360s\300"
 511      18F7FCB8 
 511      0C044E85 
 511      FEF073C0 
 512 11a3 145BD007 		.ascii	"\024[\320\007\211D\362\375\354\331q\377\364\342K\317"
 512      8944F2FD 
 512      ECD971FF 
 512      F4E24BCF 
 513 11b3 0F124235 		.ascii	"\017\022B5\302\224\004\244\245\020L\\E\223\204P\265"
 513      C29404A4 
 513      A5104C5C 
 513      45938450 
 513      B5
 514 11c4 584658BD 		.ascii	"XFX\275\022\301,\224\314[M\256u\202?\251\271\373\321"
 514      12C12C94 
 514      CC5B4DAE 
 514      75823FA9 
 514      B9FBD1
 515 11d7 0F47FC3F 		.ascii	"\017G\374?}\011\315\221"
 515      7D09CD91 
 516              		.text
 517              		.section	.gnu.lto_.symtab.76350ab42d7220a5,"",%progbits
ARM GAS  /tmp/cc7G9W1x.s 			page 41


 518 0000 63685468 		.ascii	"chThdAddRef\000\000\000\000\000\000\000\000\000\000"
 518      64416464 
 518      52656600 
 518      00000000 
 518      00000000 
 519 0015 00005701 		.ascii	"\000\000W\001\000\000chThdRelease\000\000\000\000\000"
 519      00006368 
 519      54686452 
 519      656C6561 
 519      73650000 
 520 002c 00000000 		.ascii	"\000\000\000\000\000\000\000]\001\000\000chThdCreat"
 520      0000005D 
 520      01000063 
 520      68546864 
 520      43726561 
 521 0041 6546726F 		.ascii	"eFromHeap\000\000\000\000\000\000\000\000\000\000\000"
 521      6D486561 
 521      70000000 
 521      00000000 
 521      00000000 
 522 0055 00630100 		.ascii	"\000c\001\000\000chThdCreateFromMemoryPool\000\000\000"
 522      00636854 
 522      68644372 
 522      65617465 
 522      46726F6D 
 523 0076 00000000 		.ascii	"\000\000\000\000\000\000\000\000\000\256\001\000\000"
 523      00000000 
 523      00AE0100 
 523      00
 524 0083 6368506F 		.ascii	"chPoolFree\000\000\002\000\000\000\000\000\000\000\000"
 524      6F6C4672 
 524      65650000 
 524      02000000 
 524      00000000 
 525 0098 00CD0100 		.ascii	"\000\315\001\000\000chHeapFree\000\000\002\000\000\000"
 525      00636848 
 525      65617046 
 525      72656500 
 525      00020000 
 526 00ad 00000000 		.ascii	"\000\000\000\000\000\000\322\001\000\000chSchWakeup"
 526      0000D201 
 526      00006368 
 526      53636857 
 526      616B6575 
 527 00c2 53000002 		.ascii	"S\000\000\002\000\000\000\000\000\000\000\000\000\324"
 527      00000000 
 527      00000000 
 527      00D4
 528 00d0 01000063 		.ascii	"\001\000\000chThdCreateI\000\000\002\000\000\000\000"
 528      68546864 
 528      43726561 
 528      74654900 
 528      00020000 
 529 00e6 00000000 		.ascii	"\000\000\000\000\000\331\001\000\000_thread_memfill"
 529      00D90100 
 529      005F7468 
 529      72656164 
ARM GAS  /tmp/cc7G9W1x.s 			page 42


 529      5F6D656D 
 530 00fe 00000200 		.ascii	"\000\000\002\000\000\000\000\000\000\000\000\000\341"
 530      00000000 
 530      00000000 
 530      E1
 531 010b 01000063 		.ascii	"\001\000\000chHeapAlloc\000\000\002\000\000\000\000"
 531      68486561 
 531      70416C6C 
 531      6F630000 
 531      02000000 
 532 0120 00000000 		.ascii	"\000\000\000\000\000\350\001\000\000chPoolAlloc\000"
 532      00E80100 
 532      00636850 
 532      6F6F6C41 
 532      6C6C6F63 
 533 0135 00020000 		.ascii	"\000\002\000\000\000\000\000\000\000\000\000\355\001"
 533      00000000 
 533      000000ED 
 533      01
 534 0142 0000     		.ascii	"\000\000"
 535              		.text
 536              		.section	.gnu.lto_.opts,"",%progbits
 537 0000 272D6D63 		.ascii	"'-mcpu=cortex-m4' '-mno-thumb-interwork' '-mthumb' "
 537      70753D63 
 537      6F727465 
 537      782D6D34 
 537      2720272D 
 538 0033 272D6767 		.ascii	"'-ggdb' '-O2' '-fomit-frame-pointer' '-falign-funct"
 538      64622720 
 538      272D4F32 
 538      2720272D 
 538      666F6D69 
 539 0066 696F6E73 		.ascii	"ions=16' '-ffunction-sections' '-fdata-sections' '-"
 539      3D313627 
 539      20272D66 
 539      66756E63 
 539      74696F6E 
 540 0099 666E6F2D 		.ascii	"fno-common' '-flto'\000"
 540      636F6D6D 
 540      6F6E2720 
 540      272D666C 
 540      746F2700 
 541              		.text
 542              		.cfi_sections	.debug_frame
 543              		.section	.text.chThdAddRef,"ax",%progbits
 544              		.align	2
 545              		.p2align 4,,15
 546              		.global	chThdAddRef
 547              		.thumb
 548              		.thumb_func
 549              		.type	chThdAddRef, %function
 550              	chThdAddRef:
 551              	.LFB229:
 552              		.file 1 "/usr/src/chibios/os/rt/src/chdynamic.c"
 553              		.loc 1 68 0
 554              		.cfi_startproc
 555              		@ args = 0, pretend = 0, frame = 0
ARM GAS  /tmp/cc7G9W1x.s 			page 43


 556              		@ frame_needed = 0, uses_anonymous_args = 0
 557              		@ link register save eliminated.
 558              	.LVL0:
 559              	.LBB63:
 560              	.LBB64:
 561              	.LBB65:
 562              	.LBB66:
 563              		.file 2 "/usr/src/chibios/os/ext/CMSIS/include/core_cmFunc.h"
 564              		.loc 2 546 0
 565 0000 2022     		movs	r2, #32
 566              	@ 546 "/usr/src/chibios/os/ext/CMSIS/include/core_cmFunc.h" 1
 567 0002 82F31188 		MSR basepri, r2
 568              	@ 0 "" 2
 569              		.thumb
 570              	.LBE66:
 571              	.LBE65:
 572              	.LBE64:
 573              	.LBE63:
 574              		.loc 1 72 0
 575 0006 827F     		ldrb	r2, [r0, #30]	@ zero_extendqisi2
 576 0008 0132     		adds	r2, r2, #1
 577 000a 8277     		strb	r2, [r0, #30]
 578              	.LVL1:
 579              	.LBB67:
 580              	.LBB68:
 581              	.LBB69:
 582              	.LBB70:
 583              	.LBB71:
 584              		.loc 2 546 0
 585 000c 0023     		movs	r3, #0
 586              	@ 546 "/usr/src/chibios/os/ext/CMSIS/include/core_cmFunc.h" 1
 587 000e 83F31188 		MSR basepri, r3
 588              	@ 0 "" 2
 589              		.thumb
 590              	.LBE71:
 591              	.LBE70:
 592              	.LBE69:
 593              	.LBE68:
 594              	.LBE67:
 595              		.loc 1 76 0
 596 0012 7047     		bx	lr
 597              		.cfi_endproc
 598              	.LFE229:
 599              		.size	chThdAddRef, .-chThdAddRef
 600              		.section	.text.chThdRelease,"ax",%progbits
 601              		.align	2
 602              		.p2align 4,,15
 603              		.global	chThdRelease
 604              		.thumb
 605              		.thumb_func
 606              		.type	chThdRelease, %function
 607              	chThdRelease:
 608              	.LFB230:
 609              		.loc 1 91 0
 610              		.cfi_startproc
 611              		@ args = 0, pretend = 0, frame = 0
 612              		@ frame_needed = 0, uses_anonymous_args = 0
ARM GAS  /tmp/cc7G9W1x.s 			page 44


 613              		@ link register save eliminated.
 614              	.LVL2:
 615              		.loc 1 91 0
 616 0000 0146     		mov	r1, r0
 617              	.LBB92:
 618              	.LBB93:
 619              	.LBB94:
 620              	.LBB95:
 621              		.loc 2 546 0
 622 0002 2023     		movs	r3, #32
 623              	@ 546 "/usr/src/chibios/os/ext/CMSIS/include/core_cmFunc.h" 1
 624 0004 83F31188 		MSR basepri, r3
 625              	@ 0 "" 2
 626              		.thumb
 627              	.LBE95:
 628              	.LBE94:
 629              	.LBE93:
 630              	.LBE92:
 631              		.loc 1 96 0
 632 0008 837F     		ldrb	r3, [r0, #30]	@ zero_extendqisi2
 633 000a 013B     		subs	r3, r3, #1
 634 000c DBB2     		uxtb	r3, r3
 635 000e 8377     		strb	r3, [r0, #30]
 636              	.LVL3:
 637              	.LBB96:
 638              	.LBB97:
 639              	.LBB98:
 640              	.LBB99:
 641              	.LBB100:
 642              		.loc 2 546 0
 643 0010 0022     		movs	r2, #0
 644              	@ 546 "/usr/src/chibios/os/ext/CMSIS/include/core_cmFunc.h" 1
 645 0012 82F31188 		MSR basepri, r2
 646              	@ 0 "" 2
 647              		.thumb
 648              	.LBE100:
 649              	.LBE99:
 650              	.LBE98:
 651              	.LBE97:
 652              	.LBE96:
 653              		.loc 1 103 0
 654 0016 13B9     		cbnz	r3, .L2
 655              		.loc 1 103 0 is_stmt 0 discriminator 1
 656 0018 037F     		ldrb	r3, [r0, #28]	@ zero_extendqisi2
 657              	.LVL4:
 658 001a 0F2B     		cmp	r3, #15
 659 001c 00D0     		beq	.L7
 660              	.L2:
 661 001e 7047     		bx	lr
 662              	.L7:
 663              		.loc 1 104 0 is_stmt 1
 664 0020 437F     		ldrb	r3, [r0, #29]	@ zero_extendqisi2
 665 0022 03F00303 		and	r3, r3, #3
 666 0026 012B     		cmp	r3, #1
 667 0028 02D0     		beq	.L4
 668 002a 022B     		cmp	r3, #2
 669 002c 07D0     		beq	.L5
ARM GAS  /tmp/cc7G9W1x.s 			page 45


 670 002e 7047     		bx	lr
 671              	.L4:
 672              		.loc 1 108 0
 673 0030 4369     		ldr	r3, [r0, #20]
 674 0032 0269     		ldr	r2, [r0, #16]
 675 0034 1A61     		str	r2, [r3, #16]
 676 0036 0269     		ldr	r2, [r0, #16]
 677 0038 5361     		str	r3, [r2, #20]
 678              		.loc 1 110 0
 679 003a FFF7FEBF 		b	chHeapFree
 680              	.LVL5:
 681              	.L5:
 682              	.LBB101:
 683              	.LBB102:
 684              		.loc 1 116 0
 685 003e 4369     		ldr	r3, [r0, #20]
 686 0040 0269     		ldr	r2, [r0, #16]
 687 0042 1A61     		str	r2, [r3, #16]
 688 0044 0269     		ldr	r2, [r0, #16]
 689              		.loc 1 118 0
 690 0046 006C     		ldr	r0, [r0, #64]
 691              	.LVL6:
 692              		.loc 1 116 0
 693 0048 5361     		str	r3, [r2, #20]
 694              		.loc 1 118 0
 695 004a FFF7FEBF 		b	chPoolFree
 696              	.LVL7:
 697              	.LBE102:
 698              	.LBE101:
 699              		.cfi_endproc
 700              	.LFE230:
 701              		.size	chThdRelease, .-chThdRelease
 702 004e 00BF     		.section	.text.chThdCreateFromHeap,"ax",%progbits
 703              		.align	2
 704              		.p2align 4,,15
 705              		.global	chThdCreateFromHeap
 706              		.thumb
 707              		.thumb_func
 708              		.type	chThdCreateFromHeap, %function
 709              	chThdCreateFromHeap:
 710              	.LFB231:
 711              		.loc 1 153 0
 712              		.cfi_startproc
 713              		@ args = 4, pretend = 0, frame = 0
 714              		@ frame_needed = 0, uses_anonymous_args = 0
 715              	.LVL8:
 716 0000 2DE9F041 		push	{r4, r5, r6, r7, r8, lr}
 717              		.cfi_def_cfa_offset 24
 718              		.cfi_offset 4, -24
 719              		.cfi_offset 5, -20
 720              		.cfi_offset 6, -16
 721              		.cfi_offset 7, -12
 722              		.cfi_offset 8, -8
 723              		.cfi_offset 14, -4
 724 0004 82B0     		sub	sp, sp, #8
 725              		.cfi_def_cfa_offset 32
 726              		.loc 1 153 0
ARM GAS  /tmp/cc7G9W1x.s 			page 46


 727 0006 9046     		mov	r8, r2
 728 0008 1F46     		mov	r7, r3
 729 000a 0D46     		mov	r5, r1
 730              		.loc 1 157 0
 731 000c FFF7FEFF 		bl	chHeapAlloc
 732              	.LVL9:
 733              		.loc 1 158 0
 734 0010 0446     		mov	r4, r0
 735 0012 F8B1     		cbz	r0, .L9
 736              		.loc 1 163 0
 737 0014 00F14406 		add	r6, r0, #68
 738 0018 3146     		mov	r1, r6
 739 001a FF22     		movs	r2, #255
 740 001c FFF7FEFF 		bl	_thread_memfill
 741              	.LVL10:
 742              		.loc 1 166 0
 743 0020 3046     		mov	r0, r6
 744 0022 6119     		adds	r1, r4, r5
 745 0024 5522     		movs	r2, #85
 746 0026 FFF7FEFF 		bl	_thread_memfill
 747              	.LVL11:
 748              	.LBB103:
 749              	.LBB104:
 750              	.LBB105:
 751              	.LBB106:
 752              		.loc 2 546 0
 753 002a 2023     		movs	r3, #32
 754              	@ 546 "/usr/src/chibios/os/ext/CMSIS/include/core_cmFunc.h" 1
 755 002c 83F31188 		MSR basepri, r3
 756              	@ 0 "" 2
 757              		.thumb
 758              	.LBE106:
 759              	.LBE105:
 760              	.LBE104:
 761              	.LBE103:
 762              		.loc 1 172 0
 763 0030 089B     		ldr	r3, [sp, #32]
 764 0032 0093     		str	r3, [sp]
 765 0034 2946     		mov	r1, r5
 766 0036 4246     		mov	r2, r8
 767 0038 3B46     		mov	r3, r7
 768 003a 2046     		mov	r0, r4
 769 003c FFF7FEFF 		bl	chThdCreateI
 770              	.LVL12:
 771              		.loc 1 173 0
 772 0040 0123     		movs	r3, #1
 773 0042 4377     		strb	r3, [r0, #29]
 774              		.loc 1 174 0
 775 0044 0021     		movs	r1, #0
 776              		.loc 1 172 0
 777 0046 0446     		mov	r4, r0
 778              	.LVL13:
 779              		.loc 1 174 0
 780 0048 FFF7FEFF 		bl	chSchWakeupS
 781              	.LVL14:
 782              	.LBB107:
 783              	.LBB108:
ARM GAS  /tmp/cc7G9W1x.s 			page 47


 784              	.LBB109:
 785              	.LBB110:
 786              	.LBB111:
 787              		.loc 2 546 0
 788 004c 0023     		movs	r3, #0
 789              	@ 546 "/usr/src/chibios/os/ext/CMSIS/include/core_cmFunc.h" 1
 790 004e 83F31188 		MSR basepri, r3
 791              	@ 0 "" 2
 792              		.thumb
 793              	.LBE111:
 794              	.LBE110:
 795              	.LBE109:
 796              	.LBE108:
 797              	.LBE107:
 798              		.loc 1 177 0
 799 0052 2046     		mov	r0, r4
 800              	.LVL15:
 801              	.L9:
 802              		.loc 1 178 0
 803 0054 02B0     		add	sp, sp, #8
 804              		@ sp needed
 805 0056 BDE8F081 		pop	{r4, r5, r6, r7, r8, pc}
 806              		.cfi_endproc
 807              	.LFE231:
 808              		.size	chThdCreateFromHeap, .-chThdCreateFromHeap
 809 005a 00BF     		.section	.text.chThdCreateFromMemoryPool,"ax",%progbits
 810              		.align	2
 811              		.p2align 4,,15
 812              		.global	chThdCreateFromMemoryPool
 813              		.thumb
 814              		.thumb_func
 815              		.type	chThdCreateFromMemoryPool, %function
 816              	chThdCreateFromMemoryPool:
 817              	.LFB232:
 818              		.loc 1 205 0
 819              		.cfi_startproc
 820              		@ args = 0, pretend = 0, frame = 0
 821              		@ frame_needed = 0, uses_anonymous_args = 0
 822              	.LVL16:
 823 0000 2DE9F043 		push	{r4, r5, r6, r7, r8, r9, lr}
 824              		.cfi_def_cfa_offset 28
 825              		.cfi_offset 4, -28
 826              		.cfi_offset 5, -24
 827              		.cfi_offset 6, -20
 828              		.cfi_offset 7, -16
 829              		.cfi_offset 8, -12
 830              		.cfi_offset 9, -8
 831              		.cfi_offset 14, -4
 832 0004 83B0     		sub	sp, sp, #12
 833              		.cfi_def_cfa_offset 40
 834              		.loc 1 205 0
 835 0006 8846     		mov	r8, r1
 836 0008 1746     		mov	r7, r2
 837 000a 9946     		mov	r9, r3
 838 000c 0546     		mov	r5, r0
 839              		.loc 1 211 0
 840 000e FFF7FEFF 		bl	chPoolAlloc
ARM GAS  /tmp/cc7G9W1x.s 			page 48


 841              	.LVL17:
 842              		.loc 1 212 0
 843 0012 0446     		mov	r4, r0
 844 0014 08B3     		cbz	r0, .L12
 845              		.loc 1 217 0
 846 0016 00F14406 		add	r6, r0, #68
 847 001a 3146     		mov	r1, r6
 848 001c FF22     		movs	r2, #255
 849 001e FFF7FEFF 		bl	_thread_memfill
 850              	.LVL18:
 851              		.loc 1 220 0
 852 0022 6968     		ldr	r1, [r5, #4]
 853 0024 3046     		mov	r0, r6
 854 0026 2144     		add	r1, r1, r4
 855 0028 5522     		movs	r2, #85
 856 002a FFF7FEFF 		bl	_thread_memfill
 857              	.LVL19:
 858              	.LBB112:
 859              	.LBB113:
 860              	.LBB114:
 861              	.LBB115:
 862              		.loc 2 546 0
 863 002e 2023     		movs	r3, #32
 864              	@ 546 "/usr/src/chibios/os/ext/CMSIS/include/core_cmFunc.h" 1
 865 0030 83F31188 		MSR basepri, r3
 866              	@ 0 "" 2
 867              		.thumb
 868              	.LBE115:
 869              	.LBE114:
 870              	.LBE113:
 871              	.LBE112:
 872              		.loc 1 226 0
 873 0034 6968     		ldr	r1, [r5, #4]
 874 0036 CDF80090 		str	r9, [sp]
 875 003a 4246     		mov	r2, r8
 876 003c 3B46     		mov	r3, r7
 877 003e 2046     		mov	r0, r4
 878 0040 FFF7FEFF 		bl	chThdCreateI
 879              	.LVL20:
 880              		.loc 1 227 0
 881 0044 0223     		movs	r3, #2
 882 0046 4377     		strb	r3, [r0, #29]
 883              		.loc 1 228 0
 884 0048 0564     		str	r5, [r0, #64]
 885              		.loc 1 229 0
 886 004a 0021     		movs	r1, #0
 887              		.loc 1 226 0
 888 004c 0446     		mov	r4, r0
 889              	.LVL21:
 890              		.loc 1 229 0
 891 004e FFF7FEFF 		bl	chSchWakeupS
 892              	.LVL22:
 893              	.LBB116:
 894              	.LBB117:
 895              	.LBB118:
 896              	.LBB119:
 897              	.LBB120:
ARM GAS  /tmp/cc7G9W1x.s 			page 49


 898              		.loc 2 546 0
 899 0052 0023     		movs	r3, #0
 900              	@ 546 "/usr/src/chibios/os/ext/CMSIS/include/core_cmFunc.h" 1
 901 0054 83F31188 		MSR basepri, r3
 902              	@ 0 "" 2
 903              		.thumb
 904              	.LBE120:
 905              	.LBE119:
 906              	.LBE118:
 907              	.LBE117:
 908              	.LBE116:
 909              		.loc 1 232 0
 910 0058 2046     		mov	r0, r4
 911              	.LVL23:
 912              	.L12:
 913              		.loc 1 233 0
 914 005a 03B0     		add	sp, sp, #12
 915              		@ sp needed
 916 005c BDE8F083 		pop	{r4, r5, r6, r7, r8, r9, pc}
 917              		.cfi_endproc
 918              	.LFE232:
 919              		.size	chThdCreateFromMemoryPool, .-chThdCreateFromMemoryPool
 920              		.text
 921              	.Letext0:
 922              		.file 3 "/usr/lib/gcc/arm-none-eabi/4.8/include/stddef.h"
 923              		.file 4 "/usr/include/newlib/machine/_default_types.h"
 924              		.file 5 "/usr/include/newlib/sys/_stdint.h"
 925              		.file 6 "/usr/src/chibios/os/rt/ports/ARMCMx/compilers/GCC/chtypes.h"
 926              		.file 7 "/usr/src/chibios/os/rt/include/chsystypes.h"
 927              		.file 8 "/usr/src/chibios/os/rt/include/chschd.h"
 928              		.file 9 "/usr/src/chibios/os/rt/ports/ARMCMx/chcore.h"
 929              		.file 10 "/usr/src/chibios/os/rt/ports/ARMCMx/chcore_v7m.h"
 930              		.file 11 "/usr/src/chibios/os/rt/include/chtm.h"
 931              		.file 12 "/usr/src/chibios/os/rt/include/chsem.h"
 932              		.file 13 "/usr/src/chibios/os/rt/include/chmtx.h"
 933              		.file 14 "/usr/src/chibios/os/rt/include/chthreads.h"
 934              		.file 15 "/usr/src/chibios/os/rt/include/chmemcore.h"
 935              		.file 16 "/usr/src/chibios/os/rt/include/chheap.h"
 936              		.file 17 "/usr/src/chibios/os/rt/include/chmempools.h"
 937              		.file 18 "/usr/src/chibios/os/rt/include/chsys.h"
 938              		.file 19 "/usr/src/chibios/os/ext/CMSIS/include/core_cm4.h"