ARM GAS  /tmp/ccLSw0YD.s 			page 1


   1              		.syntax unified
   2              		.cpu cortex-m4
   3              		.fpu softvfp
   4              		.eabi_attribute 20, 1
   5              		.eabi_attribute 21, 1
   6              		.eabi_attribute 23, 3
   7              		.eabi_attribute 24, 1
   8              		.eabi_attribute 25, 1
   9              		.eabi_attribute 26, 1
  10              		.eabi_attribute 30, 2
  11              		.eabi_attribute 34, 1
  12              		.eabi_attribute 18, 4
  13              		.thumb
  14              		.file	"chheap.c"
  15              		.text
  16              	.Ltext0:
  17              		.section	.gnu.lto_.jmpfuncs.c6f863a9fec2ee3,"",%progbits
  18 0000 789C6362 		.ascii	"x\234cb`b\300\0062\2404+\003\003#S5\303\257\206\216"
  18      6062C006 
  18      32A0342B 
  18      03032353 
  18      35C3AF86 
  19 0015 06814C46 		.ascii	"\006\201LF\006m\206U\015\015 \026c.#C\022#\\9#\343\203"
  19      066D8655 
  19      0D0D2016 
  19      632E2343 
  19      12235C39 
  20 002c FF50C018 		.ascii	"\377P\300\030\301\230\311\0104\224\231\235\221\245\001"
  20      C198C908 
  20      3494999D 
  20      91A501
  21 003b C8042962 		.ascii	"\310\004)ba\006\222pT\0174\226\021\302d\203J0\000\000"
  21      61069270 
  21      540F3496 
  21      11C26483 
  21      4A300000 
  22 004f 14D512C5 		.ascii	"\024\325\022\305"
  23              		.text
  24              		.section	.gnu.lto_.inline.c6f863a9fec2ee3,"",%progbits
  25 0000 789C6362 		.ascii	"x\234cb`b\300\006L\031!4+\003\003\207\000#\003\023\333"
  25      6062C006 
  25      4C192134 
  25      2B030387 
  25      00230313 
  26 0015 073D06B6 		.ascii	"\007=\006\266\005\362`\305L\334\014\014\214\014\314"
  26      05F260C5 
  26      4CDC0C0C 
  26      8C0CCC
  27 0024 0CDCC28C 		.ascii	"\014\334\302\214LL`u \202\231\265C\235\201{\205\033"
  27      4C4C6075 
  27      208299B5 
  27      439D817B 
  27      851B
  28 0036 1303D305 		.ascii	"\023\003\323\005~\026\270\272\011~,\014\372\037\030"
  28      7E16B8BA 
  28      097E2C0C 
  28      FA1F18
ARM GAS  /tmp/ccLSw0YD.s 			page 2


  29 0045 185918D2 		.ascii	"\030Y\030\322#\0303\031\231A\022\031p\026H##\210`1\353"
  29      23183319 
  29      99411219 
  29      70164823 
  29      23886031 
  30 005a E8E184D8 		.ascii	"\350\341\204\330\300\262@^\200\201c\237\236\002\222"
  30      C0B2405E 
  30      8081639F 
  30      9E0292
  31 0069 19A814AB 		.ascii	"\031\250\024\253 \204b\320\331\303\010\324\015\266\335"
  31      208462D0 
  31      D9C308D4 
  31      0DB6DD
  32 0078 61D53561 		.ascii	"a\3255a\006\276\031\316\030\326C)6\006\241\273\014\214"
  32      06BE19CE 
  32      18D64329 
  32      3606A1BB 
  32      0C8C
  33 008a 6CD85CC1 		.ascii	"l\330\\\301\010f\201\3640\246\303X\010\227\261\361<"
  33      086681F4 
  33      30A6C358 
  33      0897B1F1 
  33      3C
  34 009b 79C40E77 		.ascii	"y\304\016w\231\003\210h\000\332\331\304.\300\004&1\255"
  34      99038868 
  34      00DAD9C4 
  34      2EC00426 
  34      31AD
  35 00ad 62000049 		.ascii	"b\000\000I\345%f"
  35      E52566
  36              		.text
  37              		.section	.gnu.lto_.pureconst.c6f863a9fec2ee3,"",%progbits
  38 0000 789C6362 		.ascii	"x\234cb`b\340f\200\000V\006\011f)\026)V)6)\000\004?"
  38      6062E066 
  38      80005606 
  38      09662916 
  38      29562936 
  39 0018 00A7     		.ascii	"\000\247"
  40              		.text
  41              		.section	.gnu.lto__heap_init.c6f863a9fec2ee3,"",%progbits
  42 0000 789C6362 		.ascii	"x\234cb`b@\007\222@\374\225\221\201A\015H32302M8\307"
  42      60624007 
  42      9240FC95 
  42      9181410D 
  42      48333233 
  43 0019 C0D0C8C1 		.ascii	"\300\320\310\301\304\310\010b002\32431\326G2\202\325"
  43      C4C80862 
  43      303032D4 
  43      3331D647 
  43      3282D5
  44 002c AE673AF0 		.ascii	"\256g:\360\340\377\377u\337\216M\277\3038\207\211\015"
  44      E0FFFF75 
  44      DF8E4DBF 
  44      C3388789 
  44      0D
  45 003d 28C2CAD0 		.ascii	"(\302\312\320\322\3200A\201\201!\031\254\"\004H\202"
  45      D2D03041 
ARM GAS  /tmp/ccLSw0YD.s 			page 3


  45      81812119 
  45      AC220448 
  45      82
  46 004e B4853232 		.ascii	"\264\20522\201h\346\263\014M\277\232\277\367Z'2.dde"
  46      8168E6B3 
  46      0C4DBF9A 
  46      BFF75A27 
  46      322E6464 
  47 0063 D06658D5 		.ascii	"\320fX\325\000\004\366\231\214\014\263\031f564\010d"
  47      0004F699 
  47      8C0CB319 
  47      66353634 
  47      0864
  48 0075 32325633 		.ascii	"22V3\374j\350\000\261\230r\301FD0\002\231`\333\222 "
  48      FC6AE800 
  48      B19872C1 
  48      46443002 
  48      9960DB92 
  49 008a 96324054 		.ascii	"\2262@T4Tg22'3B\304\200\346\356\270\361\376\000\013"
  49      34546732 
  49      32273342 
  49      C480E6EE 
  49      B8F1FE00 
  50 009f 8AB9A599 		.ascii	"\212\271\245\231\214,Pfa&#+\224\031\233\311\310\206"
  50      8C2C5066 
  50      6126232B 
  50      94199BC9 
  50      C886
  51 00b1 B0989D38 		.ascii	"\260\230\2358\213\031\2414\214\317\014\245Y\030`*Y`"
  51      8B19A134 
  51      8CCF0CA5 
  51      5918602A 
  51      5960
  52 00c3 CEF8F1FE 		.ascii	"\316\370\361\376\0033\2123\200vsP\323nV\270\235\034"
  52      03338A33 
  52      80767350 
  52      D36E56B8 
  52      9D1C
  53 00d5 20C67986 		.ascii	" \306y\206\226\007'\017sA\254\204\005\016\320$\316d"
  53      9607270F 
  53      7341AC84 
  53      050ED024 
  53      CE64
  54 00e7 A80E9008 		.ascii	"\250\016\220\010G&#\027\324\342\211@\215\334@[\222\030"
  54      47262317 
  54      D4E28940 
  54      8DDC405B 
  54      9218
  55 00f9 D9C0D250 		.ascii	"\331\300\322P\215\231\214<\014\014\027\031\032\037\234"
  55      8D998C3C 
  55      0C0C1719 
  55      1A1F9C
  56 0108 55861905 		.ascii	"U\206\031\005\001!@\007\000\243\016d\226\212~iq\221"
  56      01214007 
  56      00A30E64 
  56      968A7E69 
  56      7191
ARM GAS  /tmp/ccLSw0YD.s 			page 4


  57 011a 7E7151B2 		.ascii	"~qQ\262~rFfRf~\261>\020\025\225@E2R\023\013\364\222"
  57      7E724666 
  57      52667EB1 
  57      3E101595 
  57      40453252 
  58 0132 1900743E 		.ascii	"\031\000t>\210\035"
  58      881D
  59              		.text
  60              		.section	.gnu.lto_chHeapObjectInit.c6f863a9fec2ee3,"",%progbits
  61 0000 789CA552 		.ascii	"x\234\245R\317/\003Q\020\376\346\255\255\266\353\327"
  61      CF2F0351 
  61      10FEE6AD 
  61      ADB6EBD7 
  62 0010 B5376988 		.ascii	"\2657i\210 4\016\376\020\011\011\307v#\355;\210\246"
  62      20340EFE 
  62      100909C7 
  62      7623ED3B 
  62      88A6
  63 0022 E5C2C1AB 		.ascii	"\345\302\301\253Jp\322\270\020.8:p\355q]\210\003*\221"
  63      4A70D2B8 
  63      102E383A 
  63      70ED715D 
  63      88032A91 
  64 0036 70747473 		.ascii	"ptts$\225t\315\333}\332TD$&\2733\263\273\363\276\357"
  64      249574CD 
  64      DB7DDA54 
  64      442426BB 
  64      33B3BBF3 
  65 004c 9BD91110 		.ascii	"\233\331\021\020\370n\011\276{-`\230#Y Q\271\005JQA"
  65      F86E09BE 
  65      7B2D6098 
  65      23592051 
  65      B9054A51 
  66 0061 A41310D6 		.ascii	"\244\023\020\326\004\255\315QP{.\274g\337?{\270\272"
  66      04ADCD51 
  66      507B2EBC 
  66      67DF3F7B 
  66      B8BA
  67 0073 BCA0EDC1 		.ascii	"\274\240\355\301n\242\005\202\305\216\242\354D\014\222"
  67      6EA20582 
  67      C58EA2EC 
  67      440C92
  68 0082 E0B0D3C5 		.ascii	"\340\260\323\30566\224\252\364'q\254\324\256\367\270"
  68      363694AA 
  68      F42771AC 
  68      D4AEF7B8 
  69 0092 B9975047 		.ascii	"\271\227PG\353\025\325\360}\222$\004\206\010.a\226\037"
  69      EB15D5F0 
  69      7D922404 
  69      86082E61 
  69      961F
  70 00a4 ACFE2074 		.ascii	"\254\376 tt\264\353Z`1\272\204m\232\275\0263CBG\353"
  70      74B4EB5A 
  70      6031BA84 
  70      6D9ABD16 
  70      33434247 
  71 00b9 1A224DC7 		.ascii	"\032\"M\307d#M'\224DV\023\336`\275\372\376\361b>\214"
ARM GAS  /tmp/ccLSw0YD.s 			page 5


  71      64234D27 
  71      94445613 
  71      DE60BDFA 
  71      FEF1623E 
  72 00ce E254B14D 		.ascii	"\342T\261MH\262\017q\300\350\221,Y\232\2453\300\316"
  72      48B20F71 
  72      C0E8912C 
  72      599AA533 
  72      C0CE
  73 00e0 84ED04BC 		.ascii	"\204\355\004\274\266N\370\364\365~\243f\265\235\236"
  73      B64EF8F4 
  73      F57EA366 
  73      B59D9E
  74 00ef 63A1269D 		.ascii	"c\241&\235\221\0245\351\224\244X\013>\3763<\231(L\264"
  74      911435E9 
  74      94A4580B 
  74      3EFE333C 
  74      99284CB4 
  75 0103 4C0C7B6C 		.ascii	"L\014{l\012\2566\274vJ\346q\376\303c7\333rL[\325\247"
  75      0AAE36BC 
  75      764AE671 
  75      FEC36337 
  75      DB724C5B 
  76 0119 86D73E94 		.ascii	"\206\327>\224\311V[\023\255\266\034\246\0139\342,O#"
  76      C9565B13 
  76      ADB61CA6 
  76      0B39E22C 
  76      4F23
  77 012b 885F7B68 		.ascii	"\210_{hV\334\240\274U~\335\031\0139\262\024\313R4\020"
  77      56DCA0BC 
  77      557EDD19 
  77      0B39B214 
  77      CB523410 
  78 013f F0EEFB7E 		.ascii	"\360\356\373~\257\231m\255\363\373\177q\376\314k\233"
  78      AF996DAD 
  78      F3FB7F71 
  78      FECC6B9B 
  79 014f 99C502A8 		.ascii	"\231\305\002\250z\371mg\344\213\313Y\305\012\257\233"
  79      7AF96D67 
  79      E48BCB59 
  79      C50AAF9B 
  80 015f 812A4AEA 		.ascii	"\201*J\352\372yL\221\326Z\335a\3033\347\201U\324\325"
  80      FA794C91 
  80      D65ADD61 
  80      C333E781 
  80      55D4D5
  81 0172 96EA93D4 		.ascii	"\226\352\223\324\355\232Q2\246\244\036\340\036\245\347"
  81      ED9A5132 
  81      A6A41EE0 
  81      1EA5E7
  82 0181 EDC1AFBA 		.ascii	"\355\301\257\272\320\246\271\206\327O\353\032H-\027"
  82      D0A6B986 
  82      D74FEB1A 
  82      482D17
  83 0190 0BA962C1 		.ascii	"\013\251b\301M\2719\231\221\213\305\024_\205%\363&7"
  83      4DB93999 
  83      918BC514 
ARM GAS  /tmp/ccLSw0YD.s 			page 6


  83      5F8525F3 
  83      2637
  84 01a2 9FCE8FBB 		.ascii	"\237\316\217\273\020\271\374'k\277\272\347"
  84      10B9FC27 
  84      6BBFBAE7 
  85              		.text
  86              		.section	.gnu.lto_chHeapAlloc.c6f863a9fec2ee3,"",%progbits
  87 0000 789CC556 		.ascii	"x\234\305V\335k\034U\024?\347\336\335\231\331\335\331"
  87      DD6B1C55 
  87      143FE7DE 
  87      DD99D9DD 
  87      D9
  88 0011 D92D094D 		.ascii	"\331-\011M\221\226\206\305Zh\321P\212H(\265\210\376"
  88      919686C5 
  88      5A68D150 
  88      8A4828B5 
  88      88FE
  89 0023 034203FA 		.ascii	"\003B\003\372f\022c3\017\3054\261/\346!\223\354\026"
  89      66126333 
  89      0FC534B1 
  89      2FE62193 
  89      EC16
  90 0035 A2F5210A 		.ascii	"\242\365!\012I\375\350CJ)\005E\003~\220`#\335\206\242"
  90      49FDE843 
  90      4A290545 
  90      037E9060 
  90      23DD86A2 
  91 0049 495A63FB 		.ascii	"IZc\373 M\245\245i5\024\254\240\301\207\324 \254\347"
  91      204DA5A5 
  91      693514AC 
  91      A0C187D4 
  91      20ACE7
  92 005c DC7B6776 		.ascii	"\334{gv\266F\263}\020\207\344\316\3758\347w~\347\343"
  92      B646B37D 
  92      1087E4CE 
  92      FD38E777 
  92      7EE7E3
  93 006f 9E590102 		.ascii	"\236Y\001\002\036|\276\242\377\2164@\013\2751\017(F"
  93      1E7CBEA2 
  93      FF8E3440 
  93      0BBD310F 
  93      2846
  94 0081 1600061D 		.ascii	"\026\000\006\035!\344\215\014\004\351\304\3473\000\201"
  94      21E48D0C 
  94      04E9C4E7 
  94      330081
  95 0090 2B31A1F7 		.ascii	"+1\241\367\023\230\326\223\244\260f$\011\344\026\346"
  95      1398D693 
  95      A4B06624 
  95      09E416E6 
  96 00a0 59C012F6 		.ascii	"Y\300\022\366\360NZ:<\2726\246\264\224\023NR\350\351"
  96      F04E5A3A 
  96      3CBA36A6 
  96      B494134E 
  96      52E8E9
  97 00b3 494E033C 		.ascii	"IN\003<\223\026I\245\231\3160\214\233\021\356\327j\351"
  97      931649A5 
ARM GAS  /tmp/ccLSw0YD.s 			page 7


  97      99CE308C 
  97      9B11EED7 
  97      6AE9
  98 00c5 CDF3D215 		.ascii	"\315\363\322\025\331+\227\325\262\214\264\314\206\332"
  98      D92B97D5 
  98      B28CB4CC 
  98      86DA
  99 00d3 1E224F00 		.ascii	"\036\"O\000a@\310D\322\262\235T.\235q\263\036\016\274"
  99      6140C844 
  99      D2B29D54 
  99      2E9D71B3 
  99      1E0EBC
 100 00e6 88EC8E2C 		.ascii	"\210\354\216,\300\251 xg\351\330G+\342\275\240\\\032"
 100      C0A92078 
 100      67E9D847 
 100      2BE2BDA0 
 100      5C1A
 101 00f8 0FFEAC54 		.ascii	"\017\376\254T\020}$\327w\"t\"\274@\013lV/\221\250\215"
 101      107D24D7 
 101      77227422 
 101      BC400B6C 
 101      562F91A8 
 102 010d 85D60D56 		.ascii	"\205\326\015V_\236\015J\345J\345\200\322\332U\247\326"
 102      5F9E0D4A 
 102      E54AE580 
 102      D2DA55A7 
 102      D6
 103 011e DB5D71AD 		.ascii	"\333]q\255\3077\322\232\020\345\245Je\372\373\251\037"
 103      C737D29A 
 103      10E5A54A 
 103      65FAFBA9 
 103      1F
 104 012f 4F62C363 		.ascii	"Ob\303c\010\207Y\253\035Oa\001$\370(-\244\035\233\006"
 104      088759AB 
 104      1D4F6101 
 104      24F8282D 
 104      A41D9B06 
 105 0143 74689948 		.ascii	"th\231H\221\000\246\215@\206v\222\036\015\220\343\263"
 105      9100A68D 
 105      40867692 
 105      1E0D90E3 
 105      B3
 106 0154 3C0F9B78 		.ascii	"<\017\233x\331@\002gH\240\221\027\233y\273\211\207m"
 106      D9400267 
 106      48A09117 
 106      9B79BB89 
 106      876D
 107 0166 0CB89D06 		.ascii	"\014\270\235\006\253\231\227\005\222:MR;\314\233\236"
 107      AB999705 
 107      923A4D52 
 107      3BCC9B9E 
 108 0176 24948260 		.ascii	"$\224\202`\244Y\303\353]\215\004\354\006=\007i\374\315"
 108      A459C3EB 
 108      5D8D04EC 
 108      063D0769 
 108      FCCD
 109 0188 823614F4 		.ascii	"\2026\024\364\222\263p\361\356\205\233o\312v<\213I8"
ARM GAS  /tmp/ccLSw0YD.s 			page 8


 109      92B370F1 
 109      EE859B6F 
 109      CA763C8B 
 109      4938
 110 019a 84167B68 		.ascii	"\204\026{h\307\335kC\011%\224s0\2644\261li9r\250\037"
 110      C7DD6B43 
 110      09259473 
 110      30B434B1 
 110      6C693972 
 111 01b0 D682E120 		.ascii	"\326\202\341 \330G\322\207Q\304\244\023\014K\322\016"
 111      D847D287 
 111      51C4A413 
 111      0C4BD20E 
 112 01c0 B0D82124 		.ascii	"\260\330!$s\337Bq\270xo\364\221\320\210s\010m\266\343"
 112      73DF4271 
 112      B8786FF4 
 112      91D08873 
 112      086DB6E3 
 113 01d4 B0213A3C 		.ascii	"\260!:<W\354\010\217Rt\252\216\356W*\225\034\035\317"
 113      57EC088F 
 113      5274AA8E 
 113      EE572A95 
 113      1C1DCF
 114 01e7 81086D22 		.ascii	"\201\010m\"\035\263\374\320Z\361\327Q+\324H3\023z\366"
 114      1DB3FCD0 
 114      5AF1D751 
 114      2BD44833 
 114      137AF6
 115 01fa 50A076C3 		.ascii	"P\240v\303\207<\335\357c\352\003x\237`\322d\277\352"
 115      873CDDEF 
 115      63EA0378 
 115      9F60D264 
 115      BFEA
 116 020c 5107C6FC 		.ascii	"Q\007\306\374\"\212e\003\242\203EP\006}u4\212G\246\037"
 116      228A6503 
 116      A2834550 
 116      067D7534 
 116      8A47A61F 
 117 0220 5EA714ED 		.ascii	"^\247\024\355\206]>f\326\307\214\201~\007\011\255\010"
 117      865D3E66 
 117      D6C78C81 
 117      7E0709AD 
 117      08
 118 0231 263E791F 		.ascii	"&>y\037\335N#A`>fyv\035\310\025K\240\226)\337\232\367"
 118      DD4E2341 
 118      603E6679 
 118      761DC815 
 118      4BA09629 
 119 0248 A228CA29 		.ascii	"\242(\312)\311AL\002])\025\363\363\307\"\222\247\025"
 119      C9414C02 
 119      5D2915F3 
 119      F3C72292 
 119      A715
 120 025a 494F91FC 		.ascii	"IO\221\374\341\335OW0$\231S\364\034\343\375S>z\232)"
 120      E1DD4F57 
 120      30249953 
 120      F41CE3FD 
ARM GAS  /tmp/ccLSw0YD.s 			page 9


 120      533E7A9A 
 121 026f 05D363A6 		.ascii	"\005\323c\246`\230\012\363\226\206\356,\224\356\016"
 121      60980AF3 
 121      9686EE2C 
 121      94EE0E
 122 027e EE895054 		.ascii	"\356\211PTx\253\211\264\340\023)U\352\316\216=\035\012"
 122      78AB89B4 
 122      E0132955 
 122      EACE8E3D 
 122      1D0A
 123 0290 E54948E5 		.ascii	"\345IH\345\307Q\372\027\227\007\237\214\351\347\343"
 123      C751FA17 
 123      97079F8C 
 123      E9E7E3
 124 029f FA365C43 		.ascii	"\3726\\C\311T\247>\373#\212\347&E5LT\277\317\334\325"
 124      C954A73E 
 124      FB238AE7 
 124      2645354C 
 124      54BFCFDC 
 125 02b4 F4E886AC 		.ascii	"\364\350\206\254\023\346\2354\026\010z\356JF\003\033"
 125      13E69D34 
 125      16087AEE 
 125      4A46031B 
 126 02c4 90E76B6A 		.ascii	"\220\347kj \267^@\304\306\320\3042\364\301\321>\024"
 126      20B75E40 
 126      C4C6D0C4 
 126      32F4C1D1 
 126      3E14
 127 02d6 8F17EF8D 		.ascii	"\217\027\357\215m\015}h \202\312\327\2506\365\015\243"
 127      6D0D7D68 
 127      2082CAD7 
 127      A836F50D 
 127      A3
 128 02e7 13939BC9 		.ascii	"\023\223\233\311\252\303\215\377\267\303\015\3658\334"
 128      AAC38DFF 
 128      B7C30DF5 
 128      38DC
 129 02f5 A8EEE11B 		.ascii	"\250\356\341\033\305\325\261\201\220\370\346\260\"\270"
 129      C5D5B181 
 129      90F8E6B0 
 129      22B8
 130 0303 0422779A 		.ascii	"\004\"w\232\350\240\346~2\251\221ZR\373\377\241\026"
 130      E8A0E67E 
 130      32A9915A 
 130      52FBFFA1 
 130      16
 131 0314 D765220D 		.ascii	"\327e\"\015\203&\015\2658\271\"\376\223\224\352\324"
 131      83260DB5 
 131      38B922FE 
 131      9394EAD4 
 132 0324 5CBA3F79 		.ascii	"\\\272?y[\324E\366_.NtO\332h\242\356\310\320\245\251"
 132      5BD445F6 
 132      5F2E4E74 
 132      4FDA68A2 
 132      EEC8D0A5 
 133 0339 2FFF8E6B 		.ascii	"/\377\216k\233ik\225\367\336\272\223n\031S\310]\245"
 133      9B696B95 
ARM GAS  /tmp/ccLSw0YD.s 			page 10


 133      F7DEBA93 
 133      6E1953C8 
 133      5DA5
 134 034b B4F4F332 		.ascii	"\264\364\3632\256\327Y\204\221\322\235E\025\352\027"
 134      AED75984 
 134      91D29D45 
 134      15EA17
 135 035a 4D61AEB6 		.ascii	"Ma\256\266\031\023\3021\005t\020s0\376\015`\033u:\372"
 135      1913C231 
 135      05741073 
 135      30FE0D60 
 135      1B753AFA 
 136 036e F89A2E1D 		.ascii	"\370\232.\035v?\241\213wqbN\204\010^M\361\036\250\372"
 136      763FA18B 
 136      7771624E 
 136      84085E4D 
 136      F11EA8FA 
 137 0382 D1FA90F1 		.ascii	"\321\372\220\361W\275\346\227\301\275\021pUE=\327AP"
 137      57BDE697 
 137      C1BD1170 
 137      55453DD7 
 137      4150
 138 0394 FB4D4C5F 		.ascii	"\373ML_\333Bg\271\267n\275\304\301\315\300\214\224\354"
 138      DB4267B9 
 138      B76EBDC4 
 138      C1CDC08C 
 138      94EC
 139 03a6 FC5A573D 		.ascii	"\374ZW=\276\023\365\363\267\243\236\270]Q\317\257\337"
 139      BE13F5F3 
 139      B7A39EB8 
 139      5D51CFAF 
 139      DF
 140 03b7 B2ED38A9 		.ascii	"\262\3558\251l\244\302\"\261\026\306\034\\\370\3304"
 140      6CA4C222 
 140      B116C61C 
 140      5CF8D834 
 141 03c7 C1CA897D 		.ascii	"\301\312\211}\241`s\274\011\022\301\362\226\360\244"
 141      A16073BC 
 141      0912C1F2 
 141      96F0A4
 142 03d6 4028CCA9 		.ascii	"@(\314\251\331\347\036\022\353\017\272w\027\264\311"
 142      D9E71E12 
 142      EB0FBA77 
 142      17B4C9
 143 03e5 0B235EA4 		.ascii	"\013#^\244\360@ \330f\026\316\230\242\272\363\360EU"
 143      F04020D8 
 143      6616CE98 
 143      A2BAF3F0 
 143      4555
 144 03f7 A8B3A818 		.ascii	"\250\263\250\030\177\361\316\325Z\374\326\352e\330\030"
 144      7FF1CED5 
 144      5AFCD6EA 
 144      65D818
 145 0406 347619A8 		.ascii	"4v\031\250\220\306\217\333q_\237\203g}\014\375\243\002"
 145      90C68FDB 
 145      715F9F83 
 145      677D0CFD 
ARM GAS  /tmp/ccLSw0YD.s 			page 11


 145      A302
 146 0418 0C13A83F 		.ascii	"\014\023\250?\260\347N\332a\000v\350\317w\371\304\202"
 146      B0E74EDA 
 146      610076E8 
 146      CF77F9C4 
 146      82
 147 0429 4B0A6471 		.ascii	"K\012dq0\340\374\206F\245\252\335H[\007\310\343\237"
 147      30E0FC86 
 147      46A5AADD 
 147      485B07C8 
 147      E39F
 148 043b 1857E947 		.ascii	"\030W\351G$\233\227\272~$\325{\352\306\315\255\204\230"
 148      249B97BA 
 148      7E24D57B 
 148      EAC6CDAD 
 148      8498
 149 044d FDE98852 		.ascii	"\375\351\210R\005p\247\177w\3154\243\352\037I\223\371"
 149      0570A77F 
 149      77CD34A3 
 149      EA1F4993 
 149      F9
 150 045e 3FDA72B4 		.ascii	"?\332r\264\257\267\245\257\267\263\245\263\333\357\360"
 150      AFB7A5AF 
 150      B7B3A5B3 
 150      DBEFF0
 151 046d 5FED6BA1 		.ascii	"_\355k\241\277\336\327\314NwW{\317\023\235 \216\364"
 151      BFDED7CC 
 151      4E77577B 
 151      CF139D20 
 151      8EF4
 152 047f 88EE1EF1 		.ascii	"\210\356\036\361J\317_\212}^\214"
 152      4ACF5F8A 
 152      7D5E8C
 153              		.text
 154              		.section	.gnu.lto_chHeapFree.c6f863a9fec2ee3,"",%progbits
 155 0000 789CAD55 		.ascii	"x\234\255U]h\024W\024>\347\316\314\316\354\316\304\335"
 155      5D681457 
 155      143EE7CE 
 155      CCCEECCE 
 155      C4DD
 156 0012 1809D9A8 		.ascii	"\030\011\331\250DVA\210\325\245-ED\254\317}\224\032"
 156      44564188 
 156      D5A52D45 
 156      44ACCF7D 
 156      941A
 157 0024 681F936D 		.ascii	"h\037\223mI\346A\232&\365\245A\234l\362\020\020\332"
 157      49E6419A 
 157      26F5A541 
 157      9C6CF210 
 157      10DA
 158 0036 5068FD09 		.ascii	"Ph\375\011\332\204\"B_\012\245\017>\356J\013\256TS\337"
 158      DA842242 
 158      5F0AA50F 
 158      3EEE4A0B 
 158      AE5453DF 
 159 004a 5484260F 		.ascii	"T\204&\017\332\202\017V\322&q\015\235\236\37373\273"
 159      DA820F56 
ARM GAS  /tmp/ccLSw0YD.s 			page 12


 159      D226710D 
 159      9D9EFB37 
 159      33BB
 160 005c 2C261B3A 		.ascii	",&\033:\354\236{\317\275\367|\337\371\2733\014\0304"
 160      EC9E7BCF 
 160      BDF77CDF 
 160      F9BB330C 
 160      1834
 161 006e 3FF3F47F 		.ascii	"?\363\364\1777\003\360\026\215\330\001\310f\357\001"
 161      3703F016 
 161      8DD801C8 
 161      66EF01
 162 007d 4C3A0C0D 		.ascii	"L:\014\01591\230\365\330\205 c\376t\013 \360Lf\315\034"
 162      393198F5 
 162      D8852063 
 162      FE740B20 
 162      F04C66CD 
 163 0092 24D5E5D2 		.ascii	"$\325\345\322\263\230}\313 -u\357\016\337L)\325\225"
 163      B3987DCB 
 163      202D75EF 
 163      0EDF4C29 
 163      D595
 164 00a4 AACD1C61 		.ascii	"\252\315\034a\232\226\246\016\246%d\232e\304\272'\327"
 164      9A96A60E 
 164      A625649A 
 164      65C4BA27 
 164      D7
 165 00b5 33E8C975 		.ascii	"3\350\311uWrV\035\017\221O\000\341<3L+e;\351\214\353"
 165      5772561D 
 165      0F914F00 
 165      E13C334C 
 165      2B653BE9 
 166 00cb E1F90F91 		.ascii	"\341\371\017\221{l\024`!\010\276Z\372\345\331\013v9"
 166      7B6C1460 
 166      2108BE5A 
 166      FAE5D90B 
 166      7639
 167 00dd A84CCF07 		.ascii	"\250L\317\007\033a\210\350#Ew\020\241\204\360\001)\270"
 167      1B6188E8 
 167      23457710 
 167      A184F001 
 167      29B8
 168 00ef 4F0CCC6C 		.ascii	"O\014\314l\014W\332\006k\037\335\016\246+axRX\365o\315"
 168      0C57DA06 
 168      6B1FDD0E 
 168      A62B6178 
 168      5258F56F 
 169 0104 AAF2FB17 		.ascii	"\252\362\373\027_\347\203\371\362l\360/\021\372h08\274"
 169      5FE783F9 
 169      F26CF02F 
 169      11FA6830 
 169      38BC
 170 0116 99E50FAC 		.ascii	"\231\345\017\254\262\024\206\217\377\371sy\003\273\366"
 170      B214868F 
 170      FFF97379 
 170      03BBF6
 171 0125 230CE202 		.ascii	"#\014\342\002\026\300\3043\010\026)\337\221b\323x\235"
ARM GAS  /tmp/ccLSw0YD.s 			page 13


 171      16C0C433 
 171      081629DF 
 171      9162D378 
 171      9D
 172 0136 46476DA6 		.ascii	"FGm\246\301G\323%\001;HXY\022,\307\325N.v\362\265.."
 172      C147D325 
 172      013B4858 
 172      59122CC7 
 172      D54E2E76 
 173 014e 7671D1CD 		.ascii	"vq\321\315\327z\370,\317\317\365ru7W\367p\261\227\213"
 173      D77AF82C 
 173      CFCFF572 
 173      753757F7 
 173      70B1978B 
 174 0162 3EBE5650 		.ascii	">\276VP\340\364X0\035\004\263\373\244.]\220\016\234"
 174      E0F45830 
 174      1D04B3FB 
 174      A42E5D90 
 174      0E9C
 175 0174 41CA6F49 		.ascii	"A\312oI\344\3704\311\272\001\003\310h0\356\302\324\205"
 175      E4F834C9 
 175      BA0103C8 
 175      6830EEC2 
 175      D485
 176 0186 A995ABA9 		.ascii	"\251\225\253\251A\274\201\026\014\2435\214\246\010v"
 176      41BC8116 
 176      0CA3358C 
 176      A60876
 177 0195 3D0CC32C 		.ascii	"=\014\303,\035\257\001\223{\022\216N\000\334\205\362"
 177      1DAF0193 
 177      7B128E4E 
 177      00DC85F2 
 178 01a5 A307CF6B 		.ascii	"\243\007\317k\250\215\354C\360}@\317\000%NMO\371\230"
 178      A88DEC43 
 178      F07D40CF 
 178      00254E4D 
 178      4FF998
 179 01b8 52D3E33E 		.ascii	"R\323\343>\332sp\205@\035\005\016\032\034\206P\346r"
 179      DA737085 
 179      401D050E 
 179      1A1C8650 
 179      E672
 180 01ca 08518DBA 		.ascii	"\010Q\215\272\215kP\256\3445\363u\301l\013\346\372T"
 180      8D6B50AE 
 180      E435F375 
 180      C16C0BE6 
 180      FA54
 181 01dc 18BBEB4C 		.ascii	"\030\273\353L@\235s\274I\240\212\356\004\361H\2724\231"
 181      409D73BC 
 181      49A08AEE 
 181      04F148BA 
 181      3499
 182 01ee 703A4341 		.ascii	"p:CA\033q\3558zJ\243/\010tG\241\337\270fh\364\364\004"
 182      1B71ED38 
 182      7A4AA32F 
 182      087447A1 
 182      DFB86668 
ARM GAS  /tmp/ccLSw0YD.s 			page 14


 183 0205 7C4E053B 		.ascii	"|N\005;\004\375>fZc&zb\021Li\010\300\275\232\011r>\272"
 183      04FD3E66 
 183      5A63267A 
 183      62114C69 
 183      08C0BD9A 
 184 021d 25151881 		.ascii	"%\025\030\201\371\350\311\203\003dM\227\300 '\210T\363"
 184      F9E8C983 
 184      03644D97 
 184      C0202788 
 184      54F3
 185 022f D3B9DBF0 		.ascii	"\323\271\333\360\363\037\325\271/=\315\217\302+\371"
 185      F31FD5B9 
 185      2F3DCD8F 
 185      C22BF9
 186 023e 3C04D20A 		.ascii	"<\004\322\012\356\337\347h\215m\254\365p\030\023\350"
 186      EEDFE768 
 186      8D6DACF5 
 186      701813E8 
 187 024e 9A1964F5 		.ascii	"\232\031d\365\264:\267x QB\214\275\032\240\265\3257"
 187      B43AB778 
 187      2051428C 
 187      BD1AA0B5 
 187      D537
 188 0260 0C51B295 		.ascii	"\014Q\262\225\373L\037rEP\260I\265PT\013ZW\312R\014"
 188      FB4C1F72 
 188      4550B049 
 188      B550540B 
 188      5A57CA52 
 189 0275 D2EBC562 		.ascii	"\322\353\305b\004\035\033E>\244`\245\237;\372\244z\265"
 189      041D1B45 
 189      3EA460A5 
 189      9F3BFAA4 
 189      7AB5
 190 0287 C1513779 		.ascii	"\301Q7y\310\226\015Y\256]Z]V\216\3065\325\323c\261\253"
 190      C8960D59 
 190      AE5D5A5D 
 190      568EC635 
 190      D5D363B1 
 191 029c 6FB7D558 		.ascii	"o\267\325X\226\252\203+\352\\\273\271\015\216-\244#"
 191      96AA832B 
 191      EA5CBBB9 
 191      0D8E2DA4 
 191      23
 192 02ad BA1FEBAB 		.ascii	"\272\037\353\253\017\243\373\261C$\273C\310-x\234R\031"
 192      0FA3FBB1 
 192      4324BB43 
 192      C82D789C 
 192      5219
 193 02bf A1BB3913 		.ascii	"\241\2739\023\365b\226`\304\305t\344\316\205h''2\231"
 193      F5629660 
 193      C4C574E4 
 193      CE856827 
 193      273299
 194 02d2 95B47F65 		.ascii	"\225\264\177e\365rgC\205'\342\220\316n#m\262\312\223"
 194      F5726743 
 194      8527E290 
 194      CE6E236D 
ARM GAS  /tmp/ccLSw0YD.s 			page 15


 194      B2CA93
 195 02e5 EF24383B 		.ascii	"\357$8;\223\245s\340W\020=vs\355\205\251\017\355\324"
 195      93A573E0 
 195      57103D76 
 195      73ED85A9 
 195      0FEDD4
 196 02f8 610BDA8B 		.ascii	"a\013\332\213\230\344\355l\225\312d\340S?F\351\353\242"
 196      98E4ED6C 
 196      95CA64E0 
 196      533F46E9 
 196      EBA2
 197 030a D009AD29 		.ascii	"\320\011\255)!\273h\203\203t\310\204\224\337KV3\027"
 197      21BB6883 
 197      8374C884 
 197      94DF4B56 
 197      3317
 198 031c F1E6DA48 		.ascii	"\361\346\332H9\201\252\227\333Z\315\322<\335\015y\374"
 198      3981AA97 
 198      DB5ACDD2 
 198      3CDD0D79 
 198      FC
 199 032d 16E3445E 		.ascii	"\026\343D^\336<\242\346,\362\316\373\315m\350\273S\015"
 199      DE3CA2E6 
 199      2CF2CEFB 
 199      CD6DE8BB 
 199      530D
 200 033f AF2E8D7D 		.ascii	"\257.\215}t[\275\335\255\353\221VW\351\321\245\372r"
 200      745BBDDD 
 200      ADEB9156 
 200      57E9D1A5 
 200      FA72
 201 0351 94C79E96 		.ascii	"\224\307\236\226m\330\262\251[\266`\236 Z\267`\257x"
 201      6DD8B2A9 
 201      5BB6609E 
 201      205AB760 
 201      AF78
 202 0363 57E59BBB 		.ascii	"W\345\233\273\244w8\012\\x\225\321]\362\240\276\034"
 202      A477380A 
 202      5C7895D1 
 202      5DF2A0BE 
 202      1C
 203 0374 D9EE6EE8 		.ascii	"\331\356n\350\222\361\266oH\242Q\366\220\203\004\330"
 203      92F1B66F 
 203      48A251F6 
 203      908304D8 
 204 0384 E4F65EDA 		.ascii	"\344\366^\332h\267Q^\223\024\002T7\274\3762\342\350"
 204      68B7515E 
 204      93140254 
 204      37BCFE32 
 204      E2E8
 205 0396 FB7F2FDB 		.ascii	"\373\177/\333\366\332dK\257\247>]\014\027\276\271#\253"
 205      F6DA644B 
 205      AFA73E5D 
 205      0C17BEB9 
 205      23AB
 206 03a8 B1FEAA1A 		.ascii	"\261\376\252\032\245\260\240\200\337\217\351N\306t\307"
 206      A5B0A080 
ARM GAS  /tmp/ccLSw0YD.s 			page 16


 206      DF8FE94E 
 206      C674C7
 207 03b7 DAFE38F0 		.ascii	"\332\3768\360\017mO\343\207\266\240=\360x\223.\302\364"
 207      0F6D4FE3 
 207      87B6A03D 
 207      F078932E 
 207      C2F4
 208 03c9 D2CBE156 		.ascii	"\322\313\341V\037N\246<\226\037\316\37309\377\312\326"
 208      1F4EA63C 
 208      961FCEFB 
 208      3039FFCA 
 208      D6
 209 03da E7E4739A 		.ascii	"\347\344s\232\350\352\006?w\240xv|\2548>V*\226F\374"
 209      E8EA063F 
 209      77A07876 
 209      7CAC383E 
 209      562A9646 
 210 03ef 21FF93F1 		.ascii	"!\377\223\361\"\375\306>S+#\037\017\216\036)\001\373"
 210      22FDC63E 
 210      532B231F 
 210      0F8E1E29 
 210      01FB
 211 0401 74948D8C 		.ascii	"t\224\215\214Z\\\033\375\017r\256\\\366"
 211      5A5C1BFD 
 211      0F72AE5C 
 211      F6
 212              		.text
 213              		.section	.gnu.lto_chHeapStatus.c6f863a9fec2ee3,"",%progbits
 214 0000 789C8D53 		.ascii	"x\234\215S\317KTQ\024>\347\336\367cf\336\314\030Q\013"
 214      CF4B5451 
 214      143EE7DE 
 214      F76366DE 
 214      CC18510B 
 215 0014 772251A0 		.ascii	"w\"Q\240\341\020\255\"\242\177B\241V1N1\276\205\245"
 215      E110AD22 
 215      A27F42A1 
 215      56314E31 
 215      BE85A5
 216 0027 4E6D74E1 		.ascii	"Nmt\341\035}\221\201\201\030bY\013E\304,\313M\013\311"
 216      1D7D9181 
 216      81186259 
 216      0B45C42C 
 216      CB4D0BC9 
 217 003b C031A41C 		.ascii	"\3001\244\034\301Dw\212\213\241\026\"\270j\021%\321"
 217      C144778A 
 217      8BA11622 
 217      B86A1125 
 217      D1
 218 004c 74EEBBF7 		.ascii	"t\356\273\367\315\274\011\241\0363\357\334w\357w\316"
 218      CDBC09A1 
 218      1E33EFDC 
 218      77EF77CE 
 219 005c F9CE77CE 		.ascii	"\371\316w\316e\300\340\357\247\233\376gM\200\026\262"
 219      65C0E0EF 
 219      A79BFE67 
 219      4D8016B2 
 220 006c 18036423 		.ascii	"\030\003d#\237\001\362\021\306\370\236\003\"f\274\375"
ARM GAS  /tmp/ccLSw0YD.s 			page 17


 220      9F01F211 
 220      C6F89E03 
 220      2266BCFD 
 221 007c 0020E21C 		.ascii	"\000 \342\034\015\265o\240\245\026\246Z\254D,f\016\177"
 221      0DB56FA0 
 221      A516A65A 
 221      AC442C66 
 221      0E7F
 222 008e 224CCCF6 		.ascii	"\"L\314\366lB\332,2\361Q~F\277\313\317\010F\025>\212"
 222      6C42DA2C 
 222      32F1517E 
 222      46BFCBCF 
 222      0846153E 
 223 00a3 281780D0 		.ascii	"(\027\200\320\317\270aZ6\355\364_GI\2017\302\224\020"
 223      CFB8615A 
 223      36EDF45F 
 223      47498137 
 223      C29410
 224 00b6 A3A5FBB3 		.ascii	"\243\245\373\263\337\330SQ\360&\305\257r\031\321E\242"
 224      DFD85351 
 224      F026C5AF 
 224      7219D145 
 224      A2
 225 00c7 7B0E2183 		.ascii	"{\016!\203p\215>\260\3017\314\250\345\257|\013K\243"
 225      708D3EB0 
 225      C137CCA8 
 225      E5AF7C0B 
 225      4BA3
 226 00d9 8FEAC5E4 		.ascii	"\217\352\305\344\300\210\370M\256.r\006M\377\347)\226"
 226      C088F84D 
 226      AE2E7206 
 226      4DFFE729 
 226      96
 227 00ea 6EAE09AF 		.ascii	"n\256\011\257P._\365\275\316\377\313k\201\025J\345\362"
 227      502E5FF5 
 227      BDCEFFCB 
 227      6B81154A 
 227      E5F2
 228 00fc FBC7075F 		.ascii	"\373\307\007_\327\361\324I\204N\3112\215S\330\010\234"
 228      D7F1D449 
 228      844EC932 
 228      8D53D808 
 228      9C
 229 010d EC345983 		.ascii	"\3544Y\203\354\014Y\013\351\320\006\027\215\230F8\364"
 229      EC0C590B 
 229      E9D00617 
 229      8D984638 
 229      F4
 230 011e 01717A99 		.ascii	"\001qz\231\011\215Ij\237:\302J1L\360\204\030iPpu\244"
 230      098D496A 
 230      9F3AC24A 
 230      314CF084 
 230      18695070 
 231 0134 802079D1 		.ascii	"\200 y\321\323Jo\022\272\015\031\031\276\006\253\373"
 231      D34A6F12 
 231      BA0D1919 
 231      BE06ABFB 
ARM GAS  /tmp/ccLSw0YD.s 			page 18


 232 0144 2BCBA33C 		.ascii	"+\313\243<\215\263hB\026-I\331\012\363mC\016\017\220"
 232      8DB36842 
 232      162D49D9 
 232      0AF36D43 
 232      0E0F90
 233 0157 1761A0F4 		.ascii	"\027a\240\364\342\300R8\242\325\007GbH\210\313\204\356"
 233      E2C05238 
 233      A2D50747 
 233      624888CB 
 233      84EE
 234 0169 4416421B 		.ascii	"D\026B\0332,\241# aYIj\003\006\216\006\027f*I\354>\350"
 234      322CA123 
 234      20615949 
 234      6A03068E 
 234      0617662A 
 235 0181 A5A29AA1 		.ascii	"\245\242\232\241\311E\373\031LP\312\010\001\253\251"
 235      C945FB19 
 235      4C50CA08 
 235      01ABA9
 236 0190 DB314460 		.ascii	"\3331D`\023\014\345\010:\351\011\027\243\031T\020\012"
 236      130CE508 
 236      3AE90917 
 236      A3195410 
 236      0A
 237 01a1 E6D2D481 		.ascii	"\346\322\324\201\2447_D\005T\005\313p\\b\344\331\353"
 237      A4375F44 
 237      055405CB 
 237      705C62E4 
 237      D9EB
 238 01b3 B9CAD974 		.ascii	"\271\312\331t\370\314\247\2664c\005\324b2\005=\027H"
 238      F8CCA7B6 
 238      346305D4 
 238      6232053D 
 238      1748
 239 01c5 E7667829 		.ascii	"\347fx)\227W\\t\216'\031bI9\012V\220AJ\237\225\254\000"
 239      97575C74 
 239      8E271962 
 239      49390A56 
 239      90414A9F 
 240 01dc 76004954 		.ascii	"v\000IT\206\212yak;Y\021\214/r\251\227\0114\375\234"
 240      868A7961 
 240      6B3B5911 
 240      8C2F72A9 
 240      970934FD 
 241 01f1 78EC3E79 		.ascii	"x\354>y\263]\221(\356\213\3035\205\033.\306\025\005"
 241      B35D9128 
 241      EE8BC335 
 241      851B2EC6 
 241      1505
 242 0203 278B8EA4 		.ascii	"'\213\216\244\000\232\002\323\226k\036\033084\330\036"
 242      009A02D3 
 242      966B1E1B 
 242      303834D8 
 242      1E
 243 0214 444950A0 		.ascii	"DIP\240,u\204\350\261\2604t\242\241\373\325\322\223"
 243      2C7584E8 
 243      B1B03474 
ARM GAS  /tmp/ccLSw0YD.s 			page 19


 243      A2A1FBD5 
 243      D293
 244 0226 59E4BE2E 		.ascii	"Y\344\276.\0105\016\323\276CR\351\370\356\341_U:A\337"
 244      08350ED3 
 244      BE4352E9 
 244      F8EEE15F 
 244      553A41DF 
 245 023a 2DA0EBA9 		.ascii	"-\240\353\251\033\037d\3613\253\015\025\205W7\224;\363"
 245      1B1F64F1 
 245      33AB0D15 
 245      85573794 
 245      3BF3
 246 024c 5BB0FBE3 		.ascii	"[\260\373\343\325:\013x8~\351\201\372t\253\022zy)\254"
 246      D53A0B78 
 246      387EE981 
 246      FA74AB12 
 246      7A7929AC 
 247 0260 023B4E05 		.ascii	"\002;N\005C[S\253\261\006\336a\376b%p\325\005To\030"
 247      435B53AB 
 247      B106DE61 
 247      FE622570 
 247      D505546F 
 248 0275 75C9381C 		.ascii	"u\3118\034\253\2473s~<\275\003\\\017\206\2617v\232j"
 248      ABA73373 
 248      7E3CBD03 
 248      5C0F86B1 
 248      37769A6A 
 249 0289 369F8FD7 		.ascii	"6\237\217\327\357\200\021l\256\216Q3\023\346\360xZ\026"
 249      EF80116C 
 249      AE8E5133 
 249      13E6F078 
 249      5A16
 250 029b 6CABFBE3 		.ascii	"l\253\373\343\035\256\374\254\336\237:\211M\326\336"
 250      1DAEFCAC 
 250      DE9F3A89 
 250      4DD6DE
 251 02aa 9F08CC59 		.ascii	"\237\010\314Y\262\301\305\305\205/z\012\251\214<U\344"
 251      B2C1C5C5 
 251      852F7A0A 
 251      A98C3C55 
 251      E4
 252 02bb 50DC1A9F 		.ascii	"P\334\032\237\254.\201\274\2422\374&x\245e\367\270\361"
 252      AC2E81BC 
 252      A232FC26 
 252      78A565F7 
 252      B8F1
 253 02cd 6735E3BF 		.ascii	"g5\343\277\005\371\311b4 \241\207\241\225\006\324\263"
 253      05F9C962 
 253      3420A187 
 253      A19506D4 
 253      B3
 254 02de 25F04CEA 		.ascii	"%\360L\352^\256'\225\353\311\2442\035n\273{'\227\242"
 254      5EAE2795 
 254      EBC9A432 
 254      1D6EBB7B 
 254      2797A2
 255 02f1 5FCF5DBD 		.ascii	"_\317]\275\323q+\335\325\222\001\326\335\205\267Y\256"
ARM GAS  /tmp/ccLSw0YD.s 			page 20


 255      D3712BDD 
 255      D59201D6 
 255      DD85B759 
 255      AE
 256 0302 F70F5856 		.ascii	"\367\017XV5Y"
 256      3559
 257              		.text
 258              		.section	.gnu.lto_.symbol_nodes.c6f863a9fec2ee3,"",%progbits
 259 0000 789C4DCC 		.ascii	"x\234M\314=\012\302@\020\005\340\367vv\263\311)r\324"
 259      3D0AC240 
 259      1005E0F7 
 259      7676B3C9 
 259      2972D4
 260 0013 892C8820 		.ascii	"\211,\210 \210\220\336\306\243\330[hi\243\204\030\177"
 260      8890DEC6 
 260      A3D85B68 
 260      69A38418 
 260      7F
 261 0024 16BD819A 		.ascii	"\026\275\201\232h0\231\346\361\315<\306\300\340\200"
 261      683099E6 
 261      F1CD3CC6 
 261      C0E080
 262 0033 7ECC990A 		.ascii	"~\314\231\012,\267\200\352jFW\023V\205w*\177\333bB\323"
 262      2CB780EA 
 262      6A465713 
 262      5685772A 
 262      7FDB6242 
 263 0048 50CDD031 		.ascii	"P\315\3201\027\252\214x\245\332\021oT7\220\221\232\364"
 263      17AA8C78 
 263      A5DA116F 
 263      54379091 
 263      9AF4
 264 005a 9F0AF249 		.ascii	"\237\012\362I\365\203\036\324\364/\201Gu|Q\304#Lc.6"
 264      F5831ED4 
 264      F42F8147 
 264      757C51C4 
 264      234C632E 
 265 006f C3FA9B29 		.ascii	"\303\372\233)\252E\364]\206\335\333[\213r\337xq\031"
 265      AA45F45D 
 265      86DDDB5B 
 265      8B72DF78 
 265      7119
 266 0081 AA535B77 		.ascii	"\252S[w\355\271lkI\206\3209I\261\231\307\034\037\320"
 266      EDB96C6B 
 266      4986D039 
 266      49B199C7 
 266      1C1FD0
 267 0094 0044F5   		.ascii	"\000D\365"
 268              		.text
 269              		.section	.gnu.lto_.refs.c6f863a9fec2ee3,"",%progbits
 270 0000 789C6362 		.ascii	"x\234cb`b\020e\200\000V\006FF&&F \000\022,@\314\306"
 270      60621065 
 270      80005606 
 270      46462626 
 270      46200012 
 271 0018 C4C80000 		.ascii	"\304\310\000\000\004\212\000>"
 271      048A003E 
ARM GAS  /tmp/ccLSw0YD.s 			page 21


 272              		.text
 273              		.section	.gnu.lto_.decls.c6f863a9fec2ee3,"",%progbits
 274 0000 789CBD5A 		.ascii	"x\234\275Z\015p\024\325\035\177o/w\311%Q\020\247\026"
 274      0D7014D5 
 274      1D7F6F2F 
 274      77C92551 
 274      10A716
 275 0013 AD534F47 		.ascii	"\255SOG[F\305\204\372\205\235\216\340\320Q:S[\246\350"
 275      5B46C584 
 275      FA859D8E 
 275      E0D0513A 
 275      535BA6E8 
 276 0027 8CD376E6 		.ascii	"\214\323v\346X.Kr\232\373poC\2023\016\233\003b\014\212"
 276      582E4B72 
 276      9AFB706F 
 276      4382330E 
 276      9B03620C 
 277 003c 10BE2184 		.ascii	"\020\276!\204\004\014\212\312G(\020\020\224\023mH1\004"
 277      040C8ACA 
 277      47281010 
 277      94136D48 
 277      3104
 278 004e 0214AAD8 		.ascii	"\002\024\252\330\222\252\225i\375\004\004eT\256\377"
 278      92AA9569 
 278      FD040465 
 278      54AEFF
 279 005d F7F6EDDD 		.ascii	"\367\366\355\335\356\273\335\273\275\243v'\357\355\333"
 279      EEBBDDBB 
 279      BDA37627 
 279      EFEDDB
 280 006c BDF77EFF 		.ascii	"\275\367~\377\317\367\376\377\3676\002\022\320(\027"
 280      CFF7FEFF 
 280      F7360212 
 280      D02817
 281 007b 4249B846 		.ascii	"BI\270F\215Fh\235\033!\017B\350^(\320D\235P\326@\231"
 281      8D46689D 
 281      1B210F42 
 281      E85E28D0 
 281      449D50D6 
 282 0091 84119A0C 		.ascii	"\204\021\232\014e\026\024\370C\215Py\341>\033\356\315"
 282      651614F8 
 282      438D5079 
 282      E13E1BEE 
 282      CD
 283 00a2 505AA02C 		.ascii	"PZ\240,\201\322\016\245\013\312F([\240le\375\267\223"
 283      81D20EA5 
 283      0BCA4628 
 283      5BA06C65 
 283      FDB793
 284 00b5 CA709171 		.ascii	"\312p\221q\227\301\375\017p\177\210aO\201\322\000\245"
 284      97C1FD0F 
 284      707F8861 
 284      4F81D200 
 284      A5
 285 00c6 0E8A0C25 		.ascii	"\016\212\014%\2005\272;p\232\217M\320.\206\373\357\341"
 285      8035BA3B 
 285      709A8F4D 
ARM GAS  /tmp/ccLSw0YD.s 			page 22


 285      D02E86FB 
 285      EFE1
 286 00d8 3E15CAE3 		.ascii	">\025\312\343P\024(\365P\236\304\032_.\003_\033m\350"
 286      501428F5 
 286      509EC41A 
 286      5F2E035F 
 286      1B6DE8
 287 00eb 137E8719 		.ascii	"\023~\207\031d$t/\207{9\307\023\317\013\341\201\360"
 287      6424742F 
 287      877B39C7 
 287      13CF0BE1 
 287      81F0
 288 00fd E3840F81 		.ascii	"\343\204\017\201\321!<\024A\273\025\356\363\241,\202"
 288      D1213C14 
 288      41BB15EE 
 288      F3A12C82 
 289 010d B293E387 		.ascii	"\262\223\343\207\350n\004\307\3078\003\177S\030?\223"
 289      E86E04C7 
 289      C738037F 
 289      53183F93 
 290 011d 182F0F71 		.ascii	"\030/\017q\274\310\214W\302\373\037\241\224 \215\257"
 290      BCC88C57 
 290      C2FB1FA1 
 290      94208DAF 
 291 012d 46C6DB93 		.ascii	"F\306\333\223\006\376\236\300\032\337.Fw+\263\025y^"
 291      06FE9EC0 
 291      1ADF2E46 
 291      772BB315 
 291      795E
 292 013f 09F7369C 		.ascii	"\011\3676\234\251\257v\306\227\221\277\311\314.\204"
 292      A9AF76C6 
 292      9791BFC9 
 292      CC2E84
 293 014e 47A39E78 		.ascii	"G\243\236x\336&1]\351:z\002\247y\323\365\345b4t^\210"
 293      DE26315D 
 293      E93A7A02 
 293      A779D3F5 
 293      E5623474 
 294 0164 EED6C07D 		.ascii	"\356\326\300}\017\307G\027\263\233\221\217I\006>&3\332"
 294      0FC74717 
 294      B39B918F 
 294      49063E26 
 294      33DA
 295 0176 0FE134FD 		.ascii	"\017\3414\375\200A?\304\177=\314\177u\273\031u\343b"
 295      80413FC4 
 295      7F3DCC7F 
 295      75BB1975 
 295      E362
 296 0188 348C3A79 		.ascii	"4\214:y\011\356/[\350\244\014\265\250j\\\355hR'\366"
 296      09EE2F5B 
 296      E8A40CB5 
 296      A86A5CED 
 296      685227F6 
 297 019c 5D3E022D 		.ascii	"]>\002-P\341\362\365\001W\217`\021_\356E*\246\255r/"
 297      50E1F2F5 
 297      01578F60 
 297      115FEE45 
ARM GAS  /tmp/ccLSw0YD.s 			page 23


 297      2AA6AD72 
 298 01b1 1A0EBD6F 		.ascii	"\032\016\275oB\317\253\352\374\2419'\256U\213D\274\006"
 298      42CFABEA 
 298      FCA13927 
 298      AE558B44 
 298      BC06
 299 01c3 8F00196F 		.ascii	"\217\000\031o\306\350f\264\036\206\315W\325\275\327"
 299      C6E866B4 
 299      1E86CD57 
 299      D5BDD7
 300 01d2 A0CC2B27 		.ascii	"\240\314+'\252\200\356\301H\304\353\000N\304]\370f\215"
 300      AA80EEC1 
 300      48C4EB00 
 300      4EC45DF8 
 300      668D
 301 01e4 8C9A382B 		.ascii	"\214\2328+\372\264\267\210\275\267\270\256G\035\244"
 301      FAB4B788 
 301      BDB7B8AE 
 301      471DA4
 302 01f3 EBB97F79 		.ascii	"\353\271\177y\325\326r\013J\343uB%i\366\0277\035]\200"
 302      D5D6720B 
 302      4AE37542 
 302      2569F617 
 302      371D5D80 
 303 0207 67AB2AFC 		.ascii	"g\253*\374\360\022\025!\202M\004\030L\307x;\034\001"
 303      F0121521 
 303      824D0418 
 303      4CC7783B 
 303      1C01
 304 0219 CD242336 		.ascii	"\315$#6p\014\017\015\356\377*\216\033)\360\006\007l"
 304      700C0F0D 
 304      EEFF2A8E 
 304      1B29F006 
 304      076C
 305 022b C713A7E7 		.ascii	"\307\023\247\347\256\272Z\355\330\213sY\241\243H'\377"
 305      AEBA5AED 
 305      D88B7359 
 305      A1A34827 
 305      FF
 306 023c CBB4188B 		.ascii	"\313\264\030\213z\307\021+l\241\"\354\304\2262\330\203"
 306      7AC7112B 
 306      6CA122EC 
 306      C49632D8 
 306      83
 307 024d 08682F1D 		.ascii	"\010h/\035\262-C\210\226?\317bBls$\304\322y\232\020"
 307      B22D4388 
 307      963FCF62 
 307      426C7324 
 307      C4D2799A 
 308 0262 22EE0641 		.ascii	"\"\356\006A\004\324\237\302e\204}:]\262\200\260\246"
 308      04D49FC2 
 308      65847D3A 
 308      5DB280B0 
 308      A6
 309 0273 76B10E66 		.ascii	"v\261\016f\274\025\003\345\363E\035\354H\336`>\023\330"
 309      BC1503E5 
 309      F3451DEC 
ARM GAS  /tmp/ccLSw0YD.s 			page 24


 309      48DE603E 
 309      13D8
 310 0285 EA8136CA 		.ascii	"\352\2016\312\234\0275\2475\214,\301\230Z\317\315\033"
 310      9C1735A7 
 310      358C2CC1 
 310      985ACFCD 
 310      1B
 311 0296 18C4B3A8 		.ascii	"\030\304\263\250\374\257\3010\001-\025\314\252u\016"
 311      FCAFC130 
 311      012D15CC 
 311      AA750E
 312 02a5 956C7DFE 		.ascii	"\225l}\376VU-\021q\202\002\355-\030\250\347\330[\013"
 312      56552D11 
 312      718202ED 
 312      2D18A8E7 
 312      D85B0B
 313 02b8 184F6F52 		.ascii	"\030OoR\250\013\034\224\210\213SjL=\353\035\010\036"
 313      A80B1C94 
 313      888B536A 
 313      4C3DEB1D 
 313      081E
 314 02ca FD993548 		.ascii	"\375\2315H\234\034\206\276\347\356\002\232\355r`\272"
 314      9C1C86BE 
 314      E7EE029A 
 314      ED7260BA 
 315 02da 123B3F50 		.ascii	"\022;?P\207\016\265\364\273\226\253\211\331.}>z\354"
 315      870EB5F4 
 315      BB96AB89 
 315      D92E7D3E 
 315      7AEC
 316 02ec B424A0B9 		.ascii	"\264$\240\271\224V\037\357\313\307\337\355\327'd\237"
 316      94561FEF 
 316      CBC7DFED 
 316      D727649F 
 317 02fc 235FDEB6 		.ascii	"#_\336\266\177\251\263\011)\350\364o\244\364\337\240"
 317      7FA9B309 
 317      29E8F46F 
 317      A4F4DFA0 
 318 030c F40FF0F4 		.ascii	"\364\017\360\364w\265\237\327\347\322\001G\364W\037"
 318      77B59FD7 
 318      E7D20147 
 318      F4571F
 319 031b 5E94495F 		.ascii	"^\224I_\304\367\376 \233w\034\177\367\243\323\214\312"
 319      C4F7FE20 
 319      9B771C7F 
 319      F7A3D38C 
 319      CA
 320 032c 209D3449 		.ascii	" \2354I\027\357\035\343\312\314\366\203gC\007\0015\027"
 320      17EF1DE3 
 320      CACCF683 
 320      67430701 
 320      3517
 321 033e E9FC1734 		.ascii	"\351\374\0274gA\320\376E\270u\226\332W\251\36307oD\237"
 321      6741D0FE 
 321      45B87596 
 321      DA57A9F3 
 321      30376F44 
ARM GAS  /tmp/ccLSw0YD.s 			page 25


 322 0353 49135B0E 		.ascii	"I\023[\016\323U@\003\233\347\004\314\326\225\342\211"
 322      D3554003 
 322      9BE704CC 
 322      D695E289 
 323 0363 AD46B005 		.ascii	"\255F\260\005y\203\2319\333n\004[\344\004l\270=g;\214"
 323      79839939 
 323      DB6E045B 
 323      E4046CB8 
 323      3D673B8C 
 324 0377 604BF306 		.ascii	"`K\363\0063s\366\252\021l\205\023\260\221\366\234\355"
 324      3373F6AA 
 324      116C8513 
 324      B091F69C 
 324      ED
 325 0388 3682B5E7 		.ascii	"6\202\265\347\015f\346\354u#\330\032'`>\013\316R\227"
 325      0D66E6EC 
 325      7523D81A 
 325      27603E0B 
 325      CE5297
 326 039b D538E2D6 		.ascii	"\3258\342\326\3758\345\347\002\352*\322\327\204<}\032"
 326      FD38E5E7 
 326      02EA2AD2 
 326      D7843C7D 
 326      1A
 327 03ac A531D617 		.ascii	"\2451\326\027\345\273\206\231\344\206`z`-^\250\315\013"
 327      E5BB8699 
 327      E486607A 
 327      602D5EA8 
 327      CD0B
 328 03be 2DA06D72 		.ascii	"-\240mr\202\230\305a\266\033\243cO\336`f\263\034%`\246"
 328      8298C561 
 328      B61BA363 
 328      4FDE6066 
 328      B31C2560 
 329 03d3 B586C5A4 		.ascii	"\265\206\305\244\241\256\304\310e\351\345\256D\307\""
 329      A1AEC4C8 
 329      65E9E5AE 
 329      44C722
 330 03e2 D9A3B6B6 		.ascii	"\331\243\266\266A\266'\244:\253#GZ\367\025\361g\370"
 330      41B627A4 
 330      3AAB2347 
 330      5AF715F1 
 330      67F8
 331 03f4 26A83FC7 		.ascii	"&\250?\307\336\024\027Z[o%i\242\274\247\210\313K\365"
 331      DE14175A 
 331      5B6F2569 
 331      A2BCA788 
 331      CB4BF5
 332 0407 2BD7503B 		.ascii	"+\327P;O\370\304\350\011o9QS\226\251\360\315@\333\017"
 332      4FF8C4E8 
 332      096F3951 
 332      5396A9F0 
 332      CD40DB0F 
 333 041b D5A10436 		.ascii	"\325\241\0046\310\233U9\220D\014\364\353I\304Y\032\260"
 333      C89B5539 
 333      90440CF4 
 333      EB49C459 
ARM GAS  /tmp/ccLSw0YD.s 			page 26


 333      1AB0
 334 042d DF2EB28C 		.ascii	"\337.\262\214\375\016\240\222\255Kn\241I\304y\012t\264"
 334      FD0EA092 
 334      AD4B6EA1 
 334      49C4790A 
 334      74B4
 335 043f 60A09E63 		.ascii	"`\240\236c\355c)\320\005\012\364^\021\037$0\227B`s\220"
 335      ED6329D0 
 335      050AF45E 
 335      111F2430 
 335      97426073 
 336 0454 4FE99EA9 		.ascii	"O\351\236\251\376\373\352+\240\217x{\231\304\311\271"
 336      FEFBEA2B 
 336      A08F787B 
 336      99C4C9B9 
 337 0464 DA401EFE 		.ascii	"\332@\036\376\341B|6\256.\253\314\303b\363R\026\273"
 337      E1427C36 
 337      AE2EABCC 
 337      C362F352 
 337      16BB
 338 0476 48F5F359 		.ascii	"H\365\363Y\206~\316\347\251 \001\235\317[\220QfAZN\025"
 338      867ECEE7 
 338      A920019D 
 338      CF5B9051 
 338      66415A4E 
 339 048b 20C8015D 		.ascii	" \310\001]\220Y\002\021\344\342\377@\220&w\276\202T"
 339      90590211 
 339      E4E2FF40 
 339      902677BE 
 339      8254
 340 049d 1A04213B 		.ascii	"\032\004!;\243/\027i\353\340\225\2505{2G\370i\026\256"
 340      A32F1769 
 340      EBE095A8 
 340      357B3247 
 340      F86916AE 
 341 04b1 346F05CF 		.ascii	"4o\005\317\035\304>\355u\356\275\340\302\303\206\224"
 341      1DC43EED 
 341      75EEBDE0 
 341      C2C38694 
 342 04c1 5F7594F2 		.ascii	"_u\224\362\017\244R\376\271Te\317\272-&\231#\250\344"
 342      0FA452FE 
 342      B95465CF 
 342      BA2D2699 
 342      23A8E4
 343 04d4 E1D5DA6C 		.ascii	"\341\325\332l\235G\201\026\026\014\324sl\2176[\027P"
 343      9D478116 
 343      160CD473 
 343      6C8F365B 
 343      1750
 344 04e6 A0956EDE 		.ascii	"\240\225n\336\210\036\316\206\036\263\015\341\221P\372"
 344      881ECE86 
 344      1EB30DE1 
 344      9150FA
 345 04f5 9AA4E378 		.ascii	"\232\244\343x&{C\036\212\321\377}\034\304b\312>\261"
 345      267B431E 
 345      8AD1FF7D 
 345      1CC462CA 
ARM GAS  /tmp/ccLSw0YD.s 			page 27


 345      3EB1
 346 0507 5F21F925 		.ascii	"_!\371%\331\224\366/\322\343\250f\242W.\0111\236\330"
 346      D994F62F 
 346      D2E3A866 
 346      A2572E09 
 346      319ED8
 347 051a D3AAEF5A 		.ascii	"\323\252\357Z\307\221H\272\355\022\341\336;\314GR.\205"
 347      C79148BA 
 347      ED12E1DE 
 347      3BCC4752 
 347      2E85
 348 052c DF62137D 		.ascii	"\337b\023}Rg\022\275o\3408u\301\225\002ahw\206\301\273"
 348      526712BD 
 348      6FE03875 
 348      C1950261 
 348      687786C1 
 349 0541 3197C493 		.ascii	"1\227\304\223\027\206.v\223i\205`\010\205\007/MN0\304"
 349      17862E76 
 349      93698560 
 349      0885072F 
 349      4D4E30C4 
 350 0555 C9E73543 		.ascii	"\311\3475C\344\332\"M\321\321\312)\341\277R\302\235"
 350      E4DA224D 
 350      D1D1CA29 
 350      E1BF52C2 
 350      9D
 351 0566 02B7435A 		.ascii	"\002\267CZ\374\371P\023\223\233\374\226{v\237\240'="
 351      FCF95013 
 351      939BFC96 
 351      7B769FA0 
 351      273D
 352 0578 FAC94D8B 		.ascii	"\372\311M\213GGeT\307\033\223\262\234~\225\370\207\324"
 352      47476554 
 352      C71B93B2 
 352      9C7E95F8 
 352      87D4
 353 058a 5799CF3A 		.ascii	"W\231\317:qT_'^\240N\330\352\341\215D\246}\341\323d"
 353      71545F27 
 353      5EA04ED8 
 353      EAE18D44 
 353      A67DE1D3 
 354 059f 192F8ED3 		.ascii	"\031/\216\323}N\352\262s\202\016\243\023\264{.\321\011"
 354      7D4EEAB2 
 354      73820EA3 
 354      13B47B2E 
 354      D109
 355 05b1 F69FB272 		.ascii	"\366\237\262r\002\355\260\316\216\203\015F\016\272."
 355      02EDB0CE 
 355      8E830D46 
 355      0EBA2E
 356 05c0 8D83C49E 		.ascii	"\215\203\304\236#y\037\353\014\034\324m\267Y[@2l\227"
 356      23791FEB 
 356      0C1CD46D 
 356      B7595B40 
 356      326C97
 357 05d3 E0C3A293 		.ascii	"\340\303\242\223S\216\035\205J\222\272 \373\3658\310"
 357      538E1D85 
ARM GAS  /tmp/ccLSw0YD.s 			page 28


 357      4A92BA20 
 357      FBF538C8 
 358 05e3 4F7DB65E 		.ascii	"O}\266^\014\223\362+\266:\346<*\321\227\233\336\376"
 358      0C93F22B 
 358      B63AE63C 
 358      2AD1979B 
 358      DEFE
 359 05f5 467604BA 		.ascii	"Fv\004\272] \023\351MN\033\016\316\\\016\323!;\371\031"
 359      5D2013E9 
 359      4D4E1B0E 
 359      CE5C0ED3 
 359      213BF919 
 360 0609 3DD8F2A5 		.ascii	"=\330\362\245~\346\262\323\301\214\216'\216\3145\236"
 360      7EE6B2D3 
 360      C18C8E27 
 360      8ECC359E 
 361 0619 1FC2282C 		.ascii	"\037\302(,0\334B5j2b\232A\021\357\022\310fd\267p\275"
 361      30DC4235 
 361      6A32629A 
 361      4111EF12 
 361      C86664B7 
 362 062f 51FBEFE7 		.ascii	"Q\373\357\347\255}\237Q\373\211\013G\332\260\306\277"
 362      AD7D9F51 
 362      FB890B47 
 362      DAB0C6BF 
 363 063f B6267DC2 		.ascii	"\266&}\302\343Y\255I\243l\255\231\230\177\214\356\360"
 363      E359AD49 
 363      A36CAD99 
 363      987F8CEE 
 363      F0
 364 0650 B430F795 		.ascii	"\2640\367\225\023\346*\355\300\342\2116\015Ls\371\357"
 364      13E62AED 
 364      C0E28936 
 364      0D4C73F9 
 364      EF
 365 0661 F206F399 		.ascii	"\362\006\363\231\300v-\321-\265\201\306\250\346b\007"
 365      C0762DD1 
 365      2DB581C6 
 365      A8E66207 
 366 0671 7863ED99 		.ascii	"xc\355\231;r\254\215\341i'\255\255y\343\231\371;\275"
 366      3B72AC8D 
 366      E16927AD 
 366      AD79E399 
 366      F93BBD
 367 0684 C414D357 		.ascii	"\304\024\323W9\201\033\357\330\221\322'\345\"\356\241"
 367      39811BEF 
 367      D891D227 
 367      E522EEA1 
 368 0694 BBDA1DF8 		.ascii	"\273\332\035\370z\250_\245\365nZ\357\243\365)Z\377\233"
 368      7AA85FA5 
 368      F56E5AEF 
 368      A3F5295A 
 368      FF9B
 369 06a6 D61FD3FA 		.ascii	"\326\037\323\372\014\255\277\243u\\ \365S\264\336F\353"
 369      0CADBFA3 
 369      755C20F5 
 369      53B4DE46 
ARM GAS  /tmp/ccLSw0YD.s 			page 29


 369      EB
 370 06b7 D7699DA0 		.ascii	"\327i\235\240\365^Z\277E\353^Z\367\031\335\325nu\345"
 370      F55E5ABF 
 370      45EB5E5A 
 370      F719DDD5 
 370      6E75E5
 371 06ca 72017D16 		.ascii	"r\001}\026m(\370\024\376\314\333\251s\006\2307y\203"
 371      6D28F814 
 371      FECCDBA9 
 371      73069837 
 371      7983
 372 06dc F9B26972 		.ascii	"\371\262ir\203A\223\233\250&7S\315\3547O\314\256b\375"
 372      8341939B 
 372      A8263753 
 372      CDEC374F 
 372      CCAE62FD 
 373 06f0 B35021C1 		.ascii	"\263P!\301=>4\373\244\341\250d\003\017\3464\2642}|+"
 373      3D3E34FB 
 373      A4E1A864 
 373      030FE634 
 373      B4327D7C 
 374 0705 91DCB393 		.ascii	"\221\334\263\223bm\313\033+\253:\326\031\324\361\"U"
 374      626DCB1B 
 374      2BAB3AD6 
 374      19D4F122 
 374      55
 375 0716 C77AAA8E 		.ascii	"\307z\252\216~j\376\001'\346\357L\347\206\316C\342\205"
 375      7E6AFE01 
 375      27E6EF4C 
 375      E786CE43 
 375      E285
 376 0728 6F867EBE 		.ascii	"o\206~\276IU\207\213\370\020]\036>-\346#\242\233\013"
 376      4955878B 
 376      F8105D1E 
 376      3E2DE623 
 376      A29B0B
 377 073b 886E7340 		.ascii	"\210ns@t{\323\015\026\020-\263\302\346\017\322'5j\352"
 377      747BD30D 
 377      16102DB3 
 377      C2E60FD2 
 377      27356AEA 
 378 074f E4DC97E6 		.ascii	"\344\334\227\346\344\235\344\320>\026\234\217\322p\264"
 378      E49DE4D0 
 378      3E169C8F 
 378      D270B4
 379 075e AAC4FA73 		.ascii	"\252\304\372s\226=\222\200^\246c\216s\361(\261\247\251"
 379      963D9280 
 379      5EA6638E 
 379      73F128B1 
 379      A7A9
 380 0770 9C7C263B 		.ascii	"\234|&;\356(\026\015\366\266e\236\277_\205\026\263\004"
 380      EE28160D 
 380      F6B6659E 
 380      BF5F8516 
 380      B304
 381 0782 51C50A5D 		.ascii	"Q\305\012][\354\314\360\236p\025m\271\350\267_\244)"
 381      5BECCCF0 
ARM GAS  /tmp/ccLSw0YD.s 			page 30


 381      9E70156D 
 381      B9E8B75F 
 381      A429
 382 0794 56C40FBB 		.ascii	"V\304\017\273\262\032\220)\341\344\332\323KX*|\202."
 382      B21A9029 
 382      E1E4DAD3 
 382      4B582A7C 
 382      822E
 383 07a6 AF1F704A 		.ascii	"\257\037pJ\340\222-B\314\216\221!\241\314F\326\214\337"
 383      E0922D42 
 383      CC8E9121 
 383      A1CC46D6 
 383      8CDF
 384 07b8 04F4454A 		.ascii	"\004\364EJq\205,\025*X\357\3205;\267\252j\367\024\266"
 384      71852C15 
 384      2A58EFD0 
 384      353BB7AA 
 384      6AF714B6 
 385 07cc B94F788C 		.ascii	"\271Ox\214"
 386 07d0 7632CD5A 		.ascii	"v2\315Z\001}C\251}\300\357\360\027\366\272|\332\353"
 386      017D43A9 
 386      7DC0EFF0 
 386      17F6BA7C 
 386      DAEB
 387 07e2 DC565ADC 		.ascii	"\334VZ\334\364\3345j\3073#\231\253'\232\324f\334\330"
 387      F4DC356A 
 387      C7332399 
 387      AB279AD4 
 387      66DCD8
 388 07f5 7DAD35C5 		.ascii	"}\2555\305\324G\222\317:\231vOQo\177\312ky\220\346\010"
 388      D44792CF 
 388      3A99764F 
 388      516F7FCA 
 388      6B7990E6 
 389 080a 2CD9FA82 		.ascii	",\331\372\202\366a\357?\3326\340\022\240z\216\375]\377"
 389      F661EF3F 
 389      DA36E012 
 389      A07A8EFD 
 389      5DFF
 390 081c B4F7A9B6 		.ascii	"\264\367\251\266\323\367\362\263\320\313\315B\257y\026"
 390      D3F7F2B3 
 390      D0CBCD42 
 390      AF7916
 391 082b 7ABDE946 		.ascii	"z\275\351FR\277\3703\267\357q\214\200\326yu\223\026"
 391      52BFF833 
 391      B7EF718C 
 391      80D67975 
 391      9316
 392 083d B40B0307 		.ascii	"\264\013\003\007\352\273\032\246X:}\265\375\362N\330"
 392      EABB1AA6 
 392      583A7DB5 
 392      FDF24ED8 
 393 084d 3AC3CFF0 		.ascii	":\303\317\360\245\275\344p\350\214\243\355\343\352\336"
 393      A5BDE470 
 393      E88CA3ED 
 393      E3EADE
 394 085c B731EC1F 		.ascii	"\2671\354\037\035\235B\235\343}ty\257\340\323^\347\366"
ARM GAS  /tmp/ccLSw0YD.s 			page 31


 394      1D9D429D 
 394      E37D7479 
 394      AFE0D35E 
 394      E7F6
 395 086e D1954D16 		.ascii	"\321\225M\026\237\366MJ\312\240\367\265q\207\364\012"
 395      9FF64D4A 
 395      CAA0F7B5 
 395      7187F40A 
 396 087e D5E9B982 		.ascii	"\325\351\271\202wHm\2754\370\035\241+Iw\241`\251K@\333"
 396      77486DBD 
 396      34F81DA1 
 396      2B4977A1 
 396      60A94B40 
 397 0893 29C69902 		.ascii	")\306\231\002W\211x\242\273WO\366\264h\263#o<_\006O"
 397      578978A2 
 397      BB574FF6 
 397      B468B323 
 397      6F3C5F06 
 398 08a8 AF15EA78 		.ascii	"\257\025\352x\006\214=^n\365\263\302\260\377L\235\370"
 398      068C3D5E 
 398      6EF5B3C2 
 398      B0FF4C9D 
 398      F8
 399 08b9 DBFD44CF 		.ascii	"\333\375D\317\332\377\302\364\362X\346\177t14\235\245"
 399      DAFFC2F4 
 399      F258E67F 
 399      7431349D 
 399      A5
 400 08ca 9CC70D7B 		.ascii	"\234\307\015{\227w\350\336\345]\232\023\274O\353F\227"
 400      9777E8DE 
 400      E55D9A13 
 400      BC4FEB46 
 400      97
 401 08db 83CCE048 		.ascii	"\203\314\340H\332\2518W$f\260\0335\313\225\032u\035"
 401      DAA93857 
 401      2466B01B 
 401      35CB951A 
 401      751D
 402 08ed 6A573B86 		.ascii	"jW;\206\206vn|\347GK`\213\251~A\342<\027\022m\276O\023"
 402      86766E7C 
 402      E7474B60 
 402      8BA97E41 
 402      E23C1712 
 403 0905 A439AEAB 		.ascii	"\2449\256\253XK\217\202\002:\315-q\010\375\004u\021"
 403      584B8F82 
 403      023ACD2D 
 403      7108FD04 
 403      7511
 404 0917 3CF545D5 		.ascii	"<\365E\325E\321H\377\331\256\353\314\332hr\011\306\027"
 404      45D148FF 
 404      D9AEEBCC 
 404      DA687209 
 404      C617
 405 0929 84B12112 		.ascii	"\204\261!\0226\007\257]\276E\235\375\264z19\023kaQ@"
 405      3607AF5D 
 405      BE459DFD 
 405      B47A3139 
ARM GAS  /tmp/ccLSw0YD.s 			page 32


 405      136B6151 
 406 093e DF6690D0 		.ascii	"\337f\220\3200\236\316\304\240\302\015\376\270\020\341"
 406      309ECEC4 
 406      A0C20DFE 
 406      B810E1
 407 094d E6BAB878 		.ascii	"\346\272\270xO\264\235z\320>\272\233r\001\223\"\250"
 407      4FB49D7A 
 407      D03EBA9B 
 407      72019322 
 407      A8
 408 095e 2E9A4BCD 		.ascii	".\232K\315\214\336\210\326\252j\253\272J\232\250O\336"
 408      8CDE88D6 
 408      AA6AABBA 
 408      4A9AA84F 
 408      DE
 409 096f E5B4470B 		.ascii	"\345\264G\013h\303\212\015fa6\3548\031F7?\253s\214\032"
 409      68C38A0D 
 409      666136EC 
 409      38194637 
 409      3FAB738C 
 410 0984 971E9424 		.ascii	"\227\036\224$\203\264L\345\242 d\035\305d`\346zV\235"
 410      83B44CE5 
 410      A220641D 
 410      C56460E6 
 410      7A569D
 411 0997 331CA7EC 		.ascii	"3\034\247\354\325\302\333\3539+]'\216\357'+\260\372"
 411      D5C2DBEB 
 411      392B5D27 
 411      8EEF272B 
 411      B0FA
 412 09a9 6D32E9E2 		.ascii	"m2\351\3425\235%\263Z\232U\323\326\252]k\255\332\305"
 412      359D25B3 
 412      5A9A55D3 
 412      D6AA5D6B 
 412      ADDAC5
 413 09bc BA6A45BC 		.ascii	"\272jE\274\300E\304]\342H\265\203\274\226\354\207\031"
 413      C045C45D 
 413      E248B583 
 413      BC96EC87 
 413      19
 414 09cd B5145737 		.ascii	"\265\024W75\315\031^\304\274\301~\024\223s\205\245\316"
 414      35CD195E 
 414      C4BCC17E 
 414      14937385 
 414      A5CE
 415 09df 4ECCB3D5 		.ascii	"N\314\263\325Y\026\357\\\315\353\214\376\327\207IE\233"
 415      5916EF5C 
 415      CDEB8CFE 
 415      D7874945 
 415      9B
 416 09f0 AC5574B2 		.ascii	"\254Ut\262Jw\243Wi\207\366\254nd\343\017\355\274?tZ"
 416      4A77A357 
 416      6987F6AC 
 416      6E64E30F 
 416      EDBC3F74 
 417 0a05 CAD6D3FA 		.ascii	"\312\326\323\372\014\304\205x\"\231\034\307\313\226"
 417      0CC48578 
ARM GAS  /tmp/ccLSw0YD.s 			page 33


 417      22991CC7 
 417      CB96
 418 0a13 6D855A97 		.ascii	"m\205Z\227\325!\330\372\305I\273\333Z\332\345\274Ct"
 418      D521D8FA 
 418      C549BBDB 
 418      5ADAE5BC 
 418      4374
 419 0a25 399F6B84 		.ascii	"9\237k\204\220\200\376\242\001\333\016c\3540\207\350"
 419      9080FEA2 
 419      01DB0E63 
 419      EC3087E8 
 420 0a35 FE70D244 		.ascii	"\376p\322D\335I\354G19\327[.z\037\236\355\303\315y;"
 420      DD49EC47 
 420      3139D75B 
 420      2E7A1F9E 
 420      EDC3CD79 
 421 0a4a C4265E67 		.ascii	"\304&^g\2358\303#\016\226Z/\234\335V|$v\354{F\305\363"
 421      9D38C323 
 421      0E965A2F 
 421      9CDD567C 
 421      2476EC7B 
 422 0a61 1B8792C9 		.ascii	"\033\207\222\311\3534x\001\235\264\001\370\223%\300"
 422      EB347801 
 422      9DB401F8 
 422      9325C0
 423 0a70 E64C808F 		.ascii	"\346L\200\217m\000\266\231\001n@\235j\342\020,\335\377"
 423      6D00B699 
 423      016E409D 
 423      6AE2102C 
 423      DDFF
 424 0a82 BC7A23E4 		.ascii	"\274z#\344\365\335\240\202$N\216\323w\220\347R(\226"
 424      F5DDA082 
 424      244E8ED3 
 424      7790E752 
 424      2896
 425 0a94 DB4502D8 		.ascii	"\333E\002\330\223\006\344B#a\304N\211;\322\241\221\260"
 425      9306E442 
 425      2361C44E 
 425      893BD2A1 
 425      91B0
 426 0aa6 70E850E2 		.ascii	"p\350P\342\304\276\247U\2546\251\215$z\\\201\346\323"
 426      C4BEA755 
 426      AC36A98D 
 426      247A5C81 
 426      E6D3
 427 0ab8 9DEA3280 		.ascii	"\235\3522\200\371\024\247\374\2679\225\010\\A\207\032"
 427      F914A7FC 
 427      B7399508 
 427      5C41871A 
 428 0ac8 BB7D6EDF 		.ascii	"\273}n\337M\304\273\\Z\313\364\225\202\366\260cp\267"
 428      4DC4BB5C 
 428      5ACBF495 
 428      82F6B063 
 428      70B7
 429 0ada 2BFD0F13 		.ascii	"+\375\017\023\345^\304\245\035\210\353\005\252\212\227"
 429      E55EC4A5 
 429      1D88EB05 
ARM GAS  /tmp/ccLSw0YD.s 			page 34


 429      AA8A97
 430 0ae9 71A182E7 		.ascii	"q\241\202\347B@s\3130\033\007j\325\345>3\240\226lV\233"
 430      424073CB 
 430      301B076A 
 430      D5E53E33 
 430      A0966C56 
 431 0afe D56472A6 		.ascii	"\325dr\246\215\324\217\3508e\331\204\346z\211\370\215"
 431      8DD48FE8 
 431      3865D984 
 431      E67A89F8 
 431      8D
 432 0b0f BC65DE6B 		.ascii	"\274e\336k#s\251If\275\0274_\243\023\335\260\256qL@"
 432      2373A949 
 432      66BD1734 
 432      5FA313DD 
 432      B0AE714C 
 433 0b24 D835898C 		.ascii	"\3305\211\214~ZQ\027\223+br\240\"P\023\234\032\214\304"
 433      7E5A5117 
 433      932B6272 
 433      A0225013 
 433      9C1A8CC4 
 434 0b38 2AE04F56 		.ascii	"*\340OV*\202\341@m]\225\004oCJ\303m5\2508T\247H\015"
 434      2A82E140 
 434      6D5D9504 
 434      6F434AC3 
 434      6D35A838 
 435 0b50 7EC5F3C0 		.ascii	"~\305\363\300o\036\366M@%\201\032?}sk\316\361\261\031"
 435      6F1EF64D 
 435      4025811A 
 435      3F7D736B 
 435      CEF1B119 
 436 0b64 31654654 		.ascii	"1eFT\212\001\3100\245F\226\304\252\230\377\361:\251"
 436      8A01C830 
 436      A54696C4 
 436      AA98FFF1 
 436      3AA9
 437 0b76 4EF22BC3 		.ascii	"N\362+\303\001\305\364jTn\264@M\025 \225h\303\374\212"
 437      01C5F46A 
 437      546EB440 
 437      4D152095 
 437      68C3FC8A 
 438 0b8a 3705E189 		.ascii	"7\005\341\211\372\303R\203\002\267\250,M\377\205\015"
 438      FAC35283 
 438      02B7A82C 
 438      4DFF850D 
 439 0b9a 5234222B 		.ascii	"R4\"+\261\212\373~\367\340\204\007\033*\002\221P4X+"
 439      B18AFB7E 
 439      F7E08407 
 439      1B2A0291 
 439      5034582B 
 440 0bae C9B18A07 		.ascii	"\311\261\212\007&L\200\216:\237\305JT\016F\374\312\015"
 440      264C808E 
 440      3A9FC54A 
 440      540E46FC 
 440      CA0D
 441 0bc0 1444271E 		.ascii	"\024D'\036\226\352k\203S+@\236\012\177L\251\012\206"
 441      96EA6B83 
ARM GAS  /tmp/ccLSw0YD.s 			page 35


 441      532B409E 
 441      0A7F4CA9 
 441      0A86
 442 0bd2 15C2481D 		.ascii	"\025\302H\035\334o\377\231_\031m\3257$\002\365\260T"
 442      DC6FFF99 
 442      5F196DD5 
 442      372402F5 
 442      B054
 443 0be4 E1AF92A6 		.ascii	"\341\257\222\246\211u\265\212_\247P\352\367\353\003"
 443      8975B58A 
 443      5FA750EA 
 443      F7EB03
 444 0bf3 29C3C148 		.ascii	")\303\301Hq \022\006}2\234\\\214\327\004\"\262\0048"
 444      71201206 
 444      7D329C5C 
 444      8CD70422 
 444      B20438
 445 0c06 65E4B51F 		.ascii	"e\344\265\037\220\002J\303\030\347#\375\323\357\016"
 445      90024AC3 
 445      18E723FD 
 445      D3EF0E
 446 0c15 11E665A9 		.ascii	"\021\346e\251Z\224C~E\220\357\020\344;\005\371.A\276"
 446      5A94437E 
 446      4590EF10 
 446      E43B05F9 
 446      2E41BE
 447 0c28 5B90C70A 		.ascii	"[\220\307\012\362=.yL%\2241B\255\014\267\333\335Q?P"
 447      F23D2E79 
 447      4C259431 
 447      42AD0CB7 
 447      DBDD513F 
 448 0c3d 28262AAE 		.ascii	"(&*\256\227d\270Gj\253$\271(P#\312D\357bH*Qb\212\250"
 448      9764B847 
 448      6AAB24B9 
 448      285023CA 
 448      44EF6248 
 449 0c56 80518B89 		.ascii	"\200Q\213\211`c\3012\232\210\320\202\356\364\267b%\024"
 449      6063C132 
 449      9A88D082 
 449      EEF4B762 
 449      2514
 450 0c68 A992E8F3 		.ascii	"\251\222\350\363\264Z\261:V\254\310\322\264\030\325"
 450      B45AB13A 
 450      56ACC8D2 
 450      B418D5
 451 0c77 0069B843 		.ascii	"\000i\270C\261j\370\221\251\005\206\353\012\222\253"
 451      B16AF891 
 451      A90586EB 
 451      0A92AB
 452 0c86 66C04F25 		.ascii	"f\300O%RCP\011\000\200\247^\211L}4:\202\271\000\014"
 452      52435009 
 452      0080A75E 
 452      894C7D34 
 452      3A82B900 
 453 0c9b 9564291C 		.ascii	"\225d)\034\000`w\275\242\310\321rp\211\230\024\022\243"
 453      006077BD 
 453      A2C8D172 
ARM GAS  /tmp/ccLSw0YD.s 			page 36


 453      70899814 
 453      12A3
 454 0cad 3520696E 		.ascii	"5 in\377\206\256\304\344\314\003\335\2010X\311\035\363"
 454      FF86AEC4 
 454      E4CC03DD 
 454      813058C9 
 454      1DF3
 455 0cbf C31D08C1 		.ascii	"\303\035\010\301\217Q\270\301\034\210\226I\323\245\260"
 455      8F51B8C1 
 455      1C889649 
 455      D3A5B0
 456 0cce 1212638F 		.ascii	"\022\022c\217\001KR=i\270\242\376\272\313u\007\256\015"
 456      014B523D 
 456      69B8A2FE 
 456      BACB7507 
 456      AE0D
 457 0ce0 C660E430 		.ascii	"\306`\3440\203K\2237\336\250\277^\014*\301pui\324\017"
 457      834B9337 
 457      DEA8BF5E 
 457      0C2AC170 
 457      7569D40F 
 458 0cf4 52684468 		.ascii	"RhDh\023^HQ)\014\216T\015\275\200\004\351_Jt!\326R\217"
 458      135E4851 
 458      290C8E54 
 458      0DBD8004 
 458      E95F4A74 
 459 0d0c 8097D148 		.ascii	"\200\227\321H\244\2668\244\261\006\367H}X\222=!\352"
 459      A4B638A4 
 459      B106F748 
 459      7D58923D 
 459      21EA
 460 0d1e E8955432 		.ascii	"\350\225T2\342e\325\201@\005\230qt8\022\226FK\342\324"
 460      E265D581 
 460      40059871 
 460      74381296 
 460      464BE2D4 
 461 0d32 60C51DB7 		.ascii	"`\305\035\267\215MI\010\256\012\336\007\"zb\301'@I\271"
 461      8D4D4908 
 461      AE0ADE07 
 461      227A62C1 
 461      274049B9 
 462 0d46 E7588D24 		.ascii	"\347X\215$F\241\377e!)\024\221g\370\311\243_)3<\335"
 462      46A1FF65 
 462      21291491 
 462      67F8C9A3 
 462      5F29333C 
 463 0d5b 927BD190 		.ascii	"\222{\321\220B\314C\313\241Y-)\323\352\302\001\277R"
 463      42CC43CB 
 463      A1592D29 
 463      D3EAC201 
 463      BF52
 464 0d6d 5A03BE1E 		.ascii	"Z\003\276\036\231\036\004\337)\243\260PA\2734\246<&"
 464      991E04DF 
 464      29A3B050 
 464      41BB34A6 
 464      3C26
 465 0d7f D606ABC3 		.ascii	"\326\006\253\303~\205\316\247\273\356\200\256\232\373"
ARM GAS  /tmp/ccLSw0YD.s 			page 37


 465      7E85CEA7 
 465      BBEE80AE 
 465      9AFB
 466 0d8d 90A69BFE 		.ascii	"\220\246\233\376VD\204.\"\243p]\021\021\005\327xj\374"
 466      5644842E 
 466      22A3705D 
 466      111105D7 
 466      786AFC
 467 0da0 D3644972 		.ascii	"\323dIr\327\020\355\335h\303\224\366\206\312\024\200"
 467      D710EDDD 
 467      68C394F6 
 467      86CA1480 
 468 0db0 7947C906 		.ascii	"yG\311\006\303A\245,P3\001X\274\257\2666\022\200\205"
 468      C341A52C 
 468      50330158 
 468      BCAFB636 
 468      128085
 469 0dc3 6822BCFF 		.ascii	"h\"\274\377\355\324G\245\200\362+\370\321M\272E]S\353"
 469      EDD447A5 
 469      80F22BF8 
 469      D14DBA45 
 469      5D53EB
 470 0dd6 A695693F 		.ascii	"\246\225i?\321n\245Z\373~\240\211\211\233\221\207\311"
 470      D16EA55A 
 470      FB7EA089 
 470      899B9187 
 470      C9
 471 0de7 E0D97531 		.ascii	"\340\331u17a(\012\306\177PiH\243\224\321\347\207\303"
 471      3761280A 
 471      C67F5069 
 471      48A394D1 
 471      E787C3
 472 0dfa 30F4312F 		.ascii	"0\3641/m\377\032Z\345\372b@h\224\370\375T5\376\313\364"
 472      6DFF1A5A 
 472      E5FA6240 
 472      6894F8FD 
 472      5435FECB 
 473 0e0f C66D77DD 		.ascii	"\306mw\335YYi|\032s\367\177\001_\177\226\365"
 473      5959697C 
 473      1A73F77F 
 473      015F7F96 
 473      F5
 474              		.text
 475              		.section	.gnu.lto_.symtab.c6f863a9fec2ee3,"",%progbits
 476 0000 5F686561 		.ascii	"_heap_init\000\000\000\000\000\000\000\000\000\000\000"
 476      705F696E 
 476      69740000 
 476      00000000 
 476      00000000 
 477 0015 00840100 		.ascii	"\000\204\001\000\000chHeapObjectInit\000\000\000\000"
 477      00636848 
 477      6561704F 
 477      626A6563 
 477      74496E69 
 478 002e 00000000 		.ascii	"\000\000\000\000\000\000\000\000\212\001\000\000chH"
 478      00000000 
 478      8A010000 
ARM GAS  /tmp/ccLSw0YD.s 			page 38


 478      636848
 479 003d 65617041 		.ascii	"eapAlloc\000\000\000\000\000\000\000\000\000\000\000"
 479      6C6C6F63 
 479      00000000 
 479      00000000 
 479      000000
 480 0050 00960100 		.ascii	"\000\226\001\000\000chHeapFree\000\000\000\000\000\000"
 480      00636848 
 480      65617046 
 480      72656500 
 480      00000000 
 481 0065 00000000 		.ascii	"\000\000\000\000\000\000\236\001\000\000chHeapStatu"
 481      00009E01 
 481      00006368 
 481      48656170 
 481      53746174 
 482 007a 73000000 		.ascii	"s\000\000\000\000\000\000\000\000\000\000\000\000\245"
 482      00000000 
 482      00000000 
 482      00A5
 483 0088 01000063 		.ascii	"\001\000\000chCoreAlloc\000\000\002\000\000\000\000"
 483      68436F72 
 483      65416C6C 
 483      6F630000 
 483      02000000 
 484 009d 00000000 		.ascii	"\000\000\000\000\000\210\001\000\000chMtxObjectInit"
 484      00880100 
 484      0063684D 
 484      74784F62 
 484      6A656374 
 485 00b5 00000200 		.ascii	"\000\000\002\000\000\000\000\000\000\000\000\000\256"
 485      00000000 
 485      00000000 
 485      AE
 486 00c2 01000063 		.ascii	"\001\000\000chMtxUnlock\000\000\002\000\000\000\000"
 486      684D7478 
 486      556E6C6F 
 486      636B0000 
 486      02000000 
 487 00d7 00000000 		.ascii	"\000\000\000\000\000\262\001\000\000chMtxLock\000\000"
 487      00B20100 
 487      0063684D 
 487      74784C6F 
 487      636B0000 
 488 00eb 02000000 		.ascii	"\002\000\000\000\000\000\000\000\000\000\264\001\000"
 488      00000000 
 488      0000B401 
 488      00
 489 00f8 00       		.ascii	"\000"
 490              		.text
 491              		.section	.gnu.lto_.opts,"",%progbits
 492 0000 272D6D63 		.ascii	"'-mcpu=cortex-m4' '-mno-thumb-interwork' '-mthumb' "
 492      70753D63 
 492      6F727465 
 492      782D6D34 
 492      2720272D 
 493 0033 272D6767 		.ascii	"'-ggdb' '-O2' '-fomit-frame-pointer' '-falign-funct"
ARM GAS  /tmp/ccLSw0YD.s 			page 39


 493      64622720 
 493      272D4F32 
 493      2720272D 
 493      666F6D69 
 494 0066 696F6E73 		.ascii	"ions=16' '-ffunction-sections' '-fdata-sections' '-"
 494      3D313627 
 494      20272D66 
 494      66756E63 
 494      74696F6E 
 495 0099 666E6F2D 		.ascii	"fno-common' '-flto'\000"
 495      636F6D6D 
 495      6F6E2720 
 495      272D666C 
 495      746F2700 
 496              		.text
 497              		.cfi_sections	.debug_frame
 498              		.section	.text._heap_init,"ax",%progbits
 499              		.align	2
 500              		.p2align 4,,15
 501              		.global	_heap_init
 502              		.thumb
 503              		.thumb_func
 504              		.type	_heap_init, %function
 505              	_heap_init:
 506              	.LFB229:
 507              		.file 1 "/usr/src/chibios/os/rt/src/chheap.c"
 508              		.loc 1 91 0
 509              		.cfi_startproc
 510              		@ args = 0, pretend = 0, frame = 0
 511              		@ frame_needed = 0, uses_anonymous_args = 0
 512              		@ link register save eliminated.
 513              		.loc 1 93 0
 514 0000 044B     		ldr	r3, .L2
 515 0002 054A     		ldr	r2, .L2+4
 516 0004 1A60     		str	r2, [r3]
 517              		.loc 1 97 0
 518 0006 03F11000 		add	r0, r3, #16
 519              		.loc 1 94 0
 520 000a 0022     		movs	r2, #0
 521 000c 9A60     		str	r2, [r3, #8]
 522              		.loc 1 95 0
 523 000e DA60     		str	r2, [r3, #12]
 524              		.loc 1 97 0
 525 0010 FFF7FEBF 		b	chMtxObjectInit
 526              	.LVL0:
 527              	.L3:
 528              		.align	2
 529              	.L2:
 530 0014 00000000 		.word	.LANCHOR0
 531 0018 00000000 		.word	chCoreAlloc
 532              		.cfi_endproc
 533              	.LFE229:
 534              		.size	_heap_init, .-_heap_init
 535              		.section	.text.chHeapObjectInit,"ax",%progbits
 536              		.align	2
 537              		.p2align 4,,15
 538              		.global	chHeapObjectInit
ARM GAS  /tmp/ccLSw0YD.s 			page 40


 539              		.thumb
 540              		.thumb_func
 541              		.type	chHeapObjectInit, %function
 542              	chHeapObjectInit:
 543              	.LFB230:
 544              		.loc 1 114 0
 545              		.cfi_startproc
 546              		@ args = 0, pretend = 0, frame = 0
 547              		@ frame_needed = 0, uses_anonymous_args = 0
 548              		@ link register save eliminated.
 549              	.LVL1:
 550              		.loc 1 119 0
 551 0000 0023     		movs	r3, #0
 552              		.loc 1 123 0
 553 0002 083A     		subs	r2, r2, #8
 554              	.LVL2:
 555              		.loc 1 120 0
 556 0004 8160     		str	r1, [r0, #8]
 557              		.loc 1 119 0
 558 0006 0360     		str	r3, [r0]
 559              		.loc 1 121 0
 560 0008 C360     		str	r3, [r0, #12]
 561              		.loc 1 125 0
 562 000a 1030     		adds	r0, r0, #16
 563              	.LVL3:
 564              		.loc 1 123 0
 565 000c 4A60     		str	r2, [r1, #4]
 566              		.loc 1 122 0
 567 000e 0B60     		str	r3, [r1]
 568              		.loc 1 125 0
 569 0010 FFF7FEBF 		b	chMtxObjectInit
 570              	.LVL4:
 571              		.cfi_endproc
 572              	.LFE230:
 573              		.size	chHeapObjectInit, .-chHeapObjectInit
 574              		.section	.text.chHeapAlloc,"ax",%progbits
 575              		.align	2
 576              		.p2align 4,,15
 577              		.global	chHeapAlloc
 578              		.thumb
 579              		.thumb_func
 580              		.type	chHeapAlloc, %function
 581              	chHeapAlloc:
 582              	.LFB231:
 583              		.loc 1 147 0
 584              		.cfi_startproc
 585              		@ args = 0, pretend = 0, frame = 0
 586              		@ frame_needed = 0, uses_anonymous_args = 0
 587              	.LVL5:
 588 0000 F8B5     		push	{r3, r4, r5, r6, r7, lr}
 589              		.cfi_def_cfa_offset 24
 590              		.cfi_offset 3, -24
 591              		.cfi_offset 4, -20
 592              		.cfi_offset 5, -16
 593              		.cfi_offset 6, -12
 594              		.cfi_offset 7, -8
 595              		.cfi_offset 14, -4
ARM GAS  /tmp/ccLSw0YD.s 			page 41


 596              		.loc 1 151 0
 597 0002 214E     		ldr	r6, .L21
 598 0004 0028     		cmp	r0, #0
 599 0006 18BF     		it	ne
 600 0008 0646     		movne	r6, r0
 601              	.LVL6:
 602              		.loc 1 157 0
 603 000a 06F11007 		add	r7, r6, #16
 604              		.loc 1 154 0
 605 000e 0731     		adds	r1, r1, #7
 606              	.LVL7:
 607              		.loc 1 157 0
 608 0010 3846     		mov	r0, r7
 609              		.loc 1 154 0
 610 0012 21F00705 		bic	r5, r1, #7
 611              	.LVL8:
 612              		.loc 1 155 0
 613 0016 06F10804 		add	r4, r6, #8
 614              	.LVL9:
 615              		.loc 1 157 0
 616 001a FFF7FEFF 		bl	chMtxLock
 617              	.LVL10:
 618              		.loc 1 158 0
 619 001e 03E0     		b	.L7
 620              	.LVL11:
 621              	.L12:
 622              		.loc 1 160 0
 623 0020 5A68     		ldr	r2, [r3, #4]
 624 0022 9542     		cmp	r5, r2
 625 0024 12D9     		bls	.L20
 626 0026 1C46     		mov	r4, r3
 627              	.LVL12:
 628              	.L7:
 629              		.loc 1 158 0 discriminator 1
 630 0028 2368     		ldr	r3, [r4]
 631              	.LVL13:
 632 002a 002B     		cmp	r3, #0
 633 002c F8D1     		bne	.L12
 634              		.loc 1 186 0
 635 002e 3846     		mov	r0, r7
 636 0030 FFF7FEFF 		bl	chMtxUnlock
 637              	.LVL14:
 638              		.loc 1 190 0
 639 0034 3368     		ldr	r3, [r6]
 640 0036 2BB3     		cbz	r3, .L14
 641              		.loc 1 191 0
 642 0038 05F10800 		add	r0, r5, #8
 643 003c 9847     		blx	r3
 644              	.LVL15:
 645              		.loc 1 192 0
 646 003e 08B3     		cbz	r0, .L14
 647              		.loc 1 193 0
 648 0040 0660     		str	r6, [r0]
 649              		.loc 1 194 0
 650 0042 4560     		str	r5, [r0, #4]
 651              	.LVL16:
 652              		.loc 1 198 0
ARM GAS  /tmp/ccLSw0YD.s 			page 42


 653 0044 00F10804 		add	r4, r0, #8
 654              	.LVL17:
 655              	.L11:
 656              		.loc 1 204 0
 657 0048 2046     		mov	r0, r4
 658 004a F8BD     		pop	{r3, r4, r5, r6, r7, pc}
 659              	.LVL18:
 660              	.L20:
 661              		.loc 1 161 0
 662 004c 05F10801 		add	r1, r5, #8
 663 0050 9142     		cmp	r1, r2
 664 0052 09D9     		bls	.L9
 665              		.loc 1 165 0
 666 0054 1A68     		ldr	r2, [r3]
 667 0056 2260     		str	r2, [r4]
 668              	.L10:
 669              		.loc 1 177 0
 670 0058 1C46     		mov	r4, r3
 671              	.LVL19:
 672              		.loc 1 178 0
 673 005a 3846     		mov	r0, r7
 674              		.loc 1 177 0
 675 005c 44F8086B 		str	r6, [r4], #8
 676              		.loc 1 178 0
 677 0060 FFF7FEFF 		bl	chMtxUnlock
 678              	.LVL20:
 679              		.loc 1 204 0
 680 0064 2046     		mov	r0, r4
 681 0066 F8BD     		pop	{r3, r4, r5, r6, r7, pc}
 682              	.LVL21:
 683              	.L9:
 684              		.loc 1 173 0
 685 0068 6FF00700 		mvn	r0, #7
 686 006c 401B     		subs	r0, r0, r5
 687              		.loc 1 170 0
 688 006e 03EB010E 		add	lr, r3, r1
 689              	.LVL22:
 690              		.loc 1 173 0
 691 0072 0244     		add	r2, r2, r0
 692              		.loc 1 172 0
 693 0074 1868     		ldr	r0, [r3]
 694 0076 5850     		str	r0, [r3, r1]
 695              		.loc 1 173 0
 696 0078 CEF80420 		str	r2, [lr, #4]
 697              		.loc 1 174 0
 698 007c C4F800E0 		str	lr, [r4]
 699              		.loc 1 175 0
 700 0080 5D60     		str	r5, [r3, #4]
 701 0082 E9E7     		b	.L10
 702              	.LVL23:
 703              	.L14:
 704              		.loc 1 203 0
 705 0084 0024     		movs	r4, #0
 706              	.LVL24:
 707 0086 DFE7     		b	.L11
 708              	.L22:
 709              		.align	2
ARM GAS  /tmp/ccLSw0YD.s 			page 43


 710              	.L21:
 711 0088 00000000 		.word	.LANCHOR0
 712              		.cfi_endproc
 713              	.LFE231:
 714              		.size	chHeapAlloc, .-chHeapAlloc
 715              		.section	.text.chHeapFree,"ax",%progbits
 716              		.align	2
 717              		.p2align 4,,15
 718              		.global	chHeapFree
 719              		.thumb
 720              		.thumb_func
 721              		.type	chHeapFree, %function
 722              	chHeapFree:
 723              	.LFB232:
 724              		.loc 1 213 0
 725              		.cfi_startproc
 726              		@ args = 0, pretend = 0, frame = 0
 727              		@ frame_needed = 0, uses_anonymous_args = 0
 728              	.LVL25:
 729 0000 F8B5     		push	{r3, r4, r5, r6, r7, lr}
 730              		.cfi_def_cfa_offset 24
 731              		.cfi_offset 3, -24
 732              		.cfi_offset 4, -20
 733              		.cfi_offset 5, -16
 734              		.cfi_offset 6, -12
 735              		.cfi_offset 7, -8
 736              		.cfi_offset 14, -4
 737              		.loc 1 222 0
 738 0002 50F8085C 		ldr	r5, [r0, #-8]
 739              		.loc 1 225 0
 740 0006 05F11007 		add	r7, r5, #16
 741              		.loc 1 213 0
 742 000a 0646     		mov	r6, r0
 743              		.loc 1 220 0
 744 000c A0F10804 		sub	r4, r0, #8
 745              	.LVL26:
 746              		.loc 1 223 0
 747 0010 0835     		adds	r5, r5, #8
 748              	.LVL27:
 749              		.loc 1 225 0
 750 0012 3846     		mov	r0, r7
 751              	.LVL28:
 752 0014 FFF7FEFF 		bl	chMtxLock
 753              	.LVL29:
 754              		.loc 1 223 0
 755 0018 2B46     		mov	r3, r5
 756              	.LVL30:
 757              	.L30:
 758              		.loc 1 229 0
 759 001a AB42     		cmp	r3, r5
 760 001c 04D0     		beq	.L24
 761              	.L35:
 762              		.loc 1 229 0 is_stmt 0 discriminator 2
 763 001e A342     		cmp	r3, r4
 764 0020 02D3     		bcc	.L24
 765 0022 1B68     		ldr	r3, [r3]
 766              	.LVL31:
ARM GAS  /tmp/ccLSw0YD.s 			page 44


 767              		.loc 1 229 0
 768 0024 AB42     		cmp	r3, r5
 769 0026 FAD1     		bne	.L35
 770              	.L24:
 771              		.loc 1 230 0 is_stmt 1 discriminator 1
 772 0028 1A68     		ldr	r2, [r3]
 773              		.loc 1 229 0 discriminator 1
 774 002a 1AB1     		cbz	r2, .L26
 775              		.loc 1 230 0
 776 002c 9442     		cmp	r4, r2
 777 002e 01D3     		bcc	.L26
 778 0030 1346     		mov	r3, r2
 779              	.LVL32:
 780              		.loc 1 248 0
 781 0032 F2E7     		b	.L30
 782              	.LVL33:
 783              	.L26:
 784              		.loc 1 235 0
 785 0034 56F8041C 		ldr	r1, [r6, #-4]
 786              		.loc 1 232 0
 787 0038 46F8082C 		str	r2, [r6, #-8]
 788              		.loc 1 233 0
 789 003c 1C60     		str	r4, [r3]
 790              		.loc 1 235 0
 791 003e 01F10802 		add	r2, r1, #8
 792 0042 56F8085C 		ldr	r5, [r6, #-8]
 793              	.LVL34:
 794 0046 A018     		adds	r0, r4, r2
 795 0048 A842     		cmp	r0, r5
 796 004a 0AD0     		beq	.L36
 797              		.loc 1 240 0
 798 004c 5A68     		ldr	r2, [r3, #4]
 799 004e 02F10801 		add	r1, r2, #8
 800 0052 1944     		add	r1, r1, r3
 801 0054 8C42     		cmp	r4, r1
 802 0056 12D0     		beq	.L37
 803              	.L29:
 804              		.loc 1 249 0
 805 0058 3846     		mov	r0, r7
 806              		.loc 1 252 0
 807 005a BDE8F840 		pop	{r3, r4, r5, r6, r7, lr}
 808              	.LVL35:
 809              		.loc 1 249 0
 810 005e FFF7FEBF 		b	chMtxUnlock
 811              	.LVL36:
 812              	.L36:
 813              		.loc 1 237 0
 814 0062 4068     		ldr	r0, [r0, #4]
 815              		.loc 1 238 0
 816 0064 A258     		ldr	r2, [r4, r2]
 817 0066 46F8082C 		str	r2, [r6, #-8]
 818              		.loc 1 237 0
 819 006a 0A18     		adds	r2, r1, r0
 820 006c 0832     		adds	r2, r2, #8
 821 006e 46F8042C 		str	r2, [r6, #-4]
 822              		.loc 1 240 0
 823 0072 5A68     		ldr	r2, [r3, #4]
ARM GAS  /tmp/ccLSw0YD.s 			page 45


 824 0074 02F10801 		add	r1, r2, #8
 825 0078 1944     		add	r1, r1, r3
 826 007a 8C42     		cmp	r4, r1
 827 007c ECD1     		bne	.L29
 828              	.L37:
 829              		.loc 1 242 0
 830 007e 56F8040C 		ldr	r0, [r6, #-4]
 831              		.loc 1 243 0
 832 0082 56F8081C 		ldr	r1, [r6, #-8]
 833 0086 1960     		str	r1, [r3]
 834              		.loc 1 242 0
 835 0088 0244     		add	r2, r2, r0
 836 008a 0832     		adds	r2, r2, #8
 837 008c 5A60     		str	r2, [r3, #4]
 838              		.loc 1 249 0
 839 008e 3846     		mov	r0, r7
 840              		.loc 1 252 0
 841 0090 BDE8F840 		pop	{r3, r4, r5, r6, r7, lr}
 842              	.LVL37:
 843              		.loc 1 249 0
 844 0094 FFF7FEBF 		b	chMtxUnlock
 845              	.LVL38:
 846              		.cfi_endproc
 847              	.LFE232:
 848              		.size	chHeapFree, .-chHeapFree
 849              		.section	.text.chHeapStatus,"ax",%progbits
 850              		.align	2
 851              		.p2align 4,,15
 852              		.global	chHeapStatus
 853              		.thumb
 854              		.thumb_func
 855              		.type	chHeapStatus, %function
 856              	chHeapStatus:
 857              	.LFB233:
 858              		.loc 1 267 0
 859              		.cfi_startproc
 860              		@ args = 0, pretend = 0, frame = 0
 861              		@ frame_needed = 0, uses_anonymous_args = 0
 862              	.LVL39:
 863 0000 F8B5     		push	{r3, r4, r5, r6, r7, lr}
 864              		.cfi_def_cfa_offset 24
 865              		.cfi_offset 3, -24
 866              		.cfi_offset 4, -20
 867              		.cfi_offset 5, -16
 868              		.cfi_offset 6, -12
 869              		.cfi_offset 7, -8
 870              		.cfi_offset 14, -4
 871              		.loc 1 272 0
 872 0002 0E4C     		ldr	r4, .L51
 873 0004 0028     		cmp	r0, #0
 874 0006 18BF     		it	ne
 875 0008 0446     		movne	r4, r0
 876              	.LVL40:
 877              		.loc 1 275 0
 878 000a 04F11006 		add	r6, r4, #16
 879 000e 3046     		mov	r0, r6
 880              		.loc 1 267 0
ARM GAS  /tmp/ccLSw0YD.s 			page 46


 881 0010 0F46     		mov	r7, r1
 882              		.loc 1 275 0
 883 0012 FFF7FEFF 		bl	chMtxLock
 884              	.LVL41:
 885              		.loc 1 279 0
 886 0016 A368     		ldr	r3, [r4, #8]
 887 0018 6BB1     		cbz	r3, .L44
 888              		.loc 1 276 0
 889 001a 0022     		movs	r2, #0
 890              		.loc 1 277 0
 891 001c 1446     		mov	r4, r2
 892              	.LVL42:
 893              	.L41:
 894              		.loc 1 279 0
 895 001e 28CB     		ldmia	r3, {r3, r5}
 896              		.loc 1 281 0
 897 0020 0134     		adds	r4, r4, #1
 898              	.LVL43:
 899              		.loc 1 280 0
 900 0022 2A44     		add	r2, r2, r5
 901              	.LVL44:
 902              		.loc 1 279 0
 903 0024 002B     		cmp	r3, #0
 904 0026 FAD1     		bne	.L41
 905              	.LVL45:
 906              	.L40:
 907              		.loc 1 284 0
 908 0028 07B1     		cbz	r7, .L42
 909              		.loc 1 285 0
 910 002a 3A60     		str	r2, [r7]
 911              	.L42:
 912              		.loc 1 287 0
 913 002c 3046     		mov	r0, r6
 914 002e FFF7FEFF 		bl	chMtxUnlock
 915              	.LVL46:
 916              		.loc 1 290 0
 917 0032 2046     		mov	r0, r4
 918 0034 F8BD     		pop	{r3, r4, r5, r6, r7, pc}
 919              	.LVL47:
 920              	.L44:
 921              		.loc 1 276 0
 922 0036 1A46     		mov	r2, r3
 923              		.loc 1 277 0
 924 0038 1C46     		mov	r4, r3
 925              	.LVL48:
 926 003a F5E7     		b	.L40
 927              	.L52:
 928              		.align	2
 929              	.L51:
 930 003c 00000000 		.word	.LANCHOR0
 931              		.cfi_endproc
 932              	.LFE233:
 933              		.size	chHeapStatus, .-chHeapStatus
 934              		.section	.bss.default_heap,"aw",%nobits
 935              		.align	3
 936              		.set	.LANCHOR0,. + 0
 937              		.type	default_heap, %object
ARM GAS  /tmp/ccLSw0YD.s 			page 47


 938              		.size	default_heap, 32
 939              	default_heap:
 940 0000 00000000 		.space	32
 940      00000000 
 940      00000000 
 940      00000000 
 940      00000000 
 941              		.text
 942              	.Letext0:
 943              		.file 2 "/usr/lib/gcc/arm-none-eabi/4.8/include/stddef.h"
 944              		.file 3 "/usr/include/newlib/machine/_default_types.h"
 945              		.file 4 "/usr/include/newlib/sys/_stdint.h"
 946              		.file 5 "/usr/src/chibios/os/rt/ports/ARMCMx/compilers/GCC/chtypes.h"
 947              		.file 6 "/usr/src/chibios/os/rt/include/chsystypes.h"
 948              		.file 7 "/usr/src/chibios/os/rt/include/chschd.h"
 949              		.file 8 "/usr/src/chibios/os/rt/ports/ARMCMx/chcore.h"
 950              		.file 9 "/usr/src/chibios/os/rt/ports/ARMCMx/chcore_v7m.h"
 951              		.file 10 "/usr/src/chibios/os/rt/include/chtm.h"
 952              		.file 11 "/usr/src/chibios/os/rt/include/chsem.h"
 953              		.file 12 "/usr/src/chibios/os/rt/include/chmtx.h"
 954              		.file 13 "/usr/src/chibios/os/rt/include/chmemcore.h"
 955              		.file 14 "/usr/src/chibios/os/rt/include/chheap.h"
 956              		.file 15 "/usr/src/chibios/os/ext/CMSIS/include/core_cm4.h"
 957              		.section	.debug_info,"",%progbits
 958              	.Ldebug_info0:
 959 0000 B5090000 		.4byte	0x9b5
 960 0004 0400     		.2byte	0x4
 961 0006 00000000 		.4byte	.Ldebug_abbrev0
 962 000a 04       		.byte	0x4
 963 000b 01       		.uleb128 0x1
 964 000c 63020000 		.4byte	.LASF125
 965 0010 01       		.byte	0x1
 966 0011 A8030000 		.4byte	.LASF126
 967 0015 00000000 		.4byte	.Ldebug_ranges0+0
 968 0019 00000000 		.4byte	0
 969 001d 00000000 		.4byte	.Ldebug_line0
 970 0021 02       		.uleb128 0x2
 971 0022 04       		.byte	0x4
 972 0023 05       		.byte	0x5
 973 0024 696E7400 		.ascii	"int\000"
 974 0028 03       		.uleb128 0x3
 975 0029 0D000000 		.4byte	.LASF2
 976 002d 02       		.byte	0x2
 977 002e D4       		.byte	0xd4
 978 002f 33000000 		.4byte	0x33
 979 0033 04       		.uleb128 0x4
 980 0034 04       		.byte	0x4
 981 0035 07       		.byte	0x7
 982 0036 B4010000 		.4byte	.LASF0
 983 003a 04       		.uleb128 0x4
 984 003b 01       		.byte	0x1
 985 003c 06       		.byte	0x6
 986 003d E3000000 		.4byte	.LASF1
 987 0041 03       		.uleb128 0x3
 988 0042 29000000 		.4byte	.LASF3
 989 0046 03       		.byte	0x3
 990 0047 1D       		.byte	0x1d
ARM GAS  /tmp/ccLSw0YD.s 			page 48


 991 0048 4C000000 		.4byte	0x4c
 992 004c 04       		.uleb128 0x4
 993 004d 01       		.byte	0x1
 994 004e 08       		.byte	0x8
 995 004f 1B040000 		.4byte	.LASF4
 996 0053 04       		.uleb128 0x4
 997 0054 02       		.byte	0x2
 998 0055 05       		.byte	0x5
 999 0056 3F040000 		.4byte	.LASF5
 1000 005a 04       		.uleb128 0x4
 1001 005b 02       		.byte	0x2
 1002 005c 07       		.byte	0x7
 1003 005d E1010000 		.4byte	.LASF6
 1004 0061 03       		.uleb128 0x3
 1005 0062 3D020000 		.4byte	.LASF7
 1006 0066 03       		.byte	0x3
 1007 0067 3F       		.byte	0x3f
 1008 0068 6C000000 		.4byte	0x6c
 1009 006c 04       		.uleb128 0x4
 1010 006d 04       		.byte	0x4
 1011 006e 05       		.byte	0x5
 1012 006f 27010000 		.4byte	.LASF8
 1013 0073 03       		.uleb128 0x3
 1014 0074 27050000 		.4byte	.LASF9
 1015 0078 03       		.byte	0x3
 1016 0079 41       		.byte	0x41
 1017 007a 7E000000 		.4byte	0x7e
 1018 007e 04       		.uleb128 0x4
 1019 007f 04       		.byte	0x4
 1020 0080 07       		.byte	0x7
 1021 0081 C8040000 		.4byte	.LASF10
 1022 0085 04       		.uleb128 0x4
 1023 0086 08       		.byte	0x8
 1024 0087 05       		.byte	0x5
 1025 0088 55010000 		.4byte	.LASF11
 1026 008c 03       		.uleb128 0x3
 1027 008d 9D030000 		.4byte	.LASF12
 1028 0091 03       		.byte	0x3
 1029 0092 5B       		.byte	0x5b
 1030 0093 97000000 		.4byte	0x97
 1031 0097 04       		.uleb128 0x4
 1032 0098 08       		.byte	0x8
 1033 0099 07       		.byte	0x7
 1034 009a 69000000 		.4byte	.LASF13
 1035 009e 03       		.uleb128 0x3
 1036 009f 91050000 		.4byte	.LASF14
 1037 00a3 04       		.byte	0x4
 1038 00a4 14       		.byte	0x14
 1039 00a5 41000000 		.4byte	0x41
 1040 00a9 03       		.uleb128 0x3
 1041 00aa 13040000 		.4byte	.LASF15
 1042 00ae 04       		.byte	0x4
 1043 00af 1F       		.byte	0x1f
 1044 00b0 61000000 		.4byte	0x61
 1045 00b4 03       		.uleb128 0x3
 1046 00b5 92040000 		.4byte	.LASF16
 1047 00b9 04       		.byte	0x4
ARM GAS  /tmp/ccLSw0YD.s 			page 49


 1048 00ba 20       		.byte	0x20
 1049 00bb 73000000 		.4byte	0x73
 1050 00bf 03       		.uleb128 0x3
 1051 00c0 20000000 		.4byte	.LASF17
 1052 00c4 04       		.byte	0x4
 1053 00c5 26       		.byte	0x26
 1054 00c6 8C000000 		.4byte	0x8c
 1055 00ca 05       		.uleb128 0x5
 1056 00cb A9000000 		.4byte	0xa9
 1057 00cf 03       		.uleb128 0x3
 1058 00d0 5C050000 		.4byte	.LASF18
 1059 00d4 05       		.byte	0x5
 1060 00d5 45       		.byte	0x45
 1061 00d6 B4000000 		.4byte	0xb4
 1062 00da 03       		.uleb128 0x3
 1063 00db 1B020000 		.4byte	.LASF19
 1064 00df 05       		.byte	0x5
 1065 00e0 48       		.byte	0x48
 1066 00e1 9E000000 		.4byte	0x9e
 1067 00e5 03       		.uleb128 0x3
 1068 00e6 30010000 		.4byte	.LASF20
 1069 00ea 05       		.byte	0x5
 1070 00eb 49       		.byte	0x49
 1071 00ec 9E000000 		.4byte	0x9e
 1072 00f0 03       		.uleb128 0x3
 1073 00f1 CC030000 		.4byte	.LASF21
 1074 00f5 05       		.byte	0x5
 1075 00f6 4A       		.byte	0x4a
 1076 00f7 9E000000 		.4byte	0x9e
 1077 00fb 03       		.uleb128 0x3
 1078 00fc EB030000 		.4byte	.LASF22
 1079 0100 05       		.byte	0x5
 1080 0101 4C       		.byte	0x4c
 1081 0102 B4000000 		.4byte	0xb4
 1082 0106 03       		.uleb128 0x3
 1083 0107 09020000 		.4byte	.LASF23
 1084 010b 05       		.byte	0x5
 1085 010c 4D       		.byte	0x4d
 1086 010d A9000000 		.4byte	0xa9
 1087 0111 03       		.uleb128 0x3
 1088 0112 31020000 		.4byte	.LASF24
 1089 0116 05       		.byte	0x5
 1090 0117 4F       		.byte	0x4f
 1091 0118 B4000000 		.4byte	0xb4
 1092 011c 03       		.uleb128 0x3
 1093 011d AE010000 		.4byte	.LASF25
 1094 0121 05       		.byte	0x5
 1095 0122 51       		.byte	0x51
 1096 0123 A9000000 		.4byte	0xa9
 1097 0127 03       		.uleb128 0x3
 1098 0128 09050000 		.4byte	.LASF26
 1099 012c 06       		.byte	0x6
 1100 012d 33       		.byte	0x33
 1101 012e B4000000 		.4byte	0xb4
 1102 0132 03       		.uleb128 0x3
 1103 0133 EC040000 		.4byte	.LASF27
 1104 0137 06       		.byte	0x6
ARM GAS  /tmp/ccLSw0YD.s 			page 50


 1105 0138 3F       		.byte	0x3f
 1106 0139 3D010000 		.4byte	0x13d
 1107 013d 06       		.uleb128 0x6
 1108 013e F4010000 		.4byte	.LASF47
 1109 0142 44       		.byte	0x44
 1110 0143 07       		.byte	0x7
 1111 0144 C2       		.byte	0xc2
 1112 0145 2A020000 		.4byte	0x22a
 1113 0149 07       		.uleb128 0x7
 1114 014a 5F040000 		.4byte	.LASF28
 1115 014e 07       		.byte	0x7
 1116 014f C3       		.byte	0xc3
 1117 0150 35020000 		.4byte	0x235
 1118 0154 00       		.byte	0
 1119 0155 07       		.uleb128 0x7
 1120 0156 E4030000 		.4byte	.LASF29
 1121 015a 07       		.byte	0x7
 1122 015b C5       		.byte	0xc5
 1123 015c 35020000 		.4byte	0x235
 1124 0160 04       		.byte	0x4
 1125 0161 07       		.uleb128 0x7
 1126 0162 D0000000 		.4byte	.LASF30
 1127 0166 07       		.byte	0x7
 1128 0167 C7       		.byte	0xc7
 1129 0168 FB000000 		.4byte	0xfb
 1130 016c 08       		.byte	0x8
 1131 016d 07       		.uleb128 0x7
 1132 016e DA050000 		.4byte	.LASF31
 1133 0172 07       		.byte	0x7
 1134 0173 C8       		.byte	0xc8
 1135 0174 65040000 		.4byte	0x465
 1136 0178 0C       		.byte	0xc
 1137 0179 07       		.uleb128 0x7
 1138 017a 63010000 		.4byte	.LASF32
 1139 017e 07       		.byte	0x7
 1140 017f CA       		.byte	0xca
 1141 0180 35020000 		.4byte	0x235
 1142 0184 10       		.byte	0x10
 1143 0185 07       		.uleb128 0x7
 1144 0186 6C030000 		.4byte	.LASF33
 1145 018a 07       		.byte	0x7
 1146 018b CB       		.byte	0xcb
 1147 018c 35020000 		.4byte	0x235
 1148 0190 14       		.byte	0x14
 1149 0191 07       		.uleb128 0x7
 1150 0192 B1050000 		.4byte	.LASF34
 1151 0196 07       		.byte	0x7
 1152 0197 D2       		.byte	0xd2
 1153 0198 E4050000 		.4byte	0x5e4
 1154 019c 18       		.byte	0x18
 1155 019d 07       		.uleb128 0x7
 1156 019e 49040000 		.4byte	.LASF35
 1157 01a2 07       		.byte	0x7
 1158 01a3 DD       		.byte	0xdd
 1159 01a4 E5000000 		.4byte	0xe5
 1160 01a8 1C       		.byte	0x1c
 1161 01a9 07       		.uleb128 0x7
ARM GAS  /tmp/ccLSw0YD.s 			page 51


 1162 01aa 66040000 		.4byte	.LASF36
 1163 01ae 07       		.byte	0x7
 1164 01af E1       		.byte	0xe1
 1165 01b0 DA000000 		.4byte	0xda
 1166 01b4 1D       		.byte	0x1d
 1167 01b5 07       		.uleb128 0x7
 1168 01b6 84050000 		.4byte	.LASF37
 1169 01ba 07       		.byte	0x7
 1170 01bb E6       		.byte	0xe6
 1171 01bc F0000000 		.4byte	0xf0
 1172 01c0 1E       		.byte	0x1e
 1173 01c1 08       		.uleb128 0x8
 1174 01c2 705F7500 		.ascii	"p_u\000"
 1175 01c6 07       		.byte	0x7
 1176 01c7 3101     		.2byte	0x131
 1177 01c9 1F050000 		.4byte	0x51f
 1178 01cd 20       		.byte	0x20
 1179 01ce 09       		.uleb128 0x9
 1180 01cf 19030000 		.4byte	.LASF38
 1181 01d3 07       		.byte	0x7
 1182 01d4 3601     		.2byte	0x136
 1183 01d6 3B020000 		.4byte	0x23b
 1184 01da 24       		.byte	0x24
 1185 01db 09       		.uleb128 0x9
 1186 01dc D0010000 		.4byte	.LASF39
 1187 01e0 07       		.byte	0x7
 1188 01e1 3C01     		.2byte	0x13c
 1189 01e3 5F020000 		.4byte	0x25f
 1190 01e7 28       		.byte	0x28
 1191 01e8 09       		.uleb128 0x9
 1192 01e9 CC050000 		.4byte	.LASF40
 1193 01ed 07       		.byte	0x7
 1194 01ee 4001     		.2byte	0x140
 1195 01f0 06010000 		.4byte	0x106
 1196 01f4 30       		.byte	0x30
 1197 01f5 09       		.uleb128 0x9
 1198 01f6 87040000 		.4byte	.LASF41
 1199 01fa 07       		.byte	0x7
 1200 01fb 4601     		.2byte	0x146
 1201 01fd 11010000 		.4byte	0x111
 1202 0201 34       		.byte	0x34
 1203 0202 09       		.uleb128 0x9
 1204 0203 35040000 		.4byte	.LASF42
 1205 0207 07       		.byte	0x7
 1206 0208 4D01     		.2byte	0x14d
 1207 020a DE050000 		.4byte	0x5de
 1208 020e 38       		.byte	0x38
 1209 020f 09       		.uleb128 0x9
 1210 0210 13050000 		.4byte	.LASF43
 1211 0214 07       		.byte	0x7
 1212 0215 5101     		.2byte	0x151
 1213 0217 FB000000 		.4byte	0xfb
 1214 021b 3C       		.byte	0x3c
 1215 021c 09       		.uleb128 0x9
 1216 021d F5000000 		.4byte	.LASF44
 1217 0221 07       		.byte	0x7
 1218 0222 5801     		.2byte	0x158
ARM GAS  /tmp/ccLSw0YD.s 			page 52


 1219 0224 12030000 		.4byte	0x312
 1220 0228 40       		.byte	0x40
 1221 0229 00       		.byte	0
 1222 022a 03       		.uleb128 0x3
 1223 022b 2C030000 		.4byte	.LASF45
 1224 022f 06       		.byte	0x6
 1225 0230 44       		.byte	0x44
 1226 0231 35020000 		.4byte	0x235
 1227 0235 0A       		.uleb128 0xa
 1228 0236 04       		.byte	0x4
 1229 0237 32010000 		.4byte	0x132
 1230 023b 03       		.uleb128 0x3
 1231 023c BD050000 		.4byte	.LASF46
 1232 0240 06       		.byte	0x6
 1233 0241 49       		.byte	0x49
 1234 0242 46020000 		.4byte	0x246
 1235 0246 06       		.uleb128 0x6
 1236 0247 B3040000 		.4byte	.LASF48
 1237 024b 04       		.byte	0x4
 1238 024c 07       		.byte	0x7
 1239 024d B0       		.byte	0xb0
 1240 024e 5F020000 		.4byte	0x25f
 1241 0252 07       		.uleb128 0x7
 1242 0253 5F040000 		.4byte	.LASF28
 1243 0257 07       		.byte	0x7
 1244 0258 B1       		.byte	0xb1
 1245 0259 35020000 		.4byte	0x235
 1246 025d 00       		.byte	0
 1247 025e 00       		.byte	0
 1248 025f 03       		.uleb128 0x3
 1249 0260 6B050000 		.4byte	.LASF49
 1250 0264 06       		.byte	0x6
 1251 0265 50       		.byte	0x50
 1252 0266 6A020000 		.4byte	0x26a
 1253 026a 06       		.uleb128 0x6
 1254 026b BF000000 		.4byte	.LASF50
 1255 026f 08       		.byte	0x8
 1256 0270 07       		.byte	0x7
 1257 0271 B7       		.byte	0xb7
 1258 0272 8F020000 		.4byte	0x28f
 1259 0276 07       		.uleb128 0x7
 1260 0277 5F040000 		.4byte	.LASF28
 1261 027b 07       		.byte	0x7
 1262 027c B8       		.byte	0xb8
 1263 027d 35020000 		.4byte	0x235
 1264 0281 00       		.byte	0
 1265 0282 07       		.uleb128 0x7
 1266 0283 E4030000 		.4byte	.LASF29
 1267 0287 07       		.byte	0x7
 1268 0288 B9       		.byte	0xb9
 1269 0289 35020000 		.4byte	0x235
 1270 028d 04       		.byte	0x4
 1271 028e 00       		.byte	0
 1272 028f 03       		.uleb128 0x3
 1273 0290 00000000 		.4byte	.LASF51
 1274 0294 06       		.byte	0x6
 1275 0295 57       		.byte	0x57
ARM GAS  /tmp/ccLSw0YD.s 			page 53


 1276 0296 9A020000 		.4byte	0x29a
 1277 029a 0B       		.uleb128 0xb
 1278 029b 23020000 		.4byte	.LASF52
 1279 029f 1C       		.byte	0x1c
 1280 02a0 07       		.byte	0x7
 1281 02a1 9001     		.2byte	0x190
 1282 02a3 F6020000 		.4byte	0x2f6
 1283 02a7 09       		.uleb128 0x9
 1284 02a8 A2040000 		.4byte	.LASF53
 1285 02ac 07       		.byte	0x7
 1286 02ad 9101     		.2byte	0x191
 1287 02af 5F020000 		.4byte	0x25f
 1288 02b3 00       		.byte	0
 1289 02b4 09       		.uleb128 0x9
 1290 02b5 51040000 		.4byte	.LASF54
 1291 02b9 07       		.byte	0x7
 1292 02ba 9201     		.2byte	0x192
 1293 02bc FB000000 		.4byte	0xfb
 1294 02c0 08       		.byte	0x8
 1295 02c1 09       		.uleb128 0x9
 1296 02c2 74030000 		.4byte	.LASF55
 1297 02c6 07       		.byte	0x7
 1298 02c7 9401     		.2byte	0x194
 1299 02c9 65040000 		.4byte	0x465
 1300 02cd 0C       		.byte	0xc
 1301 02ce 09       		.uleb128 0x9
 1302 02cf 73010000 		.4byte	.LASF56
 1303 02d3 07       		.byte	0x7
 1304 02d4 9701     		.2byte	0x197
 1305 02d6 35020000 		.4byte	0x235
 1306 02da 10       		.byte	0x10
 1307 02db 09       		.uleb128 0x9
 1308 02dc 95030000 		.4byte	.LASF57
 1309 02e0 07       		.byte	0x7
 1310 02e1 9801     		.2byte	0x198
 1311 02e3 35020000 		.4byte	0x235
 1312 02e7 14       		.byte	0x14
 1313 02e8 09       		.uleb128 0x9
 1314 02e9 8B030000 		.4byte	.LASF58
 1315 02ed 07       		.byte	0x7
 1316 02ee 9B01     		.2byte	0x19b
 1317 02f0 35020000 		.4byte	0x235
 1318 02f4 18       		.byte	0x18
 1319 02f5 00       		.byte	0
 1320 02f6 03       		.uleb128 0x3
 1321 02f7 1E050000 		.4byte	.LASF59
 1322 02fb 06       		.byte	0x6
 1323 02fc 5C       		.byte	0x5c
 1324 02fd 01030000 		.4byte	0x301
 1325 0301 0A       		.uleb128 0xa
 1326 0302 04       		.byte	0x4
 1327 0303 07030000 		.4byte	0x307
 1328 0307 0C       		.uleb128 0xc
 1329 0308 12030000 		.4byte	0x312
 1330 030c 0D       		.uleb128 0xd
 1331 030d 12030000 		.4byte	0x312
 1332 0311 00       		.byte	0
ARM GAS  /tmp/ccLSw0YD.s 			page 54


 1333 0312 0E       		.uleb128 0xe
 1334 0313 04       		.byte	0x4
 1335 0314 03       		.uleb128 0x3
 1336 0315 D4030000 		.4byte	.LASF60
 1337 0319 06       		.byte	0x6
 1338 031a 61       		.byte	0x61
 1339 031b 1F030000 		.4byte	0x31f
 1340 031f 0B       		.uleb128 0xb
 1341 0320 4B050000 		.4byte	.LASF61
 1342 0324 14       		.byte	0x14
 1343 0325 07       		.byte	0x7
 1344 0326 6B01     		.2byte	0x16b
 1345 0328 6E030000 		.4byte	0x36e
 1346 032c 09       		.uleb128 0x9
 1347 032d C1010000 		.4byte	.LASF62
 1348 0331 07       		.byte	0x7
 1349 0332 6C01     		.2byte	0x16c
 1350 0334 F6050000 		.4byte	0x5f6
 1351 0338 00       		.byte	0
 1352 0339 09       		.uleb128 0x9
 1353 033a 84010000 		.4byte	.LASF63
 1354 033e 07       		.byte	0x7
 1355 033f 6D01     		.2byte	0x16d
 1356 0341 F6050000 		.4byte	0x5f6
 1357 0345 04       		.byte	0x4
 1358 0346 09       		.uleb128 0x9
 1359 0347 AA040000 		.4byte	.LASF64
 1360 034b 07       		.byte	0x7
 1361 034c 6E01     		.2byte	0x16e
 1362 034e 27010000 		.4byte	0x127
 1363 0352 08       		.byte	0x8
 1364 0353 09       		.uleb128 0x9
 1365 0354 E0050000 		.4byte	.LASF65
 1366 0358 07       		.byte	0x7
 1367 0359 6F01     		.2byte	0x16f
 1368 035b F6020000 		.4byte	0x2f6
 1369 035f 0C       		.byte	0xc
 1370 0360 09       		.uleb128 0x9
 1371 0361 64050000 		.4byte	.LASF66
 1372 0365 07       		.byte	0x7
 1373 0366 7101     		.2byte	0x171
 1374 0368 12030000 		.4byte	0x312
 1375 036c 10       		.byte	0x10
 1376 036d 00       		.byte	0
 1377 036e 03       		.uleb128 0x3
 1378 036f 90000000 		.4byte	.LASF67
 1379 0373 06       		.byte	0x6
 1380 0374 66       		.byte	0x66
 1381 0375 79030000 		.4byte	0x379
 1382 0379 0B       		.uleb128 0xb
 1383 037a 3F030000 		.4byte	.LASF68
 1384 037e 10       		.byte	0x10
 1385 037f 07       		.byte	0x7
 1386 0380 7B01     		.2byte	0x17b
 1387 0382 BB030000 		.4byte	0x3bb
 1388 0386 09       		.uleb128 0x9
 1389 0387 C1010000 		.4byte	.LASF62
ARM GAS  /tmp/ccLSw0YD.s 			page 55


 1390 038b 07       		.byte	0x7
 1391 038c 7C01     		.2byte	0x17c
 1392 038e F6050000 		.4byte	0x5f6
 1393 0392 00       		.byte	0
 1394 0393 09       		.uleb128 0x9
 1395 0394 84010000 		.4byte	.LASF63
 1396 0398 07       		.byte	0x7
 1397 0399 7E01     		.2byte	0x17e
 1398 039b F6050000 		.4byte	0x5f6
 1399 039f 04       		.byte	0x4
 1400 03a0 09       		.uleb128 0x9
 1401 03a1 AA040000 		.4byte	.LASF64
 1402 03a5 07       		.byte	0x7
 1403 03a6 8001     		.2byte	0x180
 1404 03a8 27010000 		.4byte	0x127
 1405 03ac 08       		.byte	0x8
 1406 03ad 09       		.uleb128 0x9
 1407 03ae 56030000 		.4byte	.LASF69
 1408 03b2 07       		.byte	0x7
 1409 03b3 8801     		.2byte	0x188
 1410 03b5 27010000 		.4byte	0x127
 1411 03b9 0C       		.byte	0xc
 1412 03ba 00       		.byte	0
 1413 03bb 03       		.uleb128 0x3
 1414 03bc 3F000000 		.4byte	.LASF70
 1415 03c0 06       		.byte	0x6
 1416 03c1 6B       		.byte	0x6b
 1417 03c2 C6030000 		.4byte	0x3c6
 1418 03c6 0B       		.uleb128 0xb
 1419 03c7 03040000 		.4byte	.LASF71
 1420 03cb 04       		.byte	0x4
 1421 03cc 07       		.byte	0x7
 1422 03cd A201     		.2byte	0x1a2
 1423 03cf E1030000 		.4byte	0x3e1
 1424 03d3 09       		.uleb128 0x9
 1425 03d4 32050000 		.4byte	.LASF72
 1426 03d8 07       		.byte	0x7
 1427 03d9 AA01     		.2byte	0x1aa
 1428 03db FC050000 		.4byte	0x5fc
 1429 03df 00       		.byte	0
 1430 03e0 00       		.byte	0
 1431 03e1 03       		.uleb128 0x3
 1432 03e2 0F020000 		.4byte	.LASF73
 1433 03e6 06       		.byte	0x6
 1434 03e7 70       		.byte	0x70
 1435 03e8 EC030000 		.4byte	0x3ec
 1436 03ec 0F       		.uleb128 0xf
 1437 03ed 1D010000 		.4byte	.LASF74
 1438 03f1 5001     		.2byte	0x150
 1439 03f3 07       		.byte	0x7
 1440 03f4 C201     		.2byte	0x1c2
 1441 03f6 48040000 		.4byte	0x448
 1442 03fa 09       		.uleb128 0x9
 1443 03fb 8B050000 		.4byte	.LASF75
 1444 03ff 07       		.byte	0x7
 1445 0400 C601     		.2byte	0x1c6
 1446 0402 8F020000 		.4byte	0x28f
ARM GAS  /tmp/ccLSw0YD.s 			page 56


 1447 0406 00       		.byte	0
 1448 0407 09       		.uleb128 0x9
 1449 0408 10010000 		.4byte	.LASF76
 1450 040c 07       		.byte	0x7
 1451 040d CA01     		.2byte	0x1ca
 1452 040f 6E030000 		.4byte	0x36e
 1453 0413 1C       		.byte	0x1c
 1454 0414 08       		.uleb128 0x8
 1455 0415 64626700 		.ascii	"dbg\000"
 1456 0419 07       		.byte	0x7
 1457 041a CE01     		.2byte	0x1ce
 1458 041c BB030000 		.4byte	0x3bb
 1459 0420 2C       		.byte	0x2c
 1460 0421 09       		.uleb128 0x9
 1461 0422 FE010000 		.4byte	.LASF77
 1462 0426 07       		.byte	0x7
 1463 0427 D201     		.2byte	0x1d2
 1464 0429 32010000 		.4byte	0x132
 1465 042d 30       		.byte	0x30
 1466 042e 08       		.uleb128 0x8
 1467 042f 746D00   		.ascii	"tm\000"
 1468 0432 07       		.byte	0x7
 1469 0433 D701     		.2byte	0x1d7
 1470 0435 14050000 		.4byte	0x514
 1471 0439 74       		.byte	0x74
 1472 043a 09       		.uleb128 0x9
 1473 043b 9F010000 		.4byte	.LASF78
 1474 043f 07       		.byte	0x7
 1475 0440 E301     		.2byte	0x1e3
 1476 0442 01060000 		.4byte	0x601
 1477 0446 78       		.byte	0x78
 1478 0447 00       		.byte	0
 1479 0448 04       		.uleb128 0x4
 1480 0449 04       		.byte	0x4
 1481 044a 07       		.byte	0x7
 1482 044b 23030000 		.4byte	.LASF79
 1483 044f 03       		.uleb128 0x3
 1484 0450 7B010000 		.4byte	.LASF80
 1485 0454 08       		.byte	0x8
 1486 0455 65       		.byte	0x65
 1487 0456 12030000 		.4byte	0x312
 1488 045a 03       		.uleb128 0x3
 1489 045b 47020000 		.4byte	.LASF81
 1490 045f 08       		.byte	0x8
 1491 0460 6D       		.byte	0x6d
 1492 0461 BF000000 		.4byte	0xbf
 1493 0465 06       		.uleb128 0x6
 1494 0466 43050000 		.4byte	.LASF82
 1495 046a 04       		.byte	0x4
 1496 046b 08       		.byte	0x8
 1497 046c 89       		.byte	0x89
 1498 046d 7E040000 		.4byte	0x47e
 1499 0471 10       		.uleb128 0x10
 1500 0472 72313300 		.ascii	"r13\000"
 1501 0476 08       		.byte	0x8
 1502 0477 8A       		.byte	0x8a
 1503 0478 F9040000 		.4byte	0x4f9
ARM GAS  /tmp/ccLSw0YD.s 			page 57


 1504 047c 00       		.byte	0
 1505 047d 00       		.byte	0
 1506 047e 06       		.uleb128 0x6
 1507 047f 33000000 		.4byte	.LASF83
 1508 0483 24       		.byte	0x24
 1509 0484 09       		.byte	0x9
 1510 0485 F4       		.byte	0xf4
 1511 0486 F9040000 		.4byte	0x4f9
 1512 048a 08       		.uleb128 0x8
 1513 048b 723400   		.ascii	"r4\000"
 1514 048e 09       		.byte	0x9
 1515 048f 0701     		.2byte	0x107
 1516 0491 4F040000 		.4byte	0x44f
 1517 0495 00       		.byte	0
 1518 0496 08       		.uleb128 0x8
 1519 0497 723500   		.ascii	"r5\000"
 1520 049a 09       		.byte	0x9
 1521 049b 0801     		.2byte	0x108
 1522 049d 4F040000 		.4byte	0x44f
 1523 04a1 04       		.byte	0x4
 1524 04a2 08       		.uleb128 0x8
 1525 04a3 723600   		.ascii	"r6\000"
 1526 04a6 09       		.byte	0x9
 1527 04a7 0901     		.2byte	0x109
 1528 04a9 4F040000 		.4byte	0x44f
 1529 04ad 08       		.byte	0x8
 1530 04ae 08       		.uleb128 0x8
 1531 04af 723700   		.ascii	"r7\000"
 1532 04b2 09       		.byte	0x9
 1533 04b3 0A01     		.2byte	0x10a
 1534 04b5 4F040000 		.4byte	0x44f
 1535 04b9 0C       		.byte	0xc
 1536 04ba 08       		.uleb128 0x8
 1537 04bb 723800   		.ascii	"r8\000"
 1538 04be 09       		.byte	0x9
 1539 04bf 0B01     		.2byte	0x10b
 1540 04c1 4F040000 		.4byte	0x44f
 1541 04c5 10       		.byte	0x10
 1542 04c6 08       		.uleb128 0x8
 1543 04c7 723900   		.ascii	"r9\000"
 1544 04ca 09       		.byte	0x9
 1545 04cb 0C01     		.2byte	0x10c
 1546 04cd 4F040000 		.4byte	0x44f
 1547 04d1 14       		.byte	0x14
 1548 04d2 08       		.uleb128 0x8
 1549 04d3 72313000 		.ascii	"r10\000"
 1550 04d7 09       		.byte	0x9
 1551 04d8 0D01     		.2byte	0x10d
 1552 04da 4F040000 		.4byte	0x44f
 1553 04de 18       		.byte	0x18
 1554 04df 08       		.uleb128 0x8
 1555 04e0 72313100 		.ascii	"r11\000"
 1556 04e4 09       		.byte	0x9
 1557 04e5 0E01     		.2byte	0x10e
 1558 04e7 4F040000 		.4byte	0x44f
 1559 04eb 1C       		.byte	0x1c
 1560 04ec 08       		.uleb128 0x8
ARM GAS  /tmp/ccLSw0YD.s 			page 58


 1561 04ed 6C7200   		.ascii	"lr\000"
 1562 04f0 09       		.byte	0x9
 1563 04f1 0F01     		.2byte	0x10f
 1564 04f3 4F040000 		.4byte	0x44f
 1565 04f7 20       		.byte	0x20
 1566 04f8 00       		.byte	0
 1567 04f9 0A       		.uleb128 0xa
 1568 04fa 04       		.byte	0x4
 1569 04fb 7E040000 		.4byte	0x47e
 1570 04ff 11       		.uleb128 0x11
 1571 0500 04       		.byte	0x4
 1572 0501 0A       		.byte	0xa
 1573 0502 38       		.byte	0x38
 1574 0503 14050000 		.4byte	0x514
 1575 0507 07       		.uleb128 0x7
 1576 0508 3C050000 		.4byte	.LASF84
 1577 050c 0A       		.byte	0xa
 1578 050d 3C       		.byte	0x3c
 1579 050e CF000000 		.4byte	0xcf
 1580 0512 00       		.byte	0
 1581 0513 00       		.byte	0
 1582 0514 03       		.uleb128 0x3
 1583 0515 7A030000 		.4byte	.LASF85
 1584 0519 0A       		.byte	0xa
 1585 051a 3D       		.byte	0x3d
 1586 051b FF040000 		.4byte	0x4ff
 1587 051f 12       		.uleb128 0x12
 1588 0520 04       		.byte	0x4
 1589 0521 07       		.byte	0x7
 1590 0522 FA       		.byte	0xfa
 1591 0523 7C050000 		.4byte	0x57c
 1592 0527 13       		.uleb128 0x13
 1593 0528 19000000 		.4byte	.LASF86
 1594 052c 07       		.byte	0x7
 1595 052d 0101     		.2byte	0x101
 1596 052f 06010000 		.4byte	0x106
 1597 0533 13       		.uleb128 0x13
 1598 0534 80000000 		.4byte	.LASF87
 1599 0538 07       		.byte	0x7
 1600 0539 0801     		.2byte	0x108
 1601 053b 06010000 		.4byte	0x106
 1602 053f 13       		.uleb128 0x13
 1603 0540 A4050000 		.4byte	.LASF88
 1604 0544 07       		.byte	0x7
 1605 0545 0F01     		.2byte	0x10f
 1606 0547 12030000 		.4byte	0x312
 1607 054b 13       		.uleb128 0x13
 1608 054c 17010000 		.4byte	.LASF89
 1609 0550 07       		.byte	0x7
 1610 0551 1601     		.2byte	0x116
 1611 0553 7C050000 		.4byte	0x57c
 1612 0557 13       		.uleb128 0x13
 1613 0558 C9010000 		.4byte	.LASF90
 1614 055c 07       		.byte	0x7
 1615 055d 1E01     		.2byte	0x11e
 1616 055f A7050000 		.4byte	0x5a7
 1617 0563 13       		.uleb128 0x13
ARM GAS  /tmp/ccLSw0YD.s 			page 59


 1618 0564 9B040000 		.4byte	.LASF91
 1619 0568 07       		.byte	0x7
 1620 0569 2701     		.2byte	0x127
 1621 056b DE050000 		.4byte	0x5de
 1622 056f 13       		.uleb128 0x13
 1623 0570 58040000 		.4byte	.LASF92
 1624 0574 07       		.byte	0x7
 1625 0575 2F01     		.2byte	0x12f
 1626 0577 11010000 		.4byte	0x111
 1627 057b 00       		.byte	0
 1628 057c 0A       		.uleb128 0xa
 1629 057d 04       		.byte	0x4
 1630 057e 2A020000 		.4byte	0x22a
 1631 0582 06       		.uleb128 0x6
 1632 0583 7A040000 		.4byte	.LASF93
 1633 0587 0C       		.byte	0xc
 1634 0588 0B       		.byte	0xb
 1635 0589 34       		.byte	0x34
 1636 058a A7050000 		.4byte	0x5a7
 1637 058e 07       		.uleb128 0x7
 1638 058f 6B010000 		.4byte	.LASF94
 1639 0593 0B       		.byte	0xb
 1640 0594 35       		.byte	0x35
 1641 0595 5F020000 		.4byte	0x25f
 1642 0599 00       		.byte	0
 1643 059a 07       		.uleb128 0x7
 1644 059b DB010000 		.4byte	.LASF95
 1645 059f 0B       		.byte	0xb
 1646 05a0 37       		.byte	0x37
 1647 05a1 1C010000 		.4byte	0x11c
 1648 05a5 08       		.byte	0x8
 1649 05a6 00       		.byte	0
 1650 05a7 0A       		.uleb128 0xa
 1651 05a8 04       		.byte	0x4
 1652 05a9 82050000 		.4byte	0x582
 1653 05ad 06       		.uleb128 0x6
 1654 05ae 7B050000 		.4byte	.LASF96
 1655 05b2 10       		.byte	0x10
 1656 05b3 0C       		.byte	0xc
 1657 05b4 39       		.byte	0x39
 1658 05b5 DE050000 		.4byte	0x5de
 1659 05b9 07       		.uleb128 0x7
 1660 05ba FD000000 		.4byte	.LASF97
 1661 05be 0C       		.byte	0xc
 1662 05bf 3A       		.byte	0x3a
 1663 05c0 5F020000 		.4byte	0x25f
 1664 05c4 00       		.byte	0
 1665 05c5 07       		.uleb128 0x7
 1666 05c6 D2050000 		.4byte	.LASF98
 1667 05ca 0C       		.byte	0xc
 1668 05cb 3C       		.byte	0x3c
 1669 05cc 35020000 		.4byte	0x235
 1670 05d0 08       		.byte	0x8
 1671 05d1 07       		.uleb128 0x7
 1672 05d2 02050000 		.4byte	.LASF99
 1673 05d6 0C       		.byte	0xc
 1674 05d7 3E       		.byte	0x3e
ARM GAS  /tmp/ccLSw0YD.s 			page 60


 1675 05d8 1C060000 		.4byte	0x61c
 1676 05dc 0C       		.byte	0xc
 1677 05dd 00       		.byte	0
 1678 05de 0A       		.uleb128 0xa
 1679 05df 04       		.byte	0x4
 1680 05e0 AD050000 		.4byte	0x5ad
 1681 05e4 0A       		.uleb128 0xa
 1682 05e5 04       		.byte	0x4
 1683 05e6 EA050000 		.4byte	0x5ea
 1684 05ea 14       		.uleb128 0x14
 1685 05eb EF050000 		.4byte	0x5ef
 1686 05ef 04       		.uleb128 0x4
 1687 05f0 01       		.byte	0x1
 1688 05f1 08       		.byte	0x8
 1689 05f2 E7040000 		.4byte	.LASF100
 1690 05f6 0A       		.uleb128 0xa
 1691 05f7 04       		.byte	0x4
 1692 05f8 14030000 		.4byte	0x314
 1693 05fc 05       		.uleb128 0x5
 1694 05fd E4050000 		.4byte	0x5e4
 1695 0601 15       		.uleb128 0x15
 1696 0602 5A040000 		.4byte	0x45a
 1697 0606 11060000 		.4byte	0x611
 1698 060a 16       		.uleb128 0x16
 1699 060b 48040000 		.4byte	0x448
 1700 060f 1A       		.byte	0x1a
 1701 0610 00       		.byte	0
 1702 0611 03       		.uleb128 0x3
 1703 0612 8C010000 		.4byte	.LASF101
 1704 0616 0C       		.byte	0xc
 1705 0617 34       		.byte	0x34
 1706 0618 AD050000 		.4byte	0x5ad
 1707 061c 0A       		.uleb128 0xa
 1708 061d 04       		.byte	0x4
 1709 061e 11060000 		.4byte	0x611
 1710 0622 03       		.uleb128 0x3
 1711 0623 5C000000 		.4byte	.LASF102
 1712 0627 0D       		.byte	0xd
 1713 0628 36       		.byte	0x36
 1714 0629 2D060000 		.4byte	0x62d
 1715 062d 0A       		.uleb128 0xa
 1716 062e 04       		.byte	0x4
 1717 062f 33060000 		.4byte	0x633
 1718 0633 17       		.uleb128 0x17
 1719 0634 12030000 		.4byte	0x312
 1720 0638 42060000 		.4byte	0x642
 1721 063c 0D       		.uleb128 0xd
 1722 063d 28000000 		.4byte	0x28
 1723 0641 00       		.byte	0
 1724 0642 03       		.uleb128 0x3
 1725 0643 39010000 		.4byte	.LASF103
 1726 0647 0E       		.byte	0xe
 1727 0648 3C       		.byte	0x3c
 1728 0649 4D060000 		.4byte	0x64d
 1729 064d 06       		.uleb128 0x6
 1730 064e E8050000 		.4byte	.LASF104
 1731 0652 20       		.byte	0x20
ARM GAS  /tmp/ccLSw0YD.s 			page 61


 1732 0653 0E       		.byte	0xe
 1733 0654 4F       		.byte	0x4f
 1734 0655 7E060000 		.4byte	0x67e
 1735 0659 07       		.uleb128 0x7
 1736 065a 99050000 		.4byte	.LASF105
 1737 065e 0E       		.byte	0xe
 1738 065f 50       		.byte	0x50
 1739 0660 22060000 		.4byte	0x622
 1740 0664 00       		.byte	0
 1741 0665 07       		.uleb128 0x7
 1742 0666 89000000 		.4byte	.LASF106
 1743 066a 0E       		.byte	0xe
 1744 066b 52       		.byte	0x52
 1745 066c 9D060000 		.4byte	0x69d
 1746 0670 08       		.byte	0x8
 1747 0671 07       		.uleb128 0x7
 1748 0672 EF000000 		.4byte	.LASF107
 1749 0676 0E       		.byte	0xe
 1750 0677 54       		.byte	0x54
 1751 0678 11060000 		.4byte	0x611
 1752 067c 10       		.byte	0x10
 1753 067d 00       		.byte	0
 1754 067e 12       		.uleb128 0x12
 1755 067f 04       		.byte	0x4
 1756 0680 0E       		.byte	0xe
 1757 0681 44       		.byte	0x44
 1758 0682 9D060000 		.4byte	0x69d
 1759 0686 18       		.uleb128 0x18
 1760 0687 14000000 		.4byte	.LASF108
 1761 068b 0E       		.byte	0xe
 1762 068c 45       		.byte	0x45
 1763 068d BE060000 		.4byte	0x6be
 1764 0691 18       		.uleb128 0x18
 1765 0692 C3040000 		.4byte	.LASF109
 1766 0696 0E       		.byte	0xe
 1767 0697 46       		.byte	0x46
 1768 0698 C4060000 		.4byte	0x6c4
 1769 069c 00       		.byte	0
 1770 069d 19       		.uleb128 0x19
 1771 069e 29040000 		.4byte	.LASF127
 1772 06a2 08       		.byte	0x8
 1773 06a3 0E       		.byte	0xe
 1774 06a4 41       		.byte	0x41
 1775 06a5 BE060000 		.4byte	0x6be
 1776 06a9 18       		.uleb128 0x18
 1777 06aa B9000000 		.4byte	.LASF110
 1778 06ae 0E       		.byte	0xe
 1779 06af 42       		.byte	0x42
 1780 06b0 5A040000 		.4byte	0x45a
 1781 06b4 1A       		.uleb128 0x1a
 1782 06b5 6800     		.ascii	"h\000"
 1783 06b7 0E       		.byte	0xe
 1784 06b8 49       		.byte	0x49
 1785 06b9 CA060000 		.4byte	0x6ca
 1786 06bd 00       		.byte	0
 1787 06be 0A       		.uleb128 0xa
 1788 06bf 04       		.byte	0x4
ARM GAS  /tmp/ccLSw0YD.s 			page 62


 1789 06c0 9D060000 		.4byte	0x69d
 1790 06c4 0A       		.uleb128 0xa
 1791 06c5 04       		.byte	0x4
 1792 06c6 42060000 		.4byte	0x642
 1793 06ca 11       		.uleb128 0x11
 1794 06cb 08       		.byte	0x8
 1795 06cc 0E       		.byte	0xe
 1796 06cd 43       		.byte	0x43
 1797 06ce E9060000 		.4byte	0x6e9
 1798 06d2 10       		.uleb128 0x10
 1799 06d3 7500     		.ascii	"u\000"
 1800 06d5 0E       		.byte	0xe
 1801 06d6 47       		.byte	0x47
 1802 06d7 7E060000 		.4byte	0x67e
 1803 06db 00       		.byte	0
 1804 06dc 07       		.uleb128 0x7
 1805 06dd B8050000 		.4byte	.LASF111
 1806 06e1 0E       		.byte	0xe
 1807 06e2 48       		.byte	0x48
 1808 06e3 28000000 		.4byte	0x28
 1809 06e7 04       		.byte	0x4
 1810 06e8 00       		.byte	0
 1811 06e9 1B       		.uleb128 0x1b
 1812 06ea 94010000 		.4byte	.LASF112
 1813 06ee 01       		.byte	0x1
 1814 06ef 5B       		.byte	0x5b
 1815 06f0 00000000 		.4byte	.LFB229
 1816 06f4 1C000000 		.4byte	.LFE229-.LFB229
 1817 06f8 01       		.uleb128 0x1
 1818 06f9 9C       		.byte	0x9c
 1819 06fa 12070000 		.4byte	0x712
 1820 06fe 1C       		.uleb128 0x1c
 1821 06ff 14000000 		.4byte	.LVL0
 1822 0703 89090000 		.4byte	0x989
 1823 0707 1D       		.uleb128 0x1d
 1824 0708 01       		.uleb128 0x1
 1825 0709 50       		.byte	0x50
 1826 070a 05       		.uleb128 0x5
 1827 070b 03       		.byte	0x3
 1828 070c 10000000 		.4byte	.LANCHOR0+16
 1829 0710 00       		.byte	0
 1830 0711 00       		.byte	0
 1831 0712 1B       		.uleb128 0x1b
 1832 0713 52020000 		.4byte	.LASF113
 1833 0717 01       		.byte	0x1
 1834 0718 72       		.byte	0x72
 1835 0719 00000000 		.4byte	.LFB230
 1836 071d 14000000 		.4byte	.LFE230-.LFB230
 1837 0721 01       		.uleb128 0x1
 1838 0722 9C       		.byte	0x9c
 1839 0723 7F070000 		.4byte	0x77f
 1840 0727 1E       		.uleb128 0x1e
 1841 0728 B3000000 		.4byte	.LASF114
 1842 072c 01       		.byte	0x1
 1843 072d 72       		.byte	0x72
 1844 072e C4060000 		.4byte	0x6c4
 1845 0732 00000000 		.4byte	.LLST0
ARM GAS  /tmp/ccLSw0YD.s 			page 63


 1846 0736 1F       		.uleb128 0x1f
 1847 0737 62756600 		.ascii	"buf\000"
 1848 073b 01       		.byte	0x1
 1849 073c 72       		.byte	0x72
 1850 073d 12030000 		.4byte	0x312
 1851 0741 2E000000 		.4byte	.LLST1
 1852 0745 1E       		.uleb128 0x1e
 1853 0746 B8050000 		.4byte	.LASF111
 1854 074a 01       		.byte	0x1
 1855 074b 72       		.byte	0x72
 1856 074c 28000000 		.4byte	0x28
 1857 0750 4F000000 		.4byte	.LLST2
 1858 0754 20       		.uleb128 0x20
 1859 0755 687000   		.ascii	"hp\000"
 1860 0758 01       		.byte	0x1
 1861 0759 73       		.byte	0x73
 1862 075a BE060000 		.4byte	0x6be
 1863 075e 2E000000 		.4byte	.LLST1
 1864 0762 21       		.uleb128 0x21
 1865 0763 4E000000 		.4byte	.LASF116
 1866 0767 8F070000 		.4byte	0x78f
 1867 076b 1C       		.uleb128 0x1c
 1868 076c 14000000 		.4byte	.LVL4
 1869 0770 89090000 		.4byte	0x989
 1870 0774 1D       		.uleb128 0x1d
 1871 0775 01       		.uleb128 0x1
 1872 0776 50       		.byte	0x50
 1873 0777 05       		.uleb128 0x5
 1874 0778 F3       		.byte	0xf3
 1875 0779 01       		.uleb128 0x1
 1876 077a 50       		.byte	0x50
 1877 077b 23       		.byte	0x23
 1878 077c 10       		.uleb128 0x10
 1879 077d 00       		.byte	0
 1880 077e 00       		.byte	0
 1881 077f 15       		.uleb128 0x15
 1882 0780 EF050000 		.4byte	0x5ef
 1883 0784 8F070000 		.4byte	0x78f
 1884 0788 16       		.uleb128 0x16
 1885 0789 48040000 		.4byte	0x448
 1886 078d 10       		.byte	0x10
 1887 078e 00       		.byte	0
 1888 078f 14       		.uleb128 0x14
 1889 0790 7F070000 		.4byte	0x77f
 1890 0794 22       		.uleb128 0x22
 1891 0795 6E040000 		.4byte	.LASF118
 1892 0799 01       		.byte	0x1
 1893 079a 93       		.byte	0x93
 1894 079b 12030000 		.4byte	0x312
 1895 079f 00000000 		.4byte	.LFB231
 1896 07a3 8C000000 		.4byte	.LFE231-.LFB231
 1897 07a7 01       		.uleb128 0x1
 1898 07a8 9C       		.byte	0x9c
 1899 07a9 3E080000 		.4byte	0x83e
 1900 07ad 1E       		.uleb128 0x1e
 1901 07ae B3000000 		.4byte	.LASF114
 1902 07b2 01       		.byte	0x1
ARM GAS  /tmp/ccLSw0YD.s 			page 64


 1903 07b3 93       		.byte	0x93
 1904 07b4 C4060000 		.4byte	0x6c4
 1905 07b8 7D000000 		.4byte	.LLST4
 1906 07bc 1E       		.uleb128 0x1e
 1907 07bd B8050000 		.4byte	.LASF111
 1908 07c1 01       		.byte	0x1
 1909 07c2 93       		.byte	0x93
 1910 07c3 28000000 		.4byte	0x28
 1911 07c7 9B000000 		.4byte	.LLST5
 1912 07cb 20       		.uleb128 0x20
 1913 07cc 717000   		.ascii	"qp\000"
 1914 07cf 01       		.byte	0x1
 1915 07d0 94       		.byte	0x94
 1916 07d1 BE060000 		.4byte	0x6be
 1917 07d5 C6000000 		.4byte	.LLST6
 1918 07d9 20       		.uleb128 0x20
 1919 07da 687000   		.ascii	"hp\000"
 1920 07dd 01       		.byte	0x1
 1921 07de 94       		.byte	0x94
 1922 07df BE060000 		.4byte	0x6be
 1923 07e3 EF000000 		.4byte	.LLST7
 1924 07e7 20       		.uleb128 0x20
 1925 07e8 667000   		.ascii	"fp\000"
 1926 07eb 01       		.byte	0x1
 1927 07ec 94       		.byte	0x94
 1928 07ed BE060000 		.4byte	0x6be
 1929 07f1 48010000 		.4byte	.LLST8
 1930 07f5 23       		.uleb128 0x23
 1931 07f6 1E000000 		.4byte	.LVL10
 1932 07fa 9A090000 		.4byte	0x99a
 1933 07fe 09080000 		.4byte	0x809
 1934 0802 1D       		.uleb128 0x1d
 1935 0803 01       		.uleb128 0x1
 1936 0804 50       		.byte	0x50
 1937 0805 02       		.uleb128 0x2
 1938 0806 77       		.byte	0x77
 1939 0807 00       		.sleb128 0
 1940 0808 00       		.byte	0
 1941 0809 23       		.uleb128 0x23
 1942 080a 34000000 		.4byte	.LVL14
 1943 080e AB090000 		.4byte	0x9ab
 1944 0812 1D080000 		.4byte	0x81d
 1945 0816 1D       		.uleb128 0x1d
 1946 0817 01       		.uleb128 0x1
 1947 0818 50       		.byte	0x50
 1948 0819 02       		.uleb128 0x2
 1949 081a 77       		.byte	0x77
 1950 081b 00       		.sleb128 0
 1951 081c 00       		.byte	0
 1952 081d 24       		.uleb128 0x24
 1953 081e 3E000000 		.4byte	.LVL15
 1954 0822 2D080000 		.4byte	0x82d
 1955 0826 1D       		.uleb128 0x1d
 1956 0827 01       		.uleb128 0x1
 1957 0828 50       		.byte	0x50
 1958 0829 02       		.uleb128 0x2
 1959 082a 75       		.byte	0x75
ARM GAS  /tmp/ccLSw0YD.s 			page 65


 1960 082b 08       		.sleb128 8
 1961 082c 00       		.byte	0
 1962 082d 25       		.uleb128 0x25
 1963 082e 64000000 		.4byte	.LVL20
 1964 0832 AB090000 		.4byte	0x9ab
 1965 0836 1D       		.uleb128 0x1d
 1966 0837 01       		.uleb128 0x1
 1967 0838 50       		.byte	0x50
 1968 0839 02       		.uleb128 0x2
 1969 083a 77       		.byte	0x77
 1970 083b 00       		.sleb128 0
 1971 083c 00       		.byte	0
 1972 083d 00       		.byte	0
 1973 083e 1B       		.uleb128 0x1b
 1974 083f 05010000 		.4byte	.LASF115
 1975 0843 01       		.byte	0x1
 1976 0844 D5       		.byte	0xd5
 1977 0845 00000000 		.4byte	.LFB232
 1978 0849 98000000 		.4byte	.LFE232-.LFB232
 1979 084d 01       		.uleb128 0x1
 1980 084e 9C       		.byte	0x9c
 1981 084f BB080000 		.4byte	0x8bb
 1982 0853 1F       		.uleb128 0x1f
 1983 0854 7000     		.ascii	"p\000"
 1984 0856 01       		.byte	0x1
 1985 0857 D5       		.byte	0xd5
 1986 0858 12030000 		.4byte	0x312
 1987 085c 5B010000 		.4byte	.LLST9
 1988 0860 20       		.uleb128 0x20
 1989 0861 717000   		.ascii	"qp\000"
 1990 0864 01       		.byte	0x1
 1991 0865 D6       		.byte	0xd6
 1992 0866 BE060000 		.4byte	0x6be
 1993 086a A0010000 		.4byte	.LLST10
 1994 086e 20       		.uleb128 0x20
 1995 086f 687000   		.ascii	"hp\000"
 1996 0872 01       		.byte	0x1
 1997 0873 D6       		.byte	0xd6
 1998 0874 BE060000 		.4byte	0x6be
 1999 0878 D4010000 		.4byte	.LLST11
 2000 087c 26       		.uleb128 0x26
 2001 087d B3000000 		.4byte	.LASF114
 2002 0881 01       		.byte	0x1
 2003 0882 D7       		.byte	0xd7
 2004 0883 C4060000 		.4byte	0x6c4
 2005 0887 12020000 		.4byte	.LLST12
 2006 088b 21       		.uleb128 0x21
 2007 088c 47010000 		.4byte	.LASF117
 2008 0890 CB080000 		.4byte	0x8cb
 2009 0894 23       		.uleb128 0x23
 2010 0895 18000000 		.4byte	.LVL29
 2011 0899 9A090000 		.4byte	0x99a
 2012 089d A8080000 		.4byte	0x8a8
 2013 08a1 1D       		.uleb128 0x1d
 2014 08a2 01       		.uleb128 0x1
 2015 08a3 50       		.byte	0x50
 2016 08a4 02       		.uleb128 0x2
ARM GAS  /tmp/ccLSw0YD.s 			page 66


 2017 08a5 77       		.byte	0x77
 2018 08a6 00       		.sleb128 0
 2019 08a7 00       		.byte	0
 2020 08a8 27       		.uleb128 0x27
 2021 08a9 62000000 		.4byte	.LVL36
 2022 08ad AB090000 		.4byte	0x9ab
 2023 08b1 27       		.uleb128 0x27
 2024 08b2 98000000 		.4byte	.LVL38
 2025 08b6 AB090000 		.4byte	0x9ab
 2026 08ba 00       		.byte	0
 2027 08bb 15       		.uleb128 0x15
 2028 08bc EF050000 		.4byte	0x5ef
 2029 08c0 CB080000 		.4byte	0x8cb
 2030 08c4 16       		.uleb128 0x16
 2031 08c5 48040000 		.4byte	0x448
 2032 08c9 0A       		.byte	0xa
 2033 08ca 00       		.byte	0
 2034 08cb 14       		.uleb128 0x14
 2035 08cc BB080000 		.4byte	0x8bb
 2036 08d0 28       		.uleb128 0x28
 2037 08d1 F5040000 		.4byte	.LASF119
 2038 08d5 01       		.byte	0x1
 2039 08d6 0B01     		.2byte	0x10b
 2040 08d8 28000000 		.4byte	0x28
 2041 08dc 00000000 		.4byte	.LFB233
 2042 08e0 40000000 		.4byte	.LFE233-.LFB233
 2043 08e4 01       		.uleb128 0x1
 2044 08e5 9C       		.byte	0x9c
 2045 08e6 5B090000 		.4byte	0x95b
 2046 08ea 29       		.uleb128 0x29
 2047 08eb B3000000 		.4byte	.LASF114
 2048 08ef 01       		.byte	0x1
 2049 08f0 0B01     		.2byte	0x10b
 2050 08f2 C4060000 		.4byte	0x6c4
 2051 08f6 72020000 		.4byte	.LLST13
 2052 08fa 29       		.uleb128 0x29
 2053 08fb AB050000 		.4byte	.LASF120
 2054 08ff 01       		.byte	0x1
 2055 0900 0B01     		.2byte	0x10b
 2056 0902 5B090000 		.4byte	0x95b
 2057 0906 B5020000 		.4byte	.LLST14
 2058 090a 2A       		.uleb128 0x2a
 2059 090b 717000   		.ascii	"qp\000"
 2060 090e 01       		.byte	0x1
 2061 090f 0C01     		.2byte	0x10c
 2062 0911 BE060000 		.4byte	0x6be
 2063 0915 D3020000 		.4byte	.LLST15
 2064 0919 2A       		.uleb128 0x2a
 2065 091a 6E00     		.ascii	"n\000"
 2066 091c 01       		.byte	0x1
 2067 091d 0D01     		.2byte	0x10d
 2068 091f 28000000 		.4byte	0x28
 2069 0923 0F030000 		.4byte	.LLST16
 2070 0927 2A       		.uleb128 0x2a
 2071 0928 737A00   		.ascii	"sz\000"
 2072 092b 01       		.byte	0x1
 2073 092c 0D01     		.2byte	0x10d
ARM GAS  /tmp/ccLSw0YD.s 			page 67


 2074 092e 28000000 		.4byte	0x28
 2075 0932 52030000 		.4byte	.LLST17
 2076 0936 23       		.uleb128 0x23
 2077 0937 16000000 		.4byte	.LVL41
 2078 093b 9A090000 		.4byte	0x99a
 2079 093f 4A090000 		.4byte	0x94a
 2080 0943 1D       		.uleb128 0x1d
 2081 0944 01       		.uleb128 0x1
 2082 0945 50       		.byte	0x50
 2083 0946 02       		.uleb128 0x2
 2084 0947 76       		.byte	0x76
 2085 0948 00       		.sleb128 0
 2086 0949 00       		.byte	0
 2087 094a 25       		.uleb128 0x25
 2088 094b 32000000 		.4byte	.LVL46
 2089 094f AB090000 		.4byte	0x9ab
 2090 0953 1D       		.uleb128 0x1d
 2091 0954 01       		.uleb128 0x1
 2092 0955 50       		.byte	0x50
 2093 0956 02       		.uleb128 0x2
 2094 0957 76       		.byte	0x76
 2095 0958 00       		.sleb128 0
 2096 0959 00       		.byte	0
 2097 095a 00       		.byte	0
 2098 095b 0A       		.uleb128 0xa
 2099 095c 04       		.byte	0x4
 2100 095d 28000000 		.4byte	0x28
 2101 0961 2B       		.uleb128 0x2b
 2102 0962 DA040000 		.4byte	.LASF121
 2103 0966 01       		.byte	0x1
 2104 0967 4C       		.byte	0x4c
 2105 0968 42060000 		.4byte	0x642
 2106 096c 05       		.uleb128 0x5
 2107 096d 03       		.byte	0x3
 2108 096e 00000000 		.4byte	default_heap
 2109 0972 2C       		.uleb128 0x2c
 2110 0973 A6000000 		.4byte	.LASF122
 2111 0977 0F       		.byte	0xf
 2112 0978 A706     		.2byte	0x6a7
 2113 097a CA000000 		.4byte	0xca
 2114 097e 2D       		.uleb128 0x2d
 2115 097f 636800   		.ascii	"ch\000"
 2116 0982 07       		.byte	0x7
 2117 0983 0902     		.2byte	0x209
 2118 0985 E1030000 		.4byte	0x3e1
 2119 0989 2E       		.uleb128 0x2e
 2120 098a F3030000 		.4byte	.LASF123
 2121 098e 0C       		.byte	0xc
 2122 098f 67       		.byte	0x67
 2123 0990 9A090000 		.4byte	0x99a
 2124 0994 0D       		.uleb128 0xd
 2125 0995 1C060000 		.4byte	0x61c
 2126 0999 00       		.byte	0
 2127 099a 2E       		.uleb128 0x2e
 2128 099b 62030000 		.4byte	.LASF124
 2129 099f 0C       		.byte	0xc
 2130 09a0 68       		.byte	0x68
ARM GAS  /tmp/ccLSw0YD.s 			page 68


 2131 09a1 AB090000 		.4byte	0x9ab
 2132 09a5 0D       		.uleb128 0xd
 2133 09a6 1C060000 		.4byte	0x61c
 2134 09aa 00       		.byte	0
 2135 09ab 2F       		.uleb128 0x2f
 2136 09ac D7000000 		.4byte	.LASF128
 2137 09b0 0C       		.byte	0xc
 2138 09b1 6C       		.byte	0x6c
 2139 09b2 0D       		.uleb128 0xd
 2140 09b3 1C060000 		.4byte	0x61c
 2141 09b7 00       		.byte	0
 2142 09b8 00       		.byte	0
 2143              		.section	.debug_abbrev,"",%progbits
 2144              	.Ldebug_abbrev0:
 2145 0000 01       		.uleb128 0x1
 2146 0001 11       		.uleb128 0x11
 2147 0002 01       		.byte	0x1
 2148 0003 25       		.uleb128 0x25
 2149 0004 0E       		.uleb128 0xe
 2150 0005 13       		.uleb128 0x13
 2151 0006 0B       		.uleb128 0xb
 2152 0007 03       		.uleb128 0x3
 2153 0008 0E       		.uleb128 0xe
 2154 0009 55       		.uleb128 0x55
 2155 000a 17       		.uleb128 0x17
 2156 000b 11       		.uleb128 0x11
 2157 000c 01       		.uleb128 0x1
 2158 000d 10       		.uleb128 0x10
 2159 000e 17       		.uleb128 0x17
 2160 000f 00       		.byte	0
 2161 0010 00       		.byte	0
 2162 0011 02       		.uleb128 0x2
 2163 0012 24       		.uleb128 0x24
 2164 0013 00       		.byte	0
 2165 0014 0B       		.uleb128 0xb
 2166 0015 0B       		.uleb128 0xb
 2167 0016 3E       		.uleb128 0x3e
 2168 0017 0B       		.uleb128 0xb
 2169 0018 03       		.uleb128 0x3
 2170 0019 08       		.uleb128 0x8
 2171 001a 00       		.byte	0
 2172 001b 00       		.byte	0
 2173 001c 03       		.uleb128 0x3
 2174 001d 16       		.uleb128 0x16
 2175 001e 00       		.byte	0
 2176 001f 03       		.uleb128 0x3
 2177 0020 0E       		.uleb128 0xe
 2178 0021 3A       		.uleb128 0x3a
 2179 0022 0B       		.uleb128 0xb
 2180 0023 3B       		.uleb128 0x3b
 2181 0024 0B       		.uleb128 0xb
 2182 0025 49       		.uleb128 0x49
 2183 0026 13       		.uleb128 0x13
 2184 0027 00       		.byte	0
 2185 0028 00       		.byte	0
 2186 0029 04       		.uleb128 0x4
 2187 002a 24       		.uleb128 0x24
ARM GAS  /tmp/ccLSw0YD.s 			page 69


 2188 002b 00       		.byte	0
 2189 002c 0B       		.uleb128 0xb
 2190 002d 0B       		.uleb128 0xb
 2191 002e 3E       		.uleb128 0x3e
 2192 002f 0B       		.uleb128 0xb
 2193 0030 03       		.uleb128 0x3
 2194 0031 0E       		.uleb128 0xe
 2195 0032 00       		.byte	0
 2196 0033 00       		.byte	0
 2197 0034 05       		.uleb128 0x5
 2198 0035 35       		.uleb128 0x35
 2199 0036 00       		.byte	0
 2200 0037 49       		.uleb128 0x49
 2201 0038 13       		.uleb128 0x13
 2202 0039 00       		.byte	0
 2203 003a 00       		.byte	0
 2204 003b 06       		.uleb128 0x6
 2205 003c 13       		.uleb128 0x13
 2206 003d 01       		.byte	0x1
 2207 003e 03       		.uleb128 0x3
 2208 003f 0E       		.uleb128 0xe
 2209 0040 0B       		.uleb128 0xb
 2210 0041 0B       		.uleb128 0xb
 2211 0042 3A       		.uleb128 0x3a
 2212 0043 0B       		.uleb128 0xb
 2213 0044 3B       		.uleb128 0x3b
 2214 0045 0B       		.uleb128 0xb
 2215 0046 01       		.uleb128 0x1
 2216 0047 13       		.uleb128 0x13
 2217 0048 00       		.byte	0
 2218 0049 00       		.byte	0
 2219 004a 07       		.uleb128 0x7
 2220 004b 0D       		.uleb128 0xd
 2221 004c 00       		.byte	0
 2222 004d 03       		.uleb128 0x3
 2223 004e 0E       		.uleb128 0xe
 2224 004f 3A       		.uleb128 0x3a
 2225 0050 0B       		.uleb128 0xb
 2226 0051 3B       		.uleb128 0x3b
 2227 0052 0B       		.uleb128 0xb
 2228 0053 49       		.uleb128 0x49
 2229 0054 13       		.uleb128 0x13
 2230 0055 38       		.uleb128 0x38
 2231 0056 0B       		.uleb128 0xb
 2232 0057 00       		.byte	0
 2233 0058 00       		.byte	0
 2234 0059 08       		.uleb128 0x8
 2235 005a 0D       		.uleb128 0xd
 2236 005b 00       		.byte	0
 2237 005c 03       		.uleb128 0x3
 2238 005d 08       		.uleb128 0x8
 2239 005e 3A       		.uleb128 0x3a
 2240 005f 0B       		.uleb128 0xb
 2241 0060 3B       		.uleb128 0x3b
 2242 0061 05       		.uleb128 0x5
 2243 0062 49       		.uleb128 0x49
 2244 0063 13       		.uleb128 0x13
ARM GAS  /tmp/ccLSw0YD.s 			page 70


 2245 0064 38       		.uleb128 0x38
 2246 0065 0B       		.uleb128 0xb
 2247 0066 00       		.byte	0
 2248 0067 00       		.byte	0
 2249 0068 09       		.uleb128 0x9
 2250 0069 0D       		.uleb128 0xd
 2251 006a 00       		.byte	0
 2252 006b 03       		.uleb128 0x3
 2253 006c 0E       		.uleb128 0xe
 2254 006d 3A       		.uleb128 0x3a
 2255 006e 0B       		.uleb128 0xb
 2256 006f 3B       		.uleb128 0x3b
 2257 0070 05       		.uleb128 0x5
 2258 0071 49       		.uleb128 0x49
 2259 0072 13       		.uleb128 0x13
 2260 0073 38       		.uleb128 0x38
 2261 0074 0B       		.uleb128 0xb
 2262 0075 00       		.byte	0
 2263 0076 00       		.byte	0
 2264 0077 0A       		.uleb128 0xa
 2265 0078 0F       		.uleb128 0xf
 2266 0079 00       		.byte	0
 2267 007a 0B       		.uleb128 0xb
 2268 007b 0B       		.uleb128 0xb
 2269 007c 49       		.uleb128 0x49
 2270 007d 13       		.uleb128 0x13
 2271 007e 00       		.byte	0
 2272 007f 00       		.byte	0
 2273 0080 0B       		.uleb128 0xb
 2274 0081 13       		.uleb128 0x13
 2275 0082 01       		.byte	0x1
 2276 0083 03       		.uleb128 0x3
 2277 0084 0E       		.uleb128 0xe
 2278 0085 0B       		.uleb128 0xb
 2279 0086 0B       		.uleb128 0xb
 2280 0087 3A       		.uleb128 0x3a
 2281 0088 0B       		.uleb128 0xb
 2282 0089 3B       		.uleb128 0x3b
 2283 008a 05       		.uleb128 0x5
 2284 008b 01       		.uleb128 0x1
 2285 008c 13       		.uleb128 0x13
 2286 008d 00       		.byte	0
 2287 008e 00       		.byte	0
 2288 008f 0C       		.uleb128 0xc
 2289 0090 15       		.uleb128 0x15
 2290 0091 01       		.byte	0x1
 2291 0092 27       		.uleb128 0x27
 2292 0093 19       		.uleb128 0x19
 2293 0094 01       		.uleb128 0x1
 2294 0095 13       		.uleb128 0x13
 2295 0096 00       		.byte	0
 2296 0097 00       		.byte	0
 2297 0098 0D       		.uleb128 0xd
 2298 0099 05       		.uleb128 0x5
 2299 009a 00       		.byte	0
 2300 009b 49       		.uleb128 0x49
 2301 009c 13       		.uleb128 0x13
ARM GAS  /tmp/ccLSw0YD.s 			page 71


 2302 009d 00       		.byte	0
 2303 009e 00       		.byte	0
 2304 009f 0E       		.uleb128 0xe
 2305 00a0 0F       		.uleb128 0xf
 2306 00a1 00       		.byte	0
 2307 00a2 0B       		.uleb128 0xb
 2308 00a3 0B       		.uleb128 0xb
 2309 00a4 00       		.byte	0
 2310 00a5 00       		.byte	0
 2311 00a6 0F       		.uleb128 0xf
 2312 00a7 13       		.uleb128 0x13
 2313 00a8 01       		.byte	0x1
 2314 00a9 03       		.uleb128 0x3
 2315 00aa 0E       		.uleb128 0xe
 2316 00ab 0B       		.uleb128 0xb
 2317 00ac 05       		.uleb128 0x5
 2318 00ad 3A       		.uleb128 0x3a
 2319 00ae 0B       		.uleb128 0xb
 2320 00af 3B       		.uleb128 0x3b
 2321 00b0 05       		.uleb128 0x5
 2322 00b1 01       		.uleb128 0x1
 2323 00b2 13       		.uleb128 0x13
 2324 00b3 00       		.byte	0
 2325 00b4 00       		.byte	0
 2326 00b5 10       		.uleb128 0x10
 2327 00b6 0D       		.uleb128 0xd
 2328 00b7 00       		.byte	0
 2329 00b8 03       		.uleb128 0x3
 2330 00b9 08       		.uleb128 0x8
 2331 00ba 3A       		.uleb128 0x3a
 2332 00bb 0B       		.uleb128 0xb
 2333 00bc 3B       		.uleb128 0x3b
 2334 00bd 0B       		.uleb128 0xb
 2335 00be 49       		.uleb128 0x49
 2336 00bf 13       		.uleb128 0x13
 2337 00c0 38       		.uleb128 0x38
 2338 00c1 0B       		.uleb128 0xb
 2339 00c2 00       		.byte	0
 2340 00c3 00       		.byte	0
 2341 00c4 11       		.uleb128 0x11
 2342 00c5 13       		.uleb128 0x13
 2343 00c6 01       		.byte	0x1
 2344 00c7 0B       		.uleb128 0xb
 2345 00c8 0B       		.uleb128 0xb
 2346 00c9 3A       		.uleb128 0x3a
 2347 00ca 0B       		.uleb128 0xb
 2348 00cb 3B       		.uleb128 0x3b
 2349 00cc 0B       		.uleb128 0xb
 2350 00cd 01       		.uleb128 0x1
 2351 00ce 13       		.uleb128 0x13
 2352 00cf 00       		.byte	0
 2353 00d0 00       		.byte	0
 2354 00d1 12       		.uleb128 0x12
 2355 00d2 17       		.uleb128 0x17
 2356 00d3 01       		.byte	0x1
 2357 00d4 0B       		.uleb128 0xb
 2358 00d5 0B       		.uleb128 0xb
ARM GAS  /tmp/ccLSw0YD.s 			page 72


 2359 00d6 3A       		.uleb128 0x3a
 2360 00d7 0B       		.uleb128 0xb
 2361 00d8 3B       		.uleb128 0x3b
 2362 00d9 0B       		.uleb128 0xb
 2363 00da 01       		.uleb128 0x1
 2364 00db 13       		.uleb128 0x13
 2365 00dc 00       		.byte	0
 2366 00dd 00       		.byte	0
 2367 00de 13       		.uleb128 0x13
 2368 00df 0D       		.uleb128 0xd
 2369 00e0 00       		.byte	0
 2370 00e1 03       		.uleb128 0x3
 2371 00e2 0E       		.uleb128 0xe
 2372 00e3 3A       		.uleb128 0x3a
 2373 00e4 0B       		.uleb128 0xb
 2374 00e5 3B       		.uleb128 0x3b
 2375 00e6 05       		.uleb128 0x5
 2376 00e7 49       		.uleb128 0x49
 2377 00e8 13       		.uleb128 0x13
 2378 00e9 00       		.byte	0
 2379 00ea 00       		.byte	0
 2380 00eb 14       		.uleb128 0x14
 2381 00ec 26       		.uleb128 0x26
 2382 00ed 00       		.byte	0
 2383 00ee 49       		.uleb128 0x49
 2384 00ef 13       		.uleb128 0x13
 2385 00f0 00       		.byte	0
 2386 00f1 00       		.byte	0
 2387 00f2 15       		.uleb128 0x15
 2388 00f3 01       		.uleb128 0x1
 2389 00f4 01       		.byte	0x1
 2390 00f5 49       		.uleb128 0x49
 2391 00f6 13       		.uleb128 0x13
 2392 00f7 01       		.uleb128 0x1
 2393 00f8 13       		.uleb128 0x13
 2394 00f9 00       		.byte	0
 2395 00fa 00       		.byte	0
 2396 00fb 16       		.uleb128 0x16
 2397 00fc 21       		.uleb128 0x21
 2398 00fd 00       		.byte	0
 2399 00fe 49       		.uleb128 0x49
 2400 00ff 13       		.uleb128 0x13
 2401 0100 2F       		.uleb128 0x2f
 2402 0101 0B       		.uleb128 0xb
 2403 0102 00       		.byte	0
 2404 0103 00       		.byte	0
 2405 0104 17       		.uleb128 0x17
 2406 0105 15       		.uleb128 0x15
 2407 0106 01       		.byte	0x1
 2408 0107 27       		.uleb128 0x27
 2409 0108 19       		.uleb128 0x19
 2410 0109 49       		.uleb128 0x49
 2411 010a 13       		.uleb128 0x13
 2412 010b 01       		.uleb128 0x1
 2413 010c 13       		.uleb128 0x13
 2414 010d 00       		.byte	0
 2415 010e 00       		.byte	0
ARM GAS  /tmp/ccLSw0YD.s 			page 73


 2416 010f 18       		.uleb128 0x18
 2417 0110 0D       		.uleb128 0xd
 2418 0111 00       		.byte	0
 2419 0112 03       		.uleb128 0x3
 2420 0113 0E       		.uleb128 0xe
 2421 0114 3A       		.uleb128 0x3a
 2422 0115 0B       		.uleb128 0xb
 2423 0116 3B       		.uleb128 0x3b
 2424 0117 0B       		.uleb128 0xb
 2425 0118 49       		.uleb128 0x49
 2426 0119 13       		.uleb128 0x13
 2427 011a 00       		.byte	0
 2428 011b 00       		.byte	0
 2429 011c 19       		.uleb128 0x19
 2430 011d 17       		.uleb128 0x17
 2431 011e 01       		.byte	0x1
 2432 011f 03       		.uleb128 0x3
 2433 0120 0E       		.uleb128 0xe
 2434 0121 0B       		.uleb128 0xb
 2435 0122 0B       		.uleb128 0xb
 2436 0123 3A       		.uleb128 0x3a
 2437 0124 0B       		.uleb128 0xb
 2438 0125 3B       		.uleb128 0x3b
 2439 0126 0B       		.uleb128 0xb
 2440 0127 01       		.uleb128 0x1
 2441 0128 13       		.uleb128 0x13
 2442 0129 00       		.byte	0
 2443 012a 00       		.byte	0
 2444 012b 1A       		.uleb128 0x1a
 2445 012c 0D       		.uleb128 0xd
 2446 012d 00       		.byte	0
 2447 012e 03       		.uleb128 0x3
 2448 012f 08       		.uleb128 0x8
 2449 0130 3A       		.uleb128 0x3a
 2450 0131 0B       		.uleb128 0xb
 2451 0132 3B       		.uleb128 0x3b
 2452 0133 0B       		.uleb128 0xb
 2453 0134 49       		.uleb128 0x49
 2454 0135 13       		.uleb128 0x13
 2455 0136 00       		.byte	0
 2456 0137 00       		.byte	0
 2457 0138 1B       		.uleb128 0x1b
 2458 0139 2E       		.uleb128 0x2e
 2459 013a 01       		.byte	0x1
 2460 013b 3F       		.uleb128 0x3f
 2461 013c 19       		.uleb128 0x19
 2462 013d 03       		.uleb128 0x3
 2463 013e 0E       		.uleb128 0xe
 2464 013f 3A       		.uleb128 0x3a
 2465 0140 0B       		.uleb128 0xb
 2466 0141 3B       		.uleb128 0x3b
 2467 0142 0B       		.uleb128 0xb
 2468 0143 27       		.uleb128 0x27
 2469 0144 19       		.uleb128 0x19
 2470 0145 11       		.uleb128 0x11
 2471 0146 01       		.uleb128 0x1
 2472 0147 12       		.uleb128 0x12
ARM GAS  /tmp/ccLSw0YD.s 			page 74


 2473 0148 06       		.uleb128 0x6
 2474 0149 40       		.uleb128 0x40
 2475 014a 18       		.uleb128 0x18
 2476 014b 9742     		.uleb128 0x2117
 2477 014d 19       		.uleb128 0x19
 2478 014e 01       		.uleb128 0x1
 2479 014f 13       		.uleb128 0x13
 2480 0150 00       		.byte	0
 2481 0151 00       		.byte	0
 2482 0152 1C       		.uleb128 0x1c
 2483 0153 898201   		.uleb128 0x4109
 2484 0156 01       		.byte	0x1
 2485 0157 11       		.uleb128 0x11
 2486 0158 01       		.uleb128 0x1
 2487 0159 9542     		.uleb128 0x2115
 2488 015b 19       		.uleb128 0x19
 2489 015c 31       		.uleb128 0x31
 2490 015d 13       		.uleb128 0x13
 2491 015e 00       		.byte	0
 2492 015f 00       		.byte	0
 2493 0160 1D       		.uleb128 0x1d
 2494 0161 8A8201   		.uleb128 0x410a
 2495 0164 00       		.byte	0
 2496 0165 02       		.uleb128 0x2
 2497 0166 18       		.uleb128 0x18
 2498 0167 9142     		.uleb128 0x2111
 2499 0169 18       		.uleb128 0x18
 2500 016a 00       		.byte	0
 2501 016b 00       		.byte	0
 2502 016c 1E       		.uleb128 0x1e
 2503 016d 05       		.uleb128 0x5
 2504 016e 00       		.byte	0
 2505 016f 03       		.uleb128 0x3
 2506 0170 0E       		.uleb128 0xe
 2507 0171 3A       		.uleb128 0x3a
 2508 0172 0B       		.uleb128 0xb
 2509 0173 3B       		.uleb128 0x3b
 2510 0174 0B       		.uleb128 0xb
 2511 0175 49       		.uleb128 0x49
 2512 0176 13       		.uleb128 0x13
 2513 0177 02       		.uleb128 0x2
 2514 0178 17       		.uleb128 0x17
 2515 0179 00       		.byte	0
 2516 017a 00       		.byte	0
 2517 017b 1F       		.uleb128 0x1f
 2518 017c 05       		.uleb128 0x5
 2519 017d 00       		.byte	0
 2520 017e 03       		.uleb128 0x3
 2521 017f 08       		.uleb128 0x8
 2522 0180 3A       		.uleb128 0x3a
 2523 0181 0B       		.uleb128 0xb
 2524 0182 3B       		.uleb128 0x3b
 2525 0183 0B       		.uleb128 0xb
 2526 0184 49       		.uleb128 0x49
 2527 0185 13       		.uleb128 0x13
 2528 0186 02       		.uleb128 0x2
 2529 0187 17       		.uleb128 0x17
ARM GAS  /tmp/ccLSw0YD.s 			page 75


 2530 0188 00       		.byte	0
 2531 0189 00       		.byte	0
 2532 018a 20       		.uleb128 0x20
 2533 018b 34       		.uleb128 0x34
 2534 018c 00       		.byte	0
 2535 018d 03       		.uleb128 0x3
 2536 018e 08       		.uleb128 0x8
 2537 018f 3A       		.uleb128 0x3a
 2538 0190 0B       		.uleb128 0xb
 2539 0191 3B       		.uleb128 0x3b
 2540 0192 0B       		.uleb128 0xb
 2541 0193 49       		.uleb128 0x49
 2542 0194 13       		.uleb128 0x13
 2543 0195 02       		.uleb128 0x2
 2544 0196 17       		.uleb128 0x17
 2545 0197 00       		.byte	0
 2546 0198 00       		.byte	0
 2547 0199 21       		.uleb128 0x21
 2548 019a 34       		.uleb128 0x34
 2549 019b 00       		.byte	0
 2550 019c 03       		.uleb128 0x3
 2551 019d 0E       		.uleb128 0xe
 2552 019e 49       		.uleb128 0x49
 2553 019f 13       		.uleb128 0x13
 2554 01a0 34       		.uleb128 0x34
 2555 01a1 19       		.uleb128 0x19
 2556 01a2 00       		.byte	0
 2557 01a3 00       		.byte	0
 2558 01a4 22       		.uleb128 0x22
 2559 01a5 2E       		.uleb128 0x2e
 2560 01a6 01       		.byte	0x1
 2561 01a7 3F       		.uleb128 0x3f
 2562 01a8 19       		.uleb128 0x19
 2563 01a9 03       		.uleb128 0x3
 2564 01aa 0E       		.uleb128 0xe
 2565 01ab 3A       		.uleb128 0x3a
 2566 01ac 0B       		.uleb128 0xb
 2567 01ad 3B       		.uleb128 0x3b
 2568 01ae 0B       		.uleb128 0xb
 2569 01af 27       		.uleb128 0x27
 2570 01b0 19       		.uleb128 0x19
 2571 01b1 49       		.uleb128 0x49
 2572 01b2 13       		.uleb128 0x13
 2573 01b3 11       		.uleb128 0x11
 2574 01b4 01       		.uleb128 0x1
 2575 01b5 12       		.uleb128 0x12
 2576 01b6 06       		.uleb128 0x6
 2577 01b7 40       		.uleb128 0x40
 2578 01b8 18       		.uleb128 0x18
 2579 01b9 9742     		.uleb128 0x2117
 2580 01bb 19       		.uleb128 0x19
 2581 01bc 01       		.uleb128 0x1
 2582 01bd 13       		.uleb128 0x13
 2583 01be 00       		.byte	0
 2584 01bf 00       		.byte	0
 2585 01c0 23       		.uleb128 0x23
 2586 01c1 898201   		.uleb128 0x4109
ARM GAS  /tmp/ccLSw0YD.s 			page 76


 2587 01c4 01       		.byte	0x1
 2588 01c5 11       		.uleb128 0x11
 2589 01c6 01       		.uleb128 0x1
 2590 01c7 31       		.uleb128 0x31
 2591 01c8 13       		.uleb128 0x13
 2592 01c9 01       		.uleb128 0x1
 2593 01ca 13       		.uleb128 0x13
 2594 01cb 00       		.byte	0
 2595 01cc 00       		.byte	0
 2596 01cd 24       		.uleb128 0x24
 2597 01ce 898201   		.uleb128 0x4109
 2598 01d1 01       		.byte	0x1
 2599 01d2 11       		.uleb128 0x11
 2600 01d3 01       		.uleb128 0x1
 2601 01d4 01       		.uleb128 0x1
 2602 01d5 13       		.uleb128 0x13
 2603 01d6 00       		.byte	0
 2604 01d7 00       		.byte	0
 2605 01d8 25       		.uleb128 0x25
 2606 01d9 898201   		.uleb128 0x4109
 2607 01dc 01       		.byte	0x1
 2608 01dd 11       		.uleb128 0x11
 2609 01de 01       		.uleb128 0x1
 2610 01df 31       		.uleb128 0x31
 2611 01e0 13       		.uleb128 0x13
 2612 01e1 00       		.byte	0
 2613 01e2 00       		.byte	0
 2614 01e3 26       		.uleb128 0x26
 2615 01e4 34       		.uleb128 0x34
 2616 01e5 00       		.byte	0
 2617 01e6 03       		.uleb128 0x3
 2618 01e7 0E       		.uleb128 0xe
 2619 01e8 3A       		.uleb128 0x3a
 2620 01e9 0B       		.uleb128 0xb
 2621 01ea 3B       		.uleb128 0x3b
 2622 01eb 0B       		.uleb128 0xb
 2623 01ec 49       		.uleb128 0x49
 2624 01ed 13       		.uleb128 0x13
 2625 01ee 02       		.uleb128 0x2
 2626 01ef 17       		.uleb128 0x17
 2627 01f0 00       		.byte	0
 2628 01f1 00       		.byte	0
 2629 01f2 27       		.uleb128 0x27
 2630 01f3 898201   		.uleb128 0x4109
 2631 01f6 00       		.byte	0
 2632 01f7 11       		.uleb128 0x11
 2633 01f8 01       		.uleb128 0x1
 2634 01f9 9542     		.uleb128 0x2115
 2635 01fb 19       		.uleb128 0x19
 2636 01fc 31       		.uleb128 0x31
 2637 01fd 13       		.uleb128 0x13
 2638 01fe 00       		.byte	0
 2639 01ff 00       		.byte	0
 2640 0200 28       		.uleb128 0x28
 2641 0201 2E       		.uleb128 0x2e
 2642 0202 01       		.byte	0x1
 2643 0203 3F       		.uleb128 0x3f
ARM GAS  /tmp/ccLSw0YD.s 			page 77


 2644 0204 19       		.uleb128 0x19
 2645 0205 03       		.uleb128 0x3
 2646 0206 0E       		.uleb128 0xe
 2647 0207 3A       		.uleb128 0x3a
 2648 0208 0B       		.uleb128 0xb
 2649 0209 3B       		.uleb128 0x3b
 2650 020a 05       		.uleb128 0x5
 2651 020b 27       		.uleb128 0x27
 2652 020c 19       		.uleb128 0x19
 2653 020d 49       		.uleb128 0x49
 2654 020e 13       		.uleb128 0x13
 2655 020f 11       		.uleb128 0x11
 2656 0210 01       		.uleb128 0x1
 2657 0211 12       		.uleb128 0x12
 2658 0212 06       		.uleb128 0x6
 2659 0213 40       		.uleb128 0x40
 2660 0214 18       		.uleb128 0x18
 2661 0215 9742     		.uleb128 0x2117
 2662 0217 19       		.uleb128 0x19
 2663 0218 01       		.uleb128 0x1
 2664 0219 13       		.uleb128 0x13
 2665 021a 00       		.byte	0
 2666 021b 00       		.byte	0
 2667 021c 29       		.uleb128 0x29
 2668 021d 05       		.uleb128 0x5
 2669 021e 00       		.byte	0
 2670 021f 03       		.uleb128 0x3
 2671 0220 0E       		.uleb128 0xe
 2672 0221 3A       		.uleb128 0x3a
 2673 0222 0B       		.uleb128 0xb
 2674 0223 3B       		.uleb128 0x3b
 2675 0224 05       		.uleb128 0x5
 2676 0225 49       		.uleb128 0x49
 2677 0226 13       		.uleb128 0x13
 2678 0227 02       		.uleb128 0x2
 2679 0228 17       		.uleb128 0x17
 2680 0229 00       		.byte	0
 2681 022a 00       		.byte	0
 2682 022b 2A       		.uleb128 0x2a
 2683 022c 34       		.uleb128 0x34
 2684 022d 00       		.byte	0
 2685 022e 03       		.uleb128 0x3
 2686 022f 08       		.uleb128 0x8
 2687 0230 3A       		.uleb128 0x3a
 2688 0231 0B       		.uleb128 0xb
 2689 0232 3B       		.uleb128 0x3b
 2690 0233 05       		.uleb128 0x5
 2691 0234 49       		.uleb128 0x49
 2692 0235 13       		.uleb128 0x13
 2693 0236 02       		.uleb128 0x2
 2694 0237 17       		.uleb128 0x17
 2695 0238 00       		.byte	0
 2696 0239 00       		.byte	0
 2697 023a 2B       		.uleb128 0x2b
 2698 023b 34       		.uleb128 0x34
 2699 023c 00       		.byte	0
 2700 023d 03       		.uleb128 0x3
ARM GAS  /tmp/ccLSw0YD.s 			page 78


 2701 023e 0E       		.uleb128 0xe
 2702 023f 3A       		.uleb128 0x3a
 2703 0240 0B       		.uleb128 0xb
 2704 0241 3B       		.uleb128 0x3b
 2705 0242 0B       		.uleb128 0xb
 2706 0243 49       		.uleb128 0x49
 2707 0244 13       		.uleb128 0x13
 2708 0245 02       		.uleb128 0x2
 2709 0246 18       		.uleb128 0x18
 2710 0247 00       		.byte	0
 2711 0248 00       		.byte	0
 2712 0249 2C       		.uleb128 0x2c
 2713 024a 34       		.uleb128 0x34
 2714 024b 00       		.byte	0
 2715 024c 03       		.uleb128 0x3
 2716 024d 0E       		.uleb128 0xe
 2717 024e 3A       		.uleb128 0x3a
 2718 024f 0B       		.uleb128 0xb
 2719 0250 3B       		.uleb128 0x3b
 2720 0251 05       		.uleb128 0x5
 2721 0252 49       		.uleb128 0x49
 2722 0253 13       		.uleb128 0x13
 2723 0254 3F       		.uleb128 0x3f
 2724 0255 19       		.uleb128 0x19
 2725 0256 3C       		.uleb128 0x3c
 2726 0257 19       		.uleb128 0x19
 2727 0258 00       		.byte	0
 2728 0259 00       		.byte	0
 2729 025a 2D       		.uleb128 0x2d
 2730 025b 34       		.uleb128 0x34
 2731 025c 00       		.byte	0
 2732 025d 03       		.uleb128 0x3
 2733 025e 08       		.uleb128 0x8
 2734 025f 3A       		.uleb128 0x3a
 2735 0260 0B       		.uleb128 0xb
 2736 0261 3B       		.uleb128 0x3b
 2737 0262 05       		.uleb128 0x5
 2738 0263 49       		.uleb128 0x49
 2739 0264 13       		.uleb128 0x13
 2740 0265 3F       		.uleb128 0x3f
 2741 0266 19       		.uleb128 0x19
 2742 0267 3C       		.uleb128 0x3c
 2743 0268 19       		.uleb128 0x19
 2744 0269 00       		.byte	0
 2745 026a 00       		.byte	0
 2746 026b 2E       		.uleb128 0x2e
 2747 026c 2E       		.uleb128 0x2e
 2748 026d 01       		.byte	0x1
 2749 026e 3F       		.uleb128 0x3f
 2750 026f 19       		.uleb128 0x19
 2751 0270 03       		.uleb128 0x3
 2752 0271 0E       		.uleb128 0xe
 2753 0272 3A       		.uleb128 0x3a
 2754 0273 0B       		.uleb128 0xb
 2755 0274 3B       		.uleb128 0x3b
 2756 0275 0B       		.uleb128 0xb
 2757 0276 27       		.uleb128 0x27
ARM GAS  /tmp/ccLSw0YD.s 			page 79


 2758 0277 19       		.uleb128 0x19
 2759 0278 3C       		.uleb128 0x3c
 2760 0279 19       		.uleb128 0x19
 2761 027a 01       		.uleb128 0x1
 2762 027b 13       		.uleb128 0x13
 2763 027c 00       		.byte	0
 2764 027d 00       		.byte	0
 2765 027e 2F       		.uleb128 0x2f
 2766 027f 2E       		.uleb128 0x2e
 2767 0280 01       		.byte	0x1
 2768 0281 3F       		.uleb128 0x3f
 2769 0282 19       		.uleb128 0x19
 2770 0283 03       		.uleb128 0x3
 2771 0284 0E       		.uleb128 0xe
 2772 0285 3A       		.uleb128 0x3a
 2773 0286 0B       		.uleb128 0xb
 2774 0287 3B       		.uleb128 0x3b
 2775 0288 0B       		.uleb128 0xb
 2776 0289 27       		.uleb128 0x27
 2777 028a 19       		.uleb128 0x19
 2778 028b 3C       		.uleb128 0x3c
 2779 028c 19       		.uleb128 0x19
 2780 028d 00       		.byte	0
 2781 028e 00       		.byte	0
 2782 028f 00       		.byte	0
 2783              		.section	.debug_loc,"",%progbits
 2784              	.Ldebug_loc0:
 2785              	.LLST0:
 2786 0000 00000000 		.4byte	.LVL1
 2787 0004 0C000000 		.4byte	.LVL3
 2788 0008 0100     		.2byte	0x1
 2789 000a 50       		.byte	0x50
 2790 000b 0C000000 		.4byte	.LVL3
 2791 000f 13000000 		.4byte	.LVL4-1
 2792 0013 0300     		.2byte	0x3
 2793 0015 70       		.byte	0x70
 2794 0016 70       		.sleb128 -16
 2795 0017 9F       		.byte	0x9f
 2796 0018 13000000 		.4byte	.LVL4-1
 2797 001c 14000000 		.4byte	.LFE230
 2798 0020 0400     		.2byte	0x4
 2799 0022 F3       		.byte	0xf3
 2800 0023 01       		.uleb128 0x1
 2801 0024 50       		.byte	0x50
 2802 0025 9F       		.byte	0x9f
 2803 0026 00000000 		.4byte	0
 2804 002a 00000000 		.4byte	0
 2805              	.LLST1:
 2806 002e 00000000 		.4byte	.LVL1
 2807 0032 13000000 		.4byte	.LVL4-1
 2808 0036 0100     		.2byte	0x1
 2809 0038 51       		.byte	0x51
 2810 0039 13000000 		.4byte	.LVL4-1
 2811 003d 14000000 		.4byte	.LFE230
 2812 0041 0400     		.2byte	0x4
 2813 0043 F3       		.byte	0xf3
 2814 0044 01       		.uleb128 0x1
ARM GAS  /tmp/ccLSw0YD.s 			page 80


 2815 0045 51       		.byte	0x51
 2816 0046 9F       		.byte	0x9f
 2817 0047 00000000 		.4byte	0
 2818 004b 00000000 		.4byte	0
 2819              	.LLST2:
 2820 004f 00000000 		.4byte	.LVL1
 2821 0053 04000000 		.4byte	.LVL2
 2822 0057 0100     		.2byte	0x1
 2823 0059 52       		.byte	0x52
 2824 005a 04000000 		.4byte	.LVL2
 2825 005e 13000000 		.4byte	.LVL4-1
 2826 0062 0300     		.2byte	0x3
 2827 0064 72       		.byte	0x72
 2828 0065 08       		.sleb128 8
 2829 0066 9F       		.byte	0x9f
 2830 0067 13000000 		.4byte	.LVL4-1
 2831 006b 14000000 		.4byte	.LFE230
 2832 006f 0400     		.2byte	0x4
 2833 0071 F3       		.byte	0xf3
 2834 0072 01       		.uleb128 0x1
 2835 0073 52       		.byte	0x52
 2836 0074 9F       		.byte	0x9f
 2837 0075 00000000 		.4byte	0
 2838 0079 00000000 		.4byte	0
 2839              	.LLST4:
 2840 007d 00000000 		.4byte	.LVL5
 2841 0081 0A000000 		.4byte	.LVL6
 2842 0085 0100     		.2byte	0x1
 2843 0087 50       		.byte	0x50
 2844 0088 0A000000 		.4byte	.LVL6
 2845 008c 8C000000 		.4byte	.LFE231
 2846 0090 0100     		.2byte	0x1
 2847 0092 56       		.byte	0x56
 2848 0093 00000000 		.4byte	0
 2849 0097 00000000 		.4byte	0
 2850              	.LLST5:
 2851 009b 00000000 		.4byte	.LVL5
 2852 009f 10000000 		.4byte	.LVL7
 2853 00a3 0100     		.2byte	0x1
 2854 00a5 51       		.byte	0x51
 2855 00a6 10000000 		.4byte	.LVL7
 2856 00aa 16000000 		.4byte	.LVL8
 2857 00ae 0300     		.2byte	0x3
 2858 00b0 71       		.byte	0x71
 2859 00b1 79       		.sleb128 -7
 2860 00b2 9F       		.byte	0x9f
 2861 00b3 16000000 		.4byte	.LVL8
 2862 00b7 8C000000 		.4byte	.LFE231
 2863 00bb 0100     		.2byte	0x1
 2864 00bd 55       		.byte	0x55
 2865 00be 00000000 		.4byte	0
 2866 00c2 00000000 		.4byte	0
 2867              	.LLST6:
 2868 00c6 1A000000 		.4byte	.LVL9
 2869 00ca 48000000 		.4byte	.LVL17
 2870 00ce 0100     		.2byte	0x1
 2871 00d0 54       		.byte	0x54
ARM GAS  /tmp/ccLSw0YD.s 			page 81


 2872 00d1 4C000000 		.4byte	.LVL18
 2873 00d5 5A000000 		.4byte	.LVL19
 2874 00d9 0100     		.2byte	0x1
 2875 00db 54       		.byte	0x54
 2876 00dc 68000000 		.4byte	.LVL21
 2877 00e0 86000000 		.4byte	.LVL24
 2878 00e4 0100     		.2byte	0x1
 2879 00e6 54       		.byte	0x54
 2880 00e7 00000000 		.4byte	0
 2881 00eb 00000000 		.4byte	0
 2882              	.LLST7:
 2883 00ef 20000000 		.4byte	.LVL11
 2884 00f3 28000000 		.4byte	.LVL12
 2885 00f7 0100     		.2byte	0x1
 2886 00f9 53       		.byte	0x53
 2887 00fa 2A000000 		.4byte	.LVL13
 2888 00fe 33000000 		.4byte	.LVL14-1
 2889 0102 0100     		.2byte	0x1
 2890 0104 53       		.byte	0x53
 2891 0105 3E000000 		.4byte	.LVL15
 2892 0109 44000000 		.4byte	.LVL16
 2893 010d 0100     		.2byte	0x1
 2894 010f 50       		.byte	0x50
 2895 0110 44000000 		.4byte	.LVL16
 2896 0114 48000000 		.4byte	.LVL17
 2897 0118 0300     		.2byte	0x3
 2898 011a 70       		.byte	0x70
 2899 011b 08       		.sleb128 8
 2900 011c 9F       		.byte	0x9f
 2901 011d 4C000000 		.4byte	.LVL18
 2902 0121 63000000 		.4byte	.LVL20-1
 2903 0125 0100     		.2byte	0x1
 2904 0127 53       		.byte	0x53
 2905 0128 63000000 		.4byte	.LVL20-1
 2906 012c 68000000 		.4byte	.LVL21
 2907 0130 0300     		.2byte	0x3
 2908 0132 74       		.byte	0x74
 2909 0133 78       		.sleb128 -8
 2910 0134 9F       		.byte	0x9f
 2911 0135 68000000 		.4byte	.LVL21
 2912 0139 84000000 		.4byte	.LVL23
 2913 013d 0100     		.2byte	0x1
 2914 013f 53       		.byte	0x53
 2915 0140 00000000 		.4byte	0
 2916 0144 00000000 		.4byte	0
 2917              	.LLST8:
 2918 0148 72000000 		.4byte	.LVL22
 2919 014c 84000000 		.4byte	.LVL23
 2920 0150 0100     		.2byte	0x1
 2921 0152 5E       		.byte	0x5e
 2922 0153 00000000 		.4byte	0
 2923 0157 00000000 		.4byte	0
 2924              	.LLST9:
 2925 015b 00000000 		.4byte	.LVL25
 2926 015f 14000000 		.4byte	.LVL28
 2927 0163 0100     		.2byte	0x1
 2928 0165 50       		.byte	0x50
ARM GAS  /tmp/ccLSw0YD.s 			page 82


 2929 0166 14000000 		.4byte	.LVL28
 2930 016a 5E000000 		.4byte	.LVL35
 2931 016e 0100     		.2byte	0x1
 2932 0170 56       		.byte	0x56
 2933 0171 5E000000 		.4byte	.LVL35
 2934 0175 62000000 		.4byte	.LVL36
 2935 0179 0400     		.2byte	0x4
 2936 017b F3       		.byte	0xf3
 2937 017c 01       		.uleb128 0x1
 2938 017d 50       		.byte	0x50
 2939 017e 9F       		.byte	0x9f
 2940 017f 62000000 		.4byte	.LVL36
 2941 0183 94000000 		.4byte	.LVL37
 2942 0187 0100     		.2byte	0x1
 2943 0189 56       		.byte	0x56
 2944 018a 94000000 		.4byte	.LVL37
 2945 018e 98000000 		.4byte	.LFE232
 2946 0192 0400     		.2byte	0x4
 2947 0194 F3       		.byte	0xf3
 2948 0195 01       		.uleb128 0x1
 2949 0196 50       		.byte	0x50
 2950 0197 9F       		.byte	0x9f
 2951 0198 00000000 		.4byte	0
 2952 019c 00000000 		.4byte	0
 2953              	.LLST10:
 2954 01a0 12000000 		.4byte	.LVL27
 2955 01a4 1A000000 		.4byte	.LVL30
 2956 01a8 0100     		.2byte	0x1
 2957 01aa 55       		.byte	0x55
 2958 01ab 1A000000 		.4byte	.LVL30
 2959 01af 32000000 		.4byte	.LVL32
 2960 01b3 0100     		.2byte	0x1
 2961 01b5 53       		.byte	0x53
 2962 01b6 34000000 		.4byte	.LVL33
 2963 01ba 5E000000 		.4byte	.LVL35
 2964 01be 0100     		.2byte	0x1
 2965 01c0 53       		.byte	0x53
 2966 01c1 62000000 		.4byte	.LVL36
 2967 01c5 94000000 		.4byte	.LVL37
 2968 01c9 0100     		.2byte	0x1
 2969 01cb 53       		.byte	0x53
 2970 01cc 00000000 		.4byte	0
 2971 01d0 00000000 		.4byte	0
 2972              	.LLST11:
 2973 01d4 10000000 		.4byte	.LVL26
 2974 01d8 5E000000 		.4byte	.LVL35
 2975 01dc 0100     		.2byte	0x1
 2976 01de 54       		.byte	0x54
 2977 01df 5E000000 		.4byte	.LVL35
 2978 01e3 62000000 		.4byte	.LVL36
 2979 01e7 0600     		.2byte	0x6
 2980 01e9 F3       		.byte	0xf3
 2981 01ea 01       		.uleb128 0x1
 2982 01eb 50       		.byte	0x50
 2983 01ec 38       		.byte	0x38
 2984 01ed 1C       		.byte	0x1c
 2985 01ee 9F       		.byte	0x9f
ARM GAS  /tmp/ccLSw0YD.s 			page 83


 2986 01ef 62000000 		.4byte	.LVL36
 2987 01f3 94000000 		.4byte	.LVL37
 2988 01f7 0100     		.2byte	0x1
 2989 01f9 54       		.byte	0x54
 2990 01fa 94000000 		.4byte	.LVL37
 2991 01fe 98000000 		.4byte	.LFE232
 2992 0202 0600     		.2byte	0x6
 2993 0204 F3       		.byte	0xf3
 2994 0205 01       		.uleb128 0x1
 2995 0206 50       		.byte	0x50
 2996 0207 38       		.byte	0x38
 2997 0208 1C       		.byte	0x1c
 2998 0209 9F       		.byte	0x9f
 2999 020a 00000000 		.4byte	0
 3000 020e 00000000 		.4byte	0
 3001              	.LLST12:
 3002 0212 10000000 		.4byte	.LVL26
 3003 0216 12000000 		.4byte	.LVL27
 3004 021a 0100     		.2byte	0x1
 3005 021c 55       		.byte	0x55
 3006 021d 12000000 		.4byte	.LVL27
 3007 0221 17000000 		.4byte	.LVL29-1
 3008 0225 0200     		.2byte	0x2
 3009 0227 74       		.byte	0x74
 3010 0228 00       		.sleb128 0
 3011 0229 17000000 		.4byte	.LVL29-1
 3012 022d 46000000 		.4byte	.LVL34
 3013 0231 0300     		.2byte	0x3
 3014 0233 75       		.byte	0x75
 3015 0234 78       		.sleb128 -8
 3016 0235 9F       		.byte	0x9f
 3017 0236 46000000 		.4byte	.LVL34
 3018 023a 5E000000 		.4byte	.LVL35
 3019 023e 0300     		.2byte	0x3
 3020 0240 77       		.byte	0x77
 3021 0241 70       		.sleb128 -16
 3022 0242 9F       		.byte	0x9f
 3023 0243 5E000000 		.4byte	.LVL35
 3024 0247 61000000 		.4byte	.LVL36-1
 3025 024b 0300     		.2byte	0x3
 3026 024d 70       		.byte	0x70
 3027 024e 70       		.sleb128 -16
 3028 024f 9F       		.byte	0x9f
 3029 0250 62000000 		.4byte	.LVL36
 3030 0254 94000000 		.4byte	.LVL37
 3031 0258 0300     		.2byte	0x3
 3032 025a 77       		.byte	0x77
 3033 025b 70       		.sleb128 -16
 3034 025c 9F       		.byte	0x9f
 3035 025d 94000000 		.4byte	.LVL37
 3036 0261 97000000 		.4byte	.LVL38-1
 3037 0265 0300     		.2byte	0x3
 3038 0267 70       		.byte	0x70
 3039 0268 70       		.sleb128 -16
 3040 0269 9F       		.byte	0x9f
 3041 026a 00000000 		.4byte	0
 3042 026e 00000000 		.4byte	0
ARM GAS  /tmp/ccLSw0YD.s 			page 84


 3043              	.LLST13:
 3044 0272 00000000 		.4byte	.LVL39
 3045 0276 0A000000 		.4byte	.LVL40
 3046 027a 0100     		.2byte	0x1
 3047 027c 50       		.byte	0x50
 3048 027d 0A000000 		.4byte	.LVL40
 3049 0281 1E000000 		.4byte	.LVL42
 3050 0285 0100     		.2byte	0x1
 3051 0287 54       		.byte	0x54
 3052 0288 1E000000 		.4byte	.LVL42
 3053 028c 36000000 		.4byte	.LVL47
 3054 0290 0300     		.2byte	0x3
 3055 0292 76       		.byte	0x76
 3056 0293 70       		.sleb128 -16
 3057 0294 9F       		.byte	0x9f
 3058 0295 36000000 		.4byte	.LVL47
 3059 0299 3A000000 		.4byte	.LVL48
 3060 029d 0100     		.2byte	0x1
 3061 029f 54       		.byte	0x54
 3062 02a0 3A000000 		.4byte	.LVL48
 3063 02a4 40000000 		.4byte	.LFE233
 3064 02a8 0300     		.2byte	0x3
 3065 02aa 76       		.byte	0x76
 3066 02ab 70       		.sleb128 -16
 3067 02ac 9F       		.byte	0x9f
 3068 02ad 00000000 		.4byte	0
 3069 02b1 00000000 		.4byte	0
 3070              	.LLST14:
 3071 02b5 00000000 		.4byte	.LVL39
 3072 02b9 15000000 		.4byte	.LVL41-1
 3073 02bd 0100     		.2byte	0x1
 3074 02bf 51       		.byte	0x51
 3075 02c0 15000000 		.4byte	.LVL41-1
 3076 02c4 40000000 		.4byte	.LFE233
 3077 02c8 0100     		.2byte	0x1
 3078 02ca 57       		.byte	0x57
 3079 02cb 00000000 		.4byte	0
 3080 02cf 00000000 		.4byte	0
 3081              	.LLST15:
 3082 02d3 16000000 		.4byte	.LVL41
 3083 02d7 1E000000 		.4byte	.LVL42
 3084 02db 0300     		.2byte	0x3
 3085 02dd 74       		.byte	0x74
 3086 02de 08       		.sleb128 8
 3087 02df 9F       		.byte	0x9f
 3088 02e0 1E000000 		.4byte	.LVL42
 3089 02e4 24000000 		.4byte	.LVL44
 3090 02e8 0300     		.2byte	0x3
 3091 02ea 76       		.byte	0x76
 3092 02eb 78       		.sleb128 -8
 3093 02ec 9F       		.byte	0x9f
 3094 02ed 36000000 		.4byte	.LVL47
 3095 02f1 3A000000 		.4byte	.LVL48
 3096 02f5 0300     		.2byte	0x3
 3097 02f7 74       		.byte	0x74
 3098 02f8 08       		.sleb128 8
 3099 02f9 9F       		.byte	0x9f
ARM GAS  /tmp/ccLSw0YD.s 			page 85


 3100 02fa 3A000000 		.4byte	.LVL48
 3101 02fe 40000000 		.4byte	.LFE233
 3102 0302 0300     		.2byte	0x3
 3103 0304 76       		.byte	0x76
 3104 0305 78       		.sleb128 -8
 3105 0306 9F       		.byte	0x9f
 3106 0307 00000000 		.4byte	0
 3107 030b 00000000 		.4byte	0
 3108              	.LLST16:
 3109 030f 16000000 		.4byte	.LVL41
 3110 0313 1E000000 		.4byte	.LVL42
 3111 0317 0200     		.2byte	0x2
 3112 0319 30       		.byte	0x30
 3113 031a 9F       		.byte	0x9f
 3114 031b 1E000000 		.4byte	.LVL42
 3115 031f 22000000 		.4byte	.LVL43
 3116 0323 0100     		.2byte	0x1
 3117 0325 54       		.byte	0x54
 3118 0326 22000000 		.4byte	.LVL43
 3119 032a 24000000 		.4byte	.LVL44
 3120 032e 0300     		.2byte	0x3
 3121 0330 74       		.byte	0x74
 3122 0331 7F       		.sleb128 -1
 3123 0332 9F       		.byte	0x9f
 3124 0333 24000000 		.4byte	.LVL44
 3125 0337 28000000 		.4byte	.LVL45
 3126 033b 0100     		.2byte	0x1
 3127 033d 54       		.byte	0x54
 3128 033e 36000000 		.4byte	.LVL47
 3129 0342 40000000 		.4byte	.LFE233
 3130 0346 0200     		.2byte	0x2
 3131 0348 30       		.byte	0x30
 3132 0349 9F       		.byte	0x9f
 3133 034a 00000000 		.4byte	0
 3134 034e 00000000 		.4byte	0
 3135              	.LLST17:
 3136 0352 16000000 		.4byte	.LVL41
 3137 0356 1E000000 		.4byte	.LVL42
 3138 035a 0200     		.2byte	0x2
 3139 035c 30       		.byte	0x30
 3140 035d 9F       		.byte	0x9f
 3141 035e 1E000000 		.4byte	.LVL42
 3142 0362 28000000 		.4byte	.LVL45
 3143 0366 0100     		.2byte	0x1
 3144 0368 52       		.byte	0x52
 3145 0369 36000000 		.4byte	.LVL47
 3146 036d 40000000 		.4byte	.LFE233
 3147 0371 0200     		.2byte	0x2
 3148 0373 30       		.byte	0x30
 3149 0374 9F       		.byte	0x9f
 3150 0375 00000000 		.4byte	0
 3151 0379 00000000 		.4byte	0
 3152              		.section	.debug_aranges,"",%progbits
 3153 0000 3C000000 		.4byte	0x3c
 3154 0004 0200     		.2byte	0x2
 3155 0006 00000000 		.4byte	.Ldebug_info0
 3156 000a 04       		.byte	0x4
ARM GAS  /tmp/ccLSw0YD.s 			page 86


 3157 000b 00       		.byte	0
 3158 000c 0000     		.2byte	0
 3159 000e 0000     		.2byte	0
 3160 0010 00000000 		.4byte	.LFB229
 3161 0014 1C000000 		.4byte	.LFE229-.LFB229
 3162 0018 00000000 		.4byte	.LFB230
 3163 001c 14000000 		.4byte	.LFE230-.LFB230
 3164 0020 00000000 		.4byte	.LFB231
 3165 0024 8C000000 		.4byte	.LFE231-.LFB231
 3166 0028 00000000 		.4byte	.LFB232
 3167 002c 98000000 		.4byte	.LFE232-.LFB232
 3168 0030 00000000 		.4byte	.LFB233
 3169 0034 40000000 		.4byte	.LFE233-.LFB233
 3170 0038 00000000 		.4byte	0
 3171 003c 00000000 		.4byte	0
 3172              		.section	.debug_ranges,"",%progbits
 3173              	.Ldebug_ranges0:
 3174 0000 00000000 		.4byte	.LFB229
 3175 0004 1C000000 		.4byte	.LFE229
 3176 0008 00000000 		.4byte	.LFB230
 3177 000c 14000000 		.4byte	.LFE230
 3178 0010 00000000 		.4byte	.LFB231
 3179 0014 8C000000 		.4byte	.LFE231
 3180 0018 00000000 		.4byte	.LFB232
 3181 001c 98000000 		.4byte	.LFE232
 3182 0020 00000000 		.4byte	.LFB233
 3183 0024 40000000 		.4byte	.LFE233
 3184 0028 00000000 		.4byte	0
 3185 002c 00000000 		.4byte	0
 3186              		.section	.debug_line,"",%progbits
 3187              	.Ldebug_line0:
 3188 0000 CF020000 		.section	.debug_str,"MS",%progbits,1
 3188      0200EB01 
 3188      00000201 
 3188      FB0E0D00 
 3188      01010101 
 3189              	.LASF51:
 3190 0000 72656164 		.ascii	"ready_list_t\000"
 3190      795F6C69 
 3190      73745F74 
 3190      00
 3191              	.LASF2:
 3192 000d 73697A65 		.ascii	"size_t\000"
 3192      5F7400
 3193              	.LASF108:
 3194 0014 6E657874 		.ascii	"next\000"
 3194      00
 3195              	.LASF86:
 3196 0019 7264796D 		.ascii	"rdymsg\000"
 3196      736700
 3197              	.LASF17:
 3198 0020 75696E74 		.ascii	"uint64_t\000"
 3198      36345F74 
 3198      00
 3199              	.LASF3:
 3200 0029 5F5F7569 		.ascii	"__uint8_t\000"
 3200      6E74385F 
ARM GAS  /tmp/ccLSw0YD.s 			page 87


 3200      7400
 3201              	.LASF83:
 3202 0033 706F7274 		.ascii	"port_intctx\000"
 3202      5F696E74 
 3202      63747800 
 3203              	.LASF70:
 3204 003f 73797374 		.ascii	"system_debug_t\000"
 3204      656D5F64 
 3204      65627567 
 3204      5F7400
 3205              	.LASF116:
 3206 004e 5F5F6675 		.ascii	"__func__.6500\000"
 3206      6E635F5F 
 3206      2E363530 
 3206      3000
 3207              	.LASF102:
 3208 005c 6D656D67 		.ascii	"memgetfunc_t\000"
 3208      65746675 
 3208      6E635F74 
 3208      00
 3209              	.LASF13:
 3210 0069 6C6F6E67 		.ascii	"long long unsigned int\000"
 3210      206C6F6E 
 3210      6720756E 
 3210      7369676E 
 3210      65642069 
 3211              	.LASF87:
 3212 0080 65786974 		.ascii	"exitcode\000"
 3212      636F6465 
 3212      00
 3213              	.LASF106:
 3214 0089 685F6672 		.ascii	"h_free\000"
 3214      656500
 3215              	.LASF67:
 3216 0090 76697274 		.ascii	"virtual_timers_list_t\000"
 3216      75616C5F 
 3216      74696D65 
 3216      72735F6C 
 3216      6973745F 
 3217              	.LASF122:
 3218 00a6 49544D5F 		.ascii	"ITM_RxBuffer\000"
 3218      52784275 
 3218      66666572 
 3218      00
 3219              	.LASF114:
 3220 00b3 68656170 		.ascii	"heapp\000"
 3220      7000
 3221              	.LASF110:
 3222 00b9 616C6967 		.ascii	"align\000"
 3222      6E00
 3223              	.LASF50:
 3224 00bf 63685F74 		.ascii	"ch_threads_queue\000"
 3224      68726561 
 3224      64735F71 
 3224      75657565 
 3224      00
 3225              	.LASF30:
ARM GAS  /tmp/ccLSw0YD.s 			page 88


 3226 00d0 705F7072 		.ascii	"p_prio\000"
 3226      696F00
 3227              	.LASF128:
 3228 00d7 63684D74 		.ascii	"chMtxUnlock\000"
 3228      78556E6C 
 3228      6F636B00 
 3229              	.LASF1:
 3230 00e3 7369676E 		.ascii	"signed char\000"
 3230      65642063 
 3230      68617200 
 3231              	.LASF107:
 3232 00ef 685F6D74 		.ascii	"h_mtx\000"
 3232      7800
 3233              	.LASF44:
 3234 00f5 705F6D70 		.ascii	"p_mpool\000"
 3234      6F6F6C00 
 3235              	.LASF97:
 3236 00fd 6D5F7175 		.ascii	"m_queue\000"
 3236      65756500 
 3237              	.LASF115:
 3238 0105 63684865 		.ascii	"chHeapFree\000"
 3238      61704672 
 3238      656500
 3239              	.LASF76:
 3240 0110 76746C69 		.ascii	"vtlist\000"
 3240      737400
 3241              	.LASF89:
 3242 0117 77747472 		.ascii	"wttrp\000"
 3242      7000
 3243              	.LASF74:
 3244 011d 63685F73 		.ascii	"ch_system\000"
 3244      79737465 
 3244      6D00
 3245              	.LASF8:
 3246 0127 6C6F6E67 		.ascii	"long int\000"
 3246      20696E74 
 3246      00
 3247              	.LASF20:
 3248 0130 74737461 		.ascii	"tstate_t\000"
 3248      74655F74 
 3248      00
 3249              	.LASF103:
 3250 0139 6D656D6F 		.ascii	"memory_heap_t\000"
 3250      72795F68 
 3250      6561705F 
 3250      7400
 3251              	.LASF117:
 3252 0147 5F5F6675 		.ascii	"__func__.6517\000"
 3252      6E635F5F 
 3252      2E363531 
 3252      3700
 3253              	.LASF11:
 3254 0155 6C6F6E67 		.ascii	"long long int\000"
 3254      206C6F6E 
 3254      6720696E 
 3254      7400
 3255              	.LASF32:
ARM GAS  /tmp/ccLSw0YD.s 			page 89


 3256 0163 705F6E65 		.ascii	"p_newer\000"
 3256      77657200 
 3257              	.LASF94:
 3258 016b 735F7175 		.ascii	"s_queue\000"
 3258      65756500 
 3259              	.LASF56:
 3260 0173 725F6E65 		.ascii	"r_newer\000"
 3260      77657200 
 3261              	.LASF80:
 3262 017b 72656761 		.ascii	"regarm_t\000"
 3262      726D5F74 
 3262      00
 3263              	.LASF63:
 3264 0184 76745F70 		.ascii	"vt_prev\000"
 3264      72657600 
 3265              	.LASF101:
 3266 018c 6D757465 		.ascii	"mutex_t\000"
 3266      785F7400 
 3267              	.LASF112:
 3268 0194 5F686561 		.ascii	"_heap_init\000"
 3268      705F696E 
 3268      697400
 3269              	.LASF78:
 3270 019f 69646C65 		.ascii	"idle_thread_wa\000"
 3270      5F746872 
 3270      6561645F 
 3270      776100
 3271              	.LASF25:
 3272 01ae 636E745F 		.ascii	"cnt_t\000"
 3272      7400
 3273              	.LASF0:
 3274 01b4 756E7369 		.ascii	"unsigned int\000"
 3274      676E6564 
 3274      20696E74 
 3274      00
 3275              	.LASF62:
 3276 01c1 76745F6E 		.ascii	"vt_next\000"
 3276      65787400 
 3277              	.LASF90:
 3278 01c9 77747365 		.ascii	"wtsemp\000"
 3278      6D7000
 3279              	.LASF39:
 3280 01d0 705F6D73 		.ascii	"p_msgqueue\000"
 3280      67717565 
 3280      756500
 3281              	.LASF95:
 3282 01db 735F636E 		.ascii	"s_cnt\000"
 3282      7400
 3283              	.LASF6:
 3284 01e1 73686F72 		.ascii	"short unsigned int\000"
 3284      7420756E 
 3284      7369676E 
 3284      65642069 
 3284      6E7400
 3285              	.LASF47:
 3286 01f4 63685F74 		.ascii	"ch_thread\000"
 3286      68726561 
ARM GAS  /tmp/ccLSw0YD.s 			page 90


 3286      6400
 3287              	.LASF77:
 3288 01fe 6D61696E 		.ascii	"mainthread\000"
 3288      74687265 
 3288      616400
 3289              	.LASF23:
 3290 0209 6D73675F 		.ascii	"msg_t\000"
 3290      7400
 3291              	.LASF73:
 3292 020f 63685F73 		.ascii	"ch_system_t\000"
 3292      79737465 
 3292      6D5F7400 
 3293              	.LASF19:
 3294 021b 746D6F64 		.ascii	"tmode_t\000"
 3294      655F7400 
 3295              	.LASF52:
 3296 0223 63685F72 		.ascii	"ch_ready_list\000"
 3296      65616479 
 3296      5F6C6973 
 3296      7400
 3297              	.LASF24:
 3298 0231 6576656E 		.ascii	"eventmask_t\000"
 3298      746D6173 
 3298      6B5F7400 
 3299              	.LASF7:
 3300 023d 5F5F696E 		.ascii	"__int32_t\000"
 3300      7433325F 
 3300      7400
 3301              	.LASF81:
 3302 0247 73746B61 		.ascii	"stkalign_t\000"
 3302      6C69676E 
 3302      5F7400
 3303              	.LASF113:
 3304 0252 63684865 		.ascii	"chHeapObjectInit\000"
 3304      61704F62 
 3304      6A656374 
 3304      496E6974 
 3304      00
 3305              	.LASF125:
 3306 0263 474E5520 		.ascii	"GNU C 4.8.4 20141219 (release) -mcpu=cortex-m4 -mno"
 3306      4320342E 
 3306      382E3420 
 3306      32303134 
 3306      31323139 
 3307 0296 2D746875 		.ascii	"-thumb-interwork -mthumb -ggdb -O2 -fomit-frame-poi"
 3307      6D622D69 
 3307      6E746572 
 3307      776F726B 
 3307      202D6D74 
 3308 02c9 6E746572 		.ascii	"nter -falign-functions=16 -ffunction-sections -fdat"
 3308      202D6661 
 3308      6C69676E 
 3308      2D66756E 
 3308      6374696F 
 3309 02fc 612D7365 		.ascii	"a-sections -fno-common -flto\000"
 3309      6374696F 
 3309      6E73202D 
ARM GAS  /tmp/ccLSw0YD.s 			page 91


 3309      666E6F2D 
 3309      636F6D6D 
 3310              	.LASF38:
 3311 0319 705F7761 		.ascii	"p_waiting\000"
 3311      6974696E 
 3311      6700
 3312              	.LASF79:
 3313 0323 73697A65 		.ascii	"sizetype\000"
 3313      74797065 
 3313      00
 3314              	.LASF45:
 3315 032c 74687265 		.ascii	"thread_reference_t\000"
 3315      61645F72 
 3315      65666572 
 3315      656E6365 
 3315      5F7400
 3316              	.LASF68:
 3317 033f 63685F76 		.ascii	"ch_virtual_timers_list\000"
 3317      69727475 
 3317      616C5F74 
 3317      696D6572 
 3317      735F6C69 
 3318              	.LASF69:
 3319 0356 76745F6C 		.ascii	"vt_lasttime\000"
 3319      61737474 
 3319      696D6500 
 3320              	.LASF124:
 3321 0362 63684D74 		.ascii	"chMtxLock\000"
 3321      784C6F63 
 3321      6B00
 3322              	.LASF33:
 3323 036c 705F6F6C 		.ascii	"p_older\000"
 3323      64657200 
 3324              	.LASF55:
 3325 0374 725F6374 		.ascii	"r_ctx\000"
 3325      7800
 3326              	.LASF85:
 3327 037a 746D5F63 		.ascii	"tm_calibration_t\000"
 3327      616C6962 
 3327      72617469 
 3327      6F6E5F74 
 3327      00
 3328              	.LASF58:
 3329 038b 725F6375 		.ascii	"r_current\000"
 3329      7272656E 
 3329      7400
 3330              	.LASF57:
 3331 0395 725F6F6C 		.ascii	"r_older\000"
 3331      64657200 
 3332              	.LASF12:
 3333 039d 5F5F7569 		.ascii	"__uint64_t\000"
 3333      6E743634 
 3333      5F7400
 3334              	.LASF126:
 3335 03a8 2F757372 		.ascii	"/usr/src/chibios/os/rt/src/chheap.c\000"
 3335      2F737263 
 3335      2F636869 
ARM GAS  /tmp/ccLSw0YD.s 			page 92


 3335      62696F73 
 3335      2F6F732F 
 3336              	.LASF21:
 3337 03cc 74726566 		.ascii	"trefs_t\000"
 3337      735F7400 
 3338              	.LASF60:
 3339 03d4 76697274 		.ascii	"virtual_timer_t\000"
 3339      75616C5F 
 3339      74696D65 
 3339      725F7400 
 3340              	.LASF29:
 3341 03e4 705F7072 		.ascii	"p_prev\000"
 3341      657600
 3342              	.LASF22:
 3343 03eb 74707269 		.ascii	"tprio_t\000"
 3343      6F5F7400 
 3344              	.LASF123:
 3345 03f3 63684D74 		.ascii	"chMtxObjectInit\000"
 3345      784F626A 
 3345      65637449 
 3345      6E697400 
 3346              	.LASF71:
 3347 0403 63685F73 		.ascii	"ch_system_debug\000"
 3347      79737465 
 3347      6D5F6465 
 3347      62756700 
 3348              	.LASF15:
 3349 0413 696E7433 		.ascii	"int32_t\000"
 3349      325F7400 
 3350              	.LASF4:
 3351 041b 756E7369 		.ascii	"unsigned char\000"
 3351      676E6564 
 3351      20636861 
 3351      7200
 3352              	.LASF127:
 3353 0429 68656170 		.ascii	"heap_header\000"
 3353      5F686561 
 3353      64657200 
 3354              	.LASF42:
 3355 0435 705F6D74 		.ascii	"p_mtxlist\000"
 3355      786C6973 
 3355      7400
 3356              	.LASF5:
 3357 043f 73686F72 		.ascii	"short int\000"
 3357      7420696E 
 3357      7400
 3358              	.LASF35:
 3359 0449 705F7374 		.ascii	"p_state\000"
 3359      61746500 
 3360              	.LASF54:
 3361 0451 725F7072 		.ascii	"r_prio\000"
 3361      696F00
 3362              	.LASF92:
 3363 0458 65776D61 		.ascii	"ewmask\000"
 3363      736B00
 3364              	.LASF28:
 3365 045f 705F6E65 		.ascii	"p_next\000"
ARM GAS  /tmp/ccLSw0YD.s 			page 93


 3365      787400
 3366              	.LASF36:
 3367 0466 705F666C 		.ascii	"p_flags\000"
 3367      61677300 
 3368              	.LASF118:
 3369 046e 63684865 		.ascii	"chHeapAlloc\000"
 3369      6170416C 
 3369      6C6F6300 
 3370              	.LASF93:
 3371 047a 63685F73 		.ascii	"ch_semaphore\000"
 3371      656D6170 
 3371      686F7265 
 3371      00
 3372              	.LASF41:
 3373 0487 705F6570 		.ascii	"p_epending\000"
 3373      656E6469 
 3373      6E6700
 3374              	.LASF16:
 3375 0492 75696E74 		.ascii	"uint32_t\000"
 3375      33325F74 
 3375      00
 3376              	.LASF91:
 3377 049b 77746D74 		.ascii	"wtmtxp\000"
 3377      787000
 3378              	.LASF53:
 3379 04a2 725F7175 		.ascii	"r_queue\000"
 3379      65756500 
 3380              	.LASF64:
 3381 04aa 76745F64 		.ascii	"vt_delta\000"
 3381      656C7461 
 3381      00
 3382              	.LASF48:
 3383 04b3 63685F74 		.ascii	"ch_threads_list\000"
 3383      68726561 
 3383      64735F6C 
 3383      69737400 
 3384              	.LASF109:
 3385 04c3 68656170 		.ascii	"heap\000"
 3385      00
 3386              	.LASF10:
 3387 04c8 6C6F6E67 		.ascii	"long unsigned int\000"
 3387      20756E73 
 3387      69676E65 
 3387      6420696E 
 3387      7400
 3388              	.LASF121:
 3389 04da 64656661 		.ascii	"default_heap\000"
 3389      756C745F 
 3389      68656170 
 3389      00
 3390              	.LASF100:
 3391 04e7 63686172 		.ascii	"char\000"
 3391      00
 3392              	.LASF27:
 3393 04ec 74687265 		.ascii	"thread_t\000"
 3393      61645F74 
 3393      00
ARM GAS  /tmp/ccLSw0YD.s 			page 94


 3394              	.LASF119:
 3395 04f5 63684865 		.ascii	"chHeapStatus\000"
 3395      61705374 
 3395      61747573 
 3395      00
 3396              	.LASF99:
 3397 0502 6D5F6E65 		.ascii	"m_next\000"
 3397      787400
 3398              	.LASF26:
 3399 0509 73797374 		.ascii	"systime_t\000"
 3399      696D655F 
 3399      7400
 3400              	.LASF43:
 3401 0513 705F7265 		.ascii	"p_realprio\000"
 3401      616C7072 
 3401      696F00
 3402              	.LASF59:
 3403 051e 76746675 		.ascii	"vtfunc_t\000"
 3403      6E635F74 
 3403      00
 3404              	.LASF9:
 3405 0527 5F5F7569 		.ascii	"__uint32_t\000"
 3405      6E743332 
 3405      5F7400
 3406              	.LASF72:
 3407 0532 70616E69 		.ascii	"panic_msg\000"
 3407      635F6D73 
 3407      6700
 3408              	.LASF84:
 3409 053c 6F666673 		.ascii	"offset\000"
 3409      657400
 3410              	.LASF82:
 3411 0543 636F6E74 		.ascii	"context\000"
 3411      65787400 
 3412              	.LASF61:
 3413 054b 63685F76 		.ascii	"ch_virtual_timer\000"
 3413      69727475 
 3413      616C5F74 
 3413      696D6572 
 3413      00
 3414              	.LASF18:
 3415 055c 7274636E 		.ascii	"rtcnt_t\000"
 3415      745F7400 
 3416              	.LASF66:
 3417 0564 76745F70 		.ascii	"vt_par\000"
 3417      617200
 3418              	.LASF49:
 3419 056b 74687265 		.ascii	"threads_queue_t\000"
 3419      6164735F 
 3419      71756575 
 3419      655F7400 
 3420              	.LASF96:
 3421 057b 63685F6D 		.ascii	"ch_mutex\000"
 3421      75746578 
 3421      00
 3422              	.LASF37:
 3423 0584 705F7265 		.ascii	"p_refs\000"
ARM GAS  /tmp/ccLSw0YD.s 			page 95


 3423      667300
 3424              	.LASF75:
 3425 058b 726C6973 		.ascii	"rlist\000"
 3425      7400
 3426              	.LASF14:
 3427 0591 75696E74 		.ascii	"uint8_t\000"
 3427      385F7400 
 3428              	.LASF105:
 3429 0599 685F7072 		.ascii	"h_provider\000"
 3429      6F766964 
 3429      657200
 3430              	.LASF88:
 3431 05a4 77746F62 		.ascii	"wtobjp\000"
 3431      6A7000
 3432              	.LASF120:
 3433 05ab 73697A65 		.ascii	"sizep\000"
 3433      7000
 3434              	.LASF34:
 3435 05b1 705F6E61 		.ascii	"p_name\000"
 3435      6D6500
 3436              	.LASF111:
 3437 05b8 73697A65 		.ascii	"size\000"
 3437      00
 3438              	.LASF46:
 3439 05bd 74687265 		.ascii	"threads_list_t\000"
 3439      6164735F 
 3439      6C697374 
 3439      5F7400
 3440              	.LASF40:
 3441 05cc 705F6D73 		.ascii	"p_msg\000"
 3441      6700
 3442              	.LASF98:
 3443 05d2 6D5F6F77 		.ascii	"m_owner\000"
 3443      6E657200 
 3444              	.LASF31:
 3445 05da 705F6374 		.ascii	"p_ctx\000"
 3445      7800
 3446              	.LASF65:
 3447 05e0 76745F66 		.ascii	"vt_func\000"
 3447      756E6300 
 3448              	.LASF104:
 3449 05e8 6D656D6F 		.ascii	"memory_heap\000"
 3449      72795F68 
 3449      65617000 
 3450              		.comm	__gnu_lto_v1,1,1
 3451              		.ident	"GCC: (4.8.4-1+11-1) 4.8.4 20141219 (release)"
ARM GAS  /tmp/ccLSw0YD.s 			page 96


DEFINED SYMBOLS
                            *ABS*:00000000 chheap.c
     /tmp/ccLSw0YD.s:499    .text._heap_init:00000000 $t
     /tmp/ccLSw0YD.s:505    .text._heap_init:00000000 _heap_init
     /tmp/ccLSw0YD.s:530    .text._heap_init:00000014 $d
     /tmp/ccLSw0YD.s:536    .text.chHeapObjectInit:00000000 $t
     /tmp/ccLSw0YD.s:542    .text.chHeapObjectInit:00000000 chHeapObjectInit
     /tmp/ccLSw0YD.s:575    .text.chHeapAlloc:00000000 $t
     /tmp/ccLSw0YD.s:581    .text.chHeapAlloc:00000000 chHeapAlloc
     /tmp/ccLSw0YD.s:711    .text.chHeapAlloc:00000088 $d
     /tmp/ccLSw0YD.s:716    .text.chHeapFree:00000000 $t
     /tmp/ccLSw0YD.s:722    .text.chHeapFree:00000000 chHeapFree
     /tmp/ccLSw0YD.s:850    .text.chHeapStatus:00000000 $t
     /tmp/ccLSw0YD.s:856    .text.chHeapStatus:00000000 chHeapStatus
     /tmp/ccLSw0YD.s:930    .text.chHeapStatus:0000003c $d
     /tmp/ccLSw0YD.s:935    .bss.default_heap:00000000 $d
     /tmp/ccLSw0YD.s:939    .bss.default_heap:00000000 default_heap
                            *COM*:00000001 __gnu_lto_v1
                     .debug_frame:00000010 $d

UNDEFINED SYMBOLS
chMtxObjectInit
chCoreAlloc
chMtxLock
chMtxUnlock
