ARM GAS  /tmp/ccUDK5QG.s 			page 1


   1              		.syntax unified
   2              		.cpu cortex-m4
   3              		.fpu softvfp
   4              		.eabi_attribute 20, 1
   5              		.eabi_attribute 21, 1
   6              		.eabi_attribute 23, 3
   7              		.eabi_attribute 24, 1
   8              		.eabi_attribute 25, 1
   9              		.eabi_attribute 26, 1
  10              		.eabi_attribute 30, 2
  11              		.eabi_attribute 34, 1
  12              		.eabi_attribute 18, 4
  13              		.thumb
  14              		.file	"chmemcore.c"
  15              		.text
  16              	.Ltext0:
  17              		.section	.gnu.lto_.jmpfuncs.9e934f41b846f249,"",%progbits
  18 0000 789C6362 		.ascii	"x\234cb`b\300\006\270\2404\013\003\003+#\033#;\003\003"
  18      6062C006 
  18      B8A0340B 
  18      03032B23 
  18      1B233B03 
  19 0015 00020A00 		.ascii	"\000\002\012\000'"
  19      27
  20              		.text
  21              		.section	.gnu.lto_.inline.9e934f41b846f249,"",%progbits
  22 0000 789C6362 		.ascii	"x\234cb`b\300\006\222\2414\013\003\003+\013#\003\023"
  22      6062C006 
  22      92A1340B 
  22      03032B0B 
  22      230313
  23 0013 CB027906 		.ascii	"\313\002y\006\266\005\362`\305\254\014|\274\214\214"
  23      B605F260 
  23      C5AC0C7C 
  23      BC8C8C
  24 0022 0C8C4026 		.ascii	"\014\214@&\263\320\201NF\210\004P\005\013H\226\215\201"
  24      B3D0814E 
  24      46880450 
  24      050B4896 
  24      8D81
  25 0034 871B26CB 		.ascii	"\207\033&\313\267 \013U\222\235\201\215\025h\032\333"
  25      B7200B55 
  25      929D818D 
  25      15681ADB 
  26 0044 073DB869 		.ascii	"\007=\270i\014\000\350g\011\333"
  26      0C00E867 
  26      09DB
  27              		.text
  28              		.section	.gnu.lto_.pureconst.9e934f41b846f249,"",%progbits
  29 0000 789C6362 		.ascii	"x\234cb`b\340d\200\000\026\006\011V+6\011v\026\000\003"
  29      6062E064 
  29      80001606 
  29      09562B36 
  29      09761600 
  30 0015 7C0092   		.ascii	"|\000\222"
  31              		.text
  32              		.section	.gnu.lto__core_init.9e934f41b846f249,"",%progbits
ARM GAS  /tmp/ccUDK5QG.s 			page 2


  33 0000 789C8D51 		.ascii	"x\234\215QMk\324P\024\275\367%3\315\340Gu\331]\251\013"
  33      4D6BD450 
  33      14BDF725 
  33      33CDE047 
  33      75D95DA9 
  34 0015 C1C5C48F 		.ascii	"\301\305\304\217\215\270\351\306\177`\005\005!\2441"
  34      8DB8E9C6 
  34      7F600505 
  34      21A431
  35 0024 D808D34A 		.ascii	"\330\010\323J\246\026\301\305\274\371P\006\2410\212"
  35      A616C1C5 
  35      BCF95006 
  35      A1308A
  36 0033 22EAA645 		.ascii	"\"\352\246EDDD\241\013\221\012\315\252\350\242\322\272"
  36      444444A1 
  36      0B910ACD 
  36      AAE8A2D2 
  36      BA
  37 0044 75330577 		.ascii	"u3\005w\225\342RD}\236\3672q\246\361\003/\311\273y\367"
  37      95E25244 
  37      7D9EF732 
  37      71A6F103 
  37      2FC9BB79 
  38 0059 DCF3CEC9 		.ascii	"\334\363\316\311}\202\004\345c\004\357w\224\347\220"
  38      7D8204E5 
  38      6304EF77 
  38      94E790
  39 0068 D922169D 		.ascii	"\331\"\026\235wDuG0\353\017b\252\011\256\235e\335j\217"
  39      77447547 
  39      30EB0F62 
  39      AA09AE9D 
  39      65DD6A8F 
  40 007c D1A294B7 		.ascii	"\321\242\224\267\272\327\266\022\353\336\355\244\265"
  40      BAD7B612 
  40      EBDEEDA4 
  40      B5
  41 0089 20BF29C5 		.ascii	" \277)\305\0341\216=\304\0240\235\301\206GM\022\366"
  41      1C318E3D 
  41      C414309D 
  41      C186474D 
  41      12F6
  42 009b 4E9D942B 		.ascii	"N\235\224+\227?\256\333od+Qj<bK\320\211?\362*\234'&"
  42      973FAEDB 
  42      6F642B51 
  42      6A3C624B 
  42      D0893FF2 
  43 00b3 1F56EF8E 		.ascii	"\037V\357\216\334Xht\344\017h\032\311\223\377)\371*"
  43      DC586874 
  43      E40F681A 
  43      C993FF29 
  43      F92A
  44 00c5 2779EA2F 		.ascii	"'y\352/\222}\315\347\"\351*\365i\351\365\346\012\357"
  44      927DCDE7 
  44      22E92AF5 
  44      69E9F5E6 
  44      0AEF
  45 00d7 DFC5E4F3 		.ascii	"\337\305\344\363\"\217A\021\262\226^lT\036\2422\204"
ARM GAS  /tmp/ccUDK5QG.s 			page 3


  45      228F4111 
  45      B2965E6C 
  45      541EA232 
  45      84
  46 00e8 FC08D9D1 		.ascii	"\374\010\331\321\305\0226\217\261A\024\250%egT\353w"
  46      C512368F 
  46      B14114A8 
  46      25656754 
  46      EB77
  47 00fa 3BC9C6F5 		.ascii	";\311\306\365;,7\345\315\236s[\3209\343 \013\237\237"
  47      3B2C37E5 
  47      CD9E735B 
  47      D039E320 
  47      0B9F9F
  48 010d B218F40C 		.ascii	"\262\030\364\014\316\373U)\371E\322\226J\325\014\345"
  48      CEFB5529 
  48      F945D296 
  48      4AD50CE5 
  49 011d 628EF28C 		.ascii	"b\216\362\214\007\2562E&\260\352;;\015\010\331Z\243"
  49      07AE3245 
  49      26B0EA3B 
  49      3B0D08D9 
  49      5AA3
  50 012f C6767369 		.ascii	"\306vsi\376\270\317O\270@\027\230\257\322W\351D\\\250"
  50      FEB8CF4F 
  50      B8401798 
  50      AFD257E9 
  50      445CA8
  51 0142 F4B86BD4 		.ascii	"\364\270k\324l[\031*\320\240\207\201\2372\310\362/\304"
  51      6C5B192A 
  51      D0A08781 
  51      9F32C8F2 
  51      2FC4
  52 0154 0268902F 		.ascii	"\002h\220/J\251a\2036\266\232s\031l\243\303\324\336"
  52      4AA96183 
  52      36B69A73 
  52      196CA3C3 
  52      D4DE
  53 0166 7E2EA6B5 		.ascii	"~.\246\265\007t\277.\345>\014[+\266\365W1\275Q}L\321"
  53      0774BF2E 
  53      E53E0C5B 
  53      2BB6F557 
  53      31BD517D 
  54 017c 68836748 		.ascii	"h\203gH\333\315\227\363nv\324P\337\241\2259\354\373"
  54      DBCD97F3 
  54      6E76D450 
  54      DFA19539 
  54      ECFB
  55 018e 70D0F0BB 		.ascii	"p\320\360\273\2178\203K\350H}\254\377\323\007\347|\224"
  55      8F38834B 
  55      E8487DAC 
  55      FFD307E7 
  55      7C94
  56 01a0 8836A8DE 		.ascii	"\2106\250\336]9\220\222\262\230@#\246\250'u\320\275"
  56      5D399092 
  56      B2984023 
  56      A6A82775 
ARM GAS  /tmp/ccUDK5QG.s 			page 4


  56      D0BD
  57 01b2 5C8DDD6A 		.ascii	"\\\215\335j\034\270\301T4\031\315T]<\361l\257R\011+"
  57      1CB8C154 
  57      3419CD54 
  57      5D3CF16C 
  57      AF52092B 
  58 01c6 C14C1C96 		.ascii	"\301L\034\226\003\032\366\274\251\320\277\344M\372\325"
  58      031AF6BC 
  58      A9D0BFE4 
  58      4DFAD5
  59 01d5 D0F3CA87 		.ascii	"\320\363\312\207K\323\341\225Y\300\345#{{H8}\036\300"
  59      4BD3E195 
  59      59C0E523 
  59      7B7B4838 
  59      7D1EC0
  60 01e8 510759D7 		.ascii	"Q\007Y\327\217\355\331\301\330=\330\365\023\266'\345"
  60      8FEDD9C1 
  60      D83DD8F5 
  60      13B627E5 
  61 01f8 B3       		.ascii	"\263"
  62              		.text
  63              		.section	.gnu.lto_chCoreAlloc.9e934f41b846f249,"",%progbits
  64 0000 789C9D54 		.ascii	"x\234\235T[H\024a\024>\347\237\331\273\233\012>d\205"
  64      5B481461 
  64      143EE79F 
  64      D9BB9B0A 
  64      3E6485
  65 0013 2D421811 		.ascii	"-B\030\021N\221\335\336\012!\360a_4\243\236d\034\227"
  65      4E91DDDE 
  65      0A21F061 
  65      5F34A39E 
  65      641C97
  66 0026 75A055D9 		.ascii	"u\240U\331U\311zpt\203\356%\025t\323P\3044\242,!\272"
  66      55C97A70 
  66      7483EE25 
  66      1574D350 
  66      C434A22C 
  67 003c 68B40FDD 		.ascii	"h\264\017\335\224\024\"\202\202\036\226\202(\272@\320"
  67      94142282 
  67      821E9682 
  67      28BA40D0 
  68 004c BD683AFF 		.ascii	"\275h:\377\314\316\254+\336h\331\335s\346\234\377;\337"
  68      CCCEAC2B 
  68      DE68D9DD 
  68      73E69CFF 
  68      3BDF
  69 005e 39E73F67 		.ascii	"9\347?g\0300\230\372YC\277\"'@.\002\240\003\220uL\000"
  69      183098FA 
  69      5943BF22 
  69      27402E02 
  69      A0039075 
  70 0074 B4B91913 		.ascii	"\264\271\031\023\337\272@\363\012\003\017\000\264,\001"
  70      DFBA40F3 
  70      0A030F00 
  70      B42C01
  71 0083 45D32E22 		.ascii	"E\323.\"r\005\020Z\231 b\353\016\344A\234\205\320\243"
  71      7205105A 
ARM GAS  /tmp/ccUDK5QG.s 			page 5


  71      992062EB 
  71      0EE4419C 
  71      85D0A3
  72 0096 69C7937D 		.ascii	"i\307\223}\337o\346k\335\355\035\332_]G\025\211n\005"
  72      DF6FE66B 
  72      DDED1DDA 
  72      5F5D4715 
  72      896E05
  73 00a9 8282B09D 		.ascii	"\202\202\260\235\0360`\010&f\362\233\310\304\335\261"
  73      1E306008 
  73      2666F29B 
  73      C8C4DDB1 
  74 00b9 23F96369 		.ascii	"#\371ci\244\300@\232\026\031\301)\320\216\304\365\261"
  74      A4C0409A 
  74      1619C129 
  74      D08EC4F5 
  74      B1
  75 00ca 53F907D3 		.ascii	"S\371\007\323P\221\301\306\371\221jC\003\232\247[\373"
  75      5091C1C6 
  75      F9916A43 
  75      039AA75B 
  75      FB
  76 00db A3EB82C1 		.ascii	"\243\353\202\301X:/XG\006\214\330\202\377\307\266m."
  76      583A2F58 
  76      47068CD8 
  76      82FFC7B6 
  76      6D2E
  77 00ed D8204B24 		.ascii	"\330 K$u\375\345p\367\253\217\230\233'`\004\321\011"
  77      75FDE570 
  77      F7AB8F98 
  77      9B276004 
  77      D109
  78 00ff 2A3A5C20 		.ascii	"*:\\ c\017\026\202\233\344%\222\036\222\027IzI\366\223"
  78      630F1682 
  78      9BE42592 
  78      1E921749 
  78      7A49F693 
  79 0113 F491EC23 		.ascii	"\364\221\354#\231E\207E?G, K/Y\262\351\201\256\032\034"
  79      99458745 
  79      3F472C20 
  79      4B2F59B2 
  79      E981AE1A 
  80 0128 B097EA08 		.ascii	"\260\227\352\010\244Z\177\347\341\341\311\227\346dP"
  80      A45A7FE7 
  80      E1E1C997 
  80      E66450
  81 0137 35576AC0 		.ascii	"5Wj\300\375\364\331J\377|\034*\221q)\214B\273\333\252"
  81      FDF4D94A 
  81      FF7C1C2A 
  81      9171298C 
  81      42BBDBAA 
  82 014b 377962DF 		.ascii	"7yb\337\337\007x<\256=\322\366&(\362R\025]\014N\340"
  82      DF07783C 
  82      AE3DD2F6 
  82      2628F252 
  82      155D0C4E 
  83 0160 5CB1B9CD 		.ascii	"\\\261\271\315\025 e\002\332?\337\272?tXH\245k\345\235"
ARM GAS  /tmp/ccUDK5QG.s 			page 6


  83      15206502 
  83      DA3FDFBA 
  83      3F745848 
  83      A56BE59D 
  84 0174 E83FAAFB 		.ascii	"\350?\252\373\227\313x\225*\262m\277;G|K\354\247\003"
  84      97CB7895 
  84      2AB26DBF 
  84      3B477C4B 
  84      ECA703
  85 0187 5F283119 		.ascii	"_(1\031/\323@+\006!\243\237\000\306\334\"|#\225\026"
  85      2FD3402B 
  85      0621A39F 
  85      00C6DC22 
  85      7C239516 
  86 019b 4130B7A1 		.ascii	"A0\267\241\000\366\261.\355\364&\025\335\031\364i\377"
  86      00F6B12E 
  86      EDF42615 
  86      DD19F469 
  86      FF
  87 01ac C194DF63 		.ascii	"\301\224\337c&h\026i\336A\230G\035\207\370\376\370\353"
  87      26681669 
  87      DE419847 
  87      1D87F8FE 
  87      F8EB
  88 01be 938B32DB 		.ascii	"\223\2132\333zf,\263\2552\016\032i\314\336W3\206\326"
  88      7A662CB3 
  88      AD320E1A 
  88      69CCDE57 
  88      3386D6
  89 01d1 7FCC6112 		.ascii	"\177\314a\022\244\3130\216\206\321I\224\034\012.0\230"
  89      A4CB308E 
  89      86D14994 
  89      1C0A2E30 
  89      98
  90 01e2 878979A1 		.ascii	"\207\211y\241\214\303t&\214.\362\033\316\037\272\256"
  90      8CC37426 
  90      8C2EF21B 
  90      CE1FBAAE 
  91 01f2 671BB932 		.ascii	"g\033\2712\323g\245\353\342\240\366\321\347\027~2\013"
  91      D367A5EB 
  91      E2A0F6D1 
  91      E7177E32 
  91      0B
  92 0203 E43E0767 		.ascii	"\344>\007g\3334-\207\246r\017\374\322\366s\315\033A"
  92      DB342D87 
  92      A6720FFC 
  92      D2F673CD 
  92      1B41
  93 0215 966A8637 		.ascii	"\226j\2067\225\031\301\336\013\026\306\023\346\335\""
  93      9519C1DE 
  93      0B16C613 
  93      E6DD22
  94 0224 539965F1 		.ascii	"S\231e\361N\037\005f\213\342\013s;\025q\3006e\031\261"
  94      4E1F0566 
  94      8BE20B73 
  94      3B1571C0 
  94      366519B1 
ARM GAS  /tmp/ccUDK5QG.s 			page 7


  95 0238 7DC6C14F 		.ascii	"}\306\301O\361\002\313\354'\017\300#\270\367\246\315"
  95      F102CBEC 
  95      270FC023 
  95      B8F7A6CD 
  96 0248 3FA9587F 		.ascii	"?\251X\177\272q\225t\023\364\256\342#\230<\337\207V"
  96      BA719574 
  96      13F4AEE2 
  96      23983CDF 
  96      8756
  97 025a D52346D5 		.ascii	"\325#F\325&\313\241\270~r\261\205^@V\253\035\251\"\346"
  97      26CBA1B8 
  97      7E72B185 
  97      5E4056AB 
  97      1DA922E6 
  98 026e 5301012D 		.ascii	"S\001\001->\321\032\371\344\273^4oI\306+\306\235YCb"
  98      3ED11AF9 
  98      E4BB5E34 
  98      6F49C62B 
  98      C69D5943 
  99 0283 6FC2F8C3 		.ascii	"o\302\370\303)\233 \343\2659\247\301\030E\230}\023\272"
  99      299B20E3 
  99      B539A7C1 
  99      1845987D 
  99      13BA
 100 0295 B26913EE 		.ascii	"\262i\023\356en\302{_\201\275\343\351\225\370:i%\034"
 100      656EC27B 
 100      5F81BDE3 
 100      E995F83A 
 100      69251C
 101 02a8 E60A3BA7 		.ascii	"\346\012;\247\331\012\031o\220bS[[ \343m,0\323z\002"
 101      D90A196F 
 101      9062535B 
 101      5B20E36D 
 101      2C30D37A 
 102 02bd 6DC90F8A 		.ascii	"m\311\017\212\031*\214|\312\340\005ds\004\275[\330\343"
 102      192A8C7C 
 102      CAE00564 
 102      7304BD5B 
 102      D8E3
 103 02cf A779D459 		.ascii	"\247y\324Y\241\363Y\026\177= \357\021\017P$5\305\242"
 103      A1F35916 
 103      7F3D20EF 
 103      110F5024 
 103      35C5A2
 104 02e2 522CAA48 		.ascii	"R,\252HJ\255Z\255\326\307$\372F\033S\226H(\242\324G"
 104      4AAD5AAD 
 104      D6C724FA 
 104      461B5396 
 104      4828A2D4 
 105 02f7 43C50A88 		.ascii	"C\305\012\2101uw\310S\027\332\325H\266\342\015\266\266"
 105      317577C8 
 105      5317DAD5 
 105      48B6E20D 
 105      B6B6
 106 0309 DED6D6B9 		.ascii	"\336\326\326\271Cu5\\Yk)%\330\260z\206\360\015\365\321"
 106      4375355C 
 106      596B2925 
ARM GAS  /tmp/ccUDK5QG.s 			page 8


 106      D8B07A86 
 106      F00DF5D1 
 107 031d C698B4B9 		.ascii	"\306\230\264\271<X\032\334E.NR\325\274>R\\\013\216f"
 107      3C581ADC 
 107      452E4E52 
 107      D5BC3E52 
 107      5C0B8E66 
 108 0331 796753A8 		.ascii	"ygS\250d:\034\021I\245\301\212\262\012I\255Sv6\325\204"
 108      643A1C11 
 108      49A5C18A 
 108      B20A49AD 
 108      537636D5 
 109 0346 2403A744 		.ascii	"$\003\247D\2664\325)\004\235\251\026\373tm\254%F\347"
 109      B634D529 
 109      049DA916 
 109      FB746DAC 
 109      2546E7
 110 0359 728215E5 		.ascii	"r\202\025\345\201j9\026j\210\252+\003\313V\001\213\202"
 110      816A3916 
 110      6A88AA2B 
 110      03CB5601 
 110      8B82
 111 036b 8B12AE8F 		.ascii	"\213\022\256\217\266\300?\353\373\3135"
 111      B6C03FEB 
 111      FBCB35
 112              		.text
 113              		.section	.gnu.lto_chCoreAllocI.9e934f41b846f249,"",%progbits
 114 0000 789C9D53 		.ascii	"x\234\235SMh\023A\024~of\326M\322\204\212x\251\202\224"
 114      4D681341 
 114      147E6F66 
 114      D64DD284 
 114      8A78A982 
 115 0015 5E040FCD 		.ascii	"^\004\017\315\241Z=x\026\274y\260\340\317)]C\334\303"
 115      A15A3D78 
 115      16BC79B0 
 115      E0CF295D 
 115      43DCC3
 116 0028 B6925410 		.ascii	"\266\222T\020<t\222\355\241\242B(\271T\213\264h\265"
 116      3C7492ED 
 116      A1A24228 
 116      B9548BB4 
 116      68B5
 117 003a FE80E055 		.ascii	"\376\200\340U\301\034TLP\241\210\240\267\240\010\202"
 117      C11C544C 
 117      50A188A0 
 117      B7A00882 
 118 004a E059455C 		.ascii	"\340YE\\\277\231d\023+E\203\313\356\276\267\337{\337"
 118      BF996413 
 118      2B4583CB 
 118      EEBEB7DF 
 118      7BDF
 119 005c FB9D1524 		.ascii	"\373\235\025$\350\317k\014\317\222$:\011\311\016\261"
 119      E8CF6B0C 
 119      CF92243A 
 119      09C90EB1 
 120 006c A8BE222A 		.ascii	"\250\276\"*'\204P\237\\\322)\271\366\214H\247%\2536"
 120      2784509F 
ARM GAS  /tmp/ccUDK5QG.s 			page 9


 120      5CD229B9 
 120      F68C48A7 
 120      25AB36
 121 007f AE988D42 		.ascii	"\256\230\215BL\263B*\236=\316&\2103B+Z/\264\236\336"
 121      4CB3422A 
 121      9E3DCE26 
 121      8833422B 
 121      5A2FB49E 
 122 0094 FC26166B 		.ascii	"\374&\026k\365\271e\375#\212\230}F\302=L\036\3231|\360"
 122      F5B965FD 
 122      238A987D 
 122      46C23D4C 
 122      1ED3317C 
 123 00a9 B015426D 		.ascii	"\260\025Bm\254\300r\253\372\301\232NZ\236\364Y\012\032"
 123      ACC072AB 
 123      FAC19A4E 
 123      5A9EF459 
 123      0A1A
 124 00bb EB8BB6B0 		.ascii	"\353\213\266\260\201\206l\007\377/\333\241\376\262\325"
 124      81866C07 
 124      FF2FDBA1 
 124      FEB2D5
 125 00ca 1F372F0F 		.ascii	"\0377/\0175\227+U\375\023\375\331\204G6e\006\334\243"
 125      35972B55 
 125      FD13FDD9 
 125      84473665 
 125      06DCA3
 126 00dd DE17F556 		.ascii	"\336\027\365V\024=Z\277\361\376\016o\033d\362YI\016"
 126      143D5ABF 
 126      F1FE0E6F 
 126      1B64F259 
 126      490E
 127 00ef 981534C7 		.ascii	"\230\0254\307\201+\273\224\343\025\036\241\004\344u"
 127      812BBB94 
 127      E3151EA1 
 127      04E475
 128 00fe C824E42A 		.ascii	"\310$\344*d\012\362\026\344\000<e\332\270g\200\334\006"
 128      640AF216 
 128      E4003C65 
 128      DAB86780 
 128      DC06
 129 0110 62664E73 		.ascii	"bfNshd\270S\330b\363\322\220\356\025\246\004\235\370"
 129      6864B853 
 129      D862F3D2 
 129      90EE15A6 
 129      049DF8
 130 0123 574B64EC 		.ascii	"WKd\354\270\216\342mv:\301\302H\371\222\302\371\360"
 130      B88EE26D 
 130      763AC1C2 
 130      48F992C2 
 130      F9F0
 131 0135 436D478E 		.ascii	"CmG\216\357\342@\024X\025X\032\376\026\027\3160>\014"
 131      EFE24014 
 131      5815581A 
 131      FE1617CE 
 131      303E0C
 132 0148 27639303 		.ascii	"'c\223\003\2535}\215\242h\020\346\006\211\266\015]\301"
ARM GAS  /tmp/ccUDK5QG.s 			page 10


 132      AB357D8D 
 132      A26810E6 
 132      0689B60D 
 132      5DC1
 133 015a 6CFC2B8D 		.ascii	"l\374+\215\2678\0251\303\275JW\312Zo\305\354\316\323"
 133      B7381531 
 133      C3BD4A57 
 133      CA5A6FC5 
 133      ECCED3
 134 016d 773D6F34 		.ascii	"w=o47`s.M \267S\031h\237e\314I\024\014\016\350p\214"
 134      3760732E 
 134      4D20B753 
 134      19689F65 
 134      CC49140C 
 135 0185 24378F42 		.ascii	"$7\217B\177\213\222\002\315\326\177\241\013\015\330"
 135      7F8B9202 
 135      CDD67FA1 
 135      0B0DD8
 136 0194 D829EBF8 		.ascii	"\330)\353\370%\334\025\303iX\210\236\323\223\217\345"
 136      25DC15C3 
 136      6958889E 
 136      D3938FE5 
 137 01a4 CC6F98D3 		.ascii	"\314o\230\323\033\334\004K\302\217!\033Ti][\345\266"
 137      1BDC044B 
 137      C28F211B 
 137      54695D5B 
 137      E5B6
 138 01b6 538EEF61 		.ascii	"S\216\357a3q\226\213aT\333\031\2633@\343qt\232\350\247"
 138      3371968B 
 138      6154DB19 
 138      B33340E3 
 138      71749AE8 
 139 01cb 0310E37C 		.ascii	"\003\020\343|\312\256f\035\177\240\201\255\337;b\343"
 139      CAAE661D 
 139      7FA081AD 
 139      DF3B62E3 
 140 01db 8AAD8A17 		.ascii	"\212\255\212\027\257\267#\203\\z\2236\353d\343k&\272"
 140      AFB72383 
 140      5C7A9336 
 140      EB64E36B 
 140      26BA
 141 01ed 3B7BB654 		.ascii	";{\266T\314\226\212^\326;\355O\372\323\245,\356\342"
 141      CC968A5E 
 141      D63BED4F 
 141      FAD3A52C 
 141      EEE2
 142 01ff 4C0709F2 		.ascii	"L\007\011\362\2017]\314\217z\224\310O\235\302\327\350"
 142      81375DCC 
 142      8F7A94C8 
 142      4F9DC2D7 
 142      E8
 143 0210 DE58D997 		.ascii	"\336X\331\227\234\312\237\2331\332xW\333\337\325\016"
 143      9CCA9F9B 
 143      31DA7857 
 143      DBDFD50E 
 144 0220 F0995F3C 		.ascii	"\360\231_<\370\365\005"
 144      F8F505
ARM GAS  /tmp/ccUDK5QG.s 			page 11


 145              		.text
 146              		.section	.gnu.lto_chCoreGetStatusX.9e934f41b846f249,"",%progbits
 147 0000 789C9D52 		.ascii	"x\234\235R1K\303@\030\375\276\273\\\233:\2108\351V\272"
 147      314BC340 
 147      18FDBEBB 
 147      5C9B3A88 
 147      38E956BA 
 148 0014 080E8DD5 		.ascii	"\010\016\215\325\311\301]W\251\240c\215\241fH\013I\005"
 148      C9C15D57 
 148      A9A0638D 
 148      A166480B 
 148      4905
 149 0026 C1A157DB 		.ascii	"\301\241W\333A\267R\\\252\213ED\235\012\316\016]\004"
 149      41B7525C 
 149      AA8B4544 
 149      9D0ACE0E 
 149      5D04
 150 0038 1D2A74D2 		.ascii	"\035*t\322\261\316\202?@\012\361\273\263\255TD\305#"
 150      B1CE823F 
 150      400AF1BB 
 150      B3AD5444 
 150      C523
 151 004a B9F7DDCB 		.ascii	"\271\367\335\313\275\367\276;\302\200\301\3271M\357"
 151      BDF7BE3B 
 151      C280C1D7 
 151      314DEF
 152 0059 14D1AB84 		.ascii	"\024\321\253\204\310\001Y\365\001\240d2DU\000B\221a"
 152      C80159F5 
 152      01A06432 
 152      44550042 
 152      9161
 153 006b 7103D556 		.ascii	"q\003\325V#\001\015)k\335\333f\207\327\217Z\225S\331"
 153      23010D29 
 153      6BDDDB66 
 153      87D78F5A 
 153      9553D9
 154 007e 0B434417 		.ascii	"\013CD\027\311v\026\301FX\247\005\30650c4Gk\253\362"
 154      C97616C1 
 154      4658A705 
 154      C6353063 
 154      34476BAB 
 155 0093 FA52C6B4 		.ascii	"\372R\306\264\216\273\310\031,\374IV\033\221Q\332\322"
 155      8EBBC819 
 155      2CFC4956 
 155      1B9151DA 
 155      D2
 156 00a4 FFD2967F 		.ascii	"\377\322\226\177\2235Y\253\033\2067\217\275\347;\234"
 156      933559AB 
 156      1B86378F 
 156      BDE73B9C 
 157 00b4 341964B0 		.ascii	"4\031d\260\201\011\340\204g\204\006\3419\241 \274 \214"
 157      8109E084 
 157      678406E1 
 157      39A120BC 
 157      208C
 158 00c6 00B94669 		.ascii	"\000\271FiR.\002*\224\030\007\225@#M\263\272\3005d\012"
 158      522E022A 
ARM GAS  /tmp/ccUDK5QG.s 			page 12


 158      94180795 
 158      40234DB3 
 158      BAC03564 
 159 00db 791BF6EF 		.ascii	"y\033\366\357\237\350\3362x\205\002\262\310N\340\270"
 159      9FE8DE32 
 159      788502B2 
 159      C84EE0B8 
 160 00eb 24E5041D 		.ascii	"$\345\004\035g\017\336\344\201\252\204\247\245\2521"
 160      670FDEE4 
 160      81AA84A7 
 160      A5AA31
 161 00fa D16F8864 		.ascii	"\321o\210d/C\015'\231\246V\006\214\361\275\013\376\344"
 161      2F430D27 
 161      99A65606 
 161      8CF1BD0B 
 161      FEE4
 162 010c 22B2AADF 		.ascii	"\"\262\252\3376\224\017\207TD{\013\275\361\265<>\240"
 162      36940F87 
 162      54447B0B 
 162      BDF1B53C 
 162      3EA0
 163 011e A3F405A0 		.ascii	"\243\364\005\240\0038$>\354\322\024@gR\377\322\214\265"
 163      0338243E 
 163      ECD21440 
 163      6752FFD2 
 163      8CB5
 164 0130 13F856E0 		.ascii	"\023\370V\340\333\226\275\355n\272\371\300\242\307/"
 164      DB96BDED 
 164      6EBAF9C0 
 164      A2C72F
 165 013f F419CFF1 		.ascii	"\364\031\317\361\354\274\357$m0\235\334\026\255\222"
 165      ECBCEF24 
 165      6D309DDC 
 165      16AD92
 166 014e 8BB17E91 		.ascii	"\213\261~\221\232\033\3139\273\005]\246>\313\371wd\215"
 166      9A1BCB39 
 166      BB055DA6 
 166      3ECBF977 
 166      648D
 167 0160 9458     		.ascii	"\224X"
 168              		.text
 169              		.section	.gnu.lto_.symbol_nodes.9e934f41b846f249,"",%progbits
 170 0000 789C4DCA 		.ascii	"x\234M\312\311\015\2000\020CQ\333\3034I3\276\346H\005"
 170      C90D8030 
 170      104351DB 
 170      C3344933 
 170      BEE64805 
 171 0014 944417EC 		.ascii	"\224D\027\354)\202 !\005\237\376\223,\010#\276i\247"
 171      29822021 
 171      059FFE93 
 171      2C0823BE 
 171      69A7
 172 0026 816901EC 		.ascii	"\201i\001\354\2710o\266B\256\344\340\310J\275\332\030"
 172      B9306FB6 
 172      42AEE4E0 
 172      C84ABDDA 
 172      18
ARM GAS  /tmp/ccUDK5QG.s 			page 13


 173 0037 4D3A68F6 		.ascii	"M:h\366\253NZ?^tt\342\001v?\031\345"
 173      AB4E5A3F 
 173      5E7474E2 
 173      01763F19 
 173      E5
 174              		.text
 175              		.section	.gnu.lto_.refs.9e934f41b846f249,"",%progbits
 176 0000 789C6362 		.ascii	"x\234cb`bPd\200\000\026\006&FF&&fF\026fV0\207\211\231"
 176      60625064 
 176      80001606 
 176      26464626 
 176      26664616 
 177 001a 0D4233B1 		.ascii	"\015B3\261\203h\006\000\012\332\000l"
 177      83680600 
 177      0ADA006C 
 178              		.text
 179              		.section	.gnu.lto_.decls.9e934f41b846f249,"",%progbits
 180 0000 789C9D56 		.ascii	"x\234\235V]L\024W\024\276wvaw\331\225\322\207\032\232"
 180      5D4C1457 
 180      14BE7776 
 180      6177D995 
 180      D2871A9A 
 181 0014 3E88A6B6 		.ascii	">\210\246\266\011-L\177L\312\223HI\253$\2451\022\023"
 181      092D4C7F 
 181      4CCA9348 
 181      49AB24A5 
 181      311213
 182 0027 DF26C330 		.ascii	"\337&\3030\355n\334]\310\316\254J_\274\240\022\253M"
 182      ED6EDC5D 
 182      C8CEAC4A 
 182      5FBCA012 
 182      AB4D
 183 0039 438982FD 		.ascii	"C\211\202\375\263\240`%\321\026\3216\245\015\311j\001"
 183      B3A06025 
 183      D116D136 
 183      A50DC96A 
 183      01
 184 004a 8146036D 		.ascii	"\201F\003m\251\215\015u\2334\022\233>\3204)\2611N\317"
 184      A98D0D75 
 184      9B34129B 
 184      3ED03429 
 184      B1314ECF 
 185 005e 9DB9C3EC 		.ascii	"\235\271\303\354\0143tu\302Y\356\316\236\363}\3379\367"
 185      0C337475 
 185      C259EECE 
 185      9EF37DDF 
 185      39F7
 186 0070 9C3BC321 		.ascii	"\234;\303!\016}\204\021\322\340\232+Bh#\207P\001Bh3"
 186      0E7D8411 
 186      D2E09A2B 
 186      42682387 
 186      50014268 
 187 0085 B22E3F58 		.ascii	"\262.?X\037\330\031\260!\260K\354\336W`\227\301\306"
 187      1FD819B0 
 187      21B04BEC 
 187      DE576097 
 187      C1C6
ARM GAS  /tmp/ccUDK5QG.s 			page 14


 188 0097 C02690FD 		.ascii	"\300&\220\375\242\376\001d`\025\203E\300\256\200\215"
 188      A2FE0164 
 188      60158345 
 188      C0AE808D 
 189 00a7 804D824D 		.ascii	"\200M\202M1?\314|\375\014k\202\341\2169\360(w\030l\320"
 189      313FCC7C 
 189      FD0C6B82 
 189      E18E39F0 
 189      2877186C 
 190 00bc 81E7671C 		.ascii	"\201\347g\034\325`\323`3`s9\370\001\026{\003\354&\330"
 190      D560D360 
 190      33607339 
 190      F801167B 
 190      03EC26D8 
 191 00d0 3CCBE136 		.ascii	"<\313\3416\330\0350\037\343=\357\222\003\365\0132\036"
 191      D81D301F 
 191      E33DEF92 
 191      03F50B32 
 191      1E
 192 00e1 93D3CFB8 		.ascii	"\223\323\317\270\012\230\226\334<\206r\360\206]\360"
 192      0A9896DC 
 192      3C8672F0 
 192      865DF0
 193 00f0 68DD0A5D 		.ascii	"h\335\012]\360\2348\324\217c\361\227\035\030\353\320"
 193      F09C38D4 
 193      8F63F197 
 193      1D18EBD0 
 194 0100 49D29BCD 		.ascii	"I\322\233\315\216/\014=Nz\3333\232V\215\326\242\343"
 194      8E2F0C3D 
 194      4E7ADB33 
 194      9A568DD6 
 194      A2E3
 195 0112 04AEDE0E 		.ascii	"\004\256\336\016B\260*\342\315\217\241]X\304\305!T\246"
 195      42B02AE2 
 195      CD8FA15D 
 195      58C4C521 
 195      54A6
 196 0124 2F22219D 		.ascii	"/\"!\235\004!\021\237\302k\331j\247\317\200\343P9F\345"
 196      0421119F 
 196      C26BD96A 
 196      A7CF80E3 
 196      503946E5 
 197 0138 6810E23B 		.ascii	"h\020\342;\0119\365\004r\273\236B\003\224\200\234%>"
 197      0939F504 
 197      72BB9E42 
 197      0394809C 
 197      253E
 198 014a 1D9E02F4 		.ascii	"\035\236\002\364\341u\271.\">\215\271\225:3\337\\\375"
 198      E175B92E 
 198      223E8DB9 
 198      953A33DF 
 198      5CFD
 199 015c 0E932E72 		.ascii	"\016\223.rO\323|N\235\325aO\235\2372\235>\275\014(\204"
 199      4FD37C4E 
 199      9DD5614F 
 199      9D9F329D 
 199      3EBD0C28 
ARM GAS  /tmp/ccUDK5QG.s 			page 15


 200 0171 0E13D24E 		.ascii	"\016\023\322N\003\267MB\335\334\2426\242~\310 {\367"
 200      03B74D42 
 200      DDDCA236 
 200      A27EC820 
 200      7BF7
 201 0183 C2C73C21 		.ascii	"\302\307<!A\021\017\342\020\304&0\200\365\343\362e\221"
 201      41110FE2 
 201      10C42630 
 201      80F5E3F2 
 201      6591
 202 0195 0521BB68 		.ascii	"\005!\273h\370n:P0\375g\266\240\003\361Hn\251\364j\251"
 202      F86E3A50 
 202      30FD67B6 
 202      A003F148 
 202      6EA9F46A 
 203 01aa 76C427D1 		.ascii	"v\304'\321iB\272\262\003K3\276\367I\306o\362\022L\335"
 203      6942BAB2 
 203      034B33BE 
 203      F749C66F 
 203      F2124CDD 
 204 01be CE4089DC 		.ascii	"\316@\211\334\264\032^f]\333\311\347\035\207J\374z="
 204      B41A5E66 
 204      5DDBC9E7 
 204      1D874AFC 
 204      7A3D
 205 01d0 D02A514C 		.ascii	"\320*QL\361\271\225e\316.f\272\247#\235mYM\373d\213"
 205      F1B99565 
 205      CE2E66BA 
 205      A7239D6D 
 205      594DFB64 
 206 01e5 513C0E1D 		.ascii	"Q<\016\035\302nJ\311R\3236\203^\304\237\001\222\210"
 206      C26E4AC9 
 206      52D33683 
 206      5EC49F01 
 206      9288
 207 01f7 871E4AA4 		.ascii	"\207\036J\244W\024\023y\301\265\027\226\216\274c\366"
 207      57141379 
 207      C1B51796 
 207      8EBC63F6 
 208 0207 6CD0D10B 		.ascii	"l\320\321\013\224\313\253\031\276pi\332.Gv\3132\207"
 208      94CBAB19 
 208      BE7069DA 
 208      2E4776CB 
 208      3287
 209 0219 CF929029 		.ascii	"\317\222\220)]\304\227V\227\371\245]\346\006\324G\262"
 209      5DC49756 
 209      97F9A55D 
 209      E606D447 
 209      B2
 210 022a 9D99D98E 		.ascii	"\235\231\331\216\343\230\374\006\342\356k\032~\024u"
 210      E398FC06 
 210      E2EE6B1A 
 210      7E1475
 211 0239 529D6527 		.ascii	"R\235e'\212Y\023f\007H\351\011\253\011\203&,\266\232"
 211      8A591366 
 211      0748E909 
 211      AB098326 
ARM GAS  /tmp/ccUDK5QG.s 			page 16


 211      2CB69A
 212 024c B0E768F7 		.ascii	"\260\347h\3673z\023~\2557\303\204Ck\376@\243\327OV\351"
 212      337A137E 
 212      AD37C384 
 212      436BFE40 
 212      A3D74F56 
 213 0261 40A33AD0 		.ascii	"@\243:\320=\354lg\354hglog\034\262\026\032F\017\345"
 213      3DEC6C67 
 213      EC68676C 
 213      6F671CB2 
 213      161A460F 
 214 0276 2BE21128 		.ascii	"+\342\021(B\316\305\241\016\016\333\2202V\031i\011\311"
 214      42CEC5A1 
 214      0E0EDB90 
 214      32561969 
 214      09C9
 215 0288 F7D9F15B 		.ascii	"\367\331\361[\307\350N\033%\014\243#\326\364\032E\361"
 215      C7E84E1B 
 215      250CA323 
 215      D6F41A45 
 215      F1
 216 0299 DAEA2B38 		.ascii	"\332\352+8l\321\034\343\314t\275\334\277\265\023\303"
 216      6CD11CE3 
 216      CC74BDDC 
 216      BFB513C3 
 217 02a9 DEFD90BB 		.ascii	"\336\375\220\273w\206tx\2749\364\216;\365f\264\201)"
 217      77867478 
 217      BC39F48E 
 217      3BF566B4 
 217      8129
 218 02bb 7A4A9145 		.ascii	"zJ\221E\030yC\005\207\006\377\227\376\252\205\343\310"
 218      18794305 
 218      8706FF97 
 218      FEAA85E3 
 218      C8
 219 02cc 91F27A45 		.ascii	"\221\362zEMZ9:\242(\257W\324\224\025\225\377i\330s\264"
 219      4D5A393A 
 219      A228AF57 
 219      D4941595 
 219      FF69D873 
 220 02e1 FF59BD7F 		.ascii	"\377Y\275\177\246\365\376\031\342\\\0331\017\240\321"
 220      A6F5FE19 
 220      E25C1B31 
 220      0FA0D1
 221 02f0 EB63EFE1 		.ascii	"\353c\357\341\0030\252\"\276\246C\215p\316V\0148Z1`"
 221      0330AA22 
 221      BEA6438D 
 221      70CE560C 
 221      385A3160 
 222 0304 6FAF40C8 		.ascii	"o\257@\310Z\260\223\365\001\335\331$\366n\261\215b\351"
 222      5AB093F5 
 222      01DDD924 
 222      F66EB18D 
 222      62E9
 223 0316 2A03449F 		.ascii	"*\003D\237h\234\210gu\305c\234}\000r\270g\331\030\321"
 223      689C8867 
 223      75C5639C 
ARM GAS  /tmp/ccUDK5QG.s 			page 17


 223      7D0072B8 
 223      67D918D1 
 224 032a F8D9E539 		.ascii	"\370\331\3459\230e\203\300\340KLx\216E\315\260\261\320"
 224      986583C0 
 224      E04B4C78 
 224      8E45CDB0 
 224      B1D0
 225 033c C590E54D 		.ascii	"\305\220\345M\214xw\367\2179<\221\220\2650\205Yg\215"
 225      8C7877F7 
 225      8F393C91 
 225      90B53085 
 225      59678D
 226 034f C1CE70AA 		.ascii	"\301\316p\252L\277\000\303\231{`\346\237<\230\013\031"
 226      4CBF00C3 
 226      997B60E6 
 226      9F3C980B 
 226      19
 227 0360 333DA033 		.ascii	"3=\2403\213\331\213\335\363\343\270\353\000\231\324"
 227      8BD98BDD 
 227      F3E3B8EB 
 227      0099D4
 228 036f 07A13768 		.ascii	"\007\2417h\2740p\350/\316\365\264u\274\021\334p\276"
 228      BC3070E8 
 228      2FCEF5B4 
 228      75BC11DC 
 228      70BE
 229 0381 11FCBCF2 		.ascii	"\021\374\274\362)\000$\377\364\334/\204g\345A\242i\373"
 229      290024FF 
 229      F4DC2F84 
 229      67E541A2 
 229      69FB
 230 0393 D79B0CE7 		.ascii	"\327\233\014\347}\3710\334t2\374\342\312p\353\303\337"
 230      7DF930DC 
 230      7432FCE2 
 230      CA70EBC3 
 230      DF
 231 03a4 4BEF0E13 		.ascii	"K\357\016\023\3626\234\002\373\333\016\256\317\377\375"
 231      F2369C02 
 231      FBDB0EAE 
 231      CFFFFD
 232 03b3 E857FB7B 		.ascii	"\350W\373{\20718\2167\200?mRuO\016\375\353c\233\310"
 232      8731388E 
 232      37803F6D 
 232      52754F0E 
 232      FDEB639B 
 233 03c8 1EB3B313 		.ascii	"\036\263\263\023\221Nl\316\335a?\215\230\367|\320N\347"
 233      914E6CCE 
 233      DD613F8D 
 233      98F77CD0 
 233      4EE7
 234 03da 3C6809F9 		.ascii	"<h\011\371\273m{\351r\306\363\316\214\263\256\031_\354"
 234      BB6D7BE9 
 234      72C6F3CE 
 234      8CB3AE19 
 234      5FEC
 235 03ec 5E70DDB8 		.ascii	"^p\335\270w\375\371\224\365\266\223d\301c\343\256\005"
 235      77FDF994 
ARM GAS  /tmp/ccUDK5QG.s 			page 18


 235      F5B69364 
 235      C163E3AE 
 235      05
 236 03fd 566CDC07 		.ascii	"Vl\334\007y1\334q2\374ag@O\363i%\305+)\211\227\242\261"
 236      7931DC71 
 236      32FC6167 
 236      404FF369 
 236      25C52B29 
 237 0415 C658B3C2 		.ascii	"\306X\263\302\303_Jew\022rBjN\311\225\022*\022\350B"
 237      C35F4A65 
 237      77127242 
 237      6A4EC995 
 237      122A12E8 
 238 042a 8825636A 		.ascii	"\210%cj\341\326\327w\226\325\242\347\364\310x\254\221"
 238      E1D6D777 
 238      96D5A2E7 
 238      F4C878AC 
 238      91
 239 043b 7F539278 		.ascii	"\177S\222x1\225\250H6'\345\012Yl\214\361\233*\253\370"
 239      3195A848 
 239      3627E50A 
 239      596C8CF1 
 239      9B2AABF8 
 240 044f 58528AA7 		.ascii	"XR\212\247\233d^Q\233\232\3447*\243\250P\211\275%\013"
 240      9B645E51 
 240      9B9AE437 
 240      2AA3A850 
 240      89BD250B 
 241 0463 6A588AD6 		.ascii	"jX\212\326\002TM<\336,\371\351\255H\316\215\272\022"
 241      02544D3C 
 241      DE2CF9E9 
 241      AD48CE8D 
 241      BA12
 242 0475 E3CB5659 		.ascii	"\343\313VYmPE5\255\354\332\240\323\230`Iy/eTZ\025^\000"
 242      6D504535 
 242      ADECDAA0 
 242      D3986049 
 242      792F6554 
 243 048d E0585205 		.ascii	"\340XR\005\340@\032\376W\011j\205\233kB\204\304\222"
 243      E0401AFE 
 243      57096A85 
 243      9B6B4284 
 243      C492
 244 049f 322F8008 		.ascii	"2/\200\0101\035W\005\265\265EV *$\010,n\215 De\261E"
 244      311D5705 
 244      B5B54556 
 244      202A2408 
 244      2C6E8D20 
 245 04b7 68141559 		.ascii	"h\024\025Y\020\002Iy\237\012\211G\330]9\331$\010\205"
 245      10024979 
 245      9F0A8947 
 245      D85D39D9 
 245      240885
 246 04ca F009F782 		.ascii	"\360\011\367\2024\342\305\027\004\265\310\010\246K\277"
 246      34E2C517 
 246      04B5C808 
 246      A64BBF
ARM GAS  /tmp/ccUDK5QG.s 			page 19


 247 04d9 1415535E 		.ascii	"\024\025S^e4\305HQ\220LI\245hC\253\362Z\263\264\373"
 247      6534C548 
 247      51904C49 
 247      A56843AB 
 247      F25AB3B4 
 248 04ee 798F8896 		.ascii	"y\217\210\226\346\224\252\3605;\352k\353\367\301Oz\325"
 248      E694AAF0 
 248      353BEA6B 
 248      EBF7C14F 
 248      7AD5
 249 0500 F7BC94A0 		.ascii	"\367\274\224\240\261\364'\001\212\264{\223[,\250\346"
 249      B1F42701 
 249      8AB47B93 
 249      5B2CA8E6 
 250 0510 6BEB1BEA 		.ascii	"k\353\033\352\032,R\032+%^M'%\010\207,\025Y\025^\256"
 250      1A2C521A 
 250      2B255E4D 
 250      27250887 
 250      2C155915 
 251 0526 697865FB 		.ascii	"ixe\373\216\2725b|\257\330\252\300\206\306\241:\005"
 251      8EBA3562 
 251      7CAFD8AA 
 251      C086C6A1 
 251      3A05
 252 0538 7BC4785A 		.ascii	"{\304xZ\016\353\342v&)EX'K\353\353\377\000B-\017\264"
 252      0EEBE276 
 252      26294558 
 252      274BEBEB 
 252      FF00422D 
 253              		.text
 254              		.section	.gnu.lto_.symtab.9e934f41b846f249,"",%progbits
 255 0000 5F636F72 		.ascii	"_core_init\000\000\000\000\000\000\000\000\000\000\000"
 255      655F696E 
 255      69740000 
 255      00000000 
 255      00000000 
 256 0015 00A10000 		.ascii	"\000\241\000\000\000chCoreAlloc\000\000\000\000\000"
 256      00636843 
 256      6F726541 
 256      6C6C6F63 
 256      00000000 
 257 002a 00000000 		.ascii	"\000\000\000\000\000\000\000\246\000\000\000chCoreA"
 257      000000A6 
 257      00000063 
 257      68436F72 
 257      6541
 258 003c 6C6C6F63 		.ascii	"llocI\000\000\000\000\000\000\000\000\000\000\000\000"
 258      49000000 
 258      00000000 
 258      00000000 
 258      00
 259 004d B0000000 		.ascii	"\260\000\000\000chCoreGetStatusX\000\000\000\000\000"
 259      6368436F 
 259      72654765 
 259      74537461 
 259      74757358 
 260 0066 00000000 		.ascii	"\000\000\000\000\000\000\000\264\000\000\000__heap_"
ARM GAS  /tmp/ccUDK5QG.s 			page 20


 260      000000B4 
 260      0000005F 
 260      5F686561 
 260      705F
 261 0078 62617365 		.ascii	"base__\000\000\002\000\000\000\000\000\000\000\000\000"
 261      5F5F0000 
 261      02000000 
 261      00000000 
 261      0000
 262 008a B8000000 		.ascii	"\270\000\000\000__heap_end__\000\000\002\000\000\000"
 262      5F5F6865 
 262      61705F65 
 262      6E645F5F 
 262      00000200 
 263 00a0 00000000 		.ascii	"\000\000\000\000\000\000\304\000\000\000"
 263      0000C400 
 263      0000
 264              		.text
 265              		.section	.gnu.lto_.opts,"",%progbits
 266 0000 272D6D63 		.ascii	"'-mcpu=cortex-m4' '-mno-thumb-interwork' '-mthumb' "
 266      70753D63 
 266      6F727465 
 266      782D6D34 
 266      2720272D 
 267 0033 272D6767 		.ascii	"'-ggdb' '-O2' '-fomit-frame-pointer' '-falign-funct"
 267      64622720 
 267      272D4F32 
 267      2720272D 
 267      666F6D69 
 268 0066 696F6E73 		.ascii	"ions=16' '-ffunction-sections' '-fdata-sections' '-"
 268      3D313627 
 268      20272D66 
 268      66756E63 
 268      74696F6E 
 269 0099 666E6F2D 		.ascii	"fno-common' '-flto'\000"
 269      636F6D6D 
 269      6F6E2720 
 269      272D666C 
 269      746F2700 
 270              		.text
 271              		.cfi_sections	.debug_frame
 272              		.section	.text._core_init,"ax",%progbits
 273              		.align	2
 274              		.p2align 4,,15
 275              		.global	_core_init
 276              		.thumb
 277              		.thumb_func
 278              		.type	_core_init, %function
 279              	_core_init:
 280              	.LFB229:
 281              		.file 1 "/usr/src/chibios/os/rt/src/chmemcore.c"
 282              		.loc 1 78 0
 283              		.cfi_startproc
 284              		@ args = 0, pretend = 0, frame = 0
 285              		@ frame_needed = 0, uses_anonymous_args = 0
 286              		@ link register save eliminated.
 287              		.loc 1 84 0
ARM GAS  /tmp/ccUDK5QG.s 			page 21


 288 0000 0548     		ldr	r0, .L2
 289              		.loc 1 85 0
 290 0002 064A     		ldr	r2, .L2+4
 291              		.loc 1 84 0
 292 0004 0649     		ldr	r1, .L2+8
 293              		.loc 1 85 0
 294 0006 074B     		ldr	r3, .L2+12
 295              		.loc 1 84 0
 296 0008 20F00700 		bic	r0, r0, #7
 297              		.loc 1 85 0
 298 000c 22F00702 		bic	r2, r2, #7
 299              		.loc 1 84 0
 300 0010 0860     		str	r0, [r1]
 301              		.loc 1 85 0
 302 0012 1A60     		str	r2, [r3]
 303 0014 7047     		bx	lr
 304              	.L3:
 305 0016 00BF     		.align	2
 306              	.L2:
 307 0018 07000000 		.word	__heap_base__+7
 308 001c 00000000 		.word	__heap_end__
 309 0020 00000000 		.word	.LANCHOR0
 310 0024 00000000 		.word	.LANCHOR1
 311              		.cfi_endproc
 312              	.LFE229:
 313              		.size	_core_init, .-_core_init
 314              		.section	.text.chCoreAlloc,"ax",%progbits
 315              		.align	2
 316              		.p2align 4,,15
 317              		.global	chCoreAlloc
 318              		.thumb
 319              		.thumb_func
 320              		.type	chCoreAlloc, %function
 321              	chCoreAlloc:
 322              	.LFB230:
 323              		.loc 1 109 0
 324              		.cfi_startproc
 325              		@ args = 0, pretend = 0, frame = 0
 326              		@ frame_needed = 0, uses_anonymous_args = 0
 327              		@ link register save eliminated.
 328              	.LVL0:
 329              	.LBB26:
 330              	.LBB27:
 331              	.LBB28:
 332              	.LBB29:
 333              		.file 2 "/usr/src/chibios/os/ext/CMSIS/include/core_cmFunc.h"
 334              		.loc 2 546 0
 335 0000 2023     		movs	r3, #32
 336              	@ 546 "/usr/src/chibios/os/ext/CMSIS/include/core_cmFunc.h" 1
 337 0002 83F31188 		MSR basepri, r3
 338              	@ 0 "" 2
 339              	.LVL1:
 340              		.thumb
 341              	.LBE29:
 342              	.LBE28:
 343              	.LBE27:
 344              	.LBE26:
ARM GAS  /tmp/ccUDK5QG.s 			page 22


 345              	.LBB30:
 346              	.LBB31:
 347              		.loc 1 138 0
 348 0006 094A     		ldr	r2, .L7
 349 0008 0949     		ldr	r1, .L7+4
 350 000a 1368     		ldr	r3, [r2]
 351 000c 0968     		ldr	r1, [r1]
 352              		.loc 1 136 0
 353 000e 0730     		adds	r0, r0, #7
 354              	.LVL2:
 355 0010 20F00700 		bic	r0, r0, #7
 356              	.LVL3:
 357              		.loc 1 138 0
 358 0014 C91A     		subs	r1, r1, r3
 359 0016 8842     		cmp	r0, r1
 360              	.LVL4:
 361              		.loc 1 143 0
 362 0018 9BBF     		ittet	ls
 363 001a C018     		addls	r0, r0, r3
 364              	.LVL5:
 365 001c 1060     		strls	r0, [r2]
 366              		.loc 1 140 0
 367 001e 0020     		movhi	r0, #0
 368              	.LVL6:
 369              		.loc 1 145 0
 370 0020 1846     		movls	r0, r3
 371              	.LBE31:
 372              	.LBE30:
 373              	.LBB32:
 374              	.LBB33:
 375              	.LBB34:
 376              	.LBB35:
 377              	.LBB36:
 378              		.loc 2 546 0
 379 0022 0023     		movs	r3, #0
 380              	.LVL7:
 381              	@ 546 "/usr/src/chibios/os/ext/CMSIS/include/core_cmFunc.h" 1
 382 0024 83F31188 		MSR basepri, r3
 383              	@ 0 "" 2
 384              		.thumb
 385              	.LBE36:
 386              	.LBE35:
 387              	.LBE34:
 388              	.LBE33:
 389              	.LBE32:
 390              		.loc 1 117 0
 391 0028 7047     		bx	lr
 392              	.L8:
 393 002a 00BF     		.align	2
 394              	.L7:
 395 002c 00000000 		.word	.LANCHOR0
 396 0030 00000000 		.word	.LANCHOR1
 397              		.cfi_endproc
 398              	.LFE230:
 399              		.size	chCoreAlloc, .-chCoreAlloc
 400              		.section	.text.chCoreAllocI,"ax",%progbits
 401              		.align	2
ARM GAS  /tmp/ccUDK5QG.s 			page 23


 402              		.p2align 4,,15
 403              		.global	chCoreAllocI
 404              		.thumb
 405              		.thumb_func
 406              		.type	chCoreAllocI, %function
 407              	chCoreAllocI:
 408              	.LFB231:
 409              		.loc 1 131 0
 410              		.cfi_startproc
 411              		@ args = 0, pretend = 0, frame = 0
 412              		@ frame_needed = 0, uses_anonymous_args = 0
 413              		@ link register save eliminated.
 414              	.LVL8:
 415              		.loc 1 138 0
 416 0000 074A     		ldr	r2, .L12
 417 0002 0849     		ldr	r1, .L12+4
 418 0004 1368     		ldr	r3, [r2]
 419 0006 0968     		ldr	r1, [r1]
 420              		.loc 1 136 0
 421 0008 0730     		adds	r0, r0, #7
 422              	.LVL9:
 423 000a 20F00700 		bic	r0, r0, #7
 424              	.LVL10:
 425              		.loc 1 138 0
 426 000e C91A     		subs	r1, r1, r3
 427 0010 8842     		cmp	r0, r1
 428              	.LVL11:
 429              		.loc 1 143 0
 430 0012 9DBF     		ittte	ls
 431 0014 C018     		addls	r0, r0, r3
 432              	.LVL12:
 433 0016 1060     		strls	r0, [r2]
 434              		.loc 1 145 0
 435 0018 1846     		movls	r0, r3
 436              		.loc 1 140 0
 437 001a 0020     		movhi	r0, #0
 438              		.loc 1 146 0
 439 001c 7047     		bx	lr
 440              	.L13:
 441 001e 00BF     		.align	2
 442              	.L12:
 443 0020 00000000 		.word	.LANCHOR0
 444 0024 00000000 		.word	.LANCHOR1
 445              		.cfi_endproc
 446              	.LFE231:
 447              		.size	chCoreAllocI, .-chCoreAllocI
 448              		.section	.text.chCoreGetStatusX,"ax",%progbits
 449              		.align	2
 450              		.p2align 4,,15
 451              		.global	chCoreGetStatusX
 452              		.thumb
 453              		.thumb_func
 454              		.type	chCoreGetStatusX, %function
 455              	chCoreGetStatusX:
 456              	.LFB232:
 457              		.loc 1 155 0
 458              		.cfi_startproc
ARM GAS  /tmp/ccUDK5QG.s 			page 24


 459              		@ args = 0, pretend = 0, frame = 0
 460              		@ frame_needed = 0, uses_anonymous_args = 0
 461              		@ link register save eliminated.
 462              		.loc 1 158 0
 463 0000 024A     		ldr	r2, .L15
 464 0002 034B     		ldr	r3, .L15+4
 465 0004 1068     		ldr	r0, [r2]
 466 0006 1B68     		ldr	r3, [r3]
 467              		.loc 1 160 0
 468 0008 C01A     		subs	r0, r0, r3
 469 000a 7047     		bx	lr
 470              	.L16:
 471              		.align	2
 472              	.L15:
 473 000c 00000000 		.word	.LANCHOR1
 474 0010 00000000 		.word	.LANCHOR0
 475              		.cfi_endproc
 476              	.LFE232:
 477              		.size	chCoreGetStatusX, .-chCoreGetStatusX
 478              		.section	.bss.endmem,"aw",%nobits
 479              		.align	2
 480              		.set	.LANCHOR1,. + 0
 481              		.type	endmem, %object
 482              		.size	endmem, 4
 483              	endmem:
 484 0000 00000000 		.space	4
 485              		.section	.bss.nextmem,"aw",%nobits
 486              		.align	2
 487              		.set	.LANCHOR0,. + 0
 488              		.type	nextmem, %object
 489              		.size	nextmem, 4
 490              	nextmem:
 491 0000 00000000 		.space	4
 492              		.text
 493              	.Letext0:
 494              		.file 3 "/usr/lib/gcc/arm-none-eabi/4.8/include/stddef.h"
 495              		.file 4 "/usr/include/newlib/machine/_default_types.h"
 496              		.file 5 "/usr/include/newlib/sys/_stdint.h"
 497              		.file 6 "/usr/src/chibios/os/rt/ports/ARMCMx/compilers/GCC/chtypes.h"
 498              		.file 7 "/usr/src/chibios/os/rt/include/chsystypes.h"
 499              		.file 8 "/usr/src/chibios/os/rt/include/chschd.h"
 500              		.file 9 "/usr/src/chibios/os/rt/ports/ARMCMx/chcore.h"
 501              		.file 10 "/usr/src/chibios/os/rt/ports/ARMCMx/chcore_v7m.h"
 502              		.file 11 "/usr/src/chibios/os/rt/include/chtm.h"
 503              		.file 12 "/usr/src/chibios/os/rt/include/chsem.h"
 504              		.file 13 "/usr/src/chibios/os/rt/include/chmtx.h"
 505              		.file 14 "/usr/src/chibios/os/rt/include/chsys.h"
 506              		.file 15 "/usr/src/chibios/os/ext/CMSIS/include/core_cm4.h"