ARM GAS  /tmp/ccPPIFRN.s 			page 1


   1              		.syntax unified
   2              		.cpu cortex-m4
   3              		.fpu softvfp
   4              		.eabi_attribute 20, 1
   5              		.eabi_attribute 21, 1
   6              		.eabi_attribute 23, 3
   7              		.eabi_attribute 24, 1
   8              		.eabi_attribute 25, 1
   9              		.eabi_attribute 26, 1
  10              		.eabi_attribute 30, 2
  11              		.eabi_attribute 34, 1
  12              		.eabi_attribute 18, 4
  13              		.thumb
  14              		.file	"chmempools.c"
  15              		.text
  16              	.Ltext0:
  17              		.section	.gnu.lto_.jmpfuncs.29b757ec55c1d034,"",%progbits
  18 0000 789C6362 		.ascii	"x\234cb`b\300\006\244\2414\033\003;#;\023##\220y\200"
  18      6062C006 
  18      A4A1341B 
  18      033B233B 
  18      13232390 
  19 0016 818D19C4 		.ascii	"\201\215\031\304\250g``afef\000\000\027\362\001\222"
  19      A8676060 
  19      61666566 
  19      000017F2 
  19      0192
  20              		.text
  21              		.section	.gnu.lto_.inline.29b757ec55c1d034,"",%progbits
  22 0000 789C6D4F 		.ascii	"x\234mO!\016\302@\020\234\335\273\366\332\006\002-\002"
  22      210EC240 
  22      109CDDBB 
  22      F6DA0602 
  22      2D02
  23 0012 090E4750 		.ascii	"\011\016GP\325}\001\032\215\001~Q\211 )\022C\202E`I"
  23      D57D011A 
  23      8D017E51 
  23      89202912 
  23      43824560 
  24 0027 9F81AC42 		.ascii	"\237\201\254B\203\343\011\354\335\0015\\.\2673;s\231"
  24      83E309EC 
  24      DD01355C 
  24      2EB7333B 
  24      7399
  25 0039 5D06E3DF 		.ascii	"]\006\343\337I\311\327Pn@`U\017\0217\2713\023\272O\020"
  25      49C9D750 
  25      6E406055 
  25      0F1137B9 
  25      3313BA4F 
  26 004e B1B5705A 		.ascii	"\261\265pZ\335\023\304\307\0353\264\345H\0232X/hce\005"
  26      DD13C4C7 
  26      1D33B4E5 
  26      48133258 
  26      2F686365 
  27 0063 AC5AE8BA 		.ascii	"\254Z\350\272\202U\341\273\036\222\323Z<Nl\356i\304"
  27      8255E1BB 
  27      1E92D35A 
ARM GAS  /tmp/ccPPIFRN.s 			page 2


  27      3C4E6CEE 
  27      69C4
  28 0075 A0872918 		.ascii	"\240\207)\030\301v\"BC%EB\352H*\350L%\367\205\177\000"
  28      C1762242 
  28      43254542 
  28      EA482AE8 
  28      4C25F785 
  29 008b D425D3A0 		.ascii	"\324%\323\240*\324n\302 \205\364h?W\030td\372\354\272"
  29      2AD46EC2 
  29      2085F468 
  29      3F571874 
  29      64FAECBA 
  30 009f 4472987D 		.ascii	"Dr\230}5\253h\273\027\371p\315\267\036\242\327\324%"
  30      35AB68BB 
  30      17F970CD 
  30      B71EA2D7 
  30      D425
  31 00b1 6AFF3A2B 		.ascii	"j\377:+\"#\277M\223\377v\307\033\257\224\037\255"
  31      2223BF4D 
  31      93FF76C7 
  31      1BAF941F 
  31      AD
  32              		.text
  33              		.section	.gnu.lto_.pureconst.29b757ec55c1d034,"",%progbits
  34 0000 789C6362 		.ascii	"x\234cb`b\340e\200\0006\006)F+&)f+\026)V+\000\007\246"
  34      6062E065 
  34      80003606 
  34      29462B26 
  34      29662B16 
  35 001a 0123     		.ascii	"\001#"
  36              		.text
  37              		.section	.gnu.lto_chPoolObjectInit.29b757ec55c1d034,"",%progbits
  38 0000 789C6362 		.ascii	"x\234cb`b@\007\222@,\305\310\300\240\005\244\031\231"
  38      60624007 
  38      92402CC5 
  38      C8C0A005 
  38      A41999
  39 0013 19189926 		.ascii	"\031\030\231&\234c`h\344`bd\0041\030\030\031\352\231"
  39      9C636068 
  39      E4606264 
  39      04311818 
  39      19EA99
  40 0026 18EB2319 		.ascii	"\030\353#\031\301j\3273\035x\360\377\377\272mm\347\017"
  40      C16AD733 
  40      1D78F0FF 
  40      FFBA6D6D 
  40      E70F
  41 0038 32AE5206 		.ascii	"2\256R\006\252\311ed`\001\022\214l@\002d4+CKC\303\004"
  41      AAC96564 
  41      6001128C 
  41      6C400264 
  41      342B434B 
  42 004f 855CA041 		.ascii	"\205\\\240A\014\311`=!@\022dP(P\036H3\237eh\332\361"
  42      0CC9603D 
  42      21401264 
  42      5028501E 
  42      48339F65 
ARM GAS  /tmp/ccPPIFRN.s 			page 3


  43 0066 E3F90FC6 		.ascii	"\343\371\017\306D\306\205\214\254\014\332\014\253\032"
  43      44C6858C 
  43      AC0CDA0C 
  43      AB1A
  44 0074 80803B93 		.ascii	"\200\200;\223\221a6\303,\306LF\306tF\246\010 \015qg"
  44      916136C3 
  44      2CC64C46 
  44      C67446A6 
  44      08200D71 
  45 0089 12C45A06 		.ascii	"\022\304Z\006\220\010\230\001\324}z\306\253\017L\350"
  45      90089801 
  45      D47D7AC6 
  45      AB0F4CE8 
  46 0099 BA99B1EB 		.ascii	"\272\231\261\353\206hJgd\201\350\334\361\352\006\206"
  46      86684A67 
  46      6481E8DC 
  46      F1EA0686 
  47 00a9 4E16EC3A 		.ascii	"N\026\354:\231\240:\331\030\030.24>X\245\014\321\007"
  47      99A03AD9 
  47      18182E32 
  47      343E58A5 
  47      0CD107
  48 00bc 032140A3 		.ascii	"\003!@\243\201\276\001\251\322\320/-.\322/.J\326O\316"
  48      81BE01A9 
  48      D2D02F2D 
  48      2ED22F2E 
  48      4AD64FCE 
  49 00d0 C84CCACC 		.ascii	"\310L\312\314/\326\007\242\242\022\250HnjnA~~N\261^"
  49      2FD607A2 
  49      A212A848 
  49      6E6A6E41 
  49      7E7E4EB1 
  50 00e5 320300F9 		.ascii	"2\003\000\371FPJ"
  50      46504A
  51              		.text
  52              		.section	.gnu.lto_chPoolLoadArray.29b757ec55c1d034,"",%progbits
  53 0000 789CBD54 		.ascii	"x\234\275TMhcU\024>\347\336\367\2226\311\320\021\\\014"
  53      4D686355 
  53      143EE7DE 
  53      F79236C9 
  53      D0115C0C 
  54 0014 5262A888 		.ascii	"Rb\250\210\305\0263\302\300\254\006\224\001\301E7\375"
  54      C51633C2 
  54      C0AC0694 
  54      01C14537 
  54      FD
  55 0025 015D88BC 		.ascii	"\001]\210\274\276\206\364I3\011I;\264\253\336\266\301"
  55      BE86F449 
  55      3309493B 
  55      B4ABDEB6 
  55      C1
  56 0036 2A2DA54D 		.ascii	"*-\245M]T\333\202\265\376U\244b\375+\035\321\314Hm\203"
  56      5D54DB82 
  56      B5FE55A4 
  56      62FD2B1D 
  56      D1CC486D 
  57 004b B6D09DF3 		.ascii	"\266\320\235\363\263H\027\203\213\272\030\027:\0102"
ARM GAS  /tmp/ccPPIFRN.s 			page 4


  57      B3481783 
  57      8BBA1817 
  57      3A0832
  58 005a 9973EF7D 		.ascii	"\231s\357}/?\2665\013\301K\336}\367\335s\316w\316\371"
  58      2F3FB635 
  58      0BC14BDE 
  58      7DF7DD73 
  58      CE77CEF9 
  59 006e CEC961C0 		.ascii	"\316\311a\300\340\237\353\022=}>\200G\021\000}\200l"
  59      E09FEB12 
  59      3D7D3E80 
  59      4711007D 
  59      806C
  60 0080 761F60AC 		.ascii	"v\037`\254\201\241\241\017\\\037\2567\030\214O\357\000"
  60      81A1A10F 
  60      5C1FAE37 
  60      188C4FEF 
  60      00
  61 0091 888099F5 		.ascii	"\210\200\231\365\203\010\231\210\362\036\020F\0317L"
  61      83089988 
  61      F21E1046 
  61      19374C
  62 00a0 1C7D1915 		.ascii	"\034}\031\025\336g,_,\225\326s\223\337\375\214\313\354"
  62      DE672C5F 
  62      2C95D673 
  62      93DFFD8C 
  62      CBEC
  63 00b2 11840492 		.ascii	"\021\204\004\222\327\004\242\201t2iC?m\254\021\034\204"
  63      D704A281 
  63      74326943 
  63      3F6DAC11 
  63      1C84
  64 00c4 809406A5 		.ascii	"\200\224\006\2454D\237\022\300\204\254\020\263\221\004"
  64      34449F12 
  64      C084AC10 
  64      B39104
  65 00d3 72005B21 		.ascii	"r\000[!v\323N\036{\220\321\213\027\340F\003\220\201"
  65      76D34E1E 
  65      7B90D18B 
  65      17E04603 
  65      9081
  66 00e5 41103A81 		.ascii	"A\020:\201\036R\245\300H2^\334\377\301o\341\012\232"
  66      1E52A5C0 
  66      48325EDC 
  66      FFC16FE1 
  66      0A9A
  67 00f7 A460920E 		.ascii	"\244`\222\016@\001\230\276h\201\025!r\371\371\311\237"
  67      400198BE 
  67      68811521 
  67      72F9F9C9 
  67      9F
  68 0108 50E4C4D8 		.ascii	"P\344\304\330\275R\251\311A\306\240\015\245\233\227"
  68      BD52A9C9 
  68      41C6A00D 
  68      A59B97
  69 0117 D0411E51 		.ascii	"\320A\036Q/\303\250\345'.\303\"l\345\325G\270\336\227"
  69      2FC3A8E5 
ARM GAS  /tmp/ccPPIFRN.s 			page 5


  69      272EC322 
  69      6CE5D547 
  69      B8DE97
  70 012a 462C1EDC 		.ascii	"F,\036\334}\253\375m\221\317\276+\376.\225\220\000L"
  70      7DABFD6D 
  70      91CFBE2B 
  70      FE2E9590 
  70      004C
  71 013c 06AFD403 		.ascii	"\006\257\324\003%\244Z\030\261!D\243\202\340\204`\341"
  71      25A45A18 
  71      B12144A3 
  71      82E08460 
  71      E1
  72 014d 0794DD7F 		.ascii	"\007\224\335\177\201\240\254W\353BT\245\346&3;\371\300"
  72      81A0AC57 
  72      EB4254A5 
  72      E626333B 
  72      F9C0
  73 015f 57938C8F 		.ascii	"W\223\214\217A\016\353e#\357|\021:\354\303\370\357\233"
  73      410EEB65 
  73      23EF7C11 
  73      3AECC3F8 
  73      EF9B
  74 0171 DB1BD3DC 		.ascii	"\333\033\323\334\255\242W\316\374\352L\351L\253\205"
  74      ADA257CE 
  74      FCEA4CE9 
  74      4CAB85
  75 0180 1F634BB9 		.ascii	"\037cK\271\304\371\373K\337\006\233\313_\205m^\321\276"
  75      C4F9FB4B 
  75      DF069BCB 
  75      5F856D5E 
  75      D1BE
  76 0192 BDF6185A 		.ascii	"\275\366\030Z\370\021i[\370a\265\315\324\257\207\334"
  76      F811695B 
  76      F861B5CD 
  76      D4AF87DC 
  77 01a2 C2F795E0 		.ascii	"\302\367\225\340=%\320\325\265U\2142_N\217A\217\011"
  77      3D25D0D5 
  77      B5558C32 
  77      5F4E8F41 
  77      8F09
  78 01b4 AA3711FE 		.ascii	"\2527\021\376\240+\352\024\256[?\014\257\263e\261\360"
  78      A02BEA14 
  78      AE5B3F0C 
  78      AFB365B1 
  78      F0
  79 01c5 9C83FE9A 		.ascii	"\234\203\376\232\310+\3627]y\203\316\255\232\236\374"
  79      C82BF237 
  79      5D7983CE 
  79      AD9A9EFC 
  80 01d5 FC4C75F7 		.ascii	"\374Lu\367\374\337e*\336\271\033t\211=\001\212`\346"
  80      FCDF652A 
  80      DEB91B74 
  80      893D018A 
  80      60E6
  81 01e7 58BD4A79 		.ascii	"X\275JyD\212/\226\302\026~\255x\374\312\345q]\361\350"
  81      448A2F96 
ARM GAS  /tmp/ccPPIFRN.s 			page 6


  81      C2167EAD 
  81      78FCCAE5 
  81      715DF1E8 
  82 01fb 03F5B149 		.ascii	"\003\365\261I\227\312\357\036\214\337\332\334:\244@"
  82      97CAEF1E 
  82      8CDFDADC 
  82      3AA440
  83 020a BF21791C 		.ascii	"\277!y\034C\213\360\316\230\020g\311a\034\375\322G\243"
  83      438BF0CE 
  83      981067C9 
  83      611CFDD2 
  83      47A3
  84 021c 8B4C9A85 		.ascii	"\213L\232\205\331\200\326k\203O\004\2553\244U\326\017"
  84      D980D66B 
  84      834F04AD 
  84      33A455D6 
  84      0F
  85 022d 109ED4D7 		.ascii	"\020\236\324\327c\242\027\225\237-Y(B\325\346\277l\375"
  85      63A21795 
  85      9F2D5928 
  85      42D5E6BF 
  85      6CFD
  86 023f 851AE014 		.ascii	"\205\032\340\024/\307;vnro\007s\023bWd\363\324\262\217"
  86      2FC73B76 
  86      6E726F07 
  86      73136257 
  86      64F3D4B2 
  87 0254 533D2D5C 		.ascii	"S=-\\\253\313\251*<\374{\313.7Q\313~_\333\262G\301p"
  87      ABCBA92A 
  87      3CFC7BCB 
  87      2E3751CB 
  87      7E5FDBB2 
  88 026b 7946557A 		.ascii	"yFUz\367G^!P\365\225M\355s\274\007-\374\234\016e\327"
  88      F7475E21 
  88      50F5954D 
  88      ED73BC07 
  88      2DFC9C0E 
  89 0281 5ECF59F8 		.ascii	"^\317Y\370%\206\313\034\336Z\370s\327\320]\035\307\306"
  89      2586CB1C 
  89      DE5AF873 
  89      D7D05D1D 
  89      C7C6
  90 0293 3678DAC1 		.ascii	"6x\332\301\240fC,\222e\310\345\303tY\3042\373\023S\023"
  90      A066432C 
  90      9265C8E5 
  90      C37459C4 
  90      32FB1353 
  91 02a8 61CF4E72 		.ascii	"a\317Nr\035\227\234\225\347\037\315Y\272VzoL\034\315"
  91      1D979C95 
  91      E71FCD59 
  91      BA567A6F 
  91      4C1CCD
  92 02bb F83CCD60 		.ascii	"\370<\315`\034\231\304\013\226h5A\215\005A\0045z\017"
  92      1C99C40B 
  92      96683541 
  92      8D054104 
  92      357A0F
ARM GAS  /tmp/ccPPIFRN.s 			page 7


  93 02ce FDA768DA 		.ascii	"\375\247h\332so\016\222\204U\246\242.\313.d\177\273"
  93      736F0E92 
  93      8455A6A2 
  93      2ECB2E64 
  93      7FBB
  94 02e0 BEB813F2 		.ascii	"\276\270\023\362\2205l\205\362\233@V\006\243-\300\247"
  94      90356C85 
  94      F29B4056 
  94      06A32DC0 
  94      A7
  95 02f1 AF35DF04 		.ascii	"\2575\337\004\026\247Y)}\360O\257\235\223>L9\340\017"
  95      16A75929 
  95      7DF04FAF 
  95      9D933E4C 
  95      39E00F
  96 0304 60AC78E7 		.ascii	"`\254x\347\011\015\342\255n\302\317\372%Y\255\321\241"
  96      090DE2AD 
  96      6EC2CFFA 
  96      2559ADD1 
  96      A1
  97 0315 4C3A9A49 		.ascii	"L:\232I\333Q\273\337\351u\222\231(\375\322\203\356M"
  97      DB51BBDF 
  97      E9759299 
  97      28FDD283 
  97      EE4D
  98 0327 22964825 		.ascii	"\"\226H%\223\003\231gl0\222\275\257\245\332O\321v\256"
  98      93039967 
  98      6C3092BD 
  98      AFA5DA4F 
  98      D176AE
  99 033a D803437D 		.ascii	"\330\003C}\261j\213~`\211\324\263\247\350\247\222\351"
  99      B16A8B7E 
  99      6089D4B3 
  99      A7E8A792 
  99      E9
 100 034b C14CF4F9 		.ascii	"\301L\364\371\316\216\313\035\303$\262\223\351\330\253"
 100      CE8ECB1D 
 100      C324B293 
 100      E9D8AB
 101 035a 572F26C8 		.ascii	"W/&\310\310\274j\015\014\305.\234d\027\033\036\214^"
 101      C8BC6A0D 
 101      0CC52E9C 
 101      64171B1E 
 101      8C5E
 102 036c EEE87AB1 		.ascii	"\356\350z\261\253\342N\332\331\211\027\206\256\330d"
 102      ABE24EDA 
 102      D9891786 
 102      AED864
 103 037b FA54DDE0 		.ascii	"\372T\335\3402#2\256\263\035]\235\221^+\023K\245\235"
 103      322332AE 
 103      B31D5D9D 
 103      915E2B13 
 103      4BA59D
 104 038e F6C893E7 		.ascii	"\366\310\223\347\201\245\301Oq'\323#\300S\375\251\207"
 104      81A5C14F 
 104      7127D323 
 104      C053FDA9 
ARM GAS  /tmp/ccPPIFRN.s 			page 8


 104      87
 105 039f 88EECFBF 		.ascii	"\210\356\317\277"
 106              		.text
 107              		.section	.gnu.lto_chPoolAllocI.29b757ec55c1d034,"",%progbits
 108 0000 789C8552 		.ascii	"x\234\205R\275K\034A\024\177\277\371Xo\357\014\021\253"
 108      BD4B1C41 
 108      147FBFF9 
 108      586FEF0C 
 108      11AB
 109 0012 6025A942 		.ascii	"`%\251B\016\262eH\341_\2206B\354\364\026\321\225\034"
 109      0EB26548 
 109      E15F9036 
 109      42ECF416 
 109      D1951C
 110 0025 2777B10C 		.ascii	"'w\261\014\316\311U!\205I\245\021\361\013\2334\246L"
 110      CEC95521 
 110      8549A511 
 110      F10B9B34 
 110      A64C
 111 0037 21B8E914 		.ascii	"!\270\351\024\242b\027S\035\251mD\002)B\3267\263;\013"
 111      A2621753 
 111      1DA96D44 
 111      022942D6 
 111      37B33B0B 
 112 004b 970432EC 		.ascii	"\227\0042\354\316\333y;\277\217\367f\004\011\372s<\345"
 112      CEDB793B 
 112      BF8FF766 
 112      0409FA73 
 112      3CE5
 113 005d F780D311 		.ascii	"\367\200\323\021G\014\021\304\352\031Q\267\"\204\334"
 113      470C11C4 
 113      EA1951B7 
 113      2284DC
 114 006c 9C205355 		.ascii	"\234 SU7#d\206%\202<\255\204\336\260\351\340\207Mk\237"
 114      37236486 
 114      25823CAD 
 114      84DEB0E9 
 114      E0874D6B 
 115 0081 0E00FB41 		.ascii	"\016\000\373A\240e!\225\016\260<\005K\216\373\264c\314"
 115      A0652195 
 115      0EB03C05 
 115      4B8EFBB4 
 115      63CC
 116 0093 BBFEFEEF 		.ascii	"\273\376\376\357c\254\233\264\267m~e\031\220\200\215"
 116      63AC9BB4 
 116      B76D7E65 
 116      1990808D 
 117 00a3 D44131E8 		.ascii	"\324A1\3509/0\356\202P\203\316\016D\332\317\2627G\207"
 117      392F30EE 
 117      825083CE 
 117      0E44DACF 
 117      B2374787 
 118 00b7 DFD7313A 		.ascii	"\337\3271:\014\232\301\016\363)4A\272X\004\224@VxR!"
 118      0C9AC10E 
 118      F3293441 
 118      BA580494 
 118      40567852 
ARM GAS  /tmp/ccPPIFRN.s 			page 9


 119 00cc 4FBA56A4 		.ascii	"O\272V\244yh\352\031\263:\236\257\233`7\261s\364\214"
 119      7968EA19 
 119      B33A9EAF 
 119      9B6037B1 
 119      73F48C
 120 00df 676B7512 		.ascii	"gku\022\302FyJ+\337\276f)f\260\007Ms\320u\372`x<a\342"
 120      C246794A 
 120      2BDFBE66 
 120      2966B007 
 120      4D73D075 
 121 00f9 0D7ACFB6 		.ascii	"\015z\317\266\2029(ko\310\231j\300\333;\241\225\364"
 121      8239286B 
 121      6FC8996A 
 121      C0DB3BA1 
 121      95F4
 122 010b 5E0ECB55 		.ascii	"^\016\313U\030LtL\275\253\317o_\313\222\317B\007\312"
 122      184C744C 
 122      BDABCF6F 
 122      5FCB92CF 
 122      4207CA
 123 011e 9A84A4CD 		.ascii	"\232\204\244\315\011'\374i\367\272\334\030\324\351a"
 123      0927FC69 
 123      F7BADC18 
 123      D4E961
 124 012d A9592980 		.ascii	"\251Y)\200\262\320\364\014\014:\371X\315!\205\321\273"
 124      B2D0F40C 
 124      0C3AF958 
 124      CD2185D1 
 124      BB
 125 013e FF31CACC 		.ascii	"\3771\312\314^W\321\315\210\323\375\271{]\026\\q\272"
 125      5E57D1CD 
 125      88D3FDB9 
 125      7B5D165C 
 125      71BA
 126 0150 E1BF29FC 		.ascii	"\341\277)\374u\261Uu\037\227\020\273%\034\254I\323\326"
 126      75B15575 
 126      1F9710BB 
 126      251CAC49 
 126      D3D6
 127 0162 1DC7BDB6 		.ascii	"\035\307\275\266wY\326\024:\356*sw\331\351\253\277\371"
 127      7759D614 
 127      3AEE2A73 
 127      77D9E9AB 
 127      BFF9
 128 0174 65813FA7 		.ascii	"e\201?\247^:\346Q5V\260\276\303\0045\333f1\330\344\232"
 128      5E3AE651 
 128      3556B0BE 
 128      C30435DB 
 128      6631D8E4 
 129 0189 970CDC01 		.ascii	"\227\014\334\001\3621\360n\377\223\213\276\240n\177"
 129      F231F06E 
 129      FF938BBE 
 129      A06E7F
 130 0198 6DD693B9 		.ascii	"m\326\223\271.\\\022\270\241\362\352h\232\203\262\034"
 130      2E5C12B8 
 130      A1F2EA68 
 130      9A83B21C 
ARM GAS  /tmp/ccPPIFRN.s 			page 10


 131 01a8 FACBC5BC 		.ascii	"\372\313\305\274\275\014\260\034\266\312\007\321R\247"
 131      BD0CB01C 
 131      B6CA07D1 
 131      52A7
 132 01b6 1D75DA71 		.ascii	"\035u\332q\024\317'\215\244\325\211\370i\277,2\315\331"
 132      14CF278D 
 132      A4D589F8 
 132      69BF2C32 
 132      CDD9
 133 01c8 E662ABF5 		.ascii	"\346b\253\365\242\363(&\325j,,\336\002t\231\251\321"
 133      A2F32826 
 133      D56A2C2C 
 133      DE027499 
 133      A9D1
 134              		.text
 135              		.section	.gnu.lto_chPoolAlloc.29b757ec55c1d034,"",%progbits
 136 0000 789C8D54 		.ascii	"x\234\215T]H\024Q\024>\347\316\217\373\343\317\326S"
 136      5D481451 
 136      143EE7CE 
 136      8FFBE3CF 
 136      D653
 137 0012 45C81244 		.ascii	"E\310\022D\221\322\026\004>\011\205\020D\370\242\005"
 137      91D21604 
 137      3E098510 
 137      44F8A205 
 138 0022 F554B3D3 		.ascii	"\365T\263\323\242\023\256\273\354\252\344\223w\305\210"
 138      A213AEBB 
 138      ECAAE493 
 138      77C588
 139 0031 C2070B04 		.ascii	"\302\007\013\004K$\177\352\245 \313\036*\260\332\010"
 139      4B247FEA 
 139      A520CB1E 
 139      2AB0DA08 
 140 0041 29FB317C 		.ascii	")\3731|(\264\037\260z\2100(\221\250\350g;\367\316\314"
 140      28B41FB0 
 140      7A883028 
 140      91A8E867 
 140      3BF7CECC 
 141 0055 BA5BA9CD 		.ascii	"\272[\251\315\356\314\275\367\334{\276\357;\347\314"
 141      EECCBDF7 
 141      DC7BBEEF 
 141      3BE7CC
 142 0064 19060CFE 		.ascii	"\031\006\014\376\274v\323]\245\001\274\245\021\013\000"
 142      BC76D35D 
 142      A501BCA5 
 142      110B00
 143 0073 59D70440 		.ascii	"Y\327\004@\312\303\230\322W\011\334\247\316\007\200"
 143      CAC398D2 
 143      5709DCA7 
 143      CE0780
 144 0082 172AA8DB 		.ascii	"\027*\250\333f\225i\275\302\254\177\026f\3155\353\210"
 144      669569BD 
 144      C2AC7F16 
 144      66CD35EB 
 144      88
 145 0093 6202086D 		.ascii	"b\002\010mLQ5\035\333\366\243\000\307u0\300\371\251"
 145      4C51351D 
ARM GAS  /tmp/ccPPIFRN.s 			page 11


 145      DBF6A300 
 145      C77530C0 
 145      F9A9
 146 00a5 99B18BE3 		.ascii	"\231\261\213\343x\232\247;\372\371\217L\006\321B\022"
 146      789AA73B 
 146      FAF98F4C 
 146      06D14212 
 147 00b5 52866022 		.ascii	"R\206`\"\354\243\005\006\345\300\324|e\303,=\223\311"
 147      ECA30506 
 147      E5C0D47C 
 147      65C32C3D 
 147      93C9
 148 00c7 BC7C7AFD 		.ascii	"\274|z\375\315M\\\271B\301(\202\016\006\016\020h\001"
 148      CD4D5CB9 
 148      42C12882 
 148      0E060E10 
 148      6801
 149 00d9 58A878E8 		.ascii	"X\250x\350\241z\351\241\371\034\263\337\031\351\322"
 149      A17AE9A1 
 149      F91CB3DF 
 149      19E9D2
 150 00e8 A083F3AE 		.ascii	"\240\203\363\256\240\2736\245\234=\364\024:\367\"\023"
 150      A0BB36A5 
 150      9C3DF414 
 150      3AF72213 
 151 00f8 A3320EED 		.ascii	"\2432\016\355\036\000G\343\344\334\265\362<\215:\203"
 151      1E0047E3 
 151      E4DCB5F2 
 151      3C8D3A83 
 152 0108 F0721A85 		.ascii	"\360r\032\205M\017\322d\002\332\347\246\356\216t*\016"
 152      4D0FD264 
 152      02DAE7A6 
 152      EE8E742A 
 152      0E
 153 0119 B1AB203D 		.ascii	"\261\253 =\364\375c\200\031xN\312pl_\272G\375k\263\253"
 153      F4FD6380 
 153      19784ECA 
 153      706C5FBA 
 153      47FD6BB3 
 154 012e E32FA92A 		.ascii	"\343/\251*\006\016\241Fd\202\220\321\255\310\364\321"
 154      060EA146 
 154      648290D1 
 154      ADC8F4D1 
 155 013e 6F8CA6B4 		.ascii	"o\214\246\264\257\330\245+\205g\330\307{\266[T\252\\"
 155      AFD8A52B 
 155      8567D8C7 
 155      7BB65B54 
 155      AA5C
 156 0150 FA85FD69 		.ascii	"\372\205\375ig\337c\013\314\0151\375\342\301C\344\247"
 156      67DF630B 
 156      CC0D31FD 
 156      E2C143E4 
 156      A7
 157 0161 78EA5326 		.ascii	"x\352S&Sb\241\227\301k\\.\300:\241\3441\264?\237\312"
 157      5362A197 
 157      C16B5C2E 
 157      C03AA1E4 
ARM GAS  /tmp/ccPPIFRN.s 			page 12


 157      31B43F9F 
 158 0176 A4D189CD 		.ascii	"\244\321\211\315A\233\277\327\271\232\367\267w\361_"
 158      419BBFD7 
 158      B99AF7B7 
 158      77F15F
 159 0185 942F2AA9 		.ascii	"\224/*\251\201\203R\372Rpn\320\374]\367*\003\207eR\334"
 159      818352FA 
 159      52706ED0 
 159      FC5DF72A 
 159      03876552 
 160 019a D0559B4F 		.ascii	"\320U\233O/\203\013\234\363\364\317c\305T\344^8\223"
 160      2F830B9C 
 160      F3F4CF63 
 160      C554E45E 
 160      3893
 161 01ac E23C60A1 		.ascii	"\342<`\241\217\224\010D\257D\011\243t\274J\216v\220"
 161      8F940844 
 161      AF4409A3 
 161      74BC4A8E 
 161      7690
 162 01be 6982BB42 		.ascii	"i\202\273B+\003G\010\224P\000\356C\307\207;'O(\366\006"
 162      2B034708 
 162      945000EE 
 162      43C7873B 
 162      274F28F6 
 163 01d3 99847B9E 		.ascii	"\231\204{\236\226\275\024\\_\245\"\302\273>8\227=XP"
 163      96BD145C 
 163      5FA522C2 
 163      BB3E3897 
 163      3D5850
 164 01e6 069B72A9 		.ascii	"\006\233r\251\375\216\257\342Pc\0165\371\216_\366\331"
 164      FD8EAFE2 
 164      50630E35 
 164      F98E5FF6 
 164      D9
 165 01f7 9EB6705E 		.ascii	"\236\266p^\362\177\262\353\354\022\012\025*\314\007"
 165      F27FB2EB 
 165      EC120A15 
 165      2ACC07
 166 0206 A48AAF83 		.ascii	"\244\212\257\203s\350\252\360H\025\205\213\"\261\034"
 166      73E8AAF0 
 166      4815858B 
 166      22B11C
 167 0215 1522D454 		.ascii	"\025\"\324TE\326S\034+\314\017T\203\263E\222\242gh:"
 167      45D6531C 
 167      2BCC0F54 
 167      83B34592 
 167      A267683A 
 168 0229 1BA85752 		.ascii	"\033\250WR\024-J\241\344P<\201\216\364\032\327\221\016"
 168      142D4AA1 
 168      E4503C81 
 168      8EF41AD7 
 168      910E
 169 023b 7A44045E 		.ascii	"zD\004^\013\213E\372Y~\362}.\253\236\323f\356\246_\326"
 169      0B8B45FA 
 169      597EF27D 
 169      2EAB9ED3 
ARM GAS  /tmp/ccPPIFRN.s 			page 13


 169      66EEA65F 
 170 0250 6BE6C651 		.ascii	"k\346\306Q\335.|\266e!\277\035\337\217\376\321\216\006"
 170      DD2E7CB6 
 170      6521BF1D 
 170      DF8FFED1 
 170      8E06
 171 0262 9E5FF6FD 		.ascii	"\236_\366\375\222\015\001K\366\343\3547\321\217\267"
 171      920D014B 
 171      F6E3EC37 
 171      D18FB7
 172 0271 F2FB71D6 		.ascii	"\362\373q\326_\232\375f,4\346\253\234\306\224I0\011"
 172      5F9AFD66 
 172      2C34E6AB 
 172      9CC69449 
 172      3009
 173 0283 FCEFDE34 		.ascii	"\374\357\3364\360\"M\262\324n/\032x\011KmY\223\220\232"
 173      F0224DB2 
 173      D46E2F1A 
 173      78094B6D 
 173      5993909A 
 174 0297 198DD850 		.ascii	"\031\215\330P2\003\000\323 ^+\345\303\355\2034\250\""
 174      320300D3 
 174      205E2BE5 
 174      C3ED8334 
 174      A822
 175 02a9 69DAA3C9 		.ascii	"i\332\243\311z\361\215B\2214\201\2601\324\234L\204\222"
 175      7AF18D42 
 175      913481B0 
 175      31D49C4C 
 175      8492
 176 02bb 093364D6 		.ascii	"\0113d\326[a+\226\014\321?\321\344X\242\221h<\026kH"
 176      5B612B96 
 176      0CD13FD1 
 176      E458A291 
 176      683C166B 
 177 02d0 6E36418D 		.ascii	"n6A\215\205\017\307\267.r:\036K4%C;j\252\253\252\217"
 177      850FC7B7 
 177      2E723A1E 
 177      4B342543 
 177      3B6AAAAB 
 178 02e6 D096194B 		.ascii	"\320\226\031KD\016\264TD7\327\203\326b44G\266\375\313"
 178      440EB454 
 178      4437D783 
 178      D6623434 
 178      47B6FDCB 
 179 02fa 2F72A429 		.ascii	"/r\244)TU]\273\2536d5\232\015\315\207\"!\351gFw67\232"
 179      54555DBB 
 179      AB366435 
 179      9A0DCD87 
 179      2221E967 
 180 0313 E4BA6111 		.ascii	"\344\272a\021\262\354\351\372dk\222\316\005\252kk\202"
 180      B2ECE9FA 
 180      646B92CE 
 180      05AA6B6B 
 180      82
 181 0324 61231989 		.ascii	"a#\031\211'\254\362\340\372-\300\022P@\312c\211V`\321"
 181      27ACF2E0 
ARM GAS  /tmp/ccPPIFRN.s 			page 14


 181      FA2DC012 
 181      5040CA63 
 181      895660D1 
 182 0338 F86F656B 		.ascii	"\370oek\206\344"
 182      86E4
 183              		.text
 184              		.section	.gnu.lto_chPoolFreeI.29b757ec55c1d034,"",%progbits
 185 0000 789C8551 		.ascii	"x\234\205Q\261J\003A\020}o7AQ\374\200t! \210\007\271"
 185      B14A0341 
 185      107D6F37 
 185      4151FC80 
 185      74212088 
 186 0016 9F89A085 		.ascii	"\237\211\240\205Er\310%\340q\307\235\326\331\004?\340"
 186      4572C825 
 186      E071C79D 
 186      D6D9043F 
 186      E0
 187 0027 B011B431 		.ascii	"\260\021\2641\226\026\261\021\321`\2216\204\010vb\025"
 187      9616B111 
 187      D1609136 
 187      84087662 
 187      15
 188 0038 6BBFC0C6 		.ascii	"k\277\300\306s\366.\021b\343\260;3\2733\357\275YVA\341"
 188      73F62E11 
 188      62E3B03B 
 188      33BB33EF 
 188      BD595641 
 189 004d AF55641F 		.ascii	"\257Ud\037\022\250K\244\006U\372\002\364\326\025i\023"
 189      12A84BA4 
 189      0655FA02 
 189      F4D61569 
 189      13
 190 005e 105DC5EE 		.ascii	"\020]\305\356\001\363\336;5\236g\331\360az\377\314\241"
 190      01F3DE3B 
 190      359E67D9 
 190      F0617AFF 
 190      CCA1
 191 0070 5A230342 		.ascii	"Z#\003B\213c\011\235\274\243\2143c\322j\015\003c\316"
 191      8B63099D 
 191      BCA38C33 
 191      63D26A0D 
 191      0363CE
 192 0083 C74FD38B 		.ascii	"\307O\323\213\212\271\356\247\346;\313(\015\012\016"
 192      8AB9EEA7 
 192      E63BCB28 
 192      0D0A0E
 193 0092 E111FB72 		.ascii	"\341\021\373r`5\017\252\264:M@\231\320\313\271\032\342"
 193      60350FAA 
 193      B43A4D40 
 193      99D0CBB9 
 193      1AE2
 194 00a4 ED087B72 		.ascii	"\355\010{r%QO\240\232\034\260\214&oX\203O\251\317\320"
 194      25514FA0 
 194      9A1CB08C 
 194      266F5883 
 194      4FA9CFD0 
 195 00b8 7F7F1C7D 		.ascii	"\177\177\034},\012>K\016vE\350\012\227\302\255}j\253"
ARM GAS  /tmp/ccPPIFRN.s 			page 15


 195      2C0A3E4B 
 195      0E7645E8 
 195      0A97C2AD 
 195      7D6AAB
 196 00cb 5148B4B8 		.ascii	"QH\264\270\324\020\320$\335( \016n\215\330\326/\250"
 196      D410D024 
 196      DD28200E 
 196      6E8DD8D6 
 196      2FA8
 197 00dd 2CBC1684 		.ascii	",\274\026\204\005\250H|Kbqo\243/\256 7\377\221\313\307"
 197      05A8487C 
 197      4B62716F 
 197      A32FAE20 
 197      37FF91CB 
 198 00f2 7C456FFE 		.ascii	"|Eo\376\271]\340\226\326\220\202<\313~\310\216{\232"
 198      B95DE096 
 198      D690823C 
 198      CB7EC88E 
 198      7B9A
 199 0104 C46E127B 		.ascii	"\304n\022{\256\327\356\264:a\342\312\212O\0267\301Q"
 199      AED7EEB4 
 199      3A61E2CA 
 199      8A4F1637 
 199      C151
 200 0116 1085E171 		.ascii	"\020\205\341qR\367\240\243v\364\003\352\323^\015"
 200      52F7A0A3 
 200      76F403EA 
 200      D35E0D
 201              		.text
 202              		.section	.gnu.lto_chPoolFree.29b757ec55c1d034,"",%progbits
 203 0000 789C8D53 		.ascii	"x\234\215SMh\023Q\020\236y\2334\251Q\314U\220\020\012"
 203      4D681351 
 203      109E799B 
 203      34A951CC 
 203      5590100A 
 204 0014 52B1A5AB 		.ascii	"R\261\245\253 xU\012\202\207\\\232\012z\020\331\254"
 204      2078550A 
 204      82875C9A 
 204      0A7A10D9 
 204      AC
 205 0025 A159C976 		.ascii	"\241Y\311v\227\335\244\264\247\276\204\036%\204\210"
 205      97DDA4B4 
 205      A7BE841E 
 205      258488
 206 0034 E02F583D 		.ascii	"\340/X=)j1\026Zj\017\013\242\020\212\205\202\007\221"
 206      296A3116 
 206      5A6A0F0B 
 206      A2108A85 
 206      820791
 207 0047 A2111551 		.ascii	"\242\021\025Q\013\265\307\212\020g\337&1\251\255\351"
 207      0BB5C78A 
 207      1067DF26 
 207      31A9ADE9 
 208 0057 23BBEF6F 		.ascii	"#\273\357o\276\371f\276|\313\200\301\326q\200\236\367"
 208      BEF966BE 
 208      7CCB80C1 
 208      D671809E 
ARM GAS  /tmp/ccPPIFRN.s 			page 16


 208      F7
 209 0068 12C0579A 		.ascii	"\022\300W\232Q\002d\305e\200\\\220!\272\013@\230d8y"
 209      510264C5 
 209      65805C90 
 209      21BA0B40 
 209      98643879 
 210 007c 1E45EC0C 		.ascii	"\036E\354\014s\252\265\332\223Rav\015\347\331^\011u"
 210      73AAB5DA 
 210      93526176 
 210      0DE7D95E 
 210      0975
 211 008e 041FBD30 		.ascii	"\004\037\2750\000\232\210\360\303\024\347\305(\200*"
 211      009A88F0 
 211      C314E7C5 
 211      28802A
 212 009d B6C3F476 		.ascii	"\266\303\364v\263\234E\346\316R\005\362A\200\036\230"
 212      B39C45E6 
 212      CE5205F2 
 212      41801E98 
 213 00ad E6BC549D 		.ascii	"\346\274T\235\333\230\353\277\301\235\251\273\374w\255"
 213      DB98EBBF 
 213      C19DA9BB 
 213      FC77AD
 214 00bc 86A82105 		.ascii	"\206\250!\005]@\027y\2166,*&\311\327^\255{\206\224\037"
 214      5D401779 
 214      8E362C2A 
 214      26C9D75E 
 214      AD7B8694 
 215 00d1 9621BFB1 		.ascii	"\226!\277\261\364\242|EjRz\013g\375\327z\230)x\017{"
 215      F4A27C45 
 215      6A527A0B 
 215      67FDD77A 
 215      9829780F 
 216 00e6 9AF5389F 		.ascii	"\232\3658\237\256-\206\0166w\225\227\324\256\202\323"
 216      AE2D860E 
 216      36779597 
 216      D4AE82D3 
 217 00f6 E8273297 		.ascii	"\350'2\227\220\321#\201h\026\301\241%\251$yRE`\005\357"
 217      90D12381 
 217      6816C1A1 
 217      25A92479 
 217      52456005 
 218 010b F0EB2735 		.ascii	"\360\353'5\364\265\321\377\275\177S\277\367{\005\266"
 218      F4B5D1FF 
 218      BD7F53BF 
 218      F77B05B6 
 219 011b B6E85C2D 		.ascii	"\266\350\\-,!/\361\334\317Zm\277\206]\014V\261S\203"
 219      2C212FF1 
 219      DCCF5A6D 
 219      BF865D0C 
 219      56B15383 
 220 012f 236E25AD 		.ascii	"#n%\255Ix\231\363n\241\221\244a\200\301\207]\244\360"
 220      497899F3 
 220      6EA191A4 
 220      6180C187 
 220      5DA4F0
 221 0142 8914D5D5 		.ascii	"\211\024\325\325/\241\272:\333\244\242\372?wL\325\320"
ARM GAS  /tmp/ccPPIFRN.s 			page 17


 221      2FA1BA3A 
 221      DBA4A2FA 
 221      3F774CD5 
 221      D0
 222 0153 8C3FBB1D 		.ascii	"\214?\273\035Qp\2064U\360\261P\266\241\237\000(X\246"
 222      51708634 
 222      55F0B150 
 222      B6A19F00 
 222      2858A6
 223 0166 43C1FB1A 		.ascii	"C\301\373\032\362\357\346\027>\322?\360\224\356G0\320"
 223      F2EFE617 
 223      3ED23FF0 
 223      94EE4730 
 223      D0
 224 0177 074788EC 		.ascii	"\007G\210\354\026\334\314q\036\3260H\015\272L]\"{\002"
 224      16DCCC71 
 224      1ED63048 
 224      0DBA4C5D 
 224      227B02
 225 018a 057AD653 		.ascii	"\005z\326S\217\260\225\342\036\017\331\007\0179\215"
 225      8FB095E2 
 225      1E0FD907 
 225      0F398D
 226 0199 7DADD86E 		.ascii	"}\255\330nbp\261P\307b\023K<\036\374\355\302&\266%\010"
 226      6270B150 
 226      C762134B 
 226      3C1EFCED 
 226      C226B625 
 227 01ae ED8EBCA1 		.ascii	"\355\216\274\241Y\213=\277-n\261\247\202\367\205U:\372"
 227      598B3DBF 
 227      2D6EB1A7 
 227      82F78555 
 227      3AFA
 228 01c0 13FEEBCF 		.ascii	"\023\376\353\317\357\233\256?\237\267\373\363G(\322"
 228      EF9BAE3F 
 228      9FB7FBF3 
 228      4728D2
 229 01cf F2F5348C 		.ascii	"\362\3654\214\372\252\305\250B!\225J\377\327\253\012"
 229      FAAAC5A8 
 229      4221954A 
 229      FFD7AB0A 
 230 01df 3EA04593 		.ascii	">\240E\223\272\341M\005\037a\304+k\005r\325B\257\227"
 230      BAE14D05 
 230      1F61C42B 
 230      6B0572D5 
 230      42AF97
 231 01f2 AA318629 		.ascii	"\2521\206)\232>J7\364\260\234\265-\331\266TYMi\011\315"
 231      9A3E4A37 
 231      F4B09CB5 
 231      2DD9B654 
 231      594D6909 
 232 0207 B065FA59 		.ascii	"\260e\372Y\231\372\211\236\324M\303H\333\003*\034\333"
 232      99FA899E 
 232      D44DC348 
 232      DB032A1C 
 232      DB
 233 0218 21D034AC 		.ascii	"!\3204\254\214-\237\032\212\015\306\306\351J5\254\344"
ARM GAS  /tmp/ccPPIFRN.s 			page 18


 233      8C2D9F1A 
 233      8A0DC6C6 
 233      E94A35AC 
 233      E4
 234 0229 C5B113FA 		.ascii	"\305\261\023\372@\012\374cJ:\233<\276\035.9\236\221"
 234      400AFC63 
 234      4A3A9B3C 
 234      BE1D2E39 
 234      9E91
 235 023b 0763F133 		.ascii	"\007c\3613qY\033U\323\331KIY\340T\375tvT%h\357\016d"
 235      71591B55 
 235      D3D94B49 
 235      59E054FD 
 235      74765425 
 236 0253 CDE8943D 		.ascii	"\315\350\224=aS\\8\026\037\212&\024;iZZ\177\364\320"
 236      61535C38 
 236      161F8A26 
 236      143B695A 
 236      5A7FF4D0 
 237 0267 51601604 		.ascii	"Q`\026\004\250h\303\232\000\246\233>#q\331\224\314\224"
 237      A868C39A 
 237      00A69B3E 
 237      2371D994 
 237      CC94
 238 0279 F907E651 		.ascii	"\371\007\346Q3\224"
 238      3394
 239              		.text
 240              		.section	.gnu.lto_.symbol_nodes.29b757ec55c1d034,"",%progbits
 241 0000 789C4DC7 		.ascii	"x\234M\307\273\015\200@\020\003Q\333\2674K\023N/D\""
 241      BB0D8040 
 241      100351DB 
 241      B7344B13 
 241      4E2F4422 
 242 0014 A71C42BA 		.ascii	"\247\034B\272\340w\"\243\001\010\220\330IFO\020z|i\245"
 242      E07722A3 
 242      010890D8 
 242      49464F10 
 242      7A7C69A5 
 243 0028 816101EC 		.ascii	"\201a\001\354\251R\033\315\304\235V\342A\227\304\223"
 243      A9521BCD 
 243      C49D56E2 
 243      4197C493 
 244 0038 8EC44677 		.ascii	"\216\304Fw?C\030\347KQp\277\303\003Hl#\004"
 244      3F4318E7 
 244      4B5170BF 
 244      C303486C 
 244      2304
 245              		.text
 246              		.section	.gnu.lto_.refs.29b757ec55c1d034,"",%progbits
 247 0000 789C6362 		.ascii	"x\234cb`b`d\200\002\000\000F\000\006"
 247      60626064 
 247      80020000 
 247      460006
 248              		.text
 249              		.section	.gnu.lto_.decls.29b757ec55c1d034,"",%progbits
 250 0000 789C9D58 		.ascii	"x\234\235Xyl\024U\030\177oz\354.\273-\305DRc\"E\305"
 250      796C1455 
ARM GAS  /tmp/ccPPIFRN.s 			page 19


 250      187F6F7A 
 250      EC2EBB2D 
 250      C5445263 
 251 0017 03A56B15 		.ascii	"\003\245k\025\017\376\261\"Qi\"J$$&\232\214\303vtW\367"
 251      0FFEB122 
 251      5169224A 
 251      2424269A 
 251      8CC37674 
 252 002d CAEE16AD 		.ascii	"\312\356\026\255\377\360\226B\003\236m\221\000\342\261"
 252      FFF09642 
 252      039E6D91 
 252      00E2B1
 253 003c 553C106C 		.ascii	"U<\020l\225\2531\022\334\240Rl=jL\360\010\342z\213\032"
 253      95AB3112 
 253      DCA0526C 
 253      3D6A4CF0 
 253      08E27A8B 
 254 0051 2D2206D4 		.ascii	"-\"\006\324\260~\357\230\335\231\327\231\355\256\223"
 254      B07EEF98 
 254      DD99D799 
 254      EDAE93
 255 0060 7E3B6F66 		.ascii	"~;of\276\343\367\375\2767\337{S\005)h\\A(\017G\363\231"
 255      BEE3F7FD 
 255      BE37DF7B 
 255      53052968 
 255      5C41280F 
 256 0077 084DAB42 		.ascii	"\010M\253B\310\205\020\272\026\004n\243V\220~\304\217"
 256      C88510BA 
 256      16046EA3 
 256      56907EC4 
 256      8F
 257 0088 5A906D20 		.ascii	"Z\220m # \207@\016\203\344@\216\242\211\007\325\253"
 257      23208740 
 257      0E83E440 
 257      8EA28907 
 257      D5AB
 258 009a 01D90D32 		.ascii	"\001\331\0152\0102\000\262E\370\202\020h\027\310^\220"
 258      083200B2 
 258      45F88210 
 258      6817C85E 
 258      90
 259 00ab 7D2058E8 		.ascii	"} X\350W\203\274\015\362.\3100\310o\222O\032\267\316"
 259      5783BC0D 
 259      F22EC830 
 259      C86F924F 
 259      1AB7CE
 260 00be E49762AB 		.ascii	"\344\227b\253\007\361\011\377'AN#\356P\001\331#b\016"
 260      07F109FF 
 260      27414E23 
 260      EE5001D9 
 260      23620E
 261 00d1 8A5CDE10 		.ascii	"\212\\\336\0201=\302W\025\346\330\335p\366\201L\305"
 261      313DC257 
 261      15E6D8DD 
 261      70F6814C 
 261      C5
 262 00e2 3C9F4638 		.ascii	"<\237F8\237\2159\017\037\203|\0022\006r\016\334;\017"
ARM GAS  /tmp/ccPPIFRN.s 			page 20


 262      9F8D390F 
 262      1F837C02 
 262      3206720E 
 262      DC3B0F
 263 00f5 E47C9059 		.ascii	"\344|\220Y\330\212\355\220\300a\306D1\276\"\360\032"
 263      D88AED90 
 263      C061C644 
 263      31BE22F0 
 263      1A
 264 0106 1CEC111C 		.ascii	"\034\354\021\034P\\\317\211\234w\011l\373\004>,\374"
 264      505CCF89 
 264      9C77096C 
 264      FB043E2C 
 264      FC
 265 0117 51CC5F80 		.ascii	"Q\314_\200\\ \305\242\274O-\021\313\314\303\200\210"
 265      5C20C5A2 
 265      BC4F2D11 
 265      CBCCC380 
 265      88
 266 0128 5D4E5C97 		.ascii	"]N\\\227\360m\346\343\220\211\017\012\343\210T\023\312"
 266      F06DE6E3 
 266      90890F0A 
 266      E3885413 
 266      CA
 267 0139 57AD886F 		.ascii	"W\255\210o`1\347\252\230\342`\241O\353\377\003\310\367"
 267      6031E7AA 
 267      98E260A1 
 267      4FEBFF03 
 267      C8F7
 268 014b 209748B9 		.ascii	" \227H\271\321zL\021\376N\232|\232\363i5\345d\366\357"
 268      D17A4C11 
 268      FE4E9A7C 
 268      9AF36935 
 268      E564F6EF 
 269 015f 42A5EB49 		.ascii	"B\245\353Iu\177\001\371U\312\301\213\036\"d%\311t\223"
 269      757F01F9 
 269      55CAC18B 
 269      1E226425 
 269      C97493
 270 0172 8507EBA7 		.ascii	"\205\007\353\247\243\365\004\016\270 8\245\341V/\272"
 270      A3F5040E 
 270      B82038A5 
 270      E1562FBA 
 271 0182 1D6BB8DE 		.ascii	"\035k\270\336\203\232\330\300\347a\324!\244\341\347"
 271      839AD8C0 
 271      E761D421 
 271      A4E1E7
 272 0191 F07436AA 		.ascii	"\360t6\252b\216aV\255)zA\266V\263\320\026Bzr\253\177"
 272      628E6156 
 272      AD297A41 
 272      B656B3D0 
 272      16427A72 
 273 01a7 39A510E2 		.ascii	"9\245\020\342\326\360\026\354\001\333+0\232\215\266"
 273      D6F016EC 
 273      01DB2B30 
 273      9A8DB6
 274 01b6 42CC1E42 		.ascii	"B\314\036B\366\237\203&\036\032\256\361L\270\326\360"
ARM GAS  /tmp/ccPPIFRN.s 			page 21


 274      F69F8326 
 274      1E1AAEF1 
 274      4CB8D6F0 
 275 01c6 4B7836E2 		.ascii	"Kx6\342q\330c1\240/\362T\252\263\264\252`P\002\313\272"
 275      71D86331 
 275      A02FF254 
 275      AAB3B4AA 
 275      605002CB 
 276 01db EEA18B19 		.ascii	"\356\241\213\031\226~\354\005,\021\\p<\201\031\236\261"
 276      967EEC05 
 276      2C115C70 
 276      3C81199E 
 276      B1
 277 01ec 131BAF80 		.ascii	"\023\033\257\200\275\331\324\014Wz6\003=C2\271\334\211"
 277      BDD9D40C 
 277      577A3603 
 277      3D4332B9 
 277      DC89
 278 01fe E10FB44D 		.ascii	"\341\017\264M$\273\212\344\363+\220D\373\265g:\006\332"
 278      24BB8AE4 
 278      F32B9044 
 278      FBB5673A 
 278      06DA
 279 0210 6EA5DD02 		.ascii	"n\245\335\002\361\014\324K\2754\231\012p\227a\357+&"
 279      F10CD44B 
 279      BD34990A 
 279      709761EF 
 279      2B26
 280 0222 BDE1E1E1 		.ascii	"\275\341\341\341\026\226\364 >\003\274\214ak\326\223"
 280      1696F420 
 280      3E03BC8C 
 280      616BD693 
 281 0232 79A12876 		.ascii	"y\241(v\200%\267a>I\266\367\200\217T\363\373\310\201"
 281      8025B761 
 281      3E49B6F7 
 281      808F54F3 
 281      FBC881
 282 0245 083866A2 		.ascii	"\0108f\242\014\240\315\256\353~\372,\222\331\217\355"
 282      0CA0CDAE 
 282      EB7EFA2C 
 282      92D98FED 
 283 0255 C0676A9D 		.ascii	"\300gj\235\246\217\202\2160\244{\344\330\307\264&~w"
 283      A68F828E 
 283      30A47BE4 
 283      D8C7B426 
 283      7E77
 284 0267 F2C8C78F 		.ascii	"\362\310\307\217\276\207I\237O\303\273Y\275\177.8\264"
 284      BE87499F 
 284      4FC3BB59 
 284      BD7F2E38 
 284      B4
 285 0278 0B288696 		.ascii	"\013(\206\226I$\037Ne\242\376\305\241\240?X\230\035"
 285      49241F4E 
 285      65A2FEC5 
 285      A1A03F58 
 285      981D
 286 028a 958711A8 		.ascii	"\225\207\021\250\327\037x\212\361e\2742\177W\354\257"
ARM GAS  /tmp/ccPPIFRN.s 			page 22


 286      D71F788A 
 286      F165BC32 
 286      7F57ECAF 
 287 029a C9E26FE3 		.ascii	"\311\342o\343\001_\217f\314\371\265J\031\316\334\245"
 287      015F8F66 
 287      CCF9B54A 
 287      19CEDCA5 
 288 02aa 38301DE6 		.ascii	"80\035\346\231\241\341\235x\026\374\356\3023\341w/\373"
 288      99A1E19D 
 288      7816FCEE 
 288      C233E177 
 288      2FFB
 289 02bc DD07BF93 		.ascii	"\335\007\277\223r7P\344N\314r\236\270\371\272\237\353"
 289      723750E4 
 289      4ECC729E 
 289      B8F9BA9F 
 289      EB
 290 02cd 58DE7305 		.ascii	"X\336s\005\255W\254S\371|\364<!}\364U\373\032?\321E"
 290      AD57AC53 
 290      F97CF43C 
 290      217DF455 
 290      FB1A3FD1 
 291 02e2 1672DF0A 		.ascii	"\026r\337\012z\221\351m\3033l1\010\004\334\230|\242"
 291      7A91E96D 
 291      C3336C31 
 291      0804DC98 
 291      7CA2
 292 02f4 2F3478DF 		.ascii	"/4x\337:\211\031\003)\3146\001\307\330\340x`\022C\221"
 292      3A891903 
 292      29CC3601 
 292      C7D8E078 
 292      60124391 
 293 0308 CD05E805 		.ascii	"\315\005\350\005\372\012<JV7`\326\004\220\260\2620\274"
 293      FA0A3C4A 
 293      563760D6 
 293      0490B0B2 
 293      30BC
 294 031a 1F2BE61B 		.ascii	"\037+\346\033\274\235d\373\206}=\351\\>?\243\374V2j"
 294      BC9D64FB 
 294      867D3DE9 
 294      5C3E3FA3 
 294      FC56326A 
 295 032e 6D253CED 		.ascii	"m%<\355\302E\253\327\256\000\022\341C\266\204\223\315"
 295      C245ABD7 
 295      AE0012E1 
 295      43B68493 
 295      CD
 296 033f BAA05AC3 		.ascii	"\272\240Z\303\357\000Z\015\217\224E\365[\324\254\225"
 296      EF005A0D 
 296      8F9445F5 
 296      5BD4AC95 
 297 034f 1236CCFC 		.ascii	"\0226\314\374:[\265\026\215\216\027\353\363\336$V\""
 297      3A5BB516 
 297      8D8E17EB 
 297      F3DE2456 
 297      22
 298 0360 075B9A47 		.ascii	"\007[\232Gd\232?\232Hsn<{lx\024\032\010\3717\237\357"
ARM GAS  /tmp/ccPPIFRN.s 			page 23


 298      649A3F9A 
 298      48736E3C 
 298      7B6C7814 
 298      1A08F937 
 299 0376 72CB5DBB 		.ascii	"r\313]\273\304b\371\251\035\325\022\227\243\366\\n\220"
 299      C462F9A9 
 299      1DD51297 
 299      A3F65C6E 
 299      90
 300 0387 B93C549A 		.ascii	"\271<T\232K\221\337J2\330\275\272\241Z\324\321\331J"
 300      4B91DF4A 
 300      32D8BDBA 
 300      A15AD4D1 
 300      D94A
 301 0399 00FCDC76 		.ascii	"\000\374\334vR}1\"&\025\317@A\237\331c\\/c<\374\277"
 301      527D3122 
 301      2615CF40 
 301      419FD963 
 301      5C2F633C 
 302 03af 303A5909 		.ascii	"0:Y\011\214_\332Vd\350a\347\212\224\230\374_\2271\371"
 302      8C5FDA56 
 302      64E861E7 
 302      8A9498FC 
 302      5F9731F9 
 303 03c3 A5027D67 		.ascii	"\245\002}g\237\374:9\371\\Y\223}\2500\331\307\231_g"
 303      9FFC3A39 
 303      F95C5993 
 303      7DA830D9 
 303      C7995F67 
 304 03d7 AB56E7E6 		.ascii	"\253V\347\346\220\223g\355w\266\034\365}\310\353\370"
 304      909367ED 
 304      77B61CF5 
 304      7DC8EBF8 
 305 03e7 EC753C71 		.ascii	"\354u<q\005\235\260\317\245W\316\345hY\271\354\026\271"
 305      059DB0CF 
 305      A557CEE5 
 305      6859B9EC 
 305      16B9
 306 03f9 68F8C749 		.ascii	"h\370\307I\254J\344rT\316\345gk.\347\242~26\226}\363"
 306      AC4AE472 
 306      54CEE567 
 306      6B2EE7A2 
 306      7E323696 
 307 040f C05A8249 		.ascii	"\300Z\202I7I\217\303No\032\352a{\225\215\365b\377\231"
 307      37498FC3 
 307      4E6F1AEA 
 307      617B958D 
 307      F562FF99 
 308 0423 7B21DBB8 		.ascii	"{!\333\270\261\270\201p\033\321\351>\233o\027\300@)"
 308      B1B88170 
 308      1BD1E93E 
 308      9B6F17C0 
 308      4029
 309 0435 2893C646 		.ascii	"(\223\306F{]\015\037c\213\327\037\274e\260G|l\214\362"
 309      7B5D0D1F 
 309      638BD71F 
 309      BC65B047 
ARM GAS  /tmp/ccPPIFRN.s 			page 24


 309      7C6C8CF2 
 310 0449 6C4B4DAA 		.ascii	"lKM\252\244\035|\021~iS\021t\0156\242Nc\312\305\204"
 310      A41D7C11 
 310      7E695311 
 310      740D36A2 
 310      4E63CAC5 
 311 045e B8AA839A 		.ascii	"\270\252\203\232\206\377\304|\304R!\205=\252\317\343"
 311      86FFC47C 
 311      C4522185 
 311      3DAACFE3 
 312 046e 38E34F98 		.ascii	"8\343O\230\360\370<\305A\203\005\265\241\005\271\255"
 312      F0F83CC5 
 312      418305B5 
 312      A105B9AD 
 313 047e AE92562D 		.ascii	"\256\222V-\031\205\202\036\023\351kx\012\256\344\033"
 313      1985821E 
 313      13E96B78 
 313      0AAEE41B 
 314 048e E0D4935B 		.ascii	"\340\324\223[.e[\320\223\254q\277Ue\235\215\345;z\375"
 314      2E655BD0 
 314      93AC71BF 
 314      55659D8D 
 314      E53B7AFD 
 315 04a2 C83BBDB8 		.ascii	"\310;\275\270\013\336v\015\377\303\\\375%\271\322\260"
 315      0BDE760D 
 315      FFC35CFD 
 315      25B9D2B0 
 316 04b2 4BFA7A70 		.ascii	"K\372zpY\277\036\\\236\342@|=T\250.j\226\271N*Z\203"
 316      59BF1E5C 
 316      9EE2407C 
 316      3D54A82E 
 316      6A96B94E 
 317 04c9 815711AE 		.ascii	"\201W\021\256NW\\\263\274C\315\214I\3470]\2561\364\\"
 317      4E575CB3 
 317      BC43CD8C 
 317      49E7305D 
 317      AE31F45C 
 318 04dd C20F512A 		.ascii	"\302\017Q*\215\234V\354#\327\212\310\322\267\021\335"
 318      8D9C56EC 
 318      23D78AC8 
 318      D2B711DD 
 319 04ed EF3AB95A 		.ascii	"\357:\271Z\251\024\366s\264\037e\307r\033F\337\337\217"
 319      A914F673 
 319      B41F65C7 
 319      721B46DF 
 319      DF8F
 320 04ff FBBAC841 		.ascii	"\373\272\310AB_\342\214\333\350J\351j\333\256\364\246"
 320      425FE28C 
 320      DBE84AE9 
 320      6ADBAEF4 
 320      A6
 321 0510 DC95BA94 		.ascii	"\334\225\272\224r\272\322WRWr\266\262t\245\317\311\342"
 321      72BAD257 
 321      525772B6 
 321      B274A5CF 
 321      C9E2
 322 0522 C64253A2 		.ascii	"\306BS\2426\226\351\260J\231\320`\263\343\271=\337\214"
ARM GAS  /tmp/ccPPIFRN.s 			page 25


 322      3696E9B0 
 322      4A99D060 
 322      B3E3B93D 
 322      DF8C
 323 0534 DD617CCC 		.ascii	"\335a|\314\315,\177\021Z\253L\027#c\241Q\320N\211\203"
 323      CD2C7F11 
 323      5AAB4C17 
 323      2363A151 
 323      D04E8983 
 324 0548 022EF232 		.ascii	"\002.\3622\251*\340Z#\343z\310\026\327\337\337\346b"
 324      A92AE05A 
 324      23E37AC8 
 324      16D7DFDF 
 324      E662
 325 055a 055C3C9E 		.ascii	"\005\\<\236\202~/+\302#r\204Gm#\034\3771\373\010\356"
 325      827E2F2B 
 325      C2237284 
 325      476D231C 
 325      FF31FB08 
 326 056f 1DEC2674 		.ascii	"\035\354&t\201Y\361l\266\247\272\374\364{\024i\015\246"
 326      8159F16C 
 326      B6A7BAFC 
 326      F47B1469 
 326      0DA6
 327 0581 DD405A74 		.ascii	"\335@Zt\007j\314`\231\246\202\366\326`\313\004\371\230"
 327      076ACC60 
 327      99A682F6 
 327      D660CB04 
 327      F998
 328 0593 6FB67933 		.ascii	"o\266y3\031a\026\217;\026\373\244e\027x<m\252\366\343"
 328      1961168F 
 328      3B16FBA4 
 328      6517783C 
 328      6DAAF6E3 
 329 05a7 72CE7DB6 		.ascii	"r\316}\2669\017}3~\347\366\035\204\254%\247\363+\322"
 329      390F7D33 
 329      7EE7F61D 
 329      84AC25A7 
 329      F32BD2
 330 05ba ABB041EC 		.ascii	"\253\260A\354XM9\304n\224\203lr(\335X\347\204\322\035"
 330      584D39C4 
 330      6E94836C 
 330      7228DD58 
 330      E784D21D 
 331 05ce 2E2BC266 		.ascii	".+\302f9\302S\212\315J\012\237E\337\267\244{\262\351"
 331      39C2538A 
 331      CD4A0A9F 
 331      45DFB7A4 
 331      7BB2E9
 332 05e1 0CDD3C61 		.ascii	"\014\335<al\356%\343\305^B\012M\237/\024\016-GV\323"
 332      6CEE25E3 
 332      C55E420A 
 332      4D9F2F14 
 332      0E2D4756 
 333 05f6 70A6E29E 		.ascii	"p\246\342\236\323\357\320s\314-\271\250\005\303\277"
 333      D3EFD073 
 333      CC2DB9A8 
ARM GAS  /tmp/ccPPIFRN.s 			page 26


 333      05C3BF
 334 0605 E48F0B19 		.ascii	"\344\217\013\031\205\202~\2521\257P\027\242\027\351"
 334      85827EAA 
 334      31AF5017 
 334      A217E9
 335 0614 7F0C9EFE 		.ascii	"\177\014\236\376\360`\0327Y\2764\371\301\237\223\035"
 335      F0601A37 
 335      59BE34F9 
 335      C19F931D 
 336 0624 99864A1F 		.ascii	"\231\206J\037\212\335\311\251a\333\335\211\205\321\240"
 336      8ADDC9A9 
 336      61DBDD89 
 336      85D1A0
 337 0633 81B1AE14 		.ascii	"\201\261\256\024\241\222\226\206_\256\230\317\255\016"
 337      A1929686 
 337      5FAE98CF 
 337      AD0E
 338 0641 7CFA2C7C 		.ascii	"|\372,|n\225\3714}*H `y\265\320)\222\3367J\334\257\221"
 338      6E95F934 
 338      7D2A4820 
 338      6079B5D0 
 338      2992DE37 
 339 0659 3574A63A 		.ascii	"5t\246:\244,\375\003\311!\345\011\377fz\265\342\224"
 339      A42CFD03 
 339      C921E509 
 339      FF667AB5 
 339      E294
 340 066b 071C5236 		.ascii	"\007\034R6W\253\250UH\331\264\371\226@(hU\2559et\231"
 340      57ABA855 
 340      48D9B4F9 
 340      96402868 
 340      55AD3965 
 341 0681 BF2399F0 		.ascii	"\277#\231\360\207C\313\374\367\004\002~-\021\231\023"
 341      8743CBFC 
 341      F704027E 
 341      2D119913 
 342 0691 8D45F539 		.ascii	"\215E\3659\272\266,\344\237\333|\215?\024\015\204;\332"
 342      BAB62CE4 
 342      9FDB7C8D 
 342      3F140D84 
 342      3BDA
 343 06a3 757F32D5 		.ascii	"u\1772\325\336\256\337\335\034D\265\311\320\203\272"
 343      DEAEDFDD 
 343      1C44B5C9 
 343      D083BA
 344 06b2 9AAABDE9 		.ascii	"\232\252\275\351\226\245M\013\320%\314<\231\010\370"
 344      96A54D0B 
 344      D025CC3C 
 344      9908F8
 345 06c1 03C1D0B2 		.ascii	"\003\301\320\262P,\351\207\277D\252`\026\010F\364H "
 345      502CE987 
 345      BF44AA60 
 345      160846F4 
 345      4820
 346 06d3 96D0C1D2 		.ascii	"\226\320\301\322\007\303{\364\324\335\035\321\200\232"
 346      07C37BF4 
 346      D4DD1DD1 
ARM GAS  /tmp/ccPPIFRN.s 			page 27


 346      809A
 347 06e1 BAC8C190 		.ascii	"\272\310\301\220\337\001\315x,\026N6\007\320\245\345"
 347      DF01CD78 
 347      2C164E36 
 347      07D0A5E5 
 348 06f1 44E0CA41 		.ascii	"D\340\312AT\007\343X\242S\245\327j\312\313NA]k\327\023"
 348      5407E358 
 348      A253A5D7 
 348      6ACACB4E 
 348      415D6BD7 
 349 0706 AE78508D 		.ascii	"\256xP\215\352\017\244\\\2218;\327\3039\266\354^=\220"
 349      EA0FA45C 
 349      91383BD7 
 349      C339B6EC 
 349      5E3D90
 350 0719 5269425E 		.ascii	"RiB^\270\214'b\313C\240\332\020\010.\006\303[\331\323"
 350      B88C2762 
 350      CB43A0DA 
 350      10082E06 
 350      C35BD9D3 
 351 072d B66828A5 		.ascii	"\266h(\245D\342\325T\311mhL\345\0327\307\264\366\371"
 351      44E2D554 
 351      C96D684C 
 351      E51A37C7 
 351      B4F6F9
 352 0740 8984D689 		.ascii	"\211\204\326\211\3438\352\343\367\346\207\303\261@\233"
 352      E338EAE3 
 352      F7E687C3 
 352      B1409B
 353 074f D77421C6 		.ascii	"\327t!\3067&t\275\255\032B\306\247\024oT\007\202Z\302"
 353      372674BD 
 353      AD1A42C6 
 353      A7146F54 
 353      07825AC2 
 354 0763 ADAA8C13 		.ascii	"\255\252\214\023\265\316\0304_5w\336\225\347\262\304"
 354      B5CE1834 
 354      5F3577DE 
 354      95E7B2C4 
 355 0773 8D34A3FA 		.ascii	"\2154\243\372\375\264H\311\316\244_\205Z\204\242)H\327"
 355      FDB448C9 
 355      CEA45F85 
 355      5A84A229 
 355      48D7
 356 0785 DD01E72B 		.ascii	"\335\001\347+.WSs\354t#\0320\026\325\375*\024N\353\010"
 356      2E575373 
 356      EC74231A 
 356      3016D5FD 
 356      2A144EEB 
 357 079a A7D45467 		.ascii	"\247\324Tg\\\247,MQU\303\320#\200\266\267_8)\317\020"
 357      5CA72C4D 
 357      5155C3D0 
 357      2380B6B7 
 357      5F3829CF 
 358 07af 1B8CC162 		.ascii	"\033\214\301bIg\362\346X\340\276\026\007\213x,\221J"
 358      4967F2E6 
 358      58E0BE16 
 358      078B782C 
ARM GAS  /tmp/ccPPIFRN.s 			page 28


 358      914A
 359 07c1 FAE7DFB6 		.ascii	"\372\347\337\266h\301\242\007\340\021\255\276\272\374"
 359      68C1A207 
 359      E011ADBE 
 359      BAFC
 360 07cf EA       		.ascii	"\352"
 361 07d0 08B5A58F 		.ascii	"\010\265\245\217T\340\344\276\271v\266P\026\377\202"
 361      54E0E4BE 
 361      B976B650 
 361      16FF82
 362 07df 454BDA96 		.ascii	"EK\332\226\024\203R\333@\344F`\205VWU\223zJ\275~\376"
 362      148352DB 
 362      40E44660 
 362      85565755 
 362      937A4ABD 
 363 07f5 921B16DF 		.ascii	"\222\033\026\337\326V\247\205\357\327:\223j(\032\206"
 363      D656A785 
 363      EFD73A93 
 363      6A281A86 
 364 0805 2C6B966B 		.ascii	",k\226k\341\016\335\313\300-\215\322\020^\026\254\203"
 364      E10EDDCB 
 364      C02D8DD2 
 364      105E16AC 
 364      83
 365 0816 8D4DCC5E 		.ascii	"\215M\314^yY\213\345j\236\371\252e\336\177\264wO\331"
 365      79598BE5 
 365      6A9EF9AA 
 365      65DE7FB4 
 365      774FD9
 366              		.text
 367              		.section	.gnu.lto_.symtab.29b757ec55c1d034,"",%progbits
 368 0000 6368506F 		.ascii	"chPoolObjectInit\000\000\000\000\000\000\000\000\000"
 368      6F6C4F62 
 368      6A656374 
 368      496E6974 
 368      00000000 
 369 0019 000000AB 		.ascii	"\000\000\000\253\000\000\000chPoolLoadArray\000\000"
 369      00000063 
 369      68506F6F 
 369      6C4C6F61 
 369      64417272 
 370 0031 00000000 		.ascii	"\000\000\000\000\000\000\000\000\000\000\312\000\000"
 370      00000000 
 370      0000CA00 
 370      00
 371 003e 00636850 		.ascii	"\000chPoolAllocI\000\000\000\000\000\000\000\000\000"
 371      6F6F6C41 
 371      6C6C6F63 
 371      49000000 
 371      00000000 
 372 0054 000000D6 		.ascii	"\000\000\000\326\000\000\000chPoolAlloc\000\000\000"
 372      00000063 
 372      68506F6F 
 372      6C416C6C 
 372      6F630000 
 373 0069 00000000 		.ascii	"\000\000\000\000\000\000\000\000\000\334\000\000\000"
 373      00000000 
ARM GAS  /tmp/ccPPIFRN.s 			page 29


 373      00DC0000 
 373      00
 374 0076 6368506F 		.ascii	"chPoolFreeI\000\000\000\000\000\000\000\000\000\000"
 374      6F6C4672 
 374      65654900 
 374      00000000 
 374      00000000 
 375 008b 0000E000 		.ascii	"\000\000\340\000\000\000chPoolFree\000\000\000\000\000"
 375      00006368 
 375      506F6F6C 
 375      46726565 
 375      00000000 
 376 00a0 00000000 		.ascii	"\000\000\000\000\000\000\000\351\000\000\000"
 376      000000E9 
 376      000000
 377              		.text
 378              		.section	.gnu.lto_.opts,"",%progbits
 379 0000 272D6D63 		.ascii	"'-mcpu=cortex-m4' '-mno-thumb-interwork' '-mthumb' "
 379      70753D63 
 379      6F727465 
 379      782D6D34 
 379      2720272D 
 380 0033 272D6767 		.ascii	"'-ggdb' '-O2' '-fomit-frame-pointer' '-falign-funct"
 380      64622720 
 380      272D4F32 
 380      2720272D 
 380      666F6D69 
 381 0066 696F6E73 		.ascii	"ions=16' '-ffunction-sections' '-fdata-sections' '-"
 381      3D313627 
 381      20272D66 
 381      66756E63 
 381      74696F6E 
 382 0099 666E6F2D 		.ascii	"fno-common' '-flto'\000"
 382      636F6D6D 
 382      6F6E2720 
 382      272D666C 
 382      746F2700 
 383              		.text
 384              		.cfi_sections	.debug_frame
 385              		.section	.text.chPoolObjectInit,"ax",%progbits
 386              		.align	2
 387              		.p2align 4,,15
 388              		.global	chPoolObjectInit
 389              		.thumb
 390              		.thumb_func
 391              		.type	chPoolObjectInit, %function
 392              	chPoolObjectInit:
 393              	.LFB229:
 394              		.file 1 "/usr/src/chibios/os/rt/src/chmempools.c"
 395              		.loc 1 75 0
 396              		.cfi_startproc
 397              		@ args = 0, pretend = 0, frame = 0
 398              		@ frame_needed = 0, uses_anonymous_args = 0
 399              		@ link register save eliminated.
 400              	.LVL0:
 401              		.loc 1 79 0
 402 0000 0023     		movs	r3, #0
ARM GAS  /tmp/ccPPIFRN.s 			page 30


 403              		.loc 1 80 0
 404 0002 4160     		str	r1, [r0, #4]
 405              		.loc 1 81 0
 406 0004 8260     		str	r2, [r0, #8]
 407              		.loc 1 79 0
 408 0006 0360     		str	r3, [r0]
 409 0008 7047     		bx	lr
 410              		.cfi_endproc
 411              	.LFE229:
 412              		.size	chPoolObjectInit, .-chPoolObjectInit
 413 000a 00BF     		.section	.text.chPoolLoadArray,"ax",%progbits
 414              		.align	2
 415              		.p2align 4,,15
 416              		.global	chPoolLoadArray
 417              		.thumb
 418              		.thumb_func
 419              		.type	chPoolLoadArray, %function
 420              	chPoolLoadArray:
 421              	.LFB230:
 422              		.loc 1 97 0
 423              		.cfi_startproc
 424              		@ args = 0, pretend = 0, frame = 0
 425              		@ frame_needed = 0, uses_anonymous_args = 0
 426              		@ link register save eliminated.
 427              	.LVL1:
 428 0000 30B4     		push	{r4, r5}
 429              		.cfi_def_cfa_offset 8
 430              		.cfi_offset 4, -8
 431              		.cfi_offset 5, -4
 432              		.loc 1 101 0
 433 0002 62B1     		cbz	r2, .L2
 434              	.LBB77:
 435              	.LBB78:
 436              	.LBB79:
 437              	.LBB80:
 438              	.LBB81:
 439              	.LBB82:
 440              		.file 2 "/usr/src/chibios/os/ext/CMSIS/include/core_cmFunc.h"
 441              		.loc 2 546 0
 442 0004 2025     		movs	r5, #32
 443              	.LBE82:
 444              	.LBE81:
 445              	.LBE80:
 446              	.LBE79:
 447              	.LBB86:
 448              	.LBB87:
 449              	.LBB88:
 450              	.LBB89:
 451              	.LBB90:
 452 0006 0024     		movs	r4, #0
 453              	.LVL2:
 454              	.L5:
 455              	.LBE90:
 456              	.LBE89:
 457              	.LBE88:
 458              	.LBE87:
 459              	.LBE86:
ARM GAS  /tmp/ccPPIFRN.s 			page 31


 460              	.LBB95:
 461              	.LBB85:
 462              	.LBB84:
 463              	.LBB83:
 464              	@ 546 "/usr/src/chibios/os/ext/CMSIS/include/core_cmFunc.h" 1
 465 0008 85F31188 		MSR basepri, r5
 466              	@ 0 "" 2
 467              	.LVL3:
 468              		.thumb
 469              	.LBE83:
 470              	.LBE84:
 471              	.LBE85:
 472              	.LBE95:
 473              	.LBB96:
 474              	.LBB97:
 475              		.loc 1 177 0
 476 000c 0368     		ldr	r3, [r0]
 477 000e 0B60     		str	r3, [r1]
 478              		.loc 1 178 0
 479 0010 0160     		str	r1, [r0]
 480              	.LVL4:
 481              	.LBE97:
 482              	.LBE96:
 483              	.LBB98:
 484              	.LBB94:
 485              	.LBB93:
 486              	.LBB92:
 487              	.LBB91:
 488              		.loc 2 546 0
 489              	@ 546 "/usr/src/chibios/os/ext/CMSIS/include/core_cmFunc.h" 1
 490 0012 84F31188 		MSR basepri, r4
 491              	@ 0 "" 2
 492              		.thumb
 493              	.LBE91:
 494              	.LBE92:
 495              	.LBE93:
 496              	.LBE94:
 497              	.LBE98:
 498              	.LBE78:
 499              	.LBE77:
 500              		.loc 1 104 0
 501 0016 4368     		ldr	r3, [r0, #4]
 502              		.loc 1 101 0
 503 0018 013A     		subs	r2, r2, #1
 504              	.LVL5:
 505              		.loc 1 104 0
 506 001a 1944     		add	r1, r1, r3
 507              	.LVL6:
 508              		.loc 1 101 0
 509 001c F4D1     		bne	.L5
 510              	.LVL7:
 511              	.L2:
 512              		.loc 1 108 0
 513 001e 30BC     		pop	{r4, r5}
 514 0020 7047     		bx	lr
 515              		.cfi_endproc
 516              	.LFE230:
ARM GAS  /tmp/ccPPIFRN.s 			page 32


 517              		.size	chPoolLoadArray, .-chPoolLoadArray
 518 0022 00BF     		.section	.text.chPoolAllocI,"ax",%progbits
 519              		.align	2
 520              		.p2align 4,,15
 521              		.global	chPoolAllocI
 522              		.thumb
 523              		.thumb_func
 524              		.type	chPoolAllocI, %function
 525              	chPoolAllocI:
 526              	.LFB231:
 527              		.loc 1 120 0
 528              		.cfi_startproc
 529              		@ args = 0, pretend = 0, frame = 0
 530              		@ frame_needed = 0, uses_anonymous_args = 0
 531              	.LVL8:
 532 0000 08B5     		push	{r3, lr}
 533              		.cfi_def_cfa_offset 8
 534              		.cfi_offset 3, -8
 535              		.cfi_offset 14, -4
 536              		.loc 1 120 0
 537 0002 0346     		mov	r3, r0
 538              		.loc 1 126 0
 539 0004 0068     		ldr	r0, [r0]
 540              	.LVL9:
 541              		.loc 1 128 0
 542 0006 10B1     		cbz	r0, .L12
 543              		.loc 1 129 0
 544 0008 0268     		ldr	r2, [r0]
 545 000a 1A60     		str	r2, [r3]
 546 000c 08BD     		pop	{r3, pc}
 547              	.LVL10:
 548              	.L12:
 549              		.loc 1 131 0
 550 000e 9A68     		ldr	r2, [r3, #8]
 551 0010 0AB1     		cbz	r2, .L13
 552              		.loc 1 132 0
 553 0012 5868     		ldr	r0, [r3, #4]
 554              	.LVL11:
 555 0014 9047     		blx	r2
 556              	.LVL12:
 557              	.L13:
 558              		.loc 1 137 0
 559 0016 08BD     		pop	{r3, pc}
 560              		.cfi_endproc
 561              	.LFE231:
 562              		.size	chPoolAllocI, .-chPoolAllocI
 563              		.section	.text.chPoolAlloc,"ax",%progbits
 564              		.align	2
 565              		.p2align 4,,15
 566              		.global	chPoolAlloc
 567              		.thumb
 568              		.thumb_func
 569              		.type	chPoolAlloc, %function
 570              	chPoolAlloc:
 571              	.LFB232:
 572              		.loc 1 149 0
 573              		.cfi_startproc
ARM GAS  /tmp/ccPPIFRN.s 			page 33


 574              		@ args = 0, pretend = 0, frame = 0
 575              		@ frame_needed = 0, uses_anonymous_args = 0
 576              	.LVL13:
 577 0000 08B5     		push	{r3, lr}
 578              		.cfi_def_cfa_offset 8
 579              		.cfi_offset 3, -8
 580              		.cfi_offset 14, -4
 581              	.LBB99:
 582              	.LBB100:
 583              	.LBB101:
 584              	.LBB102:
 585              		.loc 2 546 0
 586 0002 2022     		movs	r2, #32
 587              	.LBE102:
 588              	.LBE101:
 589              	.LBE100:
 590              	.LBE99:
 591              		.loc 1 149 0
 592 0004 0346     		mov	r3, r0
 593              	.LBB106:
 594              	.LBB105:
 595              	.LBB104:
 596              	.LBB103:
 597              		.loc 2 546 0
 598              	@ 546 "/usr/src/chibios/os/ext/CMSIS/include/core_cmFunc.h" 1
 599 0006 82F31188 		MSR basepri, r2
 600              	@ 0 "" 2
 601              	.LVL14:
 602              		.thumb
 603              	.LBE103:
 604              	.LBE104:
 605              	.LBE105:
 606              	.LBE106:
 607              	.LBB107:
 608              	.LBB108:
 609              		.loc 1 126 0
 610 000a 0068     		ldr	r0, [r0]
 611              	.LVL15:
 612              		.loc 1 128 0
 613 000c 28B1     		cbz	r0, .L18
 614              		.loc 1 129 0
 615 000e 0268     		ldr	r2, [r0]
 616 0010 1A60     		str	r2, [r3]
 617              	.L19:
 618              	.LVL16:
 619              	.LBE108:
 620              	.LBE107:
 621              	.LBB110:
 622              	.LBB111:
 623              	.LBB112:
 624              	.LBB113:
 625              	.LBB114:
 626              		.loc 2 546 0
 627 0012 0023     		movs	r3, #0
 628              	.LVL17:
 629              	@ 546 "/usr/src/chibios/os/ext/CMSIS/include/core_cmFunc.h" 1
 630 0014 83F31188 		MSR basepri, r3
ARM GAS  /tmp/ccPPIFRN.s 			page 34


 631              	@ 0 "" 2
 632              		.thumb
 633              	.LBE114:
 634              	.LBE113:
 635              	.LBE112:
 636              	.LBE111:
 637              	.LBE110:
 638              		.loc 1 157 0
 639 0018 08BD     		pop	{r3, pc}
 640              	.LVL18:
 641              	.L18:
 642              	.LBB119:
 643              	.LBB109:
 644              		.loc 1 131 0
 645 001a 9A68     		ldr	r2, [r3, #8]
 646 001c 002A     		cmp	r2, #0
 647 001e F8D0     		beq	.L19
 648              		.loc 1 132 0
 649 0020 5868     		ldr	r0, [r3, #4]
 650              	.LVL19:
 651 0022 9047     		blx	r2
 652              	.LVL20:
 653              	.LBE109:
 654              	.LBE119:
 655              	.LBB120:
 656              	.LBB118:
 657              	.LBB117:
 658              	.LBB116:
 659              	.LBB115:
 660              		.loc 2 546 0
 661 0024 0023     		movs	r3, #0
 662              	@ 546 "/usr/src/chibios/os/ext/CMSIS/include/core_cmFunc.h" 1
 663 0026 83F31188 		MSR basepri, r3
 664              	@ 0 "" 2
 665              		.thumb
 666              	.LBE115:
 667              	.LBE116:
 668              	.LBE117:
 669              	.LBE118:
 670              	.LBE120:
 671              		.loc 1 157 0
 672 002a 08BD     		pop	{r3, pc}
 673              		.cfi_endproc
 674              	.LFE232:
 675              		.size	chPoolAlloc, .-chPoolAlloc
 676              		.section	.text.chPoolFreeI,"ax",%progbits
 677              		.align	2
 678              		.p2align 4,,15
 679              		.global	chPoolFreeI
 680              		.thumb
 681              		.thumb_func
 682              		.type	chPoolFreeI, %function
 683              	chPoolFreeI:
 684              	.LFB233:
 685              		.loc 1 171 0
 686              		.cfi_startproc
 687              		@ args = 0, pretend = 0, frame = 0
ARM GAS  /tmp/ccPPIFRN.s 			page 35


 688              		@ frame_needed = 0, uses_anonymous_args = 0
 689              		@ link register save eliminated.
 690              	.LVL21:
 691              		.loc 1 177 0
 692 0000 0368     		ldr	r3, [r0]
 693 0002 0B60     		str	r3, [r1]
 694              		.loc 1 178 0
 695 0004 0160     		str	r1, [r0]
 696 0006 7047     		bx	lr
 697              		.cfi_endproc
 698              	.LFE233:
 699              		.size	chPoolFreeI, .-chPoolFreeI
 700              		.section	.text.chPoolFree,"ax",%progbits
 701              		.align	2
 702              		.p2align 4,,15
 703              		.global	chPoolFree
 704              		.thumb
 705              		.thumb_func
 706              		.type	chPoolFree, %function
 707              	chPoolFree:
 708              	.LFB234:
 709              		.loc 1 193 0
 710              		.cfi_startproc
 711              		@ args = 0, pretend = 0, frame = 0
 712              		@ frame_needed = 0, uses_anonymous_args = 0
 713              		@ link register save eliminated.
 714              	.LVL22:
 715              	.LBB121:
 716              	.LBB122:
 717              	.LBB123:
 718              	.LBB124:
 719              		.loc 2 546 0
 720 0000 2023     		movs	r3, #32
 721              	@ 546 "/usr/src/chibios/os/ext/CMSIS/include/core_cmFunc.h" 1
 722 0002 83F31188 		MSR basepri, r3
 723              	@ 0 "" 2
 724              	.LVL23:
 725              		.thumb
 726              	.LBE124:
 727              	.LBE123:
 728              	.LBE122:
 729              	.LBE121:
 730              	.LBB125:
 731              	.LBB126:
 732              		.loc 1 177 0
 733 0006 0368     		ldr	r3, [r0]
 734 0008 0B60     		str	r3, [r1]
 735              	.LBE126:
 736              	.LBE125:
 737              	.LBB128:
 738              	.LBB129:
 739              	.LBB130:
 740              	.LBB131:
 741              	.LBB132:
 742              		.loc 2 546 0
 743 000a 0023     		movs	r3, #0
 744              	.LBE132:
ARM GAS  /tmp/ccPPIFRN.s 			page 36


 745              	.LBE131:
 746              	.LBE130:
 747              	.LBE129:
 748              	.LBE128:
 749              	.LBB137:
 750              	.LBB127:
 751              		.loc 1 178 0
 752 000c 0160     		str	r1, [r0]
 753              	.LVL24:
 754              	.LBE127:
 755              	.LBE137:
 756              	.LBB138:
 757              	.LBB136:
 758              	.LBB135:
 759              	.LBB134:
 760              	.LBB133:
 761              		.loc 2 546 0
 762              	@ 546 "/usr/src/chibios/os/ext/CMSIS/include/core_cmFunc.h" 1
 763 000e 83F31188 		MSR basepri, r3
 764              	@ 0 "" 2
 765              		.thumb
 766 0012 7047     		bx	lr
 767              	.LBE133:
 768              	.LBE134:
 769              	.LBE135:
 770              	.LBE136:
 771              	.LBE138:
 772              		.cfi_endproc
 773              	.LFE234:
 774              		.size	chPoolFree, .-chPoolFree
 775              		.text
 776              	.Letext0:
 777              		.file 3 "/usr/lib/gcc/arm-none-eabi/4.8/include/stddef.h"
 778              		.file 4 "/usr/include/newlib/machine/_default_types.h"
 779              		.file 5 "/usr/include/newlib/sys/_stdint.h"
 780              		.file 6 "/usr/src/chibios/os/rt/ports/ARMCMx/compilers/GCC/chtypes.h"
 781              		.file 7 "/usr/src/chibios/os/rt/include/chsystypes.h"
 782              		.file 8 "/usr/src/chibios/os/rt/include/chschd.h"
 783              		.file 9 "/usr/src/chibios/os/rt/ports/ARMCMx/chcore.h"
 784              		.file 10 "/usr/src/chibios/os/rt/ports/ARMCMx/chcore_v7m.h"
 785              		.file 11 "/usr/src/chibios/os/rt/include/chtm.h"
 786              		.file 12 "/usr/src/chibios/os/rt/include/chsem.h"
 787              		.file 13 "/usr/src/chibios/os/rt/include/chmtx.h"
 788              		.file 14 "/usr/src/chibios/os/rt/include/chmemcore.h"
 789              		.file 15 "/usr/src/chibios/os/rt/include/chmempools.h"
 790              		.file 16 "/usr/src/chibios/os/rt/include/chsys.h"
 791              		.file 17 "/usr/src/chibios/os/ext/CMSIS/include/core_cm4.h"
 792              		.section	.debug_info,"",%progbits
 793              	.Ldebug_info0:
 794 0000 B40B0000 		.4byte	0xbb4
 795 0004 0400     		.2byte	0x4
 796 0006 00000000 		.4byte	.Ldebug_abbrev0
 797 000a 04       		.byte	0x4
 798 000b 01       		.uleb128 0x1
 799 000c 7E020000 		.4byte	.LASF130
 800 0010 01       		.byte	0x1
 801 0011 E9030000 		.4byte	.LASF131
ARM GAS  /tmp/ccPPIFRN.s 			page 37


 802 0015 A8000000 		.4byte	.Ldebug_ranges0+0xa8
 803 0019 00000000 		.4byte	0
 804 001d 00000000 		.4byte	.Ldebug_line0
 805 0021 02       		.uleb128 0x2
 806 0022 04       		.byte	0x4
 807 0023 05       		.byte	0x5
 808 0024 696E7400 		.ascii	"int\000"
 809 0028 03       		.uleb128 0x3
 810 0029 0D000000 		.4byte	.LASF2
 811 002d 03       		.byte	0x3
 812 002e D4       		.byte	0xd4
 813 002f 33000000 		.4byte	0x33
 814 0033 04       		.uleb128 0x4
 815 0034 04       		.byte	0x4
 816 0035 07       		.byte	0x7
 817 0036 A6010000 		.4byte	.LASF0
 818 003a 04       		.uleb128 0x4
 819 003b 01       		.byte	0x1
 820 003c 06       		.byte	0x6
 821 003d EF000000 		.4byte	.LASF1
 822 0041 03       		.uleb128 0x3
 823 0042 24000000 		.4byte	.LASF3
 824 0046 04       		.byte	0x4
 825 0047 1D       		.byte	0x1d
 826 0048 4C000000 		.4byte	0x4c
 827 004c 04       		.uleb128 0x4
 828 004d 01       		.byte	0x1
 829 004e 08       		.byte	0x8
 830 004f 50040000 		.4byte	.LASF4
 831 0053 04       		.uleb128 0x4
 832 0054 02       		.byte	0x2
 833 0055 05       		.byte	0x5
 834 0056 68040000 		.4byte	.LASF5
 835 005a 04       		.uleb128 0x4
 836 005b 02       		.byte	0x2
 837 005c 07       		.byte	0x7
 838 005d EF010000 		.4byte	.LASF6
 839 0061 03       		.uleb128 0x3
 840 0062 69020000 		.4byte	.LASF7
 841 0066 04       		.byte	0x4
 842 0067 3F       		.byte	0x3f
 843 0068 6C000000 		.4byte	0x6c
 844 006c 04       		.uleb128 0x4
 845 006d 04       		.byte	0x4
 846 006e 05       		.byte	0x5
 847 006f 2E010000 		.4byte	.LASF8
 848 0073 03       		.uleb128 0x3
 849 0074 3D050000 		.4byte	.LASF9
 850 0078 04       		.byte	0x4
 851 0079 41       		.byte	0x41
 852 007a 7E000000 		.4byte	0x7e
 853 007e 04       		.uleb128 0x4
 854 007f 04       		.byte	0x4
 855 0080 07       		.byte	0x7
 856 0081 F8040000 		.4byte	.LASF10
 857 0085 04       		.uleb128 0x4
 858 0086 08       		.byte	0x8
ARM GAS  /tmp/ccPPIFRN.s 			page 38


 859 0087 05       		.byte	0x5
 860 0088 E1000000 		.4byte	.LASF11
 861 008c 03       		.uleb128 0x3
 862 008d D6030000 		.4byte	.LASF12
 863 0091 04       		.byte	0x4
 864 0092 5B       		.byte	0x5b
 865 0093 97000000 		.4byte	0x97
 866 0097 04       		.uleb128 0x4
 867 0098 08       		.byte	0x8
 868 0099 07       		.byte	0x7
 869 009a 6D000000 		.4byte	.LASF13
 870 009e 03       		.uleb128 0x3
 871 009f BE050000 		.4byte	.LASF14
 872 00a3 05       		.byte	0x5
 873 00a4 14       		.byte	0x14
 874 00a5 41000000 		.4byte	0x41
 875 00a9 03       		.uleb128 0x3
 876 00aa 48040000 		.4byte	.LASF15
 877 00ae 05       		.byte	0x5
 878 00af 1F       		.byte	0x1f
 879 00b0 61000000 		.4byte	0x61
 880 00b4 03       		.uleb128 0x3
 881 00b5 C7040000 		.4byte	.LASF16
 882 00b9 05       		.byte	0x5
 883 00ba 20       		.byte	0x20
 884 00bb 73000000 		.4byte	0x73
 885 00bf 03       		.uleb128 0x3
 886 00c0 1B000000 		.4byte	.LASF17
 887 00c4 05       		.byte	0x5
 888 00c5 26       		.byte	0x26
 889 00c6 8C000000 		.4byte	0x8c
 890 00ca 05       		.uleb128 0x5
 891 00cb A9000000 		.4byte	0xa9
 892 00cf 03       		.uleb128 0x3
 893 00d0 86050000 		.4byte	.LASF18
 894 00d4 06       		.byte	0x6
 895 00d5 45       		.byte	0x45
 896 00d6 B4000000 		.4byte	0xb4
 897 00da 03       		.uleb128 0x3
 898 00db 28020000 		.4byte	.LASF19
 899 00df 06       		.byte	0x6
 900 00e0 48       		.byte	0x48
 901 00e1 9E000000 		.4byte	0x9e
 902 00e5 03       		.uleb128 0x3
 903 00e6 37010000 		.4byte	.LASF20
 904 00ea 06       		.byte	0x6
 905 00eb 49       		.byte	0x49
 906 00ec 9E000000 		.4byte	0x9e
 907 00f0 03       		.uleb128 0x3
 908 00f1 11040000 		.4byte	.LASF21
 909 00f5 06       		.byte	0x6
 910 00f6 4A       		.byte	0x4a
 911 00f7 9E000000 		.4byte	0x9e
 912 00fb 03       		.uleb128 0x3
 913 00fc 30040000 		.4byte	.LASF22
 914 0100 06       		.byte	0x6
 915 0101 4C       		.byte	0x4c
ARM GAS  /tmp/ccPPIFRN.s 			page 39


 916 0102 B4000000 		.4byte	0xb4
 917 0106 03       		.uleb128 0x3
 918 0107 0C020000 		.4byte	.LASF23
 919 010b 06       		.byte	0x6
 920 010c 4D       		.byte	0x4d
 921 010d A9000000 		.4byte	0xa9
 922 0111 03       		.uleb128 0x3
 923 0112 4F020000 		.4byte	.LASF24
 924 0116 06       		.byte	0x6
 925 0117 4F       		.byte	0x4f
 926 0118 B4000000 		.4byte	0xb4
 927 011c 03       		.uleb128 0x3
 928 011d A0010000 		.4byte	.LASF25
 929 0121 06       		.byte	0x6
 930 0122 51       		.byte	0x51
 931 0123 A9000000 		.4byte	0xa9
 932 0127 03       		.uleb128 0x3
 933 0128 1F050000 		.4byte	.LASF26
 934 012c 07       		.byte	0x7
 935 012d 33       		.byte	0x33
 936 012e B4000000 		.4byte	0xb4
 937 0132 03       		.uleb128 0x3
 938 0133 0F050000 		.4byte	.LASF27
 939 0137 07       		.byte	0x7
 940 0138 3F       		.byte	0x3f
 941 0139 3D010000 		.4byte	0x13d
 942 013d 06       		.uleb128 0x6
 943 013e 02020000 		.4byte	.LASF47
 944 0142 44       		.byte	0x44
 945 0143 08       		.byte	0x8
 946 0144 C2       		.byte	0xc2
 947 0145 2A020000 		.4byte	0x22a
 948 0149 07       		.uleb128 0x7
 949 014a 88040000 		.4byte	.LASF28
 950 014e 08       		.byte	0x8
 951 014f C3       		.byte	0xc3
 952 0150 35020000 		.4byte	0x235
 953 0154 00       		.byte	0
 954 0155 07       		.uleb128 0x7
 955 0156 29040000 		.4byte	.LASF29
 956 015a 08       		.byte	0x8
 957 015b C5       		.byte	0xc5
 958 015c 35020000 		.4byte	0x235
 959 0160 04       		.byte	0x4
 960 0161 07       		.uleb128 0x7
 961 0162 DA000000 		.4byte	.LASF30
 962 0166 08       		.byte	0x8
 963 0167 C7       		.byte	0xc7
 964 0168 FB000000 		.4byte	0xfb
 965 016c 08       		.byte	0x8
 966 016d 07       		.uleb128 0x7
 967 016e 35060000 		.4byte	.LASF31
 968 0172 08       		.byte	0x8
 969 0173 C8       		.byte	0xc8
 970 0174 65040000 		.4byte	0x465
 971 0178 0C       		.byte	0xc
 972 0179 07       		.uleb128 0x7
ARM GAS  /tmp/ccPPIFRN.s 			page 40


 973 017a 4E010000 		.4byte	.LASF32
 974 017e 08       		.byte	0x8
 975 017f CA       		.byte	0xca
 976 0180 35020000 		.4byte	0x235
 977 0184 10       		.byte	0x10
 978 0185 07       		.uleb128 0x7
 979 0186 96030000 		.4byte	.LASF33
 980 018a 08       		.byte	0x8
 981 018b CB       		.byte	0xcb
 982 018c 35020000 		.4byte	0x235
 983 0190 14       		.byte	0x14
 984 0191 07       		.uleb128 0x7
 985 0192 E4050000 		.4byte	.LASF34
 986 0196 08       		.byte	0x8
 987 0197 D2       		.byte	0xd2
 988 0198 E4050000 		.4byte	0x5e4
 989 019c 18       		.byte	0x18
 990 019d 07       		.uleb128 0x7
 991 019e 72040000 		.4byte	.LASF35
 992 01a2 08       		.byte	0x8
 993 01a3 DD       		.byte	0xdd
 994 01a4 E5000000 		.4byte	0xe5
 995 01a8 1C       		.byte	0x1c
 996 01a9 07       		.uleb128 0x7
 997 01aa FF050000 		.4byte	.LASF36
 998 01ae 08       		.byte	0x8
 999 01af E1       		.byte	0xe1
 1000 01b0 DA000000 		.4byte	0xda
 1001 01b4 1D       		.byte	0x1d
 1002 01b5 07       		.uleb128 0x7
 1003 01b6 B1050000 		.4byte	.LASF37
 1004 01ba 08       		.byte	0x8
 1005 01bb E6       		.byte	0xe6
 1006 01bc F0000000 		.4byte	0xf0
 1007 01c0 1E       		.byte	0x1e
 1008 01c1 08       		.uleb128 0x8
 1009 01c2 705F7500 		.ascii	"p_u\000"
 1010 01c6 08       		.byte	0x8
 1011 01c7 3101     		.2byte	0x131
 1012 01c9 1F050000 		.4byte	0x51f
 1013 01cd 20       		.byte	0x20
 1014 01ce 09       		.uleb128 0x9
 1015 01cf 34030000 		.4byte	.LASF38
 1016 01d3 08       		.byte	0x8
 1017 01d4 3601     		.2byte	0x136
 1018 01d6 3B020000 		.4byte	0x23b
 1019 01da 24       		.byte	0x24
 1020 01db 09       		.uleb128 0x9
 1021 01dc D0010000 		.4byte	.LASF39
 1022 01e0 08       		.byte	0x8
 1023 01e1 3C01     		.2byte	0x13c
 1024 01e3 5F020000 		.4byte	0x25f
 1025 01e7 28       		.byte	0x28
 1026 01e8 09       		.uleb128 0x9
 1027 01e9 80050000 		.4byte	.LASF40
 1028 01ed 08       		.byte	0x8
 1029 01ee 4001     		.2byte	0x140
ARM GAS  /tmp/ccPPIFRN.s 			page 41


 1030 01f0 06010000 		.4byte	0x106
 1031 01f4 30       		.byte	0x30
 1032 01f5 09       		.uleb128 0x9
 1033 01f6 BC040000 		.4byte	.LASF41
 1034 01fa 08       		.byte	0x8
 1035 01fb 4601     		.2byte	0x146
 1036 01fd 11010000 		.4byte	0x111
 1037 0201 34       		.byte	0x34
 1038 0202 09       		.uleb128 0x9
 1039 0203 5E040000 		.4byte	.LASF42
 1040 0207 08       		.byte	0x8
 1041 0208 4D01     		.2byte	0x14d
 1042 020a DE050000 		.4byte	0x5de
 1043 020e 38       		.byte	0x38
 1044 020f 09       		.uleb128 0x9
 1045 0210 29050000 		.4byte	.LASF43
 1046 0214 08       		.byte	0x8
 1047 0215 5101     		.2byte	0x151
 1048 0217 FB000000 		.4byte	0xfb
 1049 021b 3C       		.byte	0x3c
 1050 021c 09       		.uleb128 0x9
 1051 021d FB000000 		.4byte	.LASF44
 1052 0221 08       		.byte	0x8
 1053 0222 5801     		.2byte	0x158
 1054 0224 12030000 		.4byte	0x312
 1055 0228 40       		.byte	0x40
 1056 0229 00       		.byte	0
 1057 022a 03       		.uleb128 0x3
 1058 022b 47030000 		.4byte	.LASF45
 1059 022f 07       		.byte	0x7
 1060 0230 44       		.byte	0x44
 1061 0231 35020000 		.4byte	0x235
 1062 0235 0A       		.uleb128 0xa
 1063 0236 04       		.byte	0x4
 1064 0237 32010000 		.4byte	0x132
 1065 023b 03       		.uleb128 0x3
 1066 023c F0050000 		.4byte	.LASF46
 1067 0240 07       		.byte	0x7
 1068 0241 49       		.byte	0x49
 1069 0242 46020000 		.4byte	0x246
 1070 0246 06       		.uleb128 0x6
 1071 0247 E8040000 		.4byte	.LASF48
 1072 024b 04       		.byte	0x4
 1073 024c 08       		.byte	0x8
 1074 024d B0       		.byte	0xb0
 1075 024e 5F020000 		.4byte	0x25f
 1076 0252 07       		.uleb128 0x7
 1077 0253 88040000 		.4byte	.LASF28
 1078 0257 08       		.byte	0x8
 1079 0258 B1       		.byte	0xb1
 1080 0259 35020000 		.4byte	0x235
 1081 025d 00       		.byte	0
 1082 025e 00       		.byte	0
 1083 025f 03       		.uleb128 0x3
 1084 0260 95050000 		.4byte	.LASF49
 1085 0264 07       		.byte	0x7
 1086 0265 50       		.byte	0x50
ARM GAS  /tmp/ccPPIFRN.s 			page 42


 1087 0266 6A020000 		.4byte	0x26a
 1088 026a 06       		.uleb128 0x6
 1089 026b C9000000 		.4byte	.LASF50
 1090 026f 08       		.byte	0x8
 1091 0270 08       		.byte	0x8
 1092 0271 B7       		.byte	0xb7
 1093 0272 8F020000 		.4byte	0x28f
 1094 0276 07       		.uleb128 0x7
 1095 0277 88040000 		.4byte	.LASF28
 1096 027b 08       		.byte	0x8
 1097 027c B8       		.byte	0xb8
 1098 027d 35020000 		.4byte	0x235
 1099 0281 00       		.byte	0
 1100 0282 07       		.uleb128 0x7
 1101 0283 29040000 		.4byte	.LASF29
 1102 0287 08       		.byte	0x8
 1103 0288 B9       		.byte	0xb9
 1104 0289 35020000 		.4byte	0x235
 1105 028d 04       		.byte	0x4
 1106 028e 00       		.byte	0
 1107 028f 03       		.uleb128 0x3
 1108 0290 00000000 		.4byte	.LASF51
 1109 0294 07       		.byte	0x7
 1110 0295 57       		.byte	0x57
 1111 0296 9A020000 		.4byte	0x29a
 1112 029a 0B       		.uleb128 0xb
 1113 029b 41020000 		.4byte	.LASF52
 1114 029f 1C       		.byte	0x1c
 1115 02a0 08       		.byte	0x8
 1116 02a1 9001     		.2byte	0x190
 1117 02a3 F6020000 		.4byte	0x2f6
 1118 02a7 09       		.uleb128 0x9
 1119 02a8 D7040000 		.4byte	.LASF53
 1120 02ac 08       		.byte	0x8
 1121 02ad 9101     		.2byte	0x191
 1122 02af 5F020000 		.4byte	0x25f
 1123 02b3 00       		.byte	0
 1124 02b4 09       		.uleb128 0x9
 1125 02b5 7A040000 		.4byte	.LASF54
 1126 02b9 08       		.byte	0x8
 1127 02ba 9201     		.2byte	0x192
 1128 02bc FB000000 		.4byte	0xfb
 1129 02c0 08       		.byte	0x8
 1130 02c1 09       		.uleb128 0x9
 1131 02c2 9E030000 		.4byte	.LASF55
 1132 02c6 08       		.byte	0x8
 1133 02c7 9401     		.2byte	0x194
 1134 02c9 65040000 		.4byte	0x465
 1135 02cd 0C       		.byte	0xc
 1136 02ce 09       		.uleb128 0x9
 1137 02cf 5E010000 		.4byte	.LASF56
 1138 02d3 08       		.byte	0x8
 1139 02d4 9701     		.2byte	0x197
 1140 02d6 35020000 		.4byte	0x235
 1141 02da 10       		.byte	0x10
 1142 02db 09       		.uleb128 0x9
 1143 02dc CE030000 		.4byte	.LASF57
ARM GAS  /tmp/ccPPIFRN.s 			page 43


 1144 02e0 08       		.byte	0x8
 1145 02e1 9801     		.2byte	0x198
 1146 02e3 35020000 		.4byte	0x235
 1147 02e7 14       		.byte	0x14
 1148 02e8 09       		.uleb128 0x9
 1149 02e9 C4030000 		.4byte	.LASF58
 1150 02ed 08       		.byte	0x8
 1151 02ee 9B01     		.2byte	0x19b
 1152 02f0 35020000 		.4byte	0x235
 1153 02f4 18       		.byte	0x18
 1154 02f5 00       		.byte	0
 1155 02f6 03       		.uleb128 0x3
 1156 02f7 34050000 		.4byte	.LASF59
 1157 02fb 07       		.byte	0x7
 1158 02fc 5C       		.byte	0x5c
 1159 02fd 01030000 		.4byte	0x301
 1160 0301 0A       		.uleb128 0xa
 1161 0302 04       		.byte	0x4
 1162 0303 07030000 		.4byte	0x307
 1163 0307 0C       		.uleb128 0xc
 1164 0308 12030000 		.4byte	0x312
 1165 030c 0D       		.uleb128 0xd
 1166 030d 12030000 		.4byte	0x312
 1167 0311 00       		.byte	0
 1168 0312 0E       		.uleb128 0xe
 1169 0313 04       		.byte	0x4
 1170 0314 03       		.uleb128 0x3
 1171 0315 19040000 		.4byte	.LASF60
 1172 0319 07       		.byte	0x7
 1173 031a 61       		.byte	0x61
 1174 031b 1F030000 		.4byte	0x31f
 1175 031f 0B       		.uleb128 0xb
 1176 0320 9E040000 		.4byte	.LASF61
 1177 0324 14       		.byte	0x14
 1178 0325 08       		.byte	0x8
 1179 0326 6B01     		.2byte	0x16b
 1180 0328 6E030000 		.4byte	0x36e
 1181 032c 09       		.uleb128 0x9
 1182 032d B3010000 		.4byte	.LASF62
 1183 0331 08       		.byte	0x8
 1184 0332 6C01     		.2byte	0x16c
 1185 0334 F6050000 		.4byte	0x5f6
 1186 0338 00       		.byte	0
 1187 0339 09       		.uleb128 0x9
 1188 033a 7B010000 		.4byte	.LASF63
 1189 033e 08       		.byte	0x8
 1190 033f 6D01     		.2byte	0x16d
 1191 0341 F6050000 		.4byte	0x5f6
 1192 0345 04       		.byte	0x4
 1193 0346 09       		.uleb128 0x9
 1194 0347 DF040000 		.4byte	.LASF64
 1195 034b 08       		.byte	0x8
 1196 034c 6E01     		.2byte	0x16e
 1197 034e 27010000 		.4byte	0x127
 1198 0352 08       		.byte	0x8
 1199 0353 09       		.uleb128 0x9
 1200 0354 3B060000 		.4byte	.LASF65
ARM GAS  /tmp/ccPPIFRN.s 			page 44


 1201 0358 08       		.byte	0x8
 1202 0359 6F01     		.2byte	0x16f
 1203 035b F6020000 		.4byte	0x2f6
 1204 035f 0C       		.byte	0xc
 1205 0360 09       		.uleb128 0x9
 1206 0361 8E050000 		.4byte	.LASF66
 1207 0365 08       		.byte	0x8
 1208 0366 7101     		.2byte	0x171
 1209 0368 12030000 		.4byte	0x312
 1210 036c 10       		.byte	0x10
 1211 036d 00       		.byte	0
 1212 036e 03       		.uleb128 0x3
 1213 036f A6000000 		.4byte	.LASF67
 1214 0373 07       		.byte	0x7
 1215 0374 66       		.byte	0x66
 1216 0375 79030000 		.4byte	0x379
 1217 0379 0B       		.uleb128 0xb
 1218 037a 5A030000 		.4byte	.LASF68
 1219 037e 10       		.byte	0x10
 1220 037f 08       		.byte	0x8
 1221 0380 7B01     		.2byte	0x17b
 1222 0382 BB030000 		.4byte	0x3bb
 1223 0386 09       		.uleb128 0x9
 1224 0387 B3010000 		.4byte	.LASF62
 1225 038b 08       		.byte	0x8
 1226 038c 7C01     		.2byte	0x17c
 1227 038e F6050000 		.4byte	0x5f6
 1228 0392 00       		.byte	0
 1229 0393 09       		.uleb128 0x9
 1230 0394 7B010000 		.4byte	.LASF63
 1231 0398 08       		.byte	0x8
 1232 0399 7E01     		.2byte	0x17e
 1233 039b F6050000 		.4byte	0x5f6
 1234 039f 04       		.byte	0x4
 1235 03a0 09       		.uleb128 0x9
 1236 03a1 DF040000 		.4byte	.LASF64
 1237 03a5 08       		.byte	0x8
 1238 03a6 8001     		.2byte	0x180
 1239 03a8 27010000 		.4byte	0x127
 1240 03ac 08       		.byte	0x8
 1241 03ad 09       		.uleb128 0x9
 1242 03ae 8A030000 		.4byte	.LASF69
 1243 03b2 08       		.byte	0x8
 1244 03b3 8801     		.2byte	0x188
 1245 03b5 27010000 		.4byte	0x127
 1246 03b9 0C       		.byte	0xc
 1247 03ba 00       		.byte	0
 1248 03bb 03       		.uleb128 0x3
 1249 03bc 3A000000 		.4byte	.LASF70
 1250 03c0 07       		.byte	0x7
 1251 03c1 6B       		.byte	0x6b
 1252 03c2 C6030000 		.4byte	0x3c6
 1253 03c6 0B       		.uleb128 0xb
 1254 03c7 38040000 		.4byte	.LASF71
 1255 03cb 04       		.byte	0x4
 1256 03cc 08       		.byte	0x8
 1257 03cd A201     		.2byte	0x1a2
ARM GAS  /tmp/ccPPIFRN.s 			page 45


 1258 03cf E1030000 		.4byte	0x3e1
 1259 03d3 09       		.uleb128 0x9
 1260 03d4 56050000 		.4byte	.LASF72
 1261 03d8 08       		.byte	0x8
 1262 03d9 AA01     		.2byte	0x1aa
 1263 03db FC050000 		.4byte	0x5fc
 1264 03df 00       		.byte	0
 1265 03e0 00       		.byte	0
 1266 03e1 03       		.uleb128 0x3
 1267 03e2 12020000 		.4byte	.LASF73
 1268 03e6 07       		.byte	0x7
 1269 03e7 70       		.byte	0x70
 1270 03e8 EC030000 		.4byte	0x3ec
 1271 03ec 0F       		.uleb128 0xf
 1272 03ed 24010000 		.4byte	.LASF74
 1273 03f1 5001     		.2byte	0x150
 1274 03f3 08       		.byte	0x8
 1275 03f4 C201     		.2byte	0x1c2
 1276 03f6 48040000 		.4byte	0x448
 1277 03fa 09       		.uleb128 0x9
 1278 03fb B8050000 		.4byte	.LASF75
 1279 03ff 08       		.byte	0x8
 1280 0400 C601     		.2byte	0x1c6
 1281 0402 8F020000 		.4byte	0x28f
 1282 0406 00       		.byte	0
 1283 0407 09       		.uleb128 0x9
 1284 0408 0B010000 		.4byte	.LASF76
 1285 040c 08       		.byte	0x8
 1286 040d CA01     		.2byte	0x1ca
 1287 040f 6E030000 		.4byte	0x36e
 1288 0413 1C       		.byte	0x1c
 1289 0414 08       		.uleb128 0x8
 1290 0415 64626700 		.ascii	"dbg\000"
 1291 0419 08       		.byte	0x8
 1292 041a CE01     		.2byte	0x1ce
 1293 041c BB030000 		.4byte	0x3bb
 1294 0420 2C       		.byte	0x2c
 1295 0421 09       		.uleb128 0x9
 1296 0422 9B000000 		.4byte	.LASF77
 1297 0426 08       		.byte	0x8
 1298 0427 D201     		.2byte	0x1d2
 1299 0429 32010000 		.4byte	0x132
 1300 042d 30       		.byte	0x30
 1301 042e 08       		.uleb128 0x8
 1302 042f 746D00   		.ascii	"tm\000"
 1303 0432 08       		.byte	0x8
 1304 0433 D701     		.2byte	0x1d7
 1305 0435 14050000 		.4byte	0x514
 1306 0439 74       		.byte	0x74
 1307 043a 09       		.uleb128 0x9
 1308 043b 91010000 		.4byte	.LASF78
 1309 043f 08       		.byte	0x8
 1310 0440 E301     		.2byte	0x1e3
 1311 0442 01060000 		.4byte	0x601
 1312 0446 78       		.byte	0x78
 1313 0447 00       		.byte	0
 1314 0448 04       		.uleb128 0x4
ARM GAS  /tmp/ccPPIFRN.s 			page 46


 1315 0449 04       		.byte	0x4
 1316 044a 07       		.byte	0x7
 1317 044b 3E030000 		.4byte	.LASF79
 1318 044f 03       		.uleb128 0x3
 1319 0450 72010000 		.4byte	.LASF80
 1320 0454 09       		.byte	0x9
 1321 0455 65       		.byte	0x65
 1322 0456 12030000 		.4byte	0x312
 1323 045a 03       		.uleb128 0x3
 1324 045b 73020000 		.4byte	.LASF81
 1325 045f 09       		.byte	0x9
 1326 0460 6D       		.byte	0x6d
 1327 0461 BF000000 		.4byte	0xbf
 1328 0465 06       		.uleb128 0x6
 1329 0466 78050000 		.4byte	.LASF82
 1330 046a 04       		.byte	0x4
 1331 046b 09       		.byte	0x9
 1332 046c 89       		.byte	0x89
 1333 046d 7E040000 		.4byte	0x47e
 1334 0471 10       		.uleb128 0x10
 1335 0472 72313300 		.ascii	"r13\000"
 1336 0476 09       		.byte	0x9
 1337 0477 8A       		.byte	0x8a
 1338 0478 F9040000 		.4byte	0x4f9
 1339 047c 00       		.byte	0
 1340 047d 00       		.byte	0
 1341 047e 06       		.uleb128 0x6
 1342 047f 2E000000 		.4byte	.LASF83
 1343 0483 24       		.byte	0x24
 1344 0484 0A       		.byte	0xa
 1345 0485 F4       		.byte	0xf4
 1346 0486 F9040000 		.4byte	0x4f9
 1347 048a 08       		.uleb128 0x8
 1348 048b 723400   		.ascii	"r4\000"
 1349 048e 0A       		.byte	0xa
 1350 048f 0701     		.2byte	0x107
 1351 0491 4F040000 		.4byte	0x44f
 1352 0495 00       		.byte	0
 1353 0496 08       		.uleb128 0x8
 1354 0497 723500   		.ascii	"r5\000"
 1355 049a 0A       		.byte	0xa
 1356 049b 0801     		.2byte	0x108
 1357 049d 4F040000 		.4byte	0x44f
 1358 04a1 04       		.byte	0x4
 1359 04a2 08       		.uleb128 0x8
 1360 04a3 723600   		.ascii	"r6\000"
 1361 04a6 0A       		.byte	0xa
 1362 04a7 0901     		.2byte	0x109
 1363 04a9 4F040000 		.4byte	0x44f
 1364 04ad 08       		.byte	0x8
 1365 04ae 08       		.uleb128 0x8
 1366 04af 723700   		.ascii	"r7\000"
 1367 04b2 0A       		.byte	0xa
 1368 04b3 0A01     		.2byte	0x10a
 1369 04b5 4F040000 		.4byte	0x44f
 1370 04b9 0C       		.byte	0xc
 1371 04ba 08       		.uleb128 0x8
ARM GAS  /tmp/ccPPIFRN.s 			page 47


 1372 04bb 723800   		.ascii	"r8\000"
 1373 04be 0A       		.byte	0xa
 1374 04bf 0B01     		.2byte	0x10b
 1375 04c1 4F040000 		.4byte	0x44f
 1376 04c5 10       		.byte	0x10
 1377 04c6 08       		.uleb128 0x8
 1378 04c7 723900   		.ascii	"r9\000"
 1379 04ca 0A       		.byte	0xa
 1380 04cb 0C01     		.2byte	0x10c
 1381 04cd 4F040000 		.4byte	0x44f
 1382 04d1 14       		.byte	0x14
 1383 04d2 08       		.uleb128 0x8
 1384 04d3 72313000 		.ascii	"r10\000"
 1385 04d7 0A       		.byte	0xa
 1386 04d8 0D01     		.2byte	0x10d
 1387 04da 4F040000 		.4byte	0x44f
 1388 04de 18       		.byte	0x18
 1389 04df 08       		.uleb128 0x8
 1390 04e0 72313100 		.ascii	"r11\000"
 1391 04e4 0A       		.byte	0xa
 1392 04e5 0E01     		.2byte	0x10e
 1393 04e7 4F040000 		.4byte	0x44f
 1394 04eb 1C       		.byte	0x1c
 1395 04ec 08       		.uleb128 0x8
 1396 04ed 6C7200   		.ascii	"lr\000"
 1397 04f0 0A       		.byte	0xa
 1398 04f1 0F01     		.2byte	0x10f
 1399 04f3 4F040000 		.4byte	0x44f
 1400 04f7 20       		.byte	0x20
 1401 04f8 00       		.byte	0
 1402 04f9 0A       		.uleb128 0xa
 1403 04fa 04       		.byte	0x4
 1404 04fb 7E040000 		.4byte	0x47e
 1405 04ff 11       		.uleb128 0x11
 1406 0500 04       		.byte	0x4
 1407 0501 0B       		.byte	0xb
 1408 0502 38       		.byte	0x38
 1409 0503 14050000 		.4byte	0x514
 1410 0507 07       		.uleb128 0x7
 1411 0508 60050000 		.4byte	.LASF84
 1412 050c 0B       		.byte	0xb
 1413 050d 3C       		.byte	0x3c
 1414 050e CF000000 		.4byte	0xcf
 1415 0512 00       		.byte	0
 1416 0513 00       		.byte	0
 1417 0514 03       		.uleb128 0x3
 1418 0515 B3030000 		.4byte	.LASF85
 1419 0519 0B       		.byte	0xb
 1420 051a 3D       		.byte	0x3d
 1421 051b FF040000 		.4byte	0x4ff
 1422 051f 12       		.uleb128 0x12
 1423 0520 04       		.byte	0x4
 1424 0521 08       		.byte	0x8
 1425 0522 FA       		.byte	0xfa
 1426 0523 7C050000 		.4byte	0x57c
 1427 0527 13       		.uleb128 0x13
 1428 0528 14000000 		.4byte	.LASF86
ARM GAS  /tmp/ccPPIFRN.s 			page 48


 1429 052c 08       		.byte	0x8
 1430 052d 0101     		.2byte	0x101
 1431 052f 06010000 		.4byte	0x106
 1432 0533 13       		.uleb128 0x13
 1433 0534 92000000 		.4byte	.LASF87
 1434 0538 08       		.byte	0x8
 1435 0539 0801     		.2byte	0x108
 1436 053b 06010000 		.4byte	0x106
 1437 053f 13       		.uleb128 0x13
 1438 0540 DD050000 		.4byte	.LASF88
 1439 0544 08       		.byte	0x8
 1440 0545 0F01     		.2byte	0x10f
 1441 0547 12030000 		.4byte	0x312
 1442 054b 13       		.uleb128 0x13
 1443 054c 1E010000 		.4byte	.LASF89
 1444 0550 08       		.byte	0x8
 1445 0551 1601     		.2byte	0x116
 1446 0553 7C050000 		.4byte	0x57c
 1447 0557 13       		.uleb128 0x13
 1448 0558 C9010000 		.4byte	.LASF90
 1449 055c 08       		.byte	0x8
 1450 055d 1E01     		.2byte	0x11e
 1451 055f A7050000 		.4byte	0x5a7
 1452 0563 13       		.uleb128 0x13
 1453 0564 D0040000 		.4byte	.LASF91
 1454 0568 08       		.byte	0x8
 1455 0569 2701     		.2byte	0x127
 1456 056b DE050000 		.4byte	0x5de
 1457 056f 13       		.uleb128 0x13
 1458 0570 81040000 		.4byte	.LASF92
 1459 0574 08       		.byte	0x8
 1460 0575 2F01     		.2byte	0x12f
 1461 0577 11010000 		.4byte	0x111
 1462 057b 00       		.byte	0
 1463 057c 0A       		.uleb128 0xa
 1464 057d 04       		.byte	0x4
 1465 057e 2A020000 		.4byte	0x22a
 1466 0582 06       		.uleb128 0x6
 1467 0583 AF040000 		.4byte	.LASF93
 1468 0587 0C       		.byte	0xc
 1469 0588 0C       		.byte	0xc
 1470 0589 34       		.byte	0x34
 1471 058a A7050000 		.4byte	0x5a7
 1472 058e 07       		.uleb128 0x7
 1473 058f 56010000 		.4byte	.LASF94
 1474 0593 0C       		.byte	0xc
 1475 0594 35       		.byte	0x35
 1476 0595 5F020000 		.4byte	0x25f
 1477 0599 00       		.byte	0
 1478 059a 07       		.uleb128 0x7
 1479 059b E9010000 		.4byte	.LASF95
 1480 059f 0C       		.byte	0xc
 1481 05a0 37       		.byte	0x37
 1482 05a1 1C010000 		.4byte	0x11c
 1483 05a5 08       		.byte	0x8
 1484 05a6 00       		.byte	0
 1485 05a7 0A       		.uleb128 0xa
ARM GAS  /tmp/ccPPIFRN.s 			page 49


 1486 05a8 04       		.byte	0x4
 1487 05a9 82050000 		.4byte	0x582
 1488 05ad 06       		.uleb128 0x6
 1489 05ae 67050000 		.4byte	.LASF96
 1490 05b2 10       		.byte	0x10
 1491 05b3 0D       		.byte	0xd
 1492 05b4 39       		.byte	0x39
 1493 05b5 DE050000 		.4byte	0x5de
 1494 05b9 07       		.uleb128 0x7
 1495 05ba 03010000 		.4byte	.LASF97
 1496 05be 0D       		.byte	0xd
 1497 05bf 3A       		.byte	0x3a
 1498 05c0 5F020000 		.4byte	0x25f
 1499 05c4 00       		.byte	0
 1500 05c5 07       		.uleb128 0x7
 1501 05c6 2D060000 		.4byte	.LASF98
 1502 05ca 0D       		.byte	0xd
 1503 05cb 3C       		.byte	0x3c
 1504 05cc 35020000 		.4byte	0x235
 1505 05d0 08       		.byte	0x8
 1506 05d1 07       		.uleb128 0x7
 1507 05d2 18050000 		.4byte	.LASF99
 1508 05d6 0D       		.byte	0xd
 1509 05d7 3E       		.byte	0x3e
 1510 05d8 1C060000 		.4byte	0x61c
 1511 05dc 0C       		.byte	0xc
 1512 05dd 00       		.byte	0
 1513 05de 0A       		.uleb128 0xa
 1514 05df 04       		.byte	0x4
 1515 05e0 AD050000 		.4byte	0x5ad
 1516 05e4 0A       		.uleb128 0xa
 1517 05e5 04       		.byte	0x4
 1518 05e6 EA050000 		.4byte	0x5ea
 1519 05ea 14       		.uleb128 0x14
 1520 05eb EF050000 		.4byte	0x5ef
 1521 05ef 04       		.uleb128 0x4
 1522 05f0 01       		.byte	0x1
 1523 05f1 08       		.byte	0x8
 1524 05f2 0A050000 		.4byte	.LASF100
 1525 05f6 0A       		.uleb128 0xa
 1526 05f7 04       		.byte	0x4
 1527 05f8 14030000 		.4byte	0x314
 1528 05fc 05       		.uleb128 0x5
 1529 05fd E4050000 		.4byte	0x5e4
 1530 0601 15       		.uleb128 0x15
 1531 0602 5A040000 		.4byte	0x45a
 1532 0606 11060000 		.4byte	0x611
 1533 060a 16       		.uleb128 0x16
 1534 060b 48040000 		.4byte	0x448
 1535 060f 1A       		.byte	0x1a
 1536 0610 00       		.byte	0
 1537 0611 03       		.uleb128 0x3
 1538 0612 83010000 		.4byte	.LASF101
 1539 0616 0D       		.byte	0xd
 1540 0617 34       		.byte	0x34
 1541 0618 AD050000 		.4byte	0x5ad
 1542 061c 0A       		.uleb128 0xa
ARM GAS  /tmp/ccPPIFRN.s 			page 50


 1543 061d 04       		.byte	0x4
 1544 061e 11060000 		.4byte	0x611
 1545 0622 03       		.uleb128 0x3
 1546 0623 60000000 		.4byte	.LASF102
 1547 0627 0E       		.byte	0xe
 1548 0628 36       		.byte	0x36
 1549 0629 2D060000 		.4byte	0x62d
 1550 062d 0A       		.uleb128 0xa
 1551 062e 04       		.byte	0x4
 1552 062f 33060000 		.4byte	0x633
 1553 0633 17       		.uleb128 0x17
 1554 0634 12030000 		.4byte	0x312
 1555 0638 42060000 		.4byte	0x642
 1556 063c 0D       		.uleb128 0xd
 1557 063d 28000000 		.4byte	0x28
 1558 0641 00       		.byte	0
 1559 0642 06       		.uleb128 0x6
 1560 0643 A5050000 		.4byte	.LASF103
 1561 0647 04       		.byte	0x4
 1562 0648 0F       		.byte	0xf
 1563 0649 38       		.byte	0x38
 1564 064a 5B060000 		.4byte	0x65b
 1565 064e 07       		.uleb128 0x7
 1566 064f E1030000 		.4byte	.LASF104
 1567 0653 0F       		.byte	0xf
 1568 0654 39       		.byte	0x39
 1569 0655 5B060000 		.4byte	0x65b
 1570 0659 00       		.byte	0
 1571 065a 00       		.byte	0
 1572 065b 0A       		.uleb128 0xa
 1573 065c 04       		.byte	0x4
 1574 065d 42060000 		.4byte	0x642
 1575 0661 11       		.uleb128 0x11
 1576 0662 0C       		.byte	0xc
 1577 0663 0F       		.byte	0xf
 1578 0664 40       		.byte	0x40
 1579 0665 8E060000 		.4byte	0x68e
 1580 0669 07       		.uleb128 0x7
 1581 066a 70050000 		.4byte	.LASF105
 1582 066e 0F       		.byte	0xf
 1583 066f 41       		.byte	0x41
 1584 0670 5B060000 		.4byte	0x65b
 1585 0674 00       		.byte	0
 1586 0675 07       		.uleb128 0x7
 1587 0676 A4030000 		.4byte	.LASF106
 1588 067a 0F       		.byte	0xf
 1589 067b 42       		.byte	0x42
 1590 067c 28000000 		.4byte	0x28
 1591 0680 04       		.byte	0x4
 1592 0681 07       		.uleb128 0x7
 1593 0682 66010000 		.4byte	.LASF107
 1594 0686 0F       		.byte	0xf
 1595 0687 44       		.byte	0x44
 1596 0688 22060000 		.4byte	0x622
 1597 068c 08       		.byte	0x8
 1598 068d 00       		.byte	0
 1599 068e 03       		.uleb128 0x3
ARM GAS  /tmp/ccPPIFRN.s 			page 51


 1600 068f DB010000 		.4byte	.LASF108
 1601 0693 0F       		.byte	0xf
 1602 0694 46       		.byte	0x46
 1603 0695 61060000 		.4byte	0x661
 1604 0699 18       		.uleb128 0x18
 1605 069a 48050000 		.4byte	.LASF115
 1606 069e 02       		.byte	0x2
 1607 069f 2002     		.2byte	0x220
 1608 06a1 03       		.byte	0x3
 1609 06a2 B3060000 		.4byte	0x6b3
 1610 06a6 19       		.uleb128 0x19
 1611 06a7 8B010000 		.4byte	.LASF112
 1612 06ab 02       		.byte	0x2
 1613 06ac 2002     		.2byte	0x220
 1614 06ae B4000000 		.4byte	0xb4
 1615 06b2 00       		.byte	0
 1616 06b3 1A       		.uleb128 0x1a
 1617 06b4 23060000 		.4byte	.LASF109
 1618 06b8 0A       		.byte	0xa
 1619 06b9 BC01     		.2byte	0x1bc
 1620 06bb 03       		.byte	0x3
 1621 06bc 1A       		.uleb128 0x1a
 1622 06bd 12010000 		.4byte	.LASF110
 1623 06c1 0A       		.byte	0xa
 1624 06c2 CA01     		.2byte	0x1ca
 1625 06c4 03       		.byte	0x3
 1626 06c5 1A       		.uleb128 0x1a
 1627 06c6 8F040000 		.4byte	.LASF111
 1628 06ca 10       		.byte	0x10
 1629 06cb 5A01     		.2byte	0x15a
 1630 06cd 03       		.byte	0x3
 1631 06ce 1B       		.uleb128 0x1b
 1632 06cf 71030000 		.4byte	.LASF118
 1633 06d3 01       		.byte	0x1
 1634 06d4 78       		.byte	0x78
 1635 06d5 12030000 		.4byte	0x312
 1636 06d9 01       		.byte	0x1
 1637 06da 01070000 		.4byte	0x701
 1638 06de 1C       		.uleb128 0x1c
 1639 06df 6D7000   		.ascii	"mp\000"
 1640 06e2 01       		.byte	0x1
 1641 06e3 78       		.byte	0x78
 1642 06e4 01070000 		.4byte	0x701
 1643 06e8 1D       		.uleb128 0x1d
 1644 06e9 99040000 		.4byte	.LASF113
 1645 06ed 01       		.byte	0x1
 1646 06ee 79       		.byte	0x79
 1647 06ef 12030000 		.4byte	0x312
 1648 06f3 1E       		.uleb128 0x1e
 1649 06f4 84000000 		.4byte	.LASF114
 1650 06f8 17070000 		.4byte	0x717
 1651 06fc 71030000 		.4byte	.LASF118
 1652 0700 00       		.byte	0
 1653 0701 0A       		.uleb128 0xa
 1654 0702 04       		.byte	0x4
 1655 0703 8E060000 		.4byte	0x68e
 1656 0707 15       		.uleb128 0x15
ARM GAS  /tmp/ccPPIFRN.s 			page 52


 1657 0708 EF050000 		.4byte	0x5ef
 1658 070c 17070000 		.4byte	0x717
 1659 0710 16       		.uleb128 0x16
 1660 0711 48040000 		.4byte	0x448
 1661 0715 0C       		.byte	0xc
 1662 0716 00       		.byte	0
 1663 0717 14       		.uleb128 0x14
 1664 0718 07070000 		.4byte	0x707
 1665 071c 18       		.uleb128 0x18
 1666 071d 07060000 		.4byte	.LASF116
 1667 0721 10       		.byte	0x10
 1668 0722 6601     		.2byte	0x166
 1669 0724 03       		.byte	0x3
 1670 0725 37070000 		.4byte	0x737
 1671 0729 1E       		.uleb128 0x1e
 1672 072a BB010000 		.4byte	.LASF117
 1673 072e 47070000 		.4byte	0x747
 1674 0732 07060000 		.4byte	.LASF116
 1675 0736 00       		.byte	0
 1676 0737 15       		.uleb128 0x15
 1677 0738 EF050000 		.4byte	0x5ef
 1678 073c 47070000 		.4byte	0x747
 1679 0740 16       		.uleb128 0x16
 1680 0741 48040000 		.4byte	0x448
 1681 0745 0B       		.byte	0xb
 1682 0746 00       		.byte	0
 1683 0747 14       		.uleb128 0x14
 1684 0748 37070000 		.4byte	0x737
 1685 074c 1F       		.uleb128 0x1f
 1686 074d 7E030000 		.4byte	.LASF120
 1687 0751 01       		.byte	0x1
 1688 0752 AB       		.byte	0xab
 1689 0753 01       		.byte	0x1
 1690 0754 86070000 		.4byte	0x786
 1691 0758 1C       		.uleb128 0x1c
 1692 0759 6D7000   		.ascii	"mp\000"
 1693 075c 01       		.byte	0x1
 1694 075d AB       		.byte	0xab
 1695 075e 01070000 		.4byte	0x701
 1696 0762 20       		.uleb128 0x20
 1697 0763 99040000 		.4byte	.LASF113
 1698 0767 01       		.byte	0x1
 1699 0768 AB       		.byte	0xab
 1700 0769 12030000 		.4byte	0x312
 1701 076d 21       		.uleb128 0x21
 1702 076e 70687000 		.ascii	"php\000"
 1703 0772 01       		.byte	0x1
 1704 0773 AC       		.byte	0xac
 1705 0774 5B060000 		.4byte	0x65b
 1706 0778 1E       		.uleb128 0x1e
 1707 0779 40010000 		.4byte	.LASF119
 1708 077d 86070000 		.4byte	0x786
 1709 0781 7E030000 		.4byte	.LASF120
 1710 0785 00       		.byte	0
 1711 0786 14       		.uleb128 0x14
 1712 0787 37070000 		.4byte	0x737
 1713 078b 1F       		.uleb128 0x1f
ARM GAS  /tmp/ccPPIFRN.s 			page 53


 1714 078c D2050000 		.4byte	.LASF121
 1715 0790 01       		.byte	0x1
 1716 0791 C1       		.byte	0xc1
 1717 0792 01       		.byte	0x1
 1718 0793 AD070000 		.4byte	0x7ad
 1719 0797 1C       		.uleb128 0x1c
 1720 0798 6D7000   		.ascii	"mp\000"
 1721 079b 01       		.byte	0x1
 1722 079c C1       		.byte	0xc1
 1723 079d 01070000 		.4byte	0x701
 1724 07a1 20       		.uleb128 0x20
 1725 07a2 99040000 		.4byte	.LASF113
 1726 07a6 01       		.byte	0x1
 1727 07a7 C1       		.byte	0xc1
 1728 07a8 12030000 		.4byte	0x312
 1729 07ac 00       		.byte	0
 1730 07ad 22       		.uleb128 0x22
 1731 07ae 1E020000 		.4byte	.LASF122
 1732 07b2 0F       		.byte	0xf
 1733 07b3 89       		.byte	0x89
 1734 07b4 03       		.byte	0x3
 1735 07b5 CF070000 		.4byte	0x7cf
 1736 07b9 1C       		.uleb128 0x1c
 1737 07ba 6D7000   		.ascii	"mp\000"
 1738 07bd 0F       		.byte	0xf
 1739 07be 89       		.byte	0x89
 1740 07bf 01070000 		.4byte	0x701
 1741 07c3 20       		.uleb128 0x20
 1742 07c4 99040000 		.4byte	.LASF113
 1743 07c8 0F       		.byte	0xf
 1744 07c9 89       		.byte	0x89
 1745 07ca 12030000 		.4byte	0x312
 1746 07ce 00       		.byte	0
 1747 07cf 23       		.uleb128 0x23
 1748 07d0 30020000 		.4byte	.LASF125
 1749 07d4 01       		.byte	0x1
 1750 07d5 4B       		.byte	0x4b
 1751 07d6 00000000 		.4byte	.LFB229
 1752 07da 0A000000 		.4byte	.LFE229-.LFB229
 1753 07de 01       		.uleb128 0x1
 1754 07df 9C       		.byte	0x9c
 1755 07e0 14080000 		.4byte	0x814
 1756 07e4 24       		.uleb128 0x24
 1757 07e5 6D7000   		.ascii	"mp\000"
 1758 07e8 01       		.byte	0x1
 1759 07e9 4B       		.byte	0x4b
 1760 07ea 01070000 		.4byte	0x701
 1761 07ee 01       		.uleb128 0x1
 1762 07ef 50       		.byte	0x50
 1763 07f0 25       		.uleb128 0x25
 1764 07f1 EB050000 		.4byte	.LASF123
 1765 07f5 01       		.byte	0x1
 1766 07f6 4B       		.byte	0x4b
 1767 07f7 28000000 		.4byte	0x28
 1768 07fb 01       		.uleb128 0x1
 1769 07fc 51       		.byte	0x51
 1770 07fd 25       		.uleb128 0x25
ARM GAS  /tmp/ccPPIFRN.s 			page 54


 1771 07fe 49000000 		.4byte	.LASF124
 1772 0802 01       		.byte	0x1
 1773 0803 4B       		.byte	0x4b
 1774 0804 22060000 		.4byte	0x622
 1775 0808 01       		.uleb128 0x1
 1776 0809 52       		.byte	0x52
 1777 080a 26       		.uleb128 0x26
 1778 080b 5B020000 		.4byte	.LASF127
 1779 080f 24080000 		.4byte	0x824
 1780 0813 00       		.byte	0
 1781 0814 15       		.uleb128 0x15
 1782 0815 EF050000 		.4byte	0x5ef
 1783 0819 24080000 		.4byte	0x824
 1784 081d 16       		.uleb128 0x16
 1785 081e 48040000 		.4byte	0x448
 1786 0822 10       		.byte	0x10
 1787 0823 00       		.byte	0
 1788 0824 14       		.uleb128 0x14
 1789 0825 14080000 		.4byte	0x814
 1790 0829 23       		.uleb128 0x23
 1791 082a 13060000 		.4byte	.LASF126
 1792 082e 01       		.byte	0x1
 1793 082f 61       		.byte	0x61
 1794 0830 00000000 		.4byte	.LFB230
 1795 0834 22000000 		.4byte	.LFE230-.LFB230
 1796 0838 01       		.uleb128 0x1
 1797 0839 9C       		.byte	0x9c
 1798 083a 75090000 		.4byte	0x975
 1799 083e 24       		.uleb128 0x24
 1800 083f 6D7000   		.ascii	"mp\000"
 1801 0842 01       		.byte	0x1
 1802 0843 61       		.byte	0x61
 1803 0844 01070000 		.4byte	0x701
 1804 0848 01       		.uleb128 0x1
 1805 0849 50       		.byte	0x50
 1806 084a 27       		.uleb128 0x27
 1807 084b 7000     		.ascii	"p\000"
 1808 084d 01       		.byte	0x1
 1809 084e 61       		.byte	0x61
 1810 084f 12030000 		.4byte	0x312
 1811 0853 00000000 		.4byte	.LLST0
 1812 0857 27       		.uleb128 0x27
 1813 0858 6E00     		.ascii	"n\000"
 1814 085a 01       		.byte	0x1
 1815 085b 61       		.byte	0x61
 1816 085c 28000000 		.4byte	0x28
 1817 0860 1E000000 		.4byte	.LLST1
 1818 0864 26       		.uleb128 0x26
 1819 0865 52000000 		.4byte	.LASF128
 1820 0869 85090000 		.4byte	0x985
 1821 086d 28       		.uleb128 0x28
 1822 086e AD070000 		.4byte	0x7ad
 1823 0872 04000000 		.4byte	.LBB77
 1824 0876 12000000 		.4byte	.LBE77-.LBB77
 1825 087a 01       		.byte	0x1
 1826 087b 66       		.byte	0x66
 1827 087c 29       		.uleb128 0x29
ARM GAS  /tmp/ccPPIFRN.s 			page 55


 1828 087d B9070000 		.4byte	0x7b9
 1829 0881 49000000 		.4byte	.LLST2
 1830 0885 29       		.uleb128 0x29
 1831 0886 C3070000 		.4byte	0x7c3
 1832 088a 5C000000 		.4byte	.LLST3
 1833 088e 28       		.uleb128 0x28
 1834 088f 8B070000 		.4byte	0x78b
 1835 0893 04000000 		.4byte	.LBB78
 1836 0897 12000000 		.4byte	.LBE78-.LBB78
 1837 089b 0F       		.byte	0xf
 1838 089c 8B       		.byte	0x8b
 1839 089d 29       		.uleb128 0x29
 1840 089e A1070000 		.4byte	0x7a1
 1841 08a2 5C000000 		.4byte	.LLST3
 1842 08a6 29       		.uleb128 0x29
 1843 08a7 97070000 		.4byte	0x797
 1844 08ab 49000000 		.4byte	.LLST2
 1845 08af 2A       		.uleb128 0x2a
 1846 08b0 C5060000 		.4byte	0x6c5
 1847 08b4 04000000 		.4byte	.LBB79
 1848 08b8 00000000 		.4byte	.Ldebug_ranges0+0
 1849 08bc 01       		.byte	0x1
 1850 08bd C3       		.byte	0xc3
 1851 08be EE080000 		.4byte	0x8ee
 1852 08c2 2B       		.uleb128 0x2b
 1853 08c3 B3060000 		.4byte	0x6b3
 1854 08c7 04000000 		.4byte	.LBB80
 1855 08cb 00000000 		.4byte	.Ldebug_ranges0+0
 1856 08cf 10       		.byte	0x10
 1857 08d0 5C01     		.2byte	0x15c
 1858 08d2 2B       		.uleb128 0x2b
 1859 08d3 99060000 		.4byte	0x699
 1860 08d7 04000000 		.4byte	.LBB81
 1861 08db 00000000 		.4byte	.Ldebug_ranges0+0
 1862 08df 0A       		.byte	0xa
 1863 08e0 BF01     		.2byte	0x1bf
 1864 08e2 29       		.uleb128 0x29
 1865 08e3 A6060000 		.4byte	0x6a6
 1866 08e7 7B000000 		.4byte	.LLST6
 1867 08eb 00       		.byte	0
 1868 08ec 00       		.byte	0
 1869 08ed 00       		.byte	0
 1870 08ee 2A       		.uleb128 0x2a
 1871 08ef 1C070000 		.4byte	0x71c
 1872 08f3 06000000 		.4byte	.LBB86
 1873 08f7 18000000 		.4byte	.Ldebug_ranges0+0x18
 1874 08fb 01       		.byte	0x1
 1875 08fc C5       		.byte	0xc5
 1876 08fd 38090000 		.4byte	0x938
 1877 0901 2C       		.uleb128 0x2c
 1878 0902 18000000 		.4byte	.Ldebug_ranges0+0x18
 1879 0906 2D       		.uleb128 0x2d
 1880 0907 29070000 		.4byte	0x729
 1881 090b 2B       		.uleb128 0x2b
 1882 090c BC060000 		.4byte	0x6bc
 1883 0910 06000000 		.4byte	.LBB88
 1884 0914 18000000 		.4byte	.Ldebug_ranges0+0x18
ARM GAS  /tmp/ccPPIFRN.s 			page 56


 1885 0918 10       		.byte	0x10
 1886 0919 7301     		.2byte	0x173
 1887 091b 2B       		.uleb128 0x2b
 1888 091c 99060000 		.4byte	0x699
 1889 0920 06000000 		.4byte	.LBB89
 1890 0924 18000000 		.4byte	.Ldebug_ranges0+0x18
 1891 0928 0A       		.byte	0xa
 1892 0929 CD01     		.2byte	0x1cd
 1893 092b 29       		.uleb128 0x29
 1894 092c A6060000 		.4byte	0x6a6
 1895 0930 90000000 		.4byte	.LLST7
 1896 0934 00       		.byte	0
 1897 0935 00       		.byte	0
 1898 0936 00       		.byte	0
 1899 0937 00       		.byte	0
 1900 0938 28       		.uleb128 0x28
 1901 0939 4C070000 		.4byte	0x74c
 1902 093d 0C000000 		.4byte	.LBB96
 1903 0941 06000000 		.4byte	.LBE96-.LBB96
 1904 0945 01       		.byte	0x1
 1905 0946 C4       		.byte	0xc4
 1906 0947 29       		.uleb128 0x29
 1907 0948 62070000 		.4byte	0x762
 1908 094c A4000000 		.4byte	.LLST8
 1909 0950 29       		.uleb128 0x29
 1910 0951 58070000 		.4byte	0x758
 1911 0955 C3000000 		.4byte	.LLST9
 1912 0959 2E       		.uleb128 0x2e
 1913 095a 0C000000 		.4byte	.LBB97
 1914 095e 06000000 		.4byte	.LBE97-.LBB97
 1915 0962 2F       		.uleb128 0x2f
 1916 0963 6D070000 		.4byte	0x76d
 1917 0967 A4000000 		.4byte	.LLST8
 1918 096b 2D       		.uleb128 0x2d
 1919 096c 78070000 		.4byte	0x778
 1920 0970 00       		.byte	0
 1921 0971 00       		.byte	0
 1922 0972 00       		.byte	0
 1923 0973 00       		.byte	0
 1924 0974 00       		.byte	0
 1925 0975 15       		.uleb128 0x15
 1926 0976 EF050000 		.4byte	0x5ef
 1927 097a 85090000 		.4byte	0x985
 1928 097e 16       		.uleb128 0x16
 1929 097f 48040000 		.4byte	0x448
 1930 0983 0F       		.byte	0xf
 1931 0984 00       		.byte	0
 1932 0985 14       		.uleb128 0x14
 1933 0986 75090000 		.4byte	0x975
 1934 098a 30       		.uleb128 0x30
 1935 098b CE060000 		.4byte	0x6ce
 1936 098f 00000000 		.4byte	.LFB231
 1937 0993 18000000 		.4byte	.LFE231-.LFB231
 1938 0997 01       		.uleb128 0x1
 1939 0998 9C       		.byte	0x9c
 1940 0999 B5090000 		.4byte	0x9b5
 1941 099d 29       		.uleb128 0x29
ARM GAS  /tmp/ccPPIFRN.s 			page 57


 1942 099e DE060000 		.4byte	0x6de
 1943 09a2 D6000000 		.4byte	.LLST11
 1944 09a6 2F       		.uleb128 0x2f
 1945 09a7 E8060000 		.4byte	0x6e8
 1946 09ab 02010000 		.4byte	.LLST12
 1947 09af 2D       		.uleb128 0x2d
 1948 09b0 F3060000 		.4byte	0x6f3
 1949 09b4 00       		.byte	0
 1950 09b5 31       		.uleb128 0x31
 1951 09b6 C6050000 		.4byte	.LASF132
 1952 09ba 01       		.byte	0x1
 1953 09bb 95       		.byte	0x95
 1954 09bc 12030000 		.4byte	0x312
 1955 09c0 00000000 		.4byte	.LFB232
 1956 09c4 2C000000 		.4byte	.LFE232-.LFB232
 1957 09c8 01       		.uleb128 0x1
 1958 09c9 9C       		.byte	0x9c
 1959 09ca 9D0A0000 		.4byte	0xa9d
 1960 09ce 27       		.uleb128 0x27
 1961 09cf 6D7000   		.ascii	"mp\000"
 1962 09d2 01       		.byte	0x1
 1963 09d3 95       		.byte	0x95
 1964 09d4 01070000 		.4byte	0x701
 1965 09d8 2C010000 		.4byte	.LLST13
 1966 09dc 32       		.uleb128 0x32
 1967 09dd 99040000 		.4byte	.LASF113
 1968 09e1 01       		.byte	0x1
 1969 09e2 96       		.byte	0x96
 1970 09e3 12030000 		.4byte	0x312
 1971 09e7 01       		.uleb128 0x1
 1972 09e8 50       		.byte	0x50
 1973 09e9 2A       		.uleb128 0x2a
 1974 09ea C5060000 		.4byte	0x6c5
 1975 09ee 02000000 		.4byte	.LBB99
 1976 09f2 30000000 		.4byte	.Ldebug_ranges0+0x30
 1977 09f6 01       		.byte	0x1
 1978 09f7 98       		.byte	0x98
 1979 09f8 250A0000 		.4byte	0xa25
 1980 09fc 2B       		.uleb128 0x2b
 1981 09fd B3060000 		.4byte	0x6b3
 1982 0a01 02000000 		.4byte	.LBB100
 1983 0a05 30000000 		.4byte	.Ldebug_ranges0+0x30
 1984 0a09 10       		.byte	0x10
 1985 0a0a 5C01     		.2byte	0x15c
 1986 0a0c 2B       		.uleb128 0x2b
 1987 0a0d 99060000 		.4byte	0x699
 1988 0a11 02000000 		.4byte	.LBB101
 1989 0a15 30000000 		.4byte	.Ldebug_ranges0+0x30
 1990 0a19 0A       		.byte	0xa
 1991 0a1a BF01     		.2byte	0x1bf
 1992 0a1c 33       		.uleb128 0x33
 1993 0a1d A6060000 		.4byte	0x6a6
 1994 0a21 20       		.byte	0x20
 1995 0a22 00       		.byte	0
 1996 0a23 00       		.byte	0
 1997 0a24 00       		.byte	0
 1998 0a25 2A       		.uleb128 0x2a
ARM GAS  /tmp/ccPPIFRN.s 			page 58


 1999 0a26 CE060000 		.4byte	0x6ce
 2000 0a2a 0A000000 		.4byte	.LBB107
 2001 0a2e 48000000 		.4byte	.Ldebug_ranges0+0x48
 2002 0a32 01       		.byte	0x1
 2003 0a33 99       		.byte	0x99
 2004 0a34 560A0000 		.4byte	0xa56
 2005 0a38 29       		.uleb128 0x29
 2006 0a39 DE060000 		.4byte	0x6de
 2007 0a3d 71010000 		.4byte	.LLST14
 2008 0a41 2C       		.uleb128 0x2c
 2009 0a42 48000000 		.4byte	.Ldebug_ranges0+0x48
 2010 0a46 2F       		.uleb128 0x2f
 2011 0a47 E8060000 		.4byte	0x6e8
 2012 0a4b B6010000 		.4byte	.LLST15
 2013 0a4f 2D       		.uleb128 0x2d
 2014 0a50 F3060000 		.4byte	0x6f3
 2015 0a54 00       		.byte	0
 2016 0a55 00       		.byte	0
 2017 0a56 34       		.uleb128 0x34
 2018 0a57 1C070000 		.4byte	0x71c
 2019 0a5b 12000000 		.4byte	.LBB110
 2020 0a5f 60000000 		.4byte	.Ldebug_ranges0+0x60
 2021 0a63 01       		.byte	0x1
 2022 0a64 9A       		.byte	0x9a
 2023 0a65 2C       		.uleb128 0x2c
 2024 0a66 60000000 		.4byte	.Ldebug_ranges0+0x60
 2025 0a6a 2D       		.uleb128 0x2d
 2026 0a6b 29070000 		.4byte	0x729
 2027 0a6f 2B       		.uleb128 0x2b
 2028 0a70 BC060000 		.4byte	0x6bc
 2029 0a74 12000000 		.4byte	.LBB112
 2030 0a78 60000000 		.4byte	.Ldebug_ranges0+0x60
 2031 0a7c 10       		.byte	0x10
 2032 0a7d 7301     		.2byte	0x173
 2033 0a7f 2B       		.uleb128 0x2b
 2034 0a80 99060000 		.4byte	0x699
 2035 0a84 12000000 		.4byte	.LBB113
 2036 0a88 60000000 		.4byte	.Ldebug_ranges0+0x60
 2037 0a8c 0A       		.byte	0xa
 2038 0a8d CD01     		.2byte	0x1cd
 2039 0a8f 29       		.uleb128 0x29
 2040 0a90 A6060000 		.4byte	0x6a6
 2041 0a94 E0010000 		.4byte	.LLST16
 2042 0a98 00       		.byte	0
 2043 0a99 00       		.byte	0
 2044 0a9a 00       		.byte	0
 2045 0a9b 00       		.byte	0
 2046 0a9c 00       		.byte	0
 2047 0a9d 35       		.uleb128 0x35
 2048 0a9e 4C070000 		.4byte	0x74c
 2049 0aa2 00000000 		.4byte	.LFB233
 2050 0aa6 08000000 		.4byte	.LFE233-.LFB233
 2051 0aaa 01       		.uleb128 0x1
 2052 0aab 9C       		.byte	0x9c
 2053 0aac CB0A0000 		.4byte	0xacb
 2054 0ab0 36       		.uleb128 0x36
 2055 0ab1 58070000 		.4byte	0x758
ARM GAS  /tmp/ccPPIFRN.s 			page 59


 2056 0ab5 01       		.uleb128 0x1
 2057 0ab6 50       		.byte	0x50
 2058 0ab7 36       		.uleb128 0x36
 2059 0ab8 62070000 		.4byte	0x762
 2060 0abc 01       		.uleb128 0x1
 2061 0abd 51       		.byte	0x51
 2062 0abe 37       		.uleb128 0x37
 2063 0abf 6D070000 		.4byte	0x76d
 2064 0ac3 01       		.uleb128 0x1
 2065 0ac4 51       		.byte	0x51
 2066 0ac5 2D       		.uleb128 0x2d
 2067 0ac6 78070000 		.4byte	0x778
 2068 0aca 00       		.byte	0
 2069 0acb 35       		.uleb128 0x35
 2070 0acc 8B070000 		.4byte	0x78b
 2071 0ad0 00000000 		.4byte	.LFB234
 2072 0ad4 14000000 		.4byte	.LFE234-.LFB234
 2073 0ad8 01       		.uleb128 0x1
 2074 0ad9 9C       		.byte	0x9c
 2075 0ada A00B0000 		.4byte	0xba0
 2076 0ade 36       		.uleb128 0x36
 2077 0adf 97070000 		.4byte	0x797
 2078 0ae3 01       		.uleb128 0x1
 2079 0ae4 50       		.byte	0x50
 2080 0ae5 36       		.uleb128 0x36
 2081 0ae6 A1070000 		.4byte	0x7a1
 2082 0aea 01       		.uleb128 0x1
 2083 0aeb 51       		.byte	0x51
 2084 0aec 38       		.uleb128 0x38
 2085 0aed C5060000 		.4byte	0x6c5
 2086 0af1 00000000 		.4byte	.LBB121
 2087 0af5 06000000 		.4byte	.LBE121-.LBB121
 2088 0af9 01       		.byte	0x1
 2089 0afa C3       		.byte	0xc3
 2090 0afb 280B0000 		.4byte	0xb28
 2091 0aff 39       		.uleb128 0x39
 2092 0b00 B3060000 		.4byte	0x6b3
 2093 0b04 00000000 		.4byte	.LBB122
 2094 0b08 06000000 		.4byte	.LBE122-.LBB122
 2095 0b0c 10       		.byte	0x10
 2096 0b0d 5C01     		.2byte	0x15c
 2097 0b0f 39       		.uleb128 0x39
 2098 0b10 99060000 		.4byte	0x699
 2099 0b14 00000000 		.4byte	.LBB123
 2100 0b18 06000000 		.4byte	.LBE123-.LBB123
 2101 0b1c 0A       		.byte	0xa
 2102 0b1d BF01     		.2byte	0x1bf
 2103 0b1f 33       		.uleb128 0x33
 2104 0b20 A6060000 		.4byte	0x6a6
 2105 0b24 20       		.byte	0x20
 2106 0b25 00       		.byte	0
 2107 0b26 00       		.byte	0
 2108 0b27 00       		.byte	0
 2109 0b28 2A       		.uleb128 0x2a
 2110 0b29 4C070000 		.4byte	0x74c
 2111 0b2d 06000000 		.4byte	.LBB125
 2112 0b31 78000000 		.4byte	.Ldebug_ranges0+0x78
ARM GAS  /tmp/ccPPIFRN.s 			page 60


 2113 0b35 01       		.byte	0x1
 2114 0b36 C4       		.byte	0xc4
 2115 0b37 5C0B0000 		.4byte	0xb5c
 2116 0b3b 36       		.uleb128 0x36
 2117 0b3c 62070000 		.4byte	0x762
 2118 0b40 01       		.uleb128 0x1
 2119 0b41 51       		.byte	0x51
 2120 0b42 36       		.uleb128 0x36
 2121 0b43 58070000 		.4byte	0x758
 2122 0b47 01       		.uleb128 0x1
 2123 0b48 50       		.byte	0x50
 2124 0b49 2C       		.uleb128 0x2c
 2125 0b4a 78000000 		.4byte	.Ldebug_ranges0+0x78
 2126 0b4e 37       		.uleb128 0x37
 2127 0b4f 6D070000 		.4byte	0x76d
 2128 0b53 01       		.uleb128 0x1
 2129 0b54 51       		.byte	0x51
 2130 0b55 2D       		.uleb128 0x2d
 2131 0b56 78070000 		.4byte	0x778
 2132 0b5a 00       		.byte	0
 2133 0b5b 00       		.byte	0
 2134 0b5c 34       		.uleb128 0x34
 2135 0b5d 1C070000 		.4byte	0x71c
 2136 0b61 0A000000 		.4byte	.LBB128
 2137 0b65 90000000 		.4byte	.Ldebug_ranges0+0x90
 2138 0b69 01       		.byte	0x1
 2139 0b6a C5       		.byte	0xc5
 2140 0b6b 2C       		.uleb128 0x2c
 2141 0b6c 90000000 		.4byte	.Ldebug_ranges0+0x90
 2142 0b70 2D       		.uleb128 0x2d
 2143 0b71 29070000 		.4byte	0x729
 2144 0b75 2B       		.uleb128 0x2b
 2145 0b76 BC060000 		.4byte	0x6bc
 2146 0b7a 0A000000 		.4byte	.LBB130
 2147 0b7e 90000000 		.4byte	.Ldebug_ranges0+0x90
 2148 0b82 10       		.byte	0x10
 2149 0b83 7301     		.2byte	0x173
 2150 0b85 2B       		.uleb128 0x2b
 2151 0b86 99060000 		.4byte	0x699
 2152 0b8a 0A000000 		.4byte	.LBB131
 2153 0b8e 90000000 		.4byte	.Ldebug_ranges0+0x90
 2154 0b92 0A       		.byte	0xa
 2155 0b93 CD01     		.2byte	0x1cd
 2156 0b95 33       		.uleb128 0x33
 2157 0b96 A6060000 		.4byte	0x6a6
 2158 0b9a 00       		.byte	0
 2159 0b9b 00       		.byte	0
 2160 0b9c 00       		.byte	0
 2161 0b9d 00       		.byte	0
 2162 0b9e 00       		.byte	0
 2163 0b9f 00       		.byte	0
 2164 0ba0 3A       		.uleb128 0x3a
 2165 0ba1 BC000000 		.4byte	.LASF129
 2166 0ba5 11       		.byte	0x11
 2167 0ba6 A706     		.2byte	0x6a7
 2168 0ba8 CA000000 		.4byte	0xca
 2169 0bac 3B       		.uleb128 0x3b
ARM GAS  /tmp/ccPPIFRN.s 			page 61


 2170 0bad 636800   		.ascii	"ch\000"
 2171 0bb0 08       		.byte	0x8
 2172 0bb1 0902     		.2byte	0x209
 2173 0bb3 E1030000 		.4byte	0x3e1
 2174 0bb7 00       		.byte	0
 2175              		.section	.debug_abbrev,"",%progbits
 2176              	.Ldebug_abbrev0:
 2177 0000 01       		.uleb128 0x1
 2178 0001 11       		.uleb128 0x11
 2179 0002 01       		.byte	0x1
 2180 0003 25       		.uleb128 0x25
 2181 0004 0E       		.uleb128 0xe
 2182 0005 13       		.uleb128 0x13
 2183 0006 0B       		.uleb128 0xb
 2184 0007 03       		.uleb128 0x3
 2185 0008 0E       		.uleb128 0xe
 2186 0009 55       		.uleb128 0x55
 2187 000a 17       		.uleb128 0x17
 2188 000b 11       		.uleb128 0x11
 2189 000c 01       		.uleb128 0x1
 2190 000d 10       		.uleb128 0x10
 2191 000e 17       		.uleb128 0x17
 2192 000f 00       		.byte	0
 2193 0010 00       		.byte	0
 2194 0011 02       		.uleb128 0x2
 2195 0012 24       		.uleb128 0x24
 2196 0013 00       		.byte	0
 2197 0014 0B       		.uleb128 0xb
 2198 0015 0B       		.uleb128 0xb
 2199 0016 3E       		.uleb128 0x3e
 2200 0017 0B       		.uleb128 0xb
 2201 0018 03       		.uleb128 0x3
 2202 0019 08       		.uleb128 0x8
 2203 001a 00       		.byte	0
 2204 001b 00       		.byte	0
 2205 001c 03       		.uleb128 0x3
 2206 001d 16       		.uleb128 0x16
 2207 001e 00       		.byte	0
 2208 001f 03       		.uleb128 0x3
 2209 0020 0E       		.uleb128 0xe
 2210 0021 3A       		.uleb128 0x3a
 2211 0022 0B       		.uleb128 0xb
 2212 0023 3B       		.uleb128 0x3b
 2213 0024 0B       		.uleb128 0xb
 2214 0025 49       		.uleb128 0x49
 2215 0026 13       		.uleb128 0x13
 2216 0027 00       		.byte	0
 2217 0028 00       		.byte	0
 2218 0029 04       		.uleb128 0x4
 2219 002a 24       		.uleb128 0x24
 2220 002b 00       		.byte	0
 2221 002c 0B       		.uleb128 0xb
 2222 002d 0B       		.uleb128 0xb
 2223 002e 3E       		.uleb128 0x3e
 2224 002f 0B       		.uleb128 0xb
 2225 0030 03       		.uleb128 0x3
 2226 0031 0E       		.uleb128 0xe
ARM GAS  /tmp/ccPPIFRN.s 			page 62


 2227 0032 00       		.byte	0
 2228 0033 00       		.byte	0
 2229 0034 05       		.uleb128 0x5
 2230 0035 35       		.uleb128 0x35
 2231 0036 00       		.byte	0
 2232 0037 49       		.uleb128 0x49
 2233 0038 13       		.uleb128 0x13
 2234 0039 00       		.byte	0
 2235 003a 00       		.byte	0
 2236 003b 06       		.uleb128 0x6
 2237 003c 13       		.uleb128 0x13
 2238 003d 01       		.byte	0x1
 2239 003e 03       		.uleb128 0x3
 2240 003f 0E       		.uleb128 0xe
 2241 0040 0B       		.uleb128 0xb
 2242 0041 0B       		.uleb128 0xb
 2243 0042 3A       		.uleb128 0x3a
 2244 0043 0B       		.uleb128 0xb
 2245 0044 3B       		.uleb128 0x3b
 2246 0045 0B       		.uleb128 0xb
 2247 0046 01       		.uleb128 0x1
 2248 0047 13       		.uleb128 0x13
 2249 0048 00       		.byte	0
 2250 0049 00       		.byte	0
 2251 004a 07       		.uleb128 0x7
 2252 004b 0D       		.uleb128 0xd
 2253 004c 00       		.byte	0
 2254 004d 03       		.uleb128 0x3
 2255 004e 0E       		.uleb128 0xe
 2256 004f 3A       		.uleb128 0x3a
 2257 0050 0B       		.uleb128 0xb
 2258 0051 3B       		.uleb128 0x3b
 2259 0052 0B       		.uleb128 0xb
 2260 0053 49       		.uleb128 0x49
 2261 0054 13       		.uleb128 0x13
 2262 0055 38       		.uleb128 0x38
 2263 0056 0B       		.uleb128 0xb
 2264 0057 00       		.byte	0
 2265 0058 00       		.byte	0
 2266 0059 08       		.uleb128 0x8
 2267 005a 0D       		.uleb128 0xd
 2268 005b 00       		.byte	0
 2269 005c 03       		.uleb128 0x3
 2270 005d 08       		.uleb128 0x8
 2271 005e 3A       		.uleb128 0x3a
 2272 005f 0B       		.uleb128 0xb
 2273 0060 3B       		.uleb128 0x3b
 2274 0061 05       		.uleb128 0x5
 2275 0062 49       		.uleb128 0x49
 2276 0063 13       		.uleb128 0x13
 2277 0064 38       		.uleb128 0x38
 2278 0065 0B       		.uleb128 0xb
 2279 0066 00       		.byte	0
 2280 0067 00       		.byte	0
 2281 0068 09       		.uleb128 0x9
 2282 0069 0D       		.uleb128 0xd
 2283 006a 00       		.byte	0
ARM GAS  /tmp/ccPPIFRN.s 			page 63


 2284 006b 03       		.uleb128 0x3
 2285 006c 0E       		.uleb128 0xe
 2286 006d 3A       		.uleb128 0x3a
 2287 006e 0B       		.uleb128 0xb
 2288 006f 3B       		.uleb128 0x3b
 2289 0070 05       		.uleb128 0x5
 2290 0071 49       		.uleb128 0x49
 2291 0072 13       		.uleb128 0x13
 2292 0073 38       		.uleb128 0x38
 2293 0074 0B       		.uleb128 0xb
 2294 0075 00       		.byte	0
 2295 0076 00       		.byte	0
 2296 0077 0A       		.uleb128 0xa
 2297 0078 0F       		.uleb128 0xf
 2298 0079 00       		.byte	0
 2299 007a 0B       		.uleb128 0xb
 2300 007b 0B       		.uleb128 0xb
 2301 007c 49       		.uleb128 0x49
 2302 007d 13       		.uleb128 0x13
 2303 007e 00       		.byte	0
 2304 007f 00       		.byte	0
 2305 0080 0B       		.uleb128 0xb
 2306 0081 13       		.uleb128 0x13
 2307 0082 01       		.byte	0x1
 2308 0083 03       		.uleb128 0x3
 2309 0084 0E       		.uleb128 0xe
 2310 0085 0B       		.uleb128 0xb
 2311 0086 0B       		.uleb128 0xb
 2312 0087 3A       		.uleb128 0x3a
 2313 0088 0B       		.uleb128 0xb
 2314 0089 3B       		.uleb128 0x3b
 2315 008a 05       		.uleb128 0x5
 2316 008b 01       		.uleb128 0x1
 2317 008c 13       		.uleb128 0x13
 2318 008d 00       		.byte	0
 2319 008e 00       		.byte	0
 2320 008f 0C       		.uleb128 0xc
 2321 0090 15       		.uleb128 0x15
 2322 0091 01       		.byte	0x1
 2323 0092 27       		.uleb128 0x27
 2324 0093 19       		.uleb128 0x19
 2325 0094 01       		.uleb128 0x1
 2326 0095 13       		.uleb128 0x13
 2327 0096 00       		.byte	0
 2328 0097 00       		.byte	0
 2329 0098 0D       		.uleb128 0xd
 2330 0099 05       		.uleb128 0x5
 2331 009a 00       		.byte	0
 2332 009b 49       		.uleb128 0x49
 2333 009c 13       		.uleb128 0x13
 2334 009d 00       		.byte	0
 2335 009e 00       		.byte	0
 2336 009f 0E       		.uleb128 0xe
 2337 00a0 0F       		.uleb128 0xf
 2338 00a1 00       		.byte	0
 2339 00a2 0B       		.uleb128 0xb
 2340 00a3 0B       		.uleb128 0xb
ARM GAS  /tmp/ccPPIFRN.s 			page 64


 2341 00a4 00       		.byte	0
 2342 00a5 00       		.byte	0
 2343 00a6 0F       		.uleb128 0xf
 2344 00a7 13       		.uleb128 0x13
 2345 00a8 01       		.byte	0x1
 2346 00a9 03       		.uleb128 0x3
 2347 00aa 0E       		.uleb128 0xe
 2348 00ab 0B       		.uleb128 0xb
 2349 00ac 05       		.uleb128 0x5
 2350 00ad 3A       		.uleb128 0x3a
 2351 00ae 0B       		.uleb128 0xb
 2352 00af 3B       		.uleb128 0x3b
 2353 00b0 05       		.uleb128 0x5
 2354 00b1 01       		.uleb128 0x1
 2355 00b2 13       		.uleb128 0x13
 2356 00b3 00       		.byte	0
 2357 00b4 00       		.byte	0
 2358 00b5 10       		.uleb128 0x10
 2359 00b6 0D       		.uleb128 0xd
 2360 00b7 00       		.byte	0
 2361 00b8 03       		.uleb128 0x3
 2362 00b9 08       		.uleb128 0x8
 2363 00ba 3A       		.uleb128 0x3a
 2364 00bb 0B       		.uleb128 0xb
 2365 00bc 3B       		.uleb128 0x3b
 2366 00bd 0B       		.uleb128 0xb
 2367 00be 49       		.uleb128 0x49
 2368 00bf 13       		.uleb128 0x13
 2369 00c0 38       		.uleb128 0x38
 2370 00c1 0B       		.uleb128 0xb
 2371 00c2 00       		.byte	0
 2372 00c3 00       		.byte	0
 2373 00c4 11       		.uleb128 0x11
 2374 00c5 13       		.uleb128 0x13
 2375 00c6 01       		.byte	0x1
 2376 00c7 0B       		.uleb128 0xb
 2377 00c8 0B       		.uleb128 0xb
 2378 00c9 3A       		.uleb128 0x3a
 2379 00ca 0B       		.uleb128 0xb
 2380 00cb 3B       		.uleb128 0x3b
 2381 00cc 0B       		.uleb128 0xb
 2382 00cd 01       		.uleb128 0x1
 2383 00ce 13       		.uleb128 0x13
 2384 00cf 00       		.byte	0
 2385 00d0 00       		.byte	0
 2386 00d1 12       		.uleb128 0x12
 2387 00d2 17       		.uleb128 0x17
 2388 00d3 01       		.byte	0x1
 2389 00d4 0B       		.uleb128 0xb
 2390 00d5 0B       		.uleb128 0xb
 2391 00d6 3A       		.uleb128 0x3a
 2392 00d7 0B       		.uleb128 0xb
 2393 00d8 3B       		.uleb128 0x3b
 2394 00d9 0B       		.uleb128 0xb
 2395 00da 01       		.uleb128 0x1
 2396 00db 13       		.uleb128 0x13
 2397 00dc 00       		.byte	0
ARM GAS  /tmp/ccPPIFRN.s 			page 65


 2398 00dd 00       		.byte	0
 2399 00de 13       		.uleb128 0x13
 2400 00df 0D       		.uleb128 0xd
 2401 00e0 00       		.byte	0
 2402 00e1 03       		.uleb128 0x3
 2403 00e2 0E       		.uleb128 0xe
 2404 00e3 3A       		.uleb128 0x3a
 2405 00e4 0B       		.uleb128 0xb
 2406 00e5 3B       		.uleb128 0x3b
 2407 00e6 05       		.uleb128 0x5
 2408 00e7 49       		.uleb128 0x49
 2409 00e8 13       		.uleb128 0x13
 2410 00e9 00       		.byte	0
 2411 00ea 00       		.byte	0
 2412 00eb 14       		.uleb128 0x14
 2413 00ec 26       		.uleb128 0x26
 2414 00ed 00       		.byte	0
 2415 00ee 49       		.uleb128 0x49
 2416 00ef 13       		.uleb128 0x13
 2417 00f0 00       		.byte	0
 2418 00f1 00       		.byte	0
 2419 00f2 15       		.uleb128 0x15
 2420 00f3 01       		.uleb128 0x1
 2421 00f4 01       		.byte	0x1
 2422 00f5 49       		.uleb128 0x49
 2423 00f6 13       		.uleb128 0x13
 2424 00f7 01       		.uleb128 0x1
 2425 00f8 13       		.uleb128 0x13
 2426 00f9 00       		.byte	0
 2427 00fa 00       		.byte	0
 2428 00fb 16       		.uleb128 0x16
 2429 00fc 21       		.uleb128 0x21
 2430 00fd 00       		.byte	0
 2431 00fe 49       		.uleb128 0x49
 2432 00ff 13       		.uleb128 0x13
 2433 0100 2F       		.uleb128 0x2f
 2434 0101 0B       		.uleb128 0xb
 2435 0102 00       		.byte	0
 2436 0103 00       		.byte	0
 2437 0104 17       		.uleb128 0x17
 2438 0105 15       		.uleb128 0x15
 2439 0106 01       		.byte	0x1
 2440 0107 27       		.uleb128 0x27
 2441 0108 19       		.uleb128 0x19
 2442 0109 49       		.uleb128 0x49
 2443 010a 13       		.uleb128 0x13
 2444 010b 01       		.uleb128 0x1
 2445 010c 13       		.uleb128 0x13
 2446 010d 00       		.byte	0
 2447 010e 00       		.byte	0
 2448 010f 18       		.uleb128 0x18
 2449 0110 2E       		.uleb128 0x2e
 2450 0111 01       		.byte	0x1
 2451 0112 03       		.uleb128 0x3
 2452 0113 0E       		.uleb128 0xe
 2453 0114 3A       		.uleb128 0x3a
 2454 0115 0B       		.uleb128 0xb
ARM GAS  /tmp/ccPPIFRN.s 			page 66


 2455 0116 3B       		.uleb128 0x3b
 2456 0117 05       		.uleb128 0x5
 2457 0118 27       		.uleb128 0x27
 2458 0119 19       		.uleb128 0x19
 2459 011a 20       		.uleb128 0x20
 2460 011b 0B       		.uleb128 0xb
 2461 011c 01       		.uleb128 0x1
 2462 011d 13       		.uleb128 0x13
 2463 011e 00       		.byte	0
 2464 011f 00       		.byte	0
 2465 0120 19       		.uleb128 0x19
 2466 0121 05       		.uleb128 0x5
 2467 0122 00       		.byte	0
 2468 0123 03       		.uleb128 0x3
 2469 0124 0E       		.uleb128 0xe
 2470 0125 3A       		.uleb128 0x3a
 2471 0126 0B       		.uleb128 0xb
 2472 0127 3B       		.uleb128 0x3b
 2473 0128 05       		.uleb128 0x5
 2474 0129 49       		.uleb128 0x49
 2475 012a 13       		.uleb128 0x13
 2476 012b 00       		.byte	0
 2477 012c 00       		.byte	0
 2478 012d 1A       		.uleb128 0x1a
 2479 012e 2E       		.uleb128 0x2e
 2480 012f 00       		.byte	0
 2481 0130 03       		.uleb128 0x3
 2482 0131 0E       		.uleb128 0xe
 2483 0132 3A       		.uleb128 0x3a
 2484 0133 0B       		.uleb128 0xb
 2485 0134 3B       		.uleb128 0x3b
 2486 0135 05       		.uleb128 0x5
 2487 0136 27       		.uleb128 0x27
 2488 0137 19       		.uleb128 0x19
 2489 0138 20       		.uleb128 0x20
 2490 0139 0B       		.uleb128 0xb
 2491 013a 00       		.byte	0
 2492 013b 00       		.byte	0
 2493 013c 1B       		.uleb128 0x1b
 2494 013d 2E       		.uleb128 0x2e
 2495 013e 01       		.byte	0x1
 2496 013f 3F       		.uleb128 0x3f
 2497 0140 19       		.uleb128 0x19
 2498 0141 03       		.uleb128 0x3
 2499 0142 0E       		.uleb128 0xe
 2500 0143 3A       		.uleb128 0x3a
 2501 0144 0B       		.uleb128 0xb
 2502 0145 3B       		.uleb128 0x3b
 2503 0146 0B       		.uleb128 0xb
 2504 0147 27       		.uleb128 0x27
 2505 0148 19       		.uleb128 0x19
 2506 0149 49       		.uleb128 0x49
 2507 014a 13       		.uleb128 0x13
 2508 014b 20       		.uleb128 0x20
 2509 014c 0B       		.uleb128 0xb
 2510 014d 01       		.uleb128 0x1
 2511 014e 13       		.uleb128 0x13
ARM GAS  /tmp/ccPPIFRN.s 			page 67


 2512 014f 00       		.byte	0
 2513 0150 00       		.byte	0
 2514 0151 1C       		.uleb128 0x1c
 2515 0152 05       		.uleb128 0x5
 2516 0153 00       		.byte	0
 2517 0154 03       		.uleb128 0x3
 2518 0155 08       		.uleb128 0x8
 2519 0156 3A       		.uleb128 0x3a
 2520 0157 0B       		.uleb128 0xb
 2521 0158 3B       		.uleb128 0x3b
 2522 0159 0B       		.uleb128 0xb
 2523 015a 49       		.uleb128 0x49
 2524 015b 13       		.uleb128 0x13
 2525 015c 00       		.byte	0
 2526 015d 00       		.byte	0
 2527 015e 1D       		.uleb128 0x1d
 2528 015f 34       		.uleb128 0x34
 2529 0160 00       		.byte	0
 2530 0161 03       		.uleb128 0x3
 2531 0162 0E       		.uleb128 0xe
 2532 0163 3A       		.uleb128 0x3a
 2533 0164 0B       		.uleb128 0xb
 2534 0165 3B       		.uleb128 0x3b
 2535 0166 0B       		.uleb128 0xb
 2536 0167 49       		.uleb128 0x49
 2537 0168 13       		.uleb128 0x13
 2538 0169 00       		.byte	0
 2539 016a 00       		.byte	0
 2540 016b 1E       		.uleb128 0x1e
 2541 016c 34       		.uleb128 0x34
 2542 016d 00       		.byte	0
 2543 016e 03       		.uleb128 0x3
 2544 016f 0E       		.uleb128 0xe
 2545 0170 49       		.uleb128 0x49
 2546 0171 13       		.uleb128 0x13
 2547 0172 34       		.uleb128 0x34
 2548 0173 19       		.uleb128 0x19
 2549 0174 1C       		.uleb128 0x1c
 2550 0175 0E       		.uleb128 0xe
 2551 0176 00       		.byte	0
 2552 0177 00       		.byte	0
 2553 0178 1F       		.uleb128 0x1f
 2554 0179 2E       		.uleb128 0x2e
 2555 017a 01       		.byte	0x1
 2556 017b 3F       		.uleb128 0x3f
 2557 017c 19       		.uleb128 0x19
 2558 017d 03       		.uleb128 0x3
 2559 017e 0E       		.uleb128 0xe
 2560 017f 3A       		.uleb128 0x3a
 2561 0180 0B       		.uleb128 0xb
 2562 0181 3B       		.uleb128 0x3b
 2563 0182 0B       		.uleb128 0xb
 2564 0183 27       		.uleb128 0x27
 2565 0184 19       		.uleb128 0x19
 2566 0185 20       		.uleb128 0x20
 2567 0186 0B       		.uleb128 0xb
 2568 0187 01       		.uleb128 0x1
ARM GAS  /tmp/ccPPIFRN.s 			page 68


 2569 0188 13       		.uleb128 0x13
 2570 0189 00       		.byte	0
 2571 018a 00       		.byte	0
 2572 018b 20       		.uleb128 0x20
 2573 018c 05       		.uleb128 0x5
 2574 018d 00       		.byte	0
 2575 018e 03       		.uleb128 0x3
 2576 018f 0E       		.uleb128 0xe
 2577 0190 3A       		.uleb128 0x3a
 2578 0191 0B       		.uleb128 0xb
 2579 0192 3B       		.uleb128 0x3b
 2580 0193 0B       		.uleb128 0xb
 2581 0194 49       		.uleb128 0x49
 2582 0195 13       		.uleb128 0x13
 2583 0196 00       		.byte	0
 2584 0197 00       		.byte	0
 2585 0198 21       		.uleb128 0x21
 2586 0199 34       		.uleb128 0x34
 2587 019a 00       		.byte	0
 2588 019b 03       		.uleb128 0x3
 2589 019c 08       		.uleb128 0x8
 2590 019d 3A       		.uleb128 0x3a
 2591 019e 0B       		.uleb128 0xb
 2592 019f 3B       		.uleb128 0x3b
 2593 01a0 0B       		.uleb128 0xb
 2594 01a1 49       		.uleb128 0x49
 2595 01a2 13       		.uleb128 0x13
 2596 01a3 00       		.byte	0
 2597 01a4 00       		.byte	0
 2598 01a5 22       		.uleb128 0x22
 2599 01a6 2E       		.uleb128 0x2e
 2600 01a7 01       		.byte	0x1
 2601 01a8 03       		.uleb128 0x3
 2602 01a9 0E       		.uleb128 0xe
 2603 01aa 3A       		.uleb128 0x3a
 2604 01ab 0B       		.uleb128 0xb
 2605 01ac 3B       		.uleb128 0x3b
 2606 01ad 0B       		.uleb128 0xb
 2607 01ae 27       		.uleb128 0x27
 2608 01af 19       		.uleb128 0x19
 2609 01b0 20       		.uleb128 0x20
 2610 01b1 0B       		.uleb128 0xb
 2611 01b2 01       		.uleb128 0x1
 2612 01b3 13       		.uleb128 0x13
 2613 01b4 00       		.byte	0
 2614 01b5 00       		.byte	0
 2615 01b6 23       		.uleb128 0x23
 2616 01b7 2E       		.uleb128 0x2e
 2617 01b8 01       		.byte	0x1
 2618 01b9 3F       		.uleb128 0x3f
 2619 01ba 19       		.uleb128 0x19
 2620 01bb 03       		.uleb128 0x3
 2621 01bc 0E       		.uleb128 0xe
 2622 01bd 3A       		.uleb128 0x3a
 2623 01be 0B       		.uleb128 0xb
 2624 01bf 3B       		.uleb128 0x3b
 2625 01c0 0B       		.uleb128 0xb
ARM GAS  /tmp/ccPPIFRN.s 			page 69


 2626 01c1 27       		.uleb128 0x27
 2627 01c2 19       		.uleb128 0x19
 2628 01c3 11       		.uleb128 0x11
 2629 01c4 01       		.uleb128 0x1
 2630 01c5 12       		.uleb128 0x12
 2631 01c6 06       		.uleb128 0x6
 2632 01c7 40       		.uleb128 0x40
 2633 01c8 18       		.uleb128 0x18
 2634 01c9 9742     		.uleb128 0x2117
 2635 01cb 19       		.uleb128 0x19
 2636 01cc 01       		.uleb128 0x1
 2637 01cd 13       		.uleb128 0x13
 2638 01ce 00       		.byte	0
 2639 01cf 00       		.byte	0
 2640 01d0 24       		.uleb128 0x24
 2641 01d1 05       		.uleb128 0x5
 2642 01d2 00       		.byte	0
 2643 01d3 03       		.uleb128 0x3
 2644 01d4 08       		.uleb128 0x8
 2645 01d5 3A       		.uleb128 0x3a
 2646 01d6 0B       		.uleb128 0xb
 2647 01d7 3B       		.uleb128 0x3b
 2648 01d8 0B       		.uleb128 0xb
 2649 01d9 49       		.uleb128 0x49
 2650 01da 13       		.uleb128 0x13
 2651 01db 02       		.uleb128 0x2
 2652 01dc 18       		.uleb128 0x18
 2653 01dd 00       		.byte	0
 2654 01de 00       		.byte	0
 2655 01df 25       		.uleb128 0x25
 2656 01e0 05       		.uleb128 0x5
 2657 01e1 00       		.byte	0
 2658 01e2 03       		.uleb128 0x3
 2659 01e3 0E       		.uleb128 0xe
 2660 01e4 3A       		.uleb128 0x3a
 2661 01e5 0B       		.uleb128 0xb
 2662 01e6 3B       		.uleb128 0x3b
 2663 01e7 0B       		.uleb128 0xb
 2664 01e8 49       		.uleb128 0x49
 2665 01e9 13       		.uleb128 0x13
 2666 01ea 02       		.uleb128 0x2
 2667 01eb 18       		.uleb128 0x18
 2668 01ec 00       		.byte	0
 2669 01ed 00       		.byte	0
 2670 01ee 26       		.uleb128 0x26
 2671 01ef 34       		.uleb128 0x34
 2672 01f0 00       		.byte	0
 2673 01f1 03       		.uleb128 0x3
 2674 01f2 0E       		.uleb128 0xe
 2675 01f3 49       		.uleb128 0x49
 2676 01f4 13       		.uleb128 0x13
 2677 01f5 34       		.uleb128 0x34
 2678 01f6 19       		.uleb128 0x19
 2679 01f7 00       		.byte	0
 2680 01f8 00       		.byte	0
 2681 01f9 27       		.uleb128 0x27
 2682 01fa 05       		.uleb128 0x5
ARM GAS  /tmp/ccPPIFRN.s 			page 70


 2683 01fb 00       		.byte	0
 2684 01fc 03       		.uleb128 0x3
 2685 01fd 08       		.uleb128 0x8
 2686 01fe 3A       		.uleb128 0x3a
 2687 01ff 0B       		.uleb128 0xb
 2688 0200 3B       		.uleb128 0x3b
 2689 0201 0B       		.uleb128 0xb
 2690 0202 49       		.uleb128 0x49
 2691 0203 13       		.uleb128 0x13
 2692 0204 02       		.uleb128 0x2
 2693 0205 17       		.uleb128 0x17
 2694 0206 00       		.byte	0
 2695 0207 00       		.byte	0
 2696 0208 28       		.uleb128 0x28
 2697 0209 1D       		.uleb128 0x1d
 2698 020a 01       		.byte	0x1
 2699 020b 31       		.uleb128 0x31
 2700 020c 13       		.uleb128 0x13
 2701 020d 11       		.uleb128 0x11
 2702 020e 01       		.uleb128 0x1
 2703 020f 12       		.uleb128 0x12
 2704 0210 06       		.uleb128 0x6
 2705 0211 58       		.uleb128 0x58
 2706 0212 0B       		.uleb128 0xb
 2707 0213 59       		.uleb128 0x59
 2708 0214 0B       		.uleb128 0xb
 2709 0215 00       		.byte	0
 2710 0216 00       		.byte	0
 2711 0217 29       		.uleb128 0x29
 2712 0218 05       		.uleb128 0x5
 2713 0219 00       		.byte	0
 2714 021a 31       		.uleb128 0x31
 2715 021b 13       		.uleb128 0x13
 2716 021c 02       		.uleb128 0x2
 2717 021d 17       		.uleb128 0x17
 2718 021e 00       		.byte	0
 2719 021f 00       		.byte	0
 2720 0220 2A       		.uleb128 0x2a
 2721 0221 1D       		.uleb128 0x1d
 2722 0222 01       		.byte	0x1
 2723 0223 31       		.uleb128 0x31
 2724 0224 13       		.uleb128 0x13
 2725 0225 52       		.uleb128 0x52
 2726 0226 01       		.uleb128 0x1
 2727 0227 55       		.uleb128 0x55
 2728 0228 17       		.uleb128 0x17
 2729 0229 58       		.uleb128 0x58
 2730 022a 0B       		.uleb128 0xb
 2731 022b 59       		.uleb128 0x59
 2732 022c 0B       		.uleb128 0xb
 2733 022d 01       		.uleb128 0x1
 2734 022e 13       		.uleb128 0x13
 2735 022f 00       		.byte	0
 2736 0230 00       		.byte	0
 2737 0231 2B       		.uleb128 0x2b
 2738 0232 1D       		.uleb128 0x1d
 2739 0233 01       		.byte	0x1
ARM GAS  /tmp/ccPPIFRN.s 			page 71


 2740 0234 31       		.uleb128 0x31
 2741 0235 13       		.uleb128 0x13
 2742 0236 52       		.uleb128 0x52
 2743 0237 01       		.uleb128 0x1
 2744 0238 55       		.uleb128 0x55
 2745 0239 17       		.uleb128 0x17
 2746 023a 58       		.uleb128 0x58
 2747 023b 0B       		.uleb128 0xb
 2748 023c 59       		.uleb128 0x59
 2749 023d 05       		.uleb128 0x5
 2750 023e 00       		.byte	0
 2751 023f 00       		.byte	0
 2752 0240 2C       		.uleb128 0x2c
 2753 0241 0B       		.uleb128 0xb
 2754 0242 01       		.byte	0x1
 2755 0243 55       		.uleb128 0x55
 2756 0244 17       		.uleb128 0x17
 2757 0245 00       		.byte	0
 2758 0246 00       		.byte	0
 2759 0247 2D       		.uleb128 0x2d
 2760 0248 34       		.uleb128 0x34
 2761 0249 00       		.byte	0
 2762 024a 31       		.uleb128 0x31
 2763 024b 13       		.uleb128 0x13
 2764 024c 00       		.byte	0
 2765 024d 00       		.byte	0
 2766 024e 2E       		.uleb128 0x2e
 2767 024f 0B       		.uleb128 0xb
 2768 0250 01       		.byte	0x1
 2769 0251 11       		.uleb128 0x11
 2770 0252 01       		.uleb128 0x1
 2771 0253 12       		.uleb128 0x12
 2772 0254 06       		.uleb128 0x6
 2773 0255 00       		.byte	0
 2774 0256 00       		.byte	0
 2775 0257 2F       		.uleb128 0x2f
 2776 0258 34       		.uleb128 0x34
 2777 0259 00       		.byte	0
 2778 025a 31       		.uleb128 0x31
 2779 025b 13       		.uleb128 0x13
 2780 025c 02       		.uleb128 0x2
 2781 025d 17       		.uleb128 0x17
 2782 025e 00       		.byte	0
 2783 025f 00       		.byte	0
 2784 0260 30       		.uleb128 0x30
 2785 0261 2E       		.uleb128 0x2e
 2786 0262 01       		.byte	0x1
 2787 0263 31       		.uleb128 0x31
 2788 0264 13       		.uleb128 0x13
 2789 0265 11       		.uleb128 0x11
 2790 0266 01       		.uleb128 0x1
 2791 0267 12       		.uleb128 0x12
 2792 0268 06       		.uleb128 0x6
 2793 0269 40       		.uleb128 0x40
 2794 026a 18       		.uleb128 0x18
 2795 026b 9642     		.uleb128 0x2116
 2796 026d 19       		.uleb128 0x19
ARM GAS  /tmp/ccPPIFRN.s 			page 72


 2797 026e 01       		.uleb128 0x1
 2798 026f 13       		.uleb128 0x13
 2799 0270 00       		.byte	0
 2800 0271 00       		.byte	0
 2801 0272 31       		.uleb128 0x31
 2802 0273 2E       		.uleb128 0x2e
 2803 0274 01       		.byte	0x1
 2804 0275 3F       		.uleb128 0x3f
 2805 0276 19       		.uleb128 0x19
 2806 0277 03       		.uleb128 0x3
 2807 0278 0E       		.uleb128 0xe
 2808 0279 3A       		.uleb128 0x3a
 2809 027a 0B       		.uleb128 0xb
 2810 027b 3B       		.uleb128 0x3b
 2811 027c 0B       		.uleb128 0xb
 2812 027d 27       		.uleb128 0x27
 2813 027e 19       		.uleb128 0x19
 2814 027f 49       		.uleb128 0x49
 2815 0280 13       		.uleb128 0x13
 2816 0281 11       		.uleb128 0x11
 2817 0282 01       		.uleb128 0x1
 2818 0283 12       		.uleb128 0x12
 2819 0284 06       		.uleb128 0x6
 2820 0285 40       		.uleb128 0x40
 2821 0286 18       		.uleb128 0x18
 2822 0287 9642     		.uleb128 0x2116
 2823 0289 19       		.uleb128 0x19
 2824 028a 01       		.uleb128 0x1
 2825 028b 13       		.uleb128 0x13
 2826 028c 00       		.byte	0
 2827 028d 00       		.byte	0
 2828 028e 32       		.uleb128 0x32
 2829 028f 34       		.uleb128 0x34
 2830 0290 00       		.byte	0
 2831 0291 03       		.uleb128 0x3
 2832 0292 0E       		.uleb128 0xe
 2833 0293 3A       		.uleb128 0x3a
 2834 0294 0B       		.uleb128 0xb
 2835 0295 3B       		.uleb128 0x3b
 2836 0296 0B       		.uleb128 0xb
 2837 0297 49       		.uleb128 0x49
 2838 0298 13       		.uleb128 0x13
 2839 0299 02       		.uleb128 0x2
 2840 029a 18       		.uleb128 0x18
 2841 029b 00       		.byte	0
 2842 029c 00       		.byte	0
 2843 029d 33       		.uleb128 0x33
 2844 029e 05       		.uleb128 0x5
 2845 029f 00       		.byte	0
 2846 02a0 31       		.uleb128 0x31
 2847 02a1 13       		.uleb128 0x13
 2848 02a2 1C       		.uleb128 0x1c
 2849 02a3 0B       		.uleb128 0xb
 2850 02a4 00       		.byte	0
 2851 02a5 00       		.byte	0
 2852 02a6 34       		.uleb128 0x34
 2853 02a7 1D       		.uleb128 0x1d
ARM GAS  /tmp/ccPPIFRN.s 			page 73


 2854 02a8 01       		.byte	0x1
 2855 02a9 31       		.uleb128 0x31
 2856 02aa 13       		.uleb128 0x13
 2857 02ab 52       		.uleb128 0x52
 2858 02ac 01       		.uleb128 0x1
 2859 02ad 55       		.uleb128 0x55
 2860 02ae 17       		.uleb128 0x17
 2861 02af 58       		.uleb128 0x58
 2862 02b0 0B       		.uleb128 0xb
 2863 02b1 59       		.uleb128 0x59
 2864 02b2 0B       		.uleb128 0xb
 2865 02b3 00       		.byte	0
 2866 02b4 00       		.byte	0
 2867 02b5 35       		.uleb128 0x35
 2868 02b6 2E       		.uleb128 0x2e
 2869 02b7 01       		.byte	0x1
 2870 02b8 31       		.uleb128 0x31
 2871 02b9 13       		.uleb128 0x13
 2872 02ba 11       		.uleb128 0x11
 2873 02bb 01       		.uleb128 0x1
 2874 02bc 12       		.uleb128 0x12
 2875 02bd 06       		.uleb128 0x6
 2876 02be 40       		.uleb128 0x40
 2877 02bf 18       		.uleb128 0x18
 2878 02c0 9742     		.uleb128 0x2117
 2879 02c2 19       		.uleb128 0x19
 2880 02c3 01       		.uleb128 0x1
 2881 02c4 13       		.uleb128 0x13
 2882 02c5 00       		.byte	0
 2883 02c6 00       		.byte	0
 2884 02c7 36       		.uleb128 0x36
 2885 02c8 05       		.uleb128 0x5
 2886 02c9 00       		.byte	0
 2887 02ca 31       		.uleb128 0x31
 2888 02cb 13       		.uleb128 0x13
 2889 02cc 02       		.uleb128 0x2
 2890 02cd 18       		.uleb128 0x18
 2891 02ce 00       		.byte	0
 2892 02cf 00       		.byte	0
 2893 02d0 37       		.uleb128 0x37
 2894 02d1 34       		.uleb128 0x34
 2895 02d2 00       		.byte	0
 2896 02d3 31       		.uleb128 0x31
 2897 02d4 13       		.uleb128 0x13
 2898 02d5 02       		.uleb128 0x2
 2899 02d6 18       		.uleb128 0x18
 2900 02d7 00       		.byte	0
 2901 02d8 00       		.byte	0
 2902 02d9 38       		.uleb128 0x38
 2903 02da 1D       		.uleb128 0x1d
 2904 02db 01       		.byte	0x1
 2905 02dc 31       		.uleb128 0x31
 2906 02dd 13       		.uleb128 0x13
 2907 02de 11       		.uleb128 0x11
 2908 02df 01       		.uleb128 0x1
 2909 02e0 12       		.uleb128 0x12
 2910 02e1 06       		.uleb128 0x6
ARM GAS  /tmp/ccPPIFRN.s 			page 74


 2911 02e2 58       		.uleb128 0x58
 2912 02e3 0B       		.uleb128 0xb
 2913 02e4 59       		.uleb128 0x59
 2914 02e5 0B       		.uleb128 0xb
 2915 02e6 01       		.uleb128 0x1
 2916 02e7 13       		.uleb128 0x13
 2917 02e8 00       		.byte	0
 2918 02e9 00       		.byte	0
 2919 02ea 39       		.uleb128 0x39
 2920 02eb 1D       		.uleb128 0x1d
 2921 02ec 01       		.byte	0x1
 2922 02ed 31       		.uleb128 0x31
 2923 02ee 13       		.uleb128 0x13
 2924 02ef 11       		.uleb128 0x11
 2925 02f0 01       		.uleb128 0x1
 2926 02f1 12       		.uleb128 0x12
 2927 02f2 06       		.uleb128 0x6
 2928 02f3 58       		.uleb128 0x58
 2929 02f4 0B       		.uleb128 0xb
 2930 02f5 59       		.uleb128 0x59
 2931 02f6 05       		.uleb128 0x5
 2932 02f7 00       		.byte	0
 2933 02f8 00       		.byte	0
 2934 02f9 3A       		.uleb128 0x3a
 2935 02fa 34       		.uleb128 0x34
 2936 02fb 00       		.byte	0
 2937 02fc 03       		.uleb128 0x3
 2938 02fd 0E       		.uleb128 0xe
 2939 02fe 3A       		.uleb128 0x3a
 2940 02ff 0B       		.uleb128 0xb
 2941 0300 3B       		.uleb128 0x3b
 2942 0301 05       		.uleb128 0x5
 2943 0302 49       		.uleb128 0x49
 2944 0303 13       		.uleb128 0x13
 2945 0304 3F       		.uleb128 0x3f
 2946 0305 19       		.uleb128 0x19
 2947 0306 3C       		.uleb128 0x3c
 2948 0307 19       		.uleb128 0x19
 2949 0308 00       		.byte	0
 2950 0309 00       		.byte	0
 2951 030a 3B       		.uleb128 0x3b
 2952 030b 34       		.uleb128 0x34
 2953 030c 00       		.byte	0
 2954 030d 03       		.uleb128 0x3
 2955 030e 08       		.uleb128 0x8
 2956 030f 3A       		.uleb128 0x3a
 2957 0310 0B       		.uleb128 0xb
 2958 0311 3B       		.uleb128 0x3b
 2959 0312 05       		.uleb128 0x5
 2960 0313 49       		.uleb128 0x49
 2961 0314 13       		.uleb128 0x13
 2962 0315 3F       		.uleb128 0x3f
 2963 0316 19       		.uleb128 0x19
 2964 0317 3C       		.uleb128 0x3c
 2965 0318 19       		.uleb128 0x19
 2966 0319 00       		.byte	0
 2967 031a 00       		.byte	0
ARM GAS  /tmp/ccPPIFRN.s 			page 75


 2968 031b 00       		.byte	0
 2969              		.section	.debug_loc,"",%progbits
 2970              	.Ldebug_loc0:
 2971              	.LLST0:
 2972 0000 00000000 		.4byte	.LVL1
 2973 0004 1C000000 		.4byte	.LVL6
 2974 0008 0100     		.2byte	0x1
 2975 000a 51       		.byte	0x51
 2976 000b 1C000000 		.4byte	.LVL6
 2977 000f 22000000 		.4byte	.LFE230
 2978 0013 0100     		.2byte	0x1
 2979 0015 51       		.byte	0x51
 2980 0016 00000000 		.4byte	0
 2981 001a 00000000 		.4byte	0
 2982              	.LLST1:
 2983 001e 00000000 		.4byte	.LVL1
 2984 0022 08000000 		.4byte	.LVL2
 2985 0026 0100     		.2byte	0x1
 2986 0028 52       		.byte	0x52
 2987 0029 08000000 		.4byte	.LVL2
 2988 002d 1A000000 		.4byte	.LVL5
 2989 0031 0100     		.2byte	0x1
 2990 0033 52       		.byte	0x52
 2991 0034 1A000000 		.4byte	.LVL5
 2992 0038 1C000000 		.4byte	.LVL6
 2993 003c 0300     		.2byte	0x3
 2994 003e 72       		.byte	0x72
 2995 003f 01       		.sleb128 1
 2996 0040 9F       		.byte	0x9f
 2997 0041 00000000 		.4byte	0
 2998 0045 00000000 		.4byte	0
 2999              	.LLST2:
 3000 0049 08000000 		.4byte	.LVL2
 3001 004d 1E000000 		.4byte	.LVL7
 3002 0051 0100     		.2byte	0x1
 3003 0053 50       		.byte	0x50
 3004 0054 00000000 		.4byte	0
 3005 0058 00000000 		.4byte	0
 3006              	.LLST3:
 3007 005c 08000000 		.4byte	.LVL2
 3008 0060 1C000000 		.4byte	.LVL6
 3009 0064 0100     		.2byte	0x1
 3010 0066 51       		.byte	0x51
 3011 0067 1C000000 		.4byte	.LVL6
 3012 006b 1E000000 		.4byte	.LVL7
 3013 006f 0200     		.2byte	0x2
 3014 0071 70       		.byte	0x70
 3015 0072 00       		.sleb128 0
 3016 0073 00000000 		.4byte	0
 3017 0077 00000000 		.4byte	0
 3018              	.LLST6:
 3019 007b 08000000 		.4byte	.LVL2
 3020 007f 1E000000 		.4byte	.LVL7
 3021 0083 0300     		.2byte	0x3
 3022 0085 08       		.byte	0x8
 3023 0086 20       		.byte	0x20
 3024 0087 9F       		.byte	0x9f
ARM GAS  /tmp/ccPPIFRN.s 			page 76


 3025 0088 00000000 		.4byte	0
 3026 008c 00000000 		.4byte	0
 3027              	.LLST7:
 3028 0090 12000000 		.4byte	.LVL4
 3029 0094 1E000000 		.4byte	.LVL7
 3030 0098 0200     		.2byte	0x2
 3031 009a 30       		.byte	0x30
 3032 009b 9F       		.byte	0x9f
 3033 009c 00000000 		.4byte	0
 3034 00a0 00000000 		.4byte	0
 3035              	.LLST8:
 3036 00a4 0C000000 		.4byte	.LVL3
 3037 00a8 1C000000 		.4byte	.LVL6
 3038 00ac 0100     		.2byte	0x1
 3039 00ae 51       		.byte	0x51
 3040 00af 1C000000 		.4byte	.LVL6
 3041 00b3 1E000000 		.4byte	.LVL7
 3042 00b7 0200     		.2byte	0x2
 3043 00b9 70       		.byte	0x70
 3044 00ba 00       		.sleb128 0
 3045 00bb 00000000 		.4byte	0
 3046 00bf 00000000 		.4byte	0
 3047              	.LLST9:
 3048 00c3 0C000000 		.4byte	.LVL3
 3049 00c7 1E000000 		.4byte	.LVL7
 3050 00cb 0100     		.2byte	0x1
 3051 00cd 50       		.byte	0x50
 3052 00ce 00000000 		.4byte	0
 3053 00d2 00000000 		.4byte	0
 3054              	.LLST11:
 3055 00d6 00000000 		.4byte	.LVL8
 3056 00da 06000000 		.4byte	.LVL9
 3057 00de 0100     		.2byte	0x1
 3058 00e0 50       		.byte	0x50
 3059 00e1 06000000 		.4byte	.LVL9
 3060 00e5 15000000 		.4byte	.LVL12-1
 3061 00e9 0100     		.2byte	0x1
 3062 00eb 53       		.byte	0x53
 3063 00ec 15000000 		.4byte	.LVL12-1
 3064 00f0 18000000 		.4byte	.LFE231
 3065 00f4 0400     		.2byte	0x4
 3066 00f6 F3       		.byte	0xf3
 3067 00f7 01       		.uleb128 0x1
 3068 00f8 50       		.byte	0x50
 3069 00f9 9F       		.byte	0x9f
 3070 00fa 00000000 		.4byte	0
 3071 00fe 00000000 		.4byte	0
 3072              	.LLST12:
 3073 0102 06000000 		.4byte	.LVL9
 3074 0106 14000000 		.4byte	.LVL11
 3075 010a 0100     		.2byte	0x1
 3076 010c 50       		.byte	0x50
 3077 010d 14000000 		.4byte	.LVL11
 3078 0111 15000000 		.4byte	.LVL12-1
 3079 0115 0200     		.2byte	0x2
 3080 0117 73       		.byte	0x73
 3081 0118 00       		.sleb128 0
ARM GAS  /tmp/ccPPIFRN.s 			page 77


 3082 0119 16000000 		.4byte	.LVL12
 3083 011d 18000000 		.4byte	.LFE231
 3084 0121 0100     		.2byte	0x1
 3085 0123 50       		.byte	0x50
 3086 0124 00000000 		.4byte	0
 3087 0128 00000000 		.4byte	0
 3088              	.LLST13:
 3089 012c 00000000 		.4byte	.LVL13
 3090 0130 0C000000 		.4byte	.LVL15
 3091 0134 0100     		.2byte	0x1
 3092 0136 50       		.byte	0x50
 3093 0137 0C000000 		.4byte	.LVL15
 3094 013b 14000000 		.4byte	.LVL17
 3095 013f 0100     		.2byte	0x1
 3096 0141 53       		.byte	0x53
 3097 0142 14000000 		.4byte	.LVL17
 3098 0146 1A000000 		.4byte	.LVL18
 3099 014a 0400     		.2byte	0x4
 3100 014c F3       		.byte	0xf3
 3101 014d 01       		.uleb128 0x1
 3102 014e 50       		.byte	0x50
 3103 014f 9F       		.byte	0x9f
 3104 0150 1A000000 		.4byte	.LVL18
 3105 0154 23000000 		.4byte	.LVL20-1
 3106 0158 0100     		.2byte	0x1
 3107 015a 53       		.byte	0x53
 3108 015b 23000000 		.4byte	.LVL20-1
 3109 015f 2C000000 		.4byte	.LFE232
 3110 0163 0400     		.2byte	0x4
 3111 0165 F3       		.byte	0xf3
 3112 0166 01       		.uleb128 0x1
 3113 0167 50       		.byte	0x50
 3114 0168 9F       		.byte	0x9f
 3115 0169 00000000 		.4byte	0
 3116 016d 00000000 		.4byte	0
 3117              	.LLST14:
 3118 0171 0A000000 		.4byte	.LVL14
 3119 0175 0C000000 		.4byte	.LVL15
 3120 0179 0100     		.2byte	0x1
 3121 017b 50       		.byte	0x50
 3122 017c 0C000000 		.4byte	.LVL15
 3123 0180 14000000 		.4byte	.LVL17
 3124 0184 0100     		.2byte	0x1
 3125 0186 53       		.byte	0x53
 3126 0187 14000000 		.4byte	.LVL17
 3127 018b 1A000000 		.4byte	.LVL18
 3128 018f 0400     		.2byte	0x4
 3129 0191 F3       		.byte	0xf3
 3130 0192 01       		.uleb128 0x1
 3131 0193 50       		.byte	0x50
 3132 0194 9F       		.byte	0x9f
 3133 0195 1A000000 		.4byte	.LVL18
 3134 0199 23000000 		.4byte	.LVL20-1
 3135 019d 0100     		.2byte	0x1
 3136 019f 53       		.byte	0x53
 3137 01a0 23000000 		.4byte	.LVL20-1
 3138 01a4 2C000000 		.4byte	.LFE232
ARM GAS  /tmp/ccPPIFRN.s 			page 78


 3139 01a8 0400     		.2byte	0x4
 3140 01aa F3       		.byte	0xf3
 3141 01ab 01       		.uleb128 0x1
 3142 01ac 50       		.byte	0x50
 3143 01ad 9F       		.byte	0x9f
 3144 01ae 00000000 		.4byte	0
 3145 01b2 00000000 		.4byte	0
 3146              	.LLST15:
 3147 01b6 0C000000 		.4byte	.LVL15
 3148 01ba 22000000 		.4byte	.LVL19
 3149 01be 0100     		.2byte	0x1
 3150 01c0 50       		.byte	0x50
 3151 01c1 22000000 		.4byte	.LVL19
 3152 01c5 23000000 		.4byte	.LVL20-1
 3153 01c9 0200     		.2byte	0x2
 3154 01cb 73       		.byte	0x73
 3155 01cc 00       		.sleb128 0
 3156 01cd 24000000 		.4byte	.LVL20
 3157 01d1 2C000000 		.4byte	.LFE232
 3158 01d5 0100     		.2byte	0x1
 3159 01d7 50       		.byte	0x50
 3160 01d8 00000000 		.4byte	0
 3161 01dc 00000000 		.4byte	0
 3162              	.LLST16:
 3163 01e0 12000000 		.4byte	.LVL16
 3164 01e4 1A000000 		.4byte	.LVL18
 3165 01e8 0200     		.2byte	0x2
 3166 01ea 30       		.byte	0x30
 3167 01eb 9F       		.byte	0x9f
 3168 01ec 24000000 		.4byte	.LVL20
 3169 01f0 2C000000 		.4byte	.LFE232
 3170 01f4 0200     		.2byte	0x2
 3171 01f6 30       		.byte	0x30
 3172 01f7 9F       		.byte	0x9f
 3173 01f8 00000000 		.4byte	0
 3174 01fc 00000000 		.4byte	0
 3175              		.section	.debug_aranges,"",%progbits
 3176 0000 44000000 		.4byte	0x44
 3177 0004 0200     		.2byte	0x2
 3178 0006 00000000 		.4byte	.Ldebug_info0
 3179 000a 04       		.byte	0x4
 3180 000b 00       		.byte	0
 3181 000c 0000     		.2byte	0
 3182 000e 0000     		.2byte	0
 3183 0010 00000000 		.4byte	.LFB229
 3184 0014 0A000000 		.4byte	.LFE229-.LFB229
 3185 0018 00000000 		.4byte	.LFB230
 3186 001c 22000000 		.4byte	.LFE230-.LFB230
 3187 0020 00000000 		.4byte	.LFB231
 3188 0024 18000000 		.4byte	.LFE231-.LFB231
 3189 0028 00000000 		.4byte	.LFB232
 3190 002c 2C000000 		.4byte	.LFE232-.LFB232
 3191 0030 00000000 		.4byte	.LFB233
 3192 0034 08000000 		.4byte	.LFE233-.LFB233
 3193 0038 00000000 		.4byte	.LFB234
 3194 003c 14000000 		.4byte	.LFE234-.LFB234
 3195 0040 00000000 		.4byte	0
ARM GAS  /tmp/ccPPIFRN.s 			page 79


 3196 0044 00000000 		.4byte	0
 3197              		.section	.debug_ranges,"",%progbits
 3198              	.Ldebug_ranges0:
 3199 0000 04000000 		.4byte	.LBB79
 3200 0004 06000000 		.4byte	.LBE79
 3201 0008 08000000 		.4byte	.LBB95
 3202 000c 0C000000 		.4byte	.LBE95
 3203 0010 00000000 		.4byte	0
 3204 0014 00000000 		.4byte	0
 3205 0018 06000000 		.4byte	.LBB86
 3206 001c 08000000 		.4byte	.LBE86
 3207 0020 12000000 		.4byte	.LBB98
 3208 0024 16000000 		.4byte	.LBE98
 3209 0028 00000000 		.4byte	0
 3210 002c 00000000 		.4byte	0
 3211 0030 02000000 		.4byte	.LBB99
 3212 0034 04000000 		.4byte	.LBE99
 3213 0038 06000000 		.4byte	.LBB106
 3214 003c 0A000000 		.4byte	.LBE106
 3215 0040 00000000 		.4byte	0
 3216 0044 00000000 		.4byte	0
 3217 0048 0A000000 		.4byte	.LBB107
 3218 004c 12000000 		.4byte	.LBE107
 3219 0050 1A000000 		.4byte	.LBB119
 3220 0054 24000000 		.4byte	.LBE119
 3221 0058 00000000 		.4byte	0
 3222 005c 00000000 		.4byte	0
 3223 0060 12000000 		.4byte	.LBB110
 3224 0064 18000000 		.4byte	.LBE110
 3225 0068 24000000 		.4byte	.LBB120
 3226 006c 2A000000 		.4byte	.LBE120
 3227 0070 00000000 		.4byte	0
 3228 0074 00000000 		.4byte	0
 3229 0078 06000000 		.4byte	.LBB125
 3230 007c 0A000000 		.4byte	.LBE125
 3231 0080 0C000000 		.4byte	.LBB137
 3232 0084 0E000000 		.4byte	.LBE137
 3233 0088 00000000 		.4byte	0
 3234 008c 00000000 		.4byte	0
 3235 0090 0A000000 		.4byte	.LBB128
 3236 0094 0C000000 		.4byte	.LBE128
 3237 0098 0E000000 		.4byte	.LBB138
 3238 009c 14000000 		.4byte	.LBE138
 3239 00a0 00000000 		.4byte	0
 3240 00a4 00000000 		.4byte	0
 3241 00a8 00000000 		.4byte	.LFB229
 3242 00ac 0A000000 		.4byte	.LFE229
 3243 00b0 00000000 		.4byte	.LFB230
 3244 00b4 22000000 		.4byte	.LFE230
 3245 00b8 00000000 		.4byte	.LFB231
 3246 00bc 18000000 		.4byte	.LFE231
 3247 00c0 00000000 		.4byte	.LFB232
 3248 00c4 2C000000 		.4byte	.LFE232
 3249 00c8 00000000 		.4byte	.LFB233
 3250 00cc 08000000 		.4byte	.LFE233
 3251 00d0 00000000 		.4byte	.LFB234
 3252 00d4 14000000 		.4byte	.LFE234
ARM GAS  /tmp/ccPPIFRN.s 			page 80


 3253 00d8 00000000 		.4byte	0
 3254 00dc 00000000 		.4byte	0
 3255              		.section	.debug_line,"",%progbits
 3256              	.Ldebug_line0:
 3257 0000 F4020000 		.section	.debug_str,"MS",%progbits,1
 3257      02000F02 
 3257      00000201 
 3257      FB0E0D00 
 3257      01010101 
 3258              	.LASF51:
 3259 0000 72656164 		.ascii	"ready_list_t\000"
 3259      795F6C69 
 3259      73745F74 
 3259      00
 3260              	.LASF2:
 3261 000d 73697A65 		.ascii	"size_t\000"
 3261      5F7400
 3262              	.LASF86:
 3263 0014 7264796D 		.ascii	"rdymsg\000"
 3263      736700
 3264              	.LASF17:
 3265 001b 75696E74 		.ascii	"uint64_t\000"
 3265      36345F74 
 3265      00
 3266              	.LASF3:
 3267 0024 5F5F7569 		.ascii	"__uint8_t\000"
 3267      6E74385F 
 3267      7400
 3268              	.LASF83:
 3269 002e 706F7274 		.ascii	"port_intctx\000"
 3269      5F696E74 
 3269      63747800 
 3270              	.LASF70:
 3271 003a 73797374 		.ascii	"system_debug_t\000"
 3271      656D5F64 
 3271      65627567 
 3271      5F7400
 3272              	.LASF124:
 3273 0049 70726F76 		.ascii	"provider\000"
 3273      69646572 
 3273      00
 3274              	.LASF128:
 3275 0052 5F5F6675 		.ascii	"__func__.6501\000"
 3275      6E635F5F 
 3275      2E363530 
 3275      3100
 3276              	.LASF102:
 3277 0060 6D656D67 		.ascii	"memgetfunc_t\000"
 3277      65746675 
 3277      6E635F74 
 3277      00
 3278              	.LASF13:
 3279 006d 6C6F6E67 		.ascii	"long long unsigned int\000"
 3279      206C6F6E 
 3279      6720756E 
 3279      7369676E 
 3279      65642069 
ARM GAS  /tmp/ccPPIFRN.s 			page 81


 3280              	.LASF114:
 3281 0084 5F5F6675 		.ascii	"__func__.6509\000"
 3281      6E635F5F 
 3281      2E363530 
 3281      3900
 3282              	.LASF87:
 3283 0092 65786974 		.ascii	"exitcode\000"
 3283      636F6465 
 3283      00
 3284              	.LASF77:
 3285 009b 6D61696E 		.ascii	"mainthread\000"
 3285      74687265 
 3285      616400
 3286              	.LASF67:
 3287 00a6 76697274 		.ascii	"virtual_timers_list_t\000"
 3287      75616C5F 
 3287      74696D65 
 3287      72735F6C 
 3287      6973745F 
 3288              	.LASF129:
 3289 00bc 49544D5F 		.ascii	"ITM_RxBuffer\000"
 3289      52784275 
 3289      66666572 
 3289      00
 3290              	.LASF50:
 3291 00c9 63685F74 		.ascii	"ch_threads_queue\000"
 3291      68726561 
 3291      64735F71 
 3291      75657565 
 3291      00
 3292              	.LASF30:
 3293 00da 705F7072 		.ascii	"p_prio\000"
 3293      696F00
 3294              	.LASF11:
 3295 00e1 6C6F6E67 		.ascii	"long long int\000"
 3295      206C6F6E 
 3295      6720696E 
 3295      7400
 3296              	.LASF1:
 3297 00ef 7369676E 		.ascii	"signed char\000"
 3297      65642063 
 3297      68617200 
 3298              	.LASF44:
 3299 00fb 705F6D70 		.ascii	"p_mpool\000"
 3299      6F6F6C00 
 3300              	.LASF97:
 3301 0103 6D5F7175 		.ascii	"m_queue\000"
 3301      65756500 
 3302              	.LASF76:
 3303 010b 76746C69 		.ascii	"vtlist\000"
 3303      737400
 3304              	.LASF110:
 3305 0112 706F7274 		.ascii	"port_unlock\000"
 3305      5F756E6C 
 3305      6F636B00 
 3306              	.LASF89:
 3307 011e 77747472 		.ascii	"wttrp\000"
ARM GAS  /tmp/ccPPIFRN.s 			page 82


 3307      7000
 3308              	.LASF74:
 3309 0124 63685F73 		.ascii	"ch_system\000"
 3309      79737465 
 3309      6D00
 3310              	.LASF8:
 3311 012e 6C6F6E67 		.ascii	"long int\000"
 3311      20696E74 
 3311      00
 3312              	.LASF20:
 3313 0137 74737461 		.ascii	"tstate_t\000"
 3313      74655F74 
 3313      00
 3314              	.LASF119:
 3315 0140 5F5F6675 		.ascii	"__func__.6519\000"
 3315      6E635F5F 
 3315      2E363531 
 3315      3900
 3316              	.LASF32:
 3317 014e 705F6E65 		.ascii	"p_newer\000"
 3317      77657200 
 3318              	.LASF94:
 3319 0156 735F7175 		.ascii	"s_queue\000"
 3319      65756500 
 3320              	.LASF56:
 3321 015e 725F6E65 		.ascii	"r_newer\000"
 3321      77657200 
 3322              	.LASF107:
 3323 0166 6D705F70 		.ascii	"mp_provider\000"
 3323      726F7669 
 3323      64657200 
 3324              	.LASF80:
 3325 0172 72656761 		.ascii	"regarm_t\000"
 3325      726D5F74 
 3325      00
 3326              	.LASF63:
 3327 017b 76745F70 		.ascii	"vt_prev\000"
 3327      72657600 
 3328              	.LASF101:
 3329 0183 6D757465 		.ascii	"mutex_t\000"
 3329      785F7400 
 3330              	.LASF112:
 3331 018b 76616C75 		.ascii	"value\000"
 3331      6500
 3332              	.LASF78:
 3333 0191 69646C65 		.ascii	"idle_thread_wa\000"
 3333      5F746872 
 3333      6561645F 
 3333      776100
 3334              	.LASF25:
 3335 01a0 636E745F 		.ascii	"cnt_t\000"
 3335      7400
 3336              	.LASF0:
 3337 01a6 756E7369 		.ascii	"unsigned int\000"
 3337      676E6564 
 3337      20696E74 
 3337      00
ARM GAS  /tmp/ccPPIFRN.s 			page 83


 3338              	.LASF62:
 3339 01b3 76745F6E 		.ascii	"vt_next\000"
 3339      65787400 
 3340              	.LASF117:
 3341 01bb 5F5F6675 		.ascii	"__func__.5798\000"
 3341      6E635F5F 
 3341      2E353739 
 3341      3800
 3342              	.LASF90:
 3343 01c9 77747365 		.ascii	"wtsemp\000"
 3343      6D7000
 3344              	.LASF39:
 3345 01d0 705F6D73 		.ascii	"p_msgqueue\000"
 3345      67717565 
 3345      756500
 3346              	.LASF108:
 3347 01db 6D656D6F 		.ascii	"memory_pool_t\000"
 3347      72795F70 
 3347      6F6F6C5F 
 3347      7400
 3348              	.LASF95:
 3349 01e9 735F636E 		.ascii	"s_cnt\000"
 3349      7400
 3350              	.LASF6:
 3351 01ef 73686F72 		.ascii	"short unsigned int\000"
 3351      7420756E 
 3351      7369676E 
 3351      65642069 
 3351      6E7400
 3352              	.LASF47:
 3353 0202 63685F74 		.ascii	"ch_thread\000"
 3353      68726561 
 3353      6400
 3354              	.LASF23:
 3355 020c 6D73675F 		.ascii	"msg_t\000"
 3355      7400
 3356              	.LASF73:
 3357 0212 63685F73 		.ascii	"ch_system_t\000"
 3357      79737465 
 3357      6D5F7400 
 3358              	.LASF122:
 3359 021e 6368506F 		.ascii	"chPoolAdd\000"
 3359      6F6C4164 
 3359      6400
 3360              	.LASF19:
 3361 0228 746D6F64 		.ascii	"tmode_t\000"
 3361      655F7400 
 3362              	.LASF125:
 3363 0230 6368506F 		.ascii	"chPoolObjectInit\000"
 3363      6F6C4F62 
 3363      6A656374 
 3363      496E6974 
 3363      00
 3364              	.LASF52:
 3365 0241 63685F72 		.ascii	"ch_ready_list\000"
 3365      65616479 
 3365      5F6C6973 
ARM GAS  /tmp/ccPPIFRN.s 			page 84


 3365      7400
 3366              	.LASF24:
 3367 024f 6576656E 		.ascii	"eventmask_t\000"
 3367      746D6173 
 3367      6B5F7400 
 3368              	.LASF127:
 3369 025b 5F5F6675 		.ascii	"__func__.6495\000"
 3369      6E635F5F 
 3369      2E363439 
 3369      3500
 3370              	.LASF7:
 3371 0269 5F5F696E 		.ascii	"__int32_t\000"
 3371      7433325F 
 3371      7400
 3372              	.LASF81:
 3373 0273 73746B61 		.ascii	"stkalign_t\000"
 3373      6C69676E 
 3373      5F7400
 3374              	.LASF130:
 3375 027e 474E5520 		.ascii	"GNU C 4.8.4 20141219 (release) -mcpu=cortex-m4 -mno"
 3375      4320342E 
 3375      382E3420 
 3375      32303134 
 3375      31323139 
 3376 02b1 2D746875 		.ascii	"-thumb-interwork -mthumb -ggdb -O2 -fomit-frame-poi"
 3376      6D622D69 
 3376      6E746572 
 3376      776F726B 
 3376      202D6D74 
 3377 02e4 6E746572 		.ascii	"nter -falign-functions=16 -ffunction-sections -fdat"
 3377      202D6661 
 3377      6C69676E 
 3377      2D66756E 
 3377      6374696F 
 3378 0317 612D7365 		.ascii	"a-sections -fno-common -flto\000"
 3378      6374696F 
 3378      6E73202D 
 3378      666E6F2D 
 3378      636F6D6D 
 3379              	.LASF38:
 3380 0334 705F7761 		.ascii	"p_waiting\000"
 3380      6974696E 
 3380      6700
 3381              	.LASF79:
 3382 033e 73697A65 		.ascii	"sizetype\000"
 3382      74797065 
 3382      00
 3383              	.LASF45:
 3384 0347 74687265 		.ascii	"thread_reference_t\000"
 3384      61645F72 
 3384      65666572 
 3384      656E6365 
 3384      5F7400
 3385              	.LASF68:
 3386 035a 63685F76 		.ascii	"ch_virtual_timers_list\000"
 3386      69727475 
 3386      616C5F74 
ARM GAS  /tmp/ccPPIFRN.s 			page 85


 3386      696D6572 
 3386      735F6C69 
 3387              	.LASF118:
 3388 0371 6368506F 		.ascii	"chPoolAllocI\000"
 3388      6F6C416C 
 3388      6C6F6349 
 3388      00
 3389              	.LASF120:
 3390 037e 6368506F 		.ascii	"chPoolFreeI\000"
 3390      6F6C4672 
 3390      65654900 
 3391              	.LASF69:
 3392 038a 76745F6C 		.ascii	"vt_lasttime\000"
 3392      61737474 
 3392      696D6500 
 3393              	.LASF33:
 3394 0396 705F6F6C 		.ascii	"p_older\000"
 3394      64657200 
 3395              	.LASF55:
 3396 039e 725F6374 		.ascii	"r_ctx\000"
 3396      7800
 3397              	.LASF106:
 3398 03a4 6D705F6F 		.ascii	"mp_object_size\000"
 3398      626A6563 
 3398      745F7369 
 3398      7A6500
 3399              	.LASF85:
 3400 03b3 746D5F63 		.ascii	"tm_calibration_t\000"
 3400      616C6962 
 3400      72617469 
 3400      6F6E5F74 
 3400      00
 3401              	.LASF58:
 3402 03c4 725F6375 		.ascii	"r_current\000"
 3402      7272656E 
 3402      7400
 3403              	.LASF57:
 3404 03ce 725F6F6C 		.ascii	"r_older\000"
 3404      64657200 
 3405              	.LASF12:
 3406 03d6 5F5F7569 		.ascii	"__uint64_t\000"
 3406      6E743634 
 3406      5F7400
 3407              	.LASF104:
 3408 03e1 70685F6E 		.ascii	"ph_next\000"
 3408      65787400 
 3409              	.LASF131:
 3410 03e9 2F757372 		.ascii	"/usr/src/chibios/os/rt/src/chmempools.c\000"
 3410      2F737263 
 3410      2F636869 
 3410      62696F73 
 3410      2F6F732F 
 3411              	.LASF21:
 3412 0411 74726566 		.ascii	"trefs_t\000"
 3412      735F7400 
 3413              	.LASF60:
 3414 0419 76697274 		.ascii	"virtual_timer_t\000"
ARM GAS  /tmp/ccPPIFRN.s 			page 86


 3414      75616C5F 
 3414      74696D65 
 3414      725F7400 
 3415              	.LASF29:
 3416 0429 705F7072 		.ascii	"p_prev\000"
 3416      657600
 3417              	.LASF22:
 3418 0430 74707269 		.ascii	"tprio_t\000"
 3418      6F5F7400 
 3419              	.LASF71:
 3420 0438 63685F73 		.ascii	"ch_system_debug\000"
 3420      79737465 
 3420      6D5F6465 
 3420      62756700 
 3421              	.LASF15:
 3422 0448 696E7433 		.ascii	"int32_t\000"
 3422      325F7400 
 3423              	.LASF4:
 3424 0450 756E7369 		.ascii	"unsigned char\000"
 3424      676E6564 
 3424      20636861 
 3424      7200
 3425              	.LASF42:
 3426 045e 705F6D74 		.ascii	"p_mtxlist\000"
 3426      786C6973 
 3426      7400
 3427              	.LASF5:
 3428 0468 73686F72 		.ascii	"short int\000"
 3428      7420696E 
 3428      7400
 3429              	.LASF35:
 3430 0472 705F7374 		.ascii	"p_state\000"
 3430      61746500 
 3431              	.LASF54:
 3432 047a 725F7072 		.ascii	"r_prio\000"
 3432      696F00
 3433              	.LASF92:
 3434 0481 65776D61 		.ascii	"ewmask\000"
 3434      736B00
 3435              	.LASF28:
 3436 0488 705F6E65 		.ascii	"p_next\000"
 3436      787400
 3437              	.LASF111:
 3438 048f 63685379 		.ascii	"chSysLock\000"
 3438      734C6F63 
 3438      6B00
 3439              	.LASF113:
 3440 0499 6F626A70 		.ascii	"objp\000"
 3440      00
 3441              	.LASF61:
 3442 049e 63685F76 		.ascii	"ch_virtual_timer\000"
 3442      69727475 
 3442      616C5F74 
 3442      696D6572 
 3442      00
 3443              	.LASF93:
 3444 04af 63685F73 		.ascii	"ch_semaphore\000"
ARM GAS  /tmp/ccPPIFRN.s 			page 87


 3444      656D6170 
 3444      686F7265 
 3444      00
 3445              	.LASF41:
 3446 04bc 705F6570 		.ascii	"p_epending\000"
 3446      656E6469 
 3446      6E6700
 3447              	.LASF16:
 3448 04c7 75696E74 		.ascii	"uint32_t\000"
 3448      33325F74 
 3448      00
 3449              	.LASF91:
 3450 04d0 77746D74 		.ascii	"wtmtxp\000"
 3450      787000
 3451              	.LASF53:
 3452 04d7 725F7175 		.ascii	"r_queue\000"
 3452      65756500 
 3453              	.LASF64:
 3454 04df 76745F64 		.ascii	"vt_delta\000"
 3454      656C7461 
 3454      00
 3455              	.LASF48:
 3456 04e8 63685F74 		.ascii	"ch_threads_list\000"
 3456      68726561 
 3456      64735F6C 
 3456      69737400 
 3457              	.LASF10:
 3458 04f8 6C6F6E67 		.ascii	"long unsigned int\000"
 3458      20756E73 
 3458      69676E65 
 3458      6420696E 
 3458      7400
 3459              	.LASF100:
 3460 050a 63686172 		.ascii	"char\000"
 3460      00
 3461              	.LASF27:
 3462 050f 74687265 		.ascii	"thread_t\000"
 3462      61645F74 
 3462      00
 3463              	.LASF99:
 3464 0518 6D5F6E65 		.ascii	"m_next\000"
 3464      787400
 3465              	.LASF26:
 3466 051f 73797374 		.ascii	"systime_t\000"
 3466      696D655F 
 3466      7400
 3467              	.LASF43:
 3468 0529 705F7265 		.ascii	"p_realprio\000"
 3468      616C7072 
 3468      696F00
 3469              	.LASF59:
 3470 0534 76746675 		.ascii	"vtfunc_t\000"
 3470      6E635F74 
 3470      00
 3471              	.LASF9:
 3472 053d 5F5F7569 		.ascii	"__uint32_t\000"
 3472      6E743332 
ARM GAS  /tmp/ccPPIFRN.s 			page 88


 3472      5F7400
 3473              	.LASF115:
 3474 0548 5F5F7365 		.ascii	"__set_BASEPRI\000"
 3474      745F4241 
 3474      53455052 
 3474      4900
 3475              	.LASF72:
 3476 0556 70616E69 		.ascii	"panic_msg\000"
 3476      635F6D73 
 3476      6700
 3477              	.LASF84:
 3478 0560 6F666673 		.ascii	"offset\000"
 3478      657400
 3479              	.LASF96:
 3480 0567 63685F6D 		.ascii	"ch_mutex\000"
 3480      75746578 
 3480      00
 3481              	.LASF105:
 3482 0570 6D705F6E 		.ascii	"mp_next\000"
 3482      65787400 
 3483              	.LASF82:
 3484 0578 636F6E74 		.ascii	"context\000"
 3484      65787400 
 3485              	.LASF40:
 3486 0580 705F6D73 		.ascii	"p_msg\000"
 3486      6700
 3487              	.LASF18:
 3488 0586 7274636E 		.ascii	"rtcnt_t\000"
 3488      745F7400 
 3489              	.LASF66:
 3490 058e 76745F70 		.ascii	"vt_par\000"
 3490      617200
 3491              	.LASF49:
 3492 0595 74687265 		.ascii	"threads_queue_t\000"
 3492      6164735F 
 3492      71756575 
 3492      655F7400 
 3493              	.LASF103:
 3494 05a5 706F6F6C 		.ascii	"pool_header\000"
 3494      5F686561 
 3494      64657200 
 3495              	.LASF37:
 3496 05b1 705F7265 		.ascii	"p_refs\000"
 3496      667300
 3497              	.LASF75:
 3498 05b8 726C6973 		.ascii	"rlist\000"
 3498      7400
 3499              	.LASF14:
 3500 05be 75696E74 		.ascii	"uint8_t\000"
 3500      385F7400 
 3501              	.LASF132:
 3502 05c6 6368506F 		.ascii	"chPoolAlloc\000"
 3502      6F6C416C 
 3502      6C6F6300 
 3503              	.LASF121:
 3504 05d2 6368506F 		.ascii	"chPoolFree\000"
 3504      6F6C4672 
ARM GAS  /tmp/ccPPIFRN.s 			page 89


 3504      656500
 3505              	.LASF88:
 3506 05dd 77746F62 		.ascii	"wtobjp\000"
 3506      6A7000
 3507              	.LASF34:
 3508 05e4 705F6E61 		.ascii	"p_name\000"
 3508      6D6500
 3509              	.LASF123:
 3510 05eb 73697A65 		.ascii	"size\000"
 3510      00
 3511              	.LASF46:
 3512 05f0 74687265 		.ascii	"threads_list_t\000"
 3512      6164735F 
 3512      6C697374 
 3512      5F7400
 3513              	.LASF36:
 3514 05ff 705F666C 		.ascii	"p_flags\000"
 3514      61677300 
 3515              	.LASF116:
 3516 0607 63685379 		.ascii	"chSysUnlock\000"
 3516      73556E6C 
 3516      6F636B00 
 3517              	.LASF126:
 3518 0613 6368506F 		.ascii	"chPoolLoadArray\000"
 3518      6F6C4C6F 
 3518      61644172 
 3518      72617900 
 3519              	.LASF109:
 3520 0623 706F7274 		.ascii	"port_lock\000"
 3520      5F6C6F63 
 3520      6B00
 3521              	.LASF98:
 3522 062d 6D5F6F77 		.ascii	"m_owner\000"
 3522      6E657200 
 3523              	.LASF31:
 3524 0635 705F6374 		.ascii	"p_ctx\000"
 3524      7800
 3525              	.LASF65:
 3526 063b 76745F66 		.ascii	"vt_func\000"
 3526      756E6300 
 3527              		.comm	__gnu_lto_v1,1,1
 3528              		.ident	"GCC: (4.8.4-1+11-1) 4.8.4 20141219 (release)"
ARM GAS  /tmp/ccPPIFRN.s 			page 90


DEFINED SYMBOLS
                            *ABS*:00000000 chmempools.c
     /tmp/ccPPIFRN.s:386    .text.chPoolObjectInit:00000000 $t
     /tmp/ccPPIFRN.s:392    .text.chPoolObjectInit:00000000 chPoolObjectInit
     /tmp/ccPPIFRN.s:414    .text.chPoolLoadArray:00000000 $t
     /tmp/ccPPIFRN.s:420    .text.chPoolLoadArray:00000000 chPoolLoadArray
     /tmp/ccPPIFRN.s:519    .text.chPoolAllocI:00000000 $t
     /tmp/ccPPIFRN.s:525    .text.chPoolAllocI:00000000 chPoolAllocI
     /tmp/ccPPIFRN.s:564    .text.chPoolAlloc:00000000 $t
     /tmp/ccPPIFRN.s:570    .text.chPoolAlloc:00000000 chPoolAlloc
     /tmp/ccPPIFRN.s:677    .text.chPoolFreeI:00000000 $t
     /tmp/ccPPIFRN.s:683    .text.chPoolFreeI:00000000 chPoolFreeI
     /tmp/ccPPIFRN.s:701    .text.chPoolFree:00000000 $t
     /tmp/ccPPIFRN.s:707    .text.chPoolFree:00000000 chPoolFree
                            *COM*:00000001 __gnu_lto_v1
                     .debug_frame:00000010 $d

NO UNDEFINED SYMBOLS
