ARM GAS  /tmp/ccPPIFRN.s 			page 1


   1              		.syntax unified
   2              		.cpu cortex-m4
   3              		.fpu softvfp
   4              		.eabi_attribute 20, 1
   5              		.eabi_attribute 21, 1
   6              		.eabi_attribute 23, 3
   7              		.eabi_attribute 24, 1
   8              		.eabi_attribute 25, 1
   9              		.eabi_attribute 26, 1
  10              		.eabi_attribute 30, 2
  11              		.eabi_attribute 34, 1
  12              		.eabi_attribute 18, 4
  13              		.thumb
  14              		.file	"chmempools.c"
  15              		.text
  16              	.Ltext0:
  17              		.section	.gnu.lto_.jmpfuncs.29b757ec55c1d034,"",%progbits
  18 0000 789C6362 		.ascii	"x\234cb`b\300\006\244\2414\033\003;#;\023##\220y\200"
  18      6062C006 
  18      A4A1341B 
  18      033B233B 
  18      13232390 
  19 0016 818D19C4 		.ascii	"\201\215\031\304\250g``afef\000\000\027\362\001\222"
  19      A8676060 
  19      61666566 
  19      000017F2 
  19      0192
  20              		.text
  21              		.section	.gnu.lto_.inline.29b757ec55c1d034,"",%progbits
  22 0000 789C6D4F 		.ascii	"x\234mO!\016\302@\020\234\335\273\366\332\006\002-\002"
  22      210EC240 
  22      109CDDBB 
  22      F6DA0602 
  22      2D02
  23 0012 090E4750 		.ascii	"\011\016GP\325}\001\032\215\001~Q\211 )\022C\202E`I"
  23      D57D011A 
  23      8D017E51 
  23      89202912 
  23      43824560 
  24 0027 9F81AC42 		.ascii	"\237\201\254B\203\343\011\354\335\0015\\.\2673;s\231"
  24      83E309EC 
  24      DD01355C 
  24      2EB7333B 
  24      7399
  25 0039 5D06E3DF 		.ascii	"]\006\343\337I\311\327Pn@`U\017\0217\2713\023\272O\020"
  25      49C9D750 
  25      6E406055 
  25      0F1137B9 
  25      3313BA4F 
  26 004e B1B5705A 		.ascii	"\261\265pZ\335\023\304\307\0353\264\345H\0232X/hce\005"
  26      DD13C4C7 
  26      1D33B4E5 
  26      48133258 
  26      2F686365 
  27 0063 AC5AE8BA 		.ascii	"\254Z\350\272\202U\341\273\036\222\323Z<Nl\356i\304"
  27      8255E1BB 
  27      1E92D35A 
ARM GAS  /tmp/ccPPIFRN.s 			page 2


  27      3C4E6CEE 
  27      69C4
  28 0075 A0872918 		.ascii	"\240\207)\030\301v\"BC%EB\352H*\350L%\367\205\177\000"
  28      C1762242 
  28      43254542 
  28      EA482AE8 
  28      4C25F785 
  29 008b D425D3A0 		.ascii	"\324%\323\240*\324n\302 \205\364h?W\030td\372\354\272"
  29      2AD46EC2 
  29      2085F468 
  29      3F571874 
  29      64FAECBA 
  30 009f 4472987D 		.ascii	"Dr\230}5\253h\273\027\371p\315\267\036\242\327\324%"
  30      35AB68BB 
  30      17F970CD 
  30      B71EA2D7 
  30      D425
  31 00b1 6AFF3A2B 		.ascii	"j\377:+\"#\277M\223\377v\307\033\257\224\037\255"
  31      2223BF4D 
  31      93FF76C7 
  31      1BAF941F 
  31      AD
  32              		.text
  33              		.section	.gnu.lto_.pureconst.29b757ec55c1d034,"",%progbits
  34 0000 789C6362 		.ascii	"x\234cb`b\340e\200\0006\006)F+&)f+\026)V+\000\007\246"
  34      6062E065 
  34      80003606 
  34      29462B26 
  34      29662B16 
  35 001a 0123     		.ascii	"\001#"
  36              		.text
  37              		.section	.gnu.lto_chPoolObjectInit.29b757ec55c1d034,"",%progbits
  38 0000 789C6362 		.ascii	"x\234cb`b@\007\222@,\305\310\300\240\005\244\031\231"
  38      60624007 
  38      92402CC5 
  38      C8C0A005 
  38      A41999
  39 0013 19189926 		.ascii	"\031\030\231&\234c`h\344`bd\0041\030\030\031\352\231"
  39      9C636068 
  39      E4606264 
  39      04311818 
  39      19EA99
  40 0026 18EB2319 		.ascii	"\030\353#\031\301j\3273\035x\360\377\377\272mm\347\017"
  40      C16AD733 
  40      1D78F0FF 
  40      FFBA6D6D 
  40      E70F
  41 0038 32AE5206 		.ascii	"2\256R\006\252\311ed`\001\022\214l@\002d4+CKC\303\004"
  41      AAC96564 
  41      6001128C 
  41      6C400264 
  41      342B434B 
  42 004f 855CA041 		.ascii	"\205\\\240A\014\311`=!@\022dP(P\036H3\237eh\332\361"
  42      0CC9603D 
  42      21401264 
  42      5028501E 
  42      48339F65 
ARM GAS  /tmp/ccPPIFRN.s 			page 3


  43 0066 E3F90FC6 		.ascii	"\343\371\017\306D\306\205\214\254\014\332\014\253\032"
  43      44C6858C 
  43      AC0CDA0C 
  43      AB1A
  44 0074 80803B93 		.ascii	"\200\200;\223\221a6\303,\306LF\306tF\246\010 \015qg"
  44      916136C3 
  44      2CC64C46 
  44      C67446A6 
  44      08200D71 
  45 0089 12C45A06 		.ascii	"\022\304Z\006\220\010\230\001\324}z\306\253\017L\350"
  45      90089801 
  45      D47D7AC6 
  45      AB0F4CE8 
  46 0099 BA99B1EB 		.ascii	"\272\231\261\353\206hJgd\201\350\334\361\352\006\206"
  46      86684A67 
  46      6481E8DC 
  46      F1EA0686 
  47 00a9 4E16EC3A 		.ascii	"N\026\354:\231\240:\331\030\030.24>X\245\014\321\007"
  47      99A03AD9 
  47      18182E32 
  47      343E58A5 
  47      0CD107
  48 00bc 032140A3 		.ascii	"\003!@\243\201\276\001\251\322\320/-.\322/.J\326O\316"
  48      81BE01A9 
  48      D2D02F2D 
  48      2ED22F2E 
  48      4AD64FCE 
  49 00d0 C84CCACC 		.ascii	"\310L\312\314/\326\007\242\242\022\250HnjnA~~N\261^"
  49      2FD607A2 
  49      A212A848 
  49      6E6A6E41 
  49      7E7E4EB1 
  50 00e5 320300F9 		.ascii	"2\003\000\371FPJ"
  50      46504A
  51              		.text
  52              		.section	.gnu.lto_chPoolLoadArray.29b757ec55c1d034,"",%progbits
  53 0000 789CBD54 		.ascii	"x\234\275TMhcU\024>\347\336\367\2226\311\320\021\\\014"
  53      4D686355 
  53      143EE7DE 
  53      F79236C9 
  53      D0115C0C 
  54 0014 5262A888 		.ascii	"Rb\250\210\305\0263\302\300\254\006\224\001\301E7\375"
  54      C51633C2 
  54      C0AC0694 
  54      01C14537 
  54      FD
  55 0025 015D88BC 		.ascii	"\001]\210\274\276\206\364I3\011I;\264\253\336\266\301"
  55      BE86F449 
  55      3309493B 
  55      B4ABDEB6 
  55      C1
  56 0036 2A2DA54D 		.ascii	"*-\245M]T\333\202\265\376U\244b\375+\035\321\314Hm\203"
  56      5D54DB82 
  56      B5FE55A4 
  56      62FD2B1D 
  56      D1CC486D 
  57 004b B6D09DF3 		.ascii	"\266\320\235\363\263H\027\203\213\272\030\027:\0102"
ARM GAS  /tmp/ccPPIFRN.s 			page 4


  57      B3481783 
  57      8BBA1817 
  57      3A0832
  58 005a 9973EF7D 		.ascii	"\231s\357}/?\2665\013\301K\336}\367\335s\316w\316\371"
  58      2F3FB635 
  58      0BC14BDE 
  58      7DF7DD73 
  58      CE77CEF9 
  59 006e CEC961C0 		.ascii	"\316\311a\300\340\237\353\022=}>\200G\021\000}\200l"
  59      E09FEB12 
  59      3D7D3E80 
  59      4711007D 
  59      806C
  60 0080 761F60AC 		.ascii	"v\037`\254\201\241\241\017\\\037\2567\030\214O\357\000"
  60      81A1A10F 
  60      5C1FAE37 
  60      188C4FEF 
  60      00
  61 0091 888099F5 		.ascii	"\210\200\231\365\203\010\231\210\362\036\020F\0317L"
  61      83089988 
  61      F21E1046 
  61      19374C
  62 00a0 1C7D1915 		.ascii	"\034}\031\025\336g,_,\225\326s\223\337\375\214\313\354"
  62      DE672C5F 
  62      2C95D673 
  62      93DFFD8C 
  62      CBEC
  63 00b2 11840492 		.ascii	"\021\204\004\222\327\004\242\201t2iC?m\254\021\034\204"
  63      D704A281 
  63      74326943 
  63      3F6DAC11 
  63      1C84
  64 00c4 809406A5 		.ascii	"\200\224\006\2454D\237\022\300\204\254\020\263\221\004"
  64      34449F12 
  64      C084AC10 
  64      B39104
  65 00d3 72005B21 		.ascii	"r\000[!v\323N\036{\220\321\213\027\340F\003\220\201"
  65      76D34E1E 
  65      7B90D18B 
  65      17E04603 
  65      9081
  66 00e5 41103A81 		.ascii	"A\020:\201\036R\245\300H2^\334\377\301o\341\012\232"
  66      1E52A5C0 
  66      48325EDC 
  66      FFC16FE1 
  66      0A9A
  67 00f7 A460920E 		.ascii	"\244`\222\016@\001\230\276h\201\025!r\371\371\311\237"
  67      400198BE 
  67      68811521 
  67      72F9F9C9 
  67      9F
  68 0108 50E4C4D8 		.ascii	"P\344\304\330\275R\251\311A\306\240\015\245\233\227"
  68      BD52A9C9 
  68      41C6A00D 
  68      A59B97
  69 0117 D0411E51 		.ascii	"\320A\036Q/\303\250\345'.\303\"l\345\325G\270\336\227"
  69      2FC3A8E5 
ARM GAS  /tmp/ccPPIFRN.s 			page 5


  69      272EC322 
  69      6CE5D547 
  69      B8DE97
  70 012a 462C1EDC 		.ascii	"F,\036\334}\253\375m\221\317\276+\376.\225\220\000L"
  70      7DABFD6D 
  70      91CFBE2B 
  70      FE2E9590 
  70      004C
  71 013c 06AFD403 		.ascii	"\006\257\324\003%\244Z\030\261!D\243\202\340\204`\341"
  71      25A45A18 
  71      B12144A3 
  71      82E08460 
  71      E1
  72 014d 0794DD7F 		.ascii	"\007\224\335\177\201\240\254W\353BT\245\346&3;\371\300"
  72      81A0AC57 
  72      EB4254A5 
  72      E626333B 
  72      F9C0
  73 015f 57938C8F 		.ascii	"W\223\214\217A\016\353e#\357|\021:\354\303\370\357\233"
  73      410EEB65 
  73      23EF7C11 
  73      3AECC3F8 
  73      EF9B
  74 0171 DB1BD3DC 		.ascii	"\333\033\323\334\255\242W\316\374\352L\351L\253\205"
  74      ADA257CE 
  74      FCEA4CE9 
  74      4CAB85
  75 0180 1F634BB9 		.ascii	"\037cK\271\304\371\373K\337\006\233\313_\205m^\321\276"
  75      C4F9FB4B 
  75      DF069BCB 
  75      5F856D5E 
  75      D1BE
  76 0192 BDF6185A 		.ascii	"\275\366\030Z\370\021i[\370a\265\315\324\257\207\334"
  76      F811695B 
  76      F861B5CD 
  76      D4AF87DC 
  77 01a2 C2F795E0 		.ascii	"\302\367\225\340=%\320\325\265U\2142_N\217A\217\011"
  77      3D25D0D5 
  77      B5558C32 
  77      5F4E8F41 
  77      8F09
  78 01b4 AA3711FE 		.ascii	"\2527\021\376\240+\352\024\256[?\014\257\263e\261\360"
  78      A02BEA14 
  78      AE5B3F0C 
  78      AFB365B1 
  78      F0
  79 01c5 9C83FE9A 		.ascii	"\234\203\376\232\310+\3627]y\203\316\255\232\236\374"
  79      C82BF237 
  79      5D7983CE 
  79      AD9A9EFC 
  80 01d5 FC4C75F7 		.ascii	"\374Lu\367\374\337e*\336\271\033t\211=\001\212`\346"
  80      FCDF652A 
  80      DEB91B74 
  80      893D018A 
  80      60E6
  81 01e7 58BD4A79 		.ascii	"X\275JyD\212/\226\302\026~\255x\374\312\345q]\361\350"
  81      448A2F96 
ARM GAS  /tmp/ccPPIFRN.s 			page 6


  81      C2167EAD 
  81      78FCCAE5 
  81      715DF1E8 
  82 01fb 03F5B149 		.ascii	"\003\365\261I\227\312\357\036\214\337\332\334:\244@"
  82      97CAEF1E 
  82      8CDFDADC 
  82      3AA440
  83 020a BF21791C 		.ascii	"\277!y\034C\213\360\316\230\020g\311a\034\375\322G\243"
  83      438BF0CE 
  83      981067C9 
  83      611CFDD2 
  83      47A3
  84 021c 8B4C9A85 		.ascii	"\213L\232\205\331\200\326k\203O\004\2553\244U\326\017"
  84      D980D66B 
  84      834F04AD 
  84      33A455D6 
  84      0F
  85 022d 109ED4D7 		.ascii	"\020\236\324\327c\242\027\225\237-Y(B\325\346\277l\375"
  85      63A21795 
  85      9F2D5928 
  85      42D5E6BF 
  85      6CFD
  86 023f 851AE014 		.ascii	"\205\032\340\024/\307;vnro\007s\023bWd\363\324\262\217"
  86      2FC73B76 
  86      6E726F07 
  86      73136257 
  86      64F3D4B2 
  87 0254 533D2D5C 		.ascii	"S=-\\\253\313\251*<\374{\313.7Q\313~_\333\262G\301p"
  87      ABCBA92A 
  87      3CFC7BCB 
  87      2E3751CB 
  87      7E5FDBB2 
  88 026b 7946557A 		.ascii	"yFUz\367G^!P\365\225M\355s\274\007-\374\234\016e\327"
  88      F7475E21 
  88      50F5954D 
  88      ED73BC07 
  88      2DFC9C0E 
  89 0281 5ECF59F8 		.ascii	"^\317Y\370%\206\313\034\336Z\370s\327\320]\035\307\306"
  89      2586CB1C 
  89      DE5AF873 
  89      D7D05D1D 
  89      C7C6
  90 0293 3678DAC1 		.ascii	"6x\332\301\240fC,\222e\310\345\303tY\3042\373\023S\023"
  90      A066432C 
  90      9265C8E5 
  90      C37459C4 
  90      32FB1353 
  91 02a8 61CF4E72 		.ascii	"a\317Nr\035\227\234\225\347\037\315Y\272VzoL\034\315"
  91      1D979C95 
  91      E71FCD59 
  91      BA567A6F 
  91      4C1CCD
  92 02bb F83CCD60 		.ascii	"\370<\315`\034\231\304\013\226h5A\215\005A\0045z\017"
  92      1C99C40B 
  92      96683541 
  92      8D054104 
  92      357A0F
ARM GAS  /tmp/ccPPIFRN.s 			page 7


  93 02ce FDA768DA 		.ascii	"\375\247h\332so\016\222\204U\246\242.\313.d\177\273"
  93      736F0E92 
  93      8455A6A2 
  93      2ECB2E64 
  93      7FBB
  94 02e0 BEB813F2 		.ascii	"\276\270\023\362\2205l\205\362\233@V\006\243-\300\247"
  94      90356C85 
  94      F29B4056 
  94      06A32DC0 
  94      A7
  95 02f1 AF35DF04 		.ascii	"\2575\337\004\026\247Y)}\360O\257\235\223>L9\340\017"
  95      16A75929 
  95      7DF04FAF 
  95      9D933E4C 
  95      39E00F
  96 0304 60AC78E7 		.ascii	"`\254x\347\011\015\342\255n\302\317\372%Y\255\321\241"
  96      090DE2AD 
  96      6EC2CFFA 
  96      2559ADD1 
  96      A1
  97 0315 4C3A9A49 		.ascii	"L:\232I\333Q\273\337\351u\222\231(\375\322\203\356M"
  97      DB51BBDF 
  97      E9759299 
  97      28FDD283 
  97      EE4D
  98 0327 22964825 		.ascii	"\"\226H%\223\003\231gl0\222\275\257\245\332O\321v\256"
  98      93039967 
  98      6C3092BD 
  98      AFA5DA4F 
  98      D176AE
  99 033a D803437D 		.ascii	"\330\003C}\261j\213~`\211\324\263\247\350\247\222\351"
  99      B16A8B7E 
  99      6089D4B3 
  99      A7E8A792 
  99      E9
 100 034b C14CF4F9 		.ascii	"\301L\364\371\316\216\313\035\303$\262\223\351\330\253"
 100      CE8ECB1D 
 100      C324B293 
 100      E9D8AB
 101 035a 572F26C8 		.ascii	"W/&\310\310\274j\015\014\305.\234d\027\033\036\214^"
 101      C8BC6A0D 
 101      0CC52E9C 
 101      64171B1E 
 101      8C5E
 102 036c EEE87AB1 		.ascii	"\356\350z\261\253\342N\332\331\211\027\206\256\330d"
 102      ABE24EDA 
 102      D9891786 
 102      AED864
 103 037b FA54DDE0 		.ascii	"\372T\335\3402#2\256\263\035]\235\221^+\023K\245\235"
 103      322332AE 
 103      B31D5D9D 
 103      915E2B13 
 103      4BA59D
 104 038e F6C893E7 		.ascii	"\366\310\223\347\201\245\301Oq'\323#\300S\375\251\207"
 104      81A5C14F 
 104      7127D323 
 104      C053FDA9 
ARM GAS  /tmp/ccPPIFRN.s 			page 8


 104      87
 105 039f 88EECFBF 		.ascii	"\210\356\317\277"
 106              		.text
 107              		.section	.gnu.lto_chPoolAllocI.29b757ec55c1d034,"",%progbits
 108 0000 789C8552 		.ascii	"x\234\205R\275K\034A\024\177\277\371Xo\357\014\021\253"
 108      BD4B1C41 
 108      147FBFF9 
 108      586FEF0C 
 108      11AB
 109 0012 6025A942 		.ascii	"`%\251B\016\262eH\341_\2206B\354\364\026\321\225\034"
 109      0EB26548 
 109      E15F9036 
 109      42ECF416 
 109      D1951C
 110 0025 2777B10C 		.ascii	"'w\261\014\316\311U!\205I\245\021\361\013\2334\246L"
 110      CEC95521 
 110      8549A511 
 110      F10B9B34 
 110      A64C
 111 0037 21B8E914 		.ascii	"!\270\351\024\242b\027S\035\251mD\002)B\3267\263;\013"
 111      A2621753 
 111      1DA96D44 
 111      022942D6 
 111      37B33B0B 
 112 004b 970432EC 		.ascii	"\227\0042\354\316\333y;\277\217\367f\004\011\372s<\345"
 112      CEDB793B 
 112      BF8FF766 
 112      0409FA73 
 112      3CE5
 113 005d F780D311 		.ascii	"\367\200\323\021G\014\021\304\352\031Q\267\"\204\334"
 113      470C11C4 
 113      EA1951B7 
 113      2284DC
 114 006c 9C205355 		.ascii	"\234 SU7#d\206%\202<\255\204\336\260\351\340\207Mk\237"
 114      37236486 
 114      25823CAD 
 114      84DEB0E9 
 114      E0874D6B 
 115 0081 0E00FB41 		.ascii	"\016\000\373A\240e!\225\016\260<\005K\216\373\264c\314"
 115      A0652195 
 115      0EB03C05 
 115      4B8EFBB4 
 115      63CC
 116 0093 BBFEFEEF 		.ascii	"\273\376\376\357c\254\233\264\267m~e\031\220\200\215"
 116      63AC9BB4 
 116      B76D7E65 
 116      1990808D 
 117 00a3 D44131E8 		.ascii	"\324A1\3509/0\356\202P\203\316\016D\332\317\2627G\207"
 117      392F30EE 
 117      825083CE 
 117      0E44DACF 
 117      B2374787 
 118 00b7 DFD7313A 		.ascii	"\337\3271:\014\232\301\016\363)4A\272X\004\224@VxR!"
 118      0C9AC10E 
 118      F3293441 
 118      BA580494 
 118      40567852 
ARM GAS  /tmp/ccPPIFRN.s 			page 9


 119 00cc 4FBA56A4 		.ascii	"O\272V\244yh\352\031\263:\236\257\233`7\261s\364\214"
 119      7968EA19 
 119      B33A9EAF 
 119      9B6037B1 
 119      73F48C
 120 00df 676B7512 		.ascii	"gku\022\302FyJ+\337\276f)f\260\007Ms\320u\372`x<a\342"
 120      C246794A 
 120      2BDFBE66 
 120      2966B007 
 120      4D73D075 
 121 00f9 0D7ACFB6 		.ascii	"\015z\317\266\2029(ko\310\231j\300\333;\241\225\364"
 121      8239286B 
 121      6FC8996A 
 121      C0DB3BA1 
 121      95F4
 122 010b 5E0ECB55 		.ascii	"^\016\313U\030LtL\275\253\317o_\313\222\317B\007\312"
 122      184C744C 
 122      BDABCF6F 
 122      5FCB92CF 
 122      4207CA
 123 011e 9A84A4CD 		.ascii	"\232\204\244\315\011'\374i\367\272\334\030\324\351a"
 123      0927FC69 
 123      F7BADC18 
 123      D4E961
 124 012d A9592980 		.ascii	"\251Y)\200\262\320\364\014\014:\371X\315!\205\321\273"
 124      B2D0F40C 
 124      0C3AF958 
 124      CD2185D1 
 124      BB
 125 013e FF31CACC 		.ascii	"\3771\312\314^W\321\315\210\323\375\271{]\026\\q\272"
 125      5E57D1CD 
 125      88D3FDB9 
 125      7B5D165C 
 125      71BA
 126 0150 E1BF29FC 		.ascii	"\341\277)\374u\261Uu\037\227\020\273%\034\254I\323\326"
 126      75B15575 
 126      1F9710BB 
 126      251CAC49 
 126      D3D6
 127 0162 1DC7BDB6 		.ascii	"\035\307\275\266wY\326\024:\356*sw\331\351\253\277\371"
 127      7759D614 
 127      3AEE2A73 
 127      77D9E9AB 
 127      BFF9
 128 0174 65813FA7 		.ascii	"e\201?\247^:\346Q5V\260\276\303\0045\333f1\330\344\232"
 128      5E3AE651 
 128      3556B0BE 
 128      C30435DB 
 128      6631D8E4 
 129 0189 970CDC01 		.ascii	"\227\014\334\001\3621\360n\377\223\213\276\240n\177"
 129      F231F06E 
 129      FF938BBE 
 129      A06E7F
 130 0198 6DD693B9 		.ascii	"m\326\223\271.\\\022\270\241\362\352h\232\203\262\034"
 130      2E5C12B8 
 130      A1F2EA68 
 130      9A83B21C 
ARM GAS  /tmp/ccPPIFRN.s 			page 10


 131 01a8 FACBC5BC 		.ascii	"\372\313\305\274\275\014\260\034\266\312\007\321R\247"
 131      BD0CB01C 
 131      B6CA07D1 
 131      52A7
 132 01b6 1D75DA71 		.ascii	"\035u\332q\024\317'\215\244\325\211\370i\277,2\315\331"
 132      14CF278D 
 132      A4D589F8 
 132      69BF2C32 
 132      CDD9
 133 01c8 E662ABF5 		.ascii	"\346b\253\365\242\363(&\325j,,\336\002t\231\251\321"
 133      A2F32826 
 133      D56A2C2C 
 133      DE027499 
 133      A9D1
 134              		.text
 135              		.section	.gnu.lto_chPoolAlloc.29b757ec55c1d034,"",%progbits
 136 0000 789C8D54 		.ascii	"x\234\215T]H\024Q\024>\347\316\217\373\343\317\326S"
 136      5D481451 
 136      143EE7CE 
 136      8FFBE3CF 
 136      D653
 137 0012 45C81244 		.ascii	"E\310\022D\221\322\026\004>\011\205\020D\370\242\005"
 137      91D21604 
 137      3E098510 
 137      44F8A205 
 138 0022 F554B3D3 		.ascii	"\365T\263\323\242\023\256\273\354\252\344\223w\305\210"
 138      A213AEBB 
 138      ECAAE493 
 138      77C588
 139 0031 C2070B04 		.ascii	"\302\007\013\004K$\177\352\245 \313\036*\260\332\010"
 139      4B247FEA 
 139      A520CB1E 
 139      2AB0DA08 
 140 0041 29FB317C 		.ascii	")\3731|(\264\037\260z\2100(\221\250\350g;\367\316\314"
 140      28B41FB0 
 140      7A883028 
 140      91A8E867 
 140      3BF7CECC 
 141 0055 BA5BA9CD 		.ascii	"\272[\251\315\356\314\275\367\334{\276\357;\347\314"
 141      EECCBDF7 
 141      DC7BBEEF 
 141      3BE7CC
 142 0064 19060CFE 		.ascii	"\031\006\014\376\274v\323]\245\001\274\245\021\013\000"
 142      BC76D35D 
 142      A501BCA5 
 142      110B00
 143 0073 59D70440 		.ascii	"Y\327\004@\312\303\230\322W\011\334\247\316\007\200"
 143      CAC398D2 
 143      5709DCA7 
 143      CE0780
 144 0082 172AA8DB 		.ascii	"\027*\250\333f\225i\275\302\254\177\026f\3155\353\210"
 144      669569BD 
 144      C2AC7F16 
 144      66CD35EB 
 144      88
 145 0093 6202086D 		.ascii	"b\002\010mLQ5\035\333\366\243\000\307u0\300\371\251"
 145      4C51351D 
ARM GAS  /tmp/ccPPIFRN.s 			page 11


 145      DBF6A300 
 145      C77530C0 
 145      F9A9
 146 00a5 99B18BE3 		.ascii	"\231\261\213\343x\232\247;\372\371\217L\006\321B\022"
 146      789AA73B 
 146      FAF98F4C 
 146      06D14212 
 147 00b5 52866022 		.ascii	"R\206`\"\354\243\005\006\345\300\324|e\303,=\223\311"
 147      ECA30506 
 147      E5C0D47C 
 147      65C32C3D 
 147      93C9
 148 00c7 BC7C7AFD 		.ascii	"\274|z\375\315M\\\271B\301(\202\016\006\016\020h\001"
 148      CD4D5CB9 
 148      42C12882 
 148      0E060E10 
 148      6801
 149 00d9 58A878E8 		.ascii	"X\250x\350\241z\351\241\371\034\263\337\031\351\322"
 149      A17AE9A1 
 149      F91CB3DF 
 149      19E9D2
 150 00e8 A083F3AE 		.ascii	"\240\203\363\256\240\2736\245\234=\364\024:\367\"\023"
 150      A0BB36A5 
 150      9C3DF414 
 150      3AF72213 
 151 00f8 A3320EED 		.ascii	"\2432\016\355\036\000G\343\344\334\265\362<\215:\203"
 151      1E0047E3 
 151      E4DCB5F2 
 151      3C8D3A83 
 152 0108 F0721A85 		.ascii	"\360r\032\205M\017\322d\002\332\347\246\356\216t*\016"
 152      4D0FD264 
 152      02DAE7A6 
 152      EE8E742A 
 152      0E
 153 0119 B1AB203D 		.ascii	"\261\253 =\364\375c\200\031xN\312pl_\272G\375k\263\253"
 153      F4FD6380 
 153      19784ECA 
 153      706C5FBA 
 153      47FD6BB3 
 154 012e E32FA92A 		.ascii	"\343/\251*\006\016\241Fd\202\220\321\255\310\364\321"
 154      060EA146 
 154      648290D1 
 154      ADC8F4D1 
 155 013e 6F8CA6B4 		.ascii	"o\214\246\264\257\330\245+\205g\330\307{\266[T\252\\"
 155      AFD8A52B 
 155      8567D8C7 
 155      7BB65B54 
 155      AA5C
 156 0150 FA85FD69 		.ascii	"\372\205\375ig\337c\013\314\0151\375\342\301C\344\247"
 156      67DF630B 
 156      CC0D31FD 
 156      E2C143E4 
 156      A7
 157 0161 78EA5326 		.ascii	"x\352S&Sb\241\227\301k\\.\300:\241\3441\264?\237\312"
 157      5362A197 
 157      C16B5C2E 
 157      C03AA1E4 
ARM GAS  /tmp/ccPPIFRN.s 			page 12


 157      31B43F9F 
 158 0176 A4D189CD 		.ascii	"\244\321\211\315A\233\277\327\271\232\367\267w\361_"
 158      419BBFD7 
 158      B99AF7B7 
 158      77F15F
 159 0185 942F2AA9 		.ascii	"\224/*\251\201\203R\372Rpn\320\374]\367*\003\207eR\334"
 159      818352FA 
 159      52706ED0 
 159      FC5DF72A 
 159      03876552 
 160 019a D0559B4F 		.ascii	"\320U\233O/\203\013\234\363\364\317c\305T\344^8\223"
 160      2F830B9C 
 160      F3F4CF63 
 160      C554E45E 
 160      3893
 161 01ac E23C60A1 		.ascii	"\342<`\241\217\224\010D\257D\011\243t\274J\216v\220"
 161      8F940844 
 161      AF4409A3 
 161      74BC4A8E 
 161      7690
 162 01be 6982BB42 		.ascii	"i\202\273B+\003G\010\224P\000\356C\307\207;'O(\366\006"
 162      2B034708 
 162      945000EE 
 162      43C7873B 
 162      274F28F6 
 163 01d3 99847B9E 		.ascii	"\231\204{\236\226\275\024\\_\245\"\302\273>8\227=XP"
 163      96BD145C 
 163      5FA522C2 
 163      BB3E3897 
 163      3D5850
 164 01e6 069B72A9 		.ascii	"\006\233r\251\375\216\257\342Pc\0165\371\216_\366\331"
 164      FD8EAFE2 
 164      50630E35 
 164      F98E5FF6 
 164      D9
 165 01f7 9EB6705E 		.ascii	"\236\266p^\362\177\262\353\354\022\012\025*\314\007"
 165      F27FB2EB 
 165      EC120A15 
 165      2ACC07
 166 0206 A48AAF83 		.ascii	"\244\212\257\203s\350\252\360H\025\205\213\"\261\034"
 166      73E8AAF0 
 166      4815858B 
 166      22B11C
 167 0215 1522D454 		.ascii	"\025\"\324TE\326S\034+\314\017T\203\263E\222\242gh:"
 167      45D6531C 
 167      2BCC0F54 
 167      83B34592 
 167      A267683A 
 168 0229 1BA85752 		.ascii	"\033\250WR\024-J\241\344P<\201\216\364\032\327\221\016"
 168      142D4AA1 
 168      E4503C81 
 168      8EF41AD7 
 168      910E
 169 023b 7A44045E 		.ascii	"zD\004^\013\213E\372Y~\362}.\253\236\323f\356\246_\326"
 169      0B8B45FA 
 169      597EF27D 
 169      2EAB9ED3 
ARM GAS  /tmp/ccPPIFRN.s 			page 13


 169      66EEA65F 
 170 0250 6BE6C651 		.ascii	"k\346\306Q\335.|\266e!\277\035\337\217\376\321\216\006"
 170      DD2E7CB6 
 170      6521BF1D 
 170      DF8FFED1 
 170      8E06
 171 0262 9E5FF6FD 		.ascii	"\236_\366\375\222\015\001K\366\343\3547\321\217\267"
 171      920D014B 
 171      F6E3EC37 
 171      D18FB7
 172 0271 F2FB71D6 		.ascii	"\362\373q\326_\232\375f,4\346\253\234\306\224I0\011"
 172      5F9AFD66 
 172      2C34E6AB 
 172      9CC69449 
 172      3009
 173 0283 FCEFDE34 		.ascii	"\374\357\3364\360\"M\262\324n/\032x\011KmY\223\220\232"
 173      F0224DB2 
 173      D46E2F1A 
 173      78094B6D 
 173      5993909A 
 174 0297 198DD850 		.ascii	"\031\215\330P2\003\000\323 ^+\345\303\355\2034\250\""
 174      320300D3 
 174      205E2BE5 
 174      C3ED8334 
 174      A822
 175 02a9 69DAA3C9 		.ascii	"i\332\243\311z\361\215B\2214\201\2601\324\234L\204\222"
 175      7AF18D42 
 175      913481B0 
 175      31D49C4C 
 175      8492
 176 02bb 093364D6 		.ascii	"\0113d\326[a+\226\014\321?\321\344X\242\221h<\026kH"
 176      5B612B96 
 176      0CD13FD1 
 176      E458A291 
 176      683C166B 
 177 02d0 6E36418D 		.ascii	"n6A\215\205\017\307\267.r:\036K4%C;j\252\253\252\217"
 177      850FC7B7 
 177      2E723A1E 
 177      4B342543 
 177      3B6AAAAB 
 178 02e6 D096194B 		.ascii	"\320\226\031KD\016\264TD7\327\203\326b44G\266\375\313"
 178      440EB454 
 178      4437D783 
 178      D6623434 
 178      47B6FDCB 
 179 02fa 2F72A429 		.ascii	"/r\244)TU]\273\2536d5\232\015\315\207\"!\351gFw67\232"
 179      54555DBB 
 179      AB366435 
 179      9A0DCD87 
 179      2221E967 
 180 0313 E4BA6111 		.ascii	"\344\272a\021\262\354\351\372dk\222\316\005\252kk\202"
 180      B2ECE9FA 
 180      646B92CE 
 180      05AA6B6B 
 180      82
 181 0324 61231989 		.ascii	"a#\031\211'\254\362\340\372-\300\022P@\312c\211V`\321"
 181      27ACF2E0 
ARM GAS  /tmp/ccPPIFRN.s 			page 14


 181      FA2DC012 
 181      5040CA63 
 181      895660D1 
 182 0338 F86F656B 		.ascii	"\370oek\206\344"
 182      86E4
 183              		.text
 184              		.section	.gnu.lto_chPoolFreeI.29b757ec55c1d034,"",%progbits
 185 0000 789C8551 		.ascii	"x\234\205Q\261J\003A\020}o7AQ\374\200t! \210\007\271"
 185      B14A0341 
 185      107D6F37 
 185      4151FC80 
 185      74212088 
 186 0016 9F89A085 		.ascii	"\237\211\240\205Er\310%\340q\307\235\326\331\004?\340"
 186      4572C825 
 186      E071C79D 
 186      D6D9043F 
 186      E0
 187 0027 B011B431 		.ascii	"\260\021\2641\226\026\261\021\321`\2216\204\010vb\025"
 187      9616B111 
 187      D1609136 
 187      84087662 
 187      15
 188 0038 6BBFC0C6 		.ascii	"k\277\300\306s\366.\021b\343\260;3\2733\357\275YVA\341"
 188      73F62E11 
 188      62E3B03B 
 188      33BB33EF 
 188      BD595641 
 189 004d AF55641F 		.ascii	"\257Ud\037\022\250K\244\006U\372\002\364\326\025i\023"
 189      12A84BA4 
 189      0655FA02 
 189      F4D61569 
 189      13
 190 005e 105DC5EE 		.ascii	"\020]\305\356\001\363\336;5\236g\331\360az\377\314\241"
 190      01F3DE3B 
 190      359E67D9 
 190      F0617AFF 
 190      CCA1
 191 0070 5A230342 		.ascii	"Z#\003B\213c\011\235\274\243\2143c\322j\015\003c\316"
 191      8B63099D 
 191      BCA38C33 
 191      63D26A0D 
 191      0363CE
 192 0083 C74FD38B 		.ascii	"\307O\323\213\212\271\356\247\346;\313(\015\012\016"
 192      8AB9EEA7 
 192      E63BCB28 
 192      0D0A0E
 193 0092 E111FB72 		.ascii	"\341\021\373r`5\017\252\264:M@\231\320\313\271\032\342"
 193      60350FAA 
 193      B43A4D40 
 193      99D0CBB9 
 193      1AE2
 194 00a4 ED087B72 		.ascii	"\355\010{r%QO\240\232\034\260\214&oX\203O\251\317\320"
 194      25514FA0 
 194      9A1CB08C 
 194      266F5883 
 194      4FA9CFD0 
 195 00b8 7F7F1C7D 		.ascii	"\177\177\034},\012>K\016vE\350\012\227\302\255}j\253"
ARM GAS  /tmp/ccPPIFRN.s 			page 15


 195      2C0A3E4B 
 195      0E7645E8 
 195      0A97C2AD 
 195      7D6AAB
 196 00cb 5148B4B8 		.ascii	"QH\264\270\324\020\320$\335( \016n\215\330\326/\250"
 196      D410D024 
 196      DD28200E 
 196      6E8DD8D6 
 196      2FA8
 197 00dd 2CBC1684 		.ascii	",\274\026\204\005\250H|Kbqo\243/\256 7\377\221\313\307"
 197      05A8487C 
 197      4B62716F 
 197      A32FAE20 
 197      37FF91CB 
 198 00f2 7C456FFE 		.ascii	"|Eo\376\271]\340\226\326\220\202<\313~\310\216{\232"
 198      B95DE096 
 198      D690823C 
 198      CB7EC88E 
 198      7B9A
 199 0104 C46E127B 		.ascii	"\304n\022{\256\327\356\264:a\342\312\212O\0267\301Q"
 199      AED7EEB4 
 199      3A61E2CA 
 199      8A4F1637 
 199      C151
 200 0116 1085E171 		.ascii	"\020\205\341qR\367\240\243v\364\003\352\323^\015"
 200      52F7A0A3 
 200      76F403EA 
 200      D35E0D
 201              		.text
 202              		.section	.gnu.lto_chPoolFree.29b757ec55c1d034,"",%progbits
 203 0000 789C8D53 		.ascii	"x\234\215SMh\023Q\020\236y\2334\251Q\314U\220\020\012"
 203      4D681351 
 203      109E799B 
 203      34A951CC 
 203      5590100A 
 204 0014 52B1A5AB 		.ascii	"R\261\245\253 xU\012\202\207\\\232\012z\020\331\254"
 204      2078550A 
 204      82875C9A 
 204      0A7A10D9 
 204      AC
 205 0025 A159C976 		.ascii	"\241Y\311v\227\335\244\264\247\276\204\036%\204\210"
 205      97DDA4B4 
 205      A7BE841E 
 205      258488
 206 0034 E02F583D 		.ascii	"\340/X=)j1\026Zj\017\013\242\020\212\205\202\007\221"
 206      296A3116 
 206      5A6A0F0B 
 206      A2108A85 
 206      820791
 207 0047 A2111551 		.ascii	"\242\021\025Q\013\265\307\212\020g\337&1\251\255\351"
 207      0BB5C78A 
 207      1067DF26 
 207      31A9ADE9 
 208 0057 23BBEF6F 		.ascii	"#\273\357o\276\371f\276|\313\200\301\326q\200\236\367"
 208      BEF966BE 
 208      7CCB80C1 
 208      D671809E 
ARM GAS  /tmp/ccPPIFRN.s 			page 16


 208      F7
 209 0068 12C0579A 		.ascii	"\022\300W\232Q\002d\305e\200\\\220!\272\013@\230d8y"
 209      510264C5 
 209      65805C90 
 209      21BA0B40 
 209      98643879 
 210 007c 1E45EC0C 		.ascii	"\036E\354\014s\252\265\332\223Rav\015\347\331^\011u"
 210      73AAB5DA 
 210      93526176 
 210      0DE7D95E 
 210      0975
 211 008e 041FBD30 		.ascii	"\004\037\2750\000\232\210\360\303\024\347\305(\200*"
 211      009A88F0 
 211      C314E7C5 
 211      28802A
 212 009d B6C3F476 		.ascii	"\266\303\364v\263\234E\346\316R\005\362A\200\036\230"
 212      B39C45E6 
 212      CE5205F2 
 212      41801E98 
 213 00ad E6BC549D 		.ascii	"\346\274T\235\333\230\353\277\301\235\251\273\374w\255"
 213      DB98EBBF 
 213      C19DA9BB 
 213      FC77AD
 214 00bc 86A82105 		.ascii	"\206\250!\005]@\027y\2166,*&\311\327^\255{\206\224\037"
 214      5D401779 
 214      8E362C2A 
 214      26C9D75E 
 214      AD7B8694 
 215 00d1 9621BFB1 		.ascii	"\226!\277\261\364\242|EjRz\013g\375\327z\230)x\017{"
 215      F4A27C45 
 215      6A527A0B 
 215      67FDD77A 
 215      9829780F 
 216 00e6 9AF5389F 		.ascii	"\232\3658\237\256-\206\0166w\225\227\324\256\202\323"
 216      AE2D860E 
 216      36779597 
 216      D4AE82D3 
 217 00f6 E8273297 		.ascii	"\350'2\227\220\321#\201h\026\301\241%\251$yRE`\005\357"
 217      90D12381 
 217      6816C1A1 
 217      25A92479 
 217      52456005 
 218 010b F0EB2735 		.ascii	"\360\353'5\364\265\321\377\275\177S\277\367{\005\266"
 218      F4B5D1FF 
 218      BD7F53BF 
 218      F77B05B6 
 219 011b B6E85C2D 		.ascii	"\266\350\\-,!/\361\334\317Zm\277\206]\014V\261S\203"
 219      2C212FF1 
 219      DCCF5A6D 
 219      BF865D0C 
 219      56B15383 
 220 012f 236E25AD 		.ascii	"#n%\255Ix\231\363n\241\221\244a\200\301\207]\244\360"
 220      497899F3 
 220      6EA191A4 
 220      6180C187 
 220      5DA4F0
 221 0142 8914D5D5 		.ascii	"\211\024\325\325/\241\272:\333\244\242\372?wL\325\320"
ARM GAS  /tmp/ccPPIFRN.s 			page 17


 221      2FA1BA3A 
 221      DBA4A2FA 
 221      3F774CD5 
 221      D0
 222 0153 8C3FBB1D 		.ascii	"\214?\273\035Qp\2064U\360\261P\266\241\237\000(X\246"
 222      51708634 
 222      55F0B150 
 222      B6A19F00 
 222      2858A6
 223 0166 43C1FB1A 		.ascii	"C\301\373\032\362\357\346\027>\322?\360\224\356G0\320"
 223      F2EFE617 
 223      3ED23FF0 
 223      94EE4730 
 223      D0
 224 0177 074788EC 		.ascii	"\007G\210\354\026\334\314q\036\3260H\015\272L]\"{\002"
 224      16DCCC71 
 224      1ED63048 
 224      0DBA4C5D 
 224      227B02
 225 018a 057AD653 		.ascii	"\005z\326S\217\260\225\342\036\017\331\007\0179\215"
 225      8FB095E2 
 225      1E0FD907 
 225      0F398D
 226 0199 7DADD86E 		.ascii	"}\255\330nbp\261P\307b\023K<\036\374\355\302&\266%\010"
 226      6270B150 
 226      C762134B 
 226      3C1EFCED 
 226      C226B625 
 227 01ae ED8EBCA1 		.ascii	"\355\216\274\241Y\213=\277-n\261\247\202\367\205U:\372"
 227      598B3DBF 
 227      2D6EB1A7 
 227      82F78555 
 227      3AFA
 228 01c0 13FEEBCF 		.ascii	"\023\376\353\317\357\233\256?\237\267\373\363G(\322"
 228      EF9BAE3F 
 228      9FB7FBF3 
 228      4728D2
 229 01cf F2F5348C 		.ascii	"\362\3654\214\372\252\305\250B!\225J\377\327\253\012"
 229      FAAAC5A8 
 229      4221954A 
 229      FFD7AB0A 
 230 01df 3EA04593 		.ascii	">\240E\223\272\341M\005\037a\304+k\005r\325B\257\227"
 230      BAE14D05 
 230      1F61C42B 
 230      6B0572D5 
 230      42AF97
 231 01f2 AA318629 		.ascii	"\2521\206)\232>J7\364\260\234\265-\331\266TYMi\011\315"
 231      9A3E4A37 
 231      F4B09CB5 
 231      2DD9B654 
 231      594D6909 
 232 0207 B065FA59 		.ascii	"\260e\372Y\231\372\211\236\324M\303H\333\003*\034\333"
 232      99FA899E 
 232      D44DC348 
 232      DB032A1C 
 232      DB
 233 0218 21D034AC 		.ascii	"!\3204\254\214-\237\032\212\015\306\306\351J5\254\344"
ARM GAS  /tmp/ccPPIFRN.s 			page 18


 233      8C2D9F1A 
 233      8A0DC6C6 
 233      E94A35AC 
 233      E4
 234 0229 C5B113FA 		.ascii	"\305\261\023\372@\012\374cJ:\233<\276\035.9\236\221"
 234      400AFC63 
 234      4A3A9B3C 
 234      BE1D2E39 
 234      9E91
 235 023b 0763F133 		.ascii	"\007c\3613qY\033U\323\331KIY\340T\375tvT%h\357\016d"
 235      71591B55 
 235      D3D94B49 
 235      59E054FD 
 235      74765425 
 236 0253 CDE8943D 		.ascii	"\315\350\224=aS\\8\026\037\212&\024;iZZ\177\364\320"
 236      61535C38 
 236      161F8A26 
 236      143B695A 
 236      5A7FF4D0 
 237 0267 51601604 		.ascii	"Q`\026\004\250h\303\232\000\246\233>#q\331\224\314\224"
 237      A868C39A 
 237      00A69B3E 
 237      2371D994 
 237      CC94
 238 0279 F907E651 		.ascii	"\371\007\346Q3\224"
 238      3394
 239              		.text
 240              		.section	.gnu.lto_.symbol_nodes.29b757ec55c1d034,"",%progbits
 241 0000 789C4DC7 		.ascii	"x\234M\307\273\015\200@\020\003Q\333\2674K\023N/D\""
 241      BB0D8040 
 241      100351DB 
 241      B7344B13 
 241      4E2F4422 
 242 0014 A71C42BA 		.ascii	"\247\034B\272\340w\"\243\001\010\220\330IFO\020z|i\245"
 242      E07722A3 
 242      010890D8 
 242      49464F10 
 242      7A7C69A5 
 243 0028 816101EC 		.ascii	"\201a\001\354\251R\033\315\304\235V\342A\227\304\223"
 243      A9521BCD 
 243      C49D56E2 
 243      4197C493 
 244 0038 8EC44677 		.ascii	"\216\304Fw?C\030\347KQp\277\303\003Hl#\004"
 244      3F4318E7 
 244      4B5170BF 
 244      C303486C 
 244      2304
 245              		.text
 246              		.section	.gnu.lto_.refs.29b757ec55c1d034,"",%progbits
 247 0000 789C6362 		.ascii	"x\234cb`b`d\200\002\000\000F\000\006"
 247      60626064 
 247      80020000 
 247      460006
 248              		.text
 249              		.section	.gnu.lto_.decls.29b757ec55c1d034,"",%progbits
 250 0000 789C9D58 		.ascii	"x\234\235Xyl\024U\030\177oz\354.\273-\305DRc\"E\305"
 250      796C1455 
ARM GAS  /tmp/ccPPIFRN.s 			page 19


 250      187F6F7A 
 250      EC2EBB2D 
 250      C5445263 
 251 0017 03A56B15 		.ascii	"\003\245k\025\017\376\261\"Qi\"J$$&\232\214\303vtW\367"
 251      0FFEB122 
 251      5169224A 
 251      2424269A 
 251      8CC37674 
 252 002d CAEE16AD 		.ascii	"\312\356\026\255\377\360\226B\003\236m\221\000\342\261"
 252      FFF09642 
 252      039E6D91 
 252      00E2B1
 253 003c 553C106C 		.ascii	"U<\020l\225\2531\022\334\240Rl=jL\360\010\342z\213\032"
 253      95AB3112 
 253      DCA0526C 
 253      3D6A4CF0 
 253      08E27A8B 
 254 0051 2D2206D4 		.ascii	"-\"\006\324\260~\357\230\335\231\327\231\355\256\223"
 254      B07EEF98 
 254      DD99D799 
 254      EDAE93
 255 0060 7E3B6F66 		.ascii	"~;of\276\343\367\375\2767\337{S\005)h\\A(\017G\363\231"
 255      BEE3F7FD 
 255      BE37DF7B 
 255      53052968 
 255      5C41280F 
 256 0077 084DAB42 		.ascii	"\010M\253B\310\205\020\272\026\004n\243V\220~\304\217"
 256      C88510BA 
 256      16046EA3 
 256      56907EC4 
 256      8F
 257 0088 5A906D20 		.ascii	"Z\220m # \207@\016\203\344@\216\242\211\007\325\253"
 257      23208740 
 257      0E83E440 
 257      8EA28907 
 257      D5AB
 258 009a 01D90D32 		.ascii	"\001\331\0152\0102\000\262E\370\202\020h\027\310^\220"
 258      083200B2 
 258      45F88210 
 258      6817C85E 
 258      90
 259 00ab 7D2058E8 		.ascii	"} X\350W\203\274\015\362.\3100\310o\222O\032\267\316"
 259      5783BC0D 
 259      F22EC830 
 259      C86F924F 
 259      1AB7CE
 260 00be E49762AB 		.ascii	"\344\227b\253\007\361\011\377'AN#\356P\001\331#b\016"
 260      07F109FF 
 260      27414E23 
 260      EE5001D9 
 260      23620E
 261 00d1 8A5CDE10 		.ascii	"\212\\\336\0201=\302W\025\346\330\335p\366\201L\305"
 261      313DC257 
 261      15E6D8DD 
 261      70F6814C 
 261      C5
 262 00e2 3C9F4638 		.ascii	"<\237F8\237\2159\017\037\203|\0022\006r\016\334;\017"
ARM GAS  /tmp/ccPPIFRN.s 			page 20


 262      9F8D390F 
 262      1F837C02 
 262      3206720E 
 262      DC3B0F
 263 00f5 E47C9059 		.ascii	"\344|\220Y\330\212\355\220\300a\306D1\276\"\360\032"
 263      D88AED90 
 263      C061C644 
 263      31BE22F0 
 263      1A
 264 0106 1CEC111C 		.ascii	"\034\354\021\034P\\\317\211\234w\011l\373\004>,\374"
 264      505CCF89 
 264      9C77096C 
 264      FB043E2C 
 264      FC
 265 0117 51CC5F80 		.ascii	"Q\314_\200\\ \305\242\274O-\021\313\314\303\200\210"
 265      5C20C5A2 
 265      BC4F2D11 
 265      CBCCC380 
 265      88
 266 0128 5D4E5C97 		.ascii	"]N\\\227\360m\346\343\220\211\017\012\343\210T\023\312"
 266      F06DE6E3 
 266      90890F0A 
 266      E3885413 
 266      CA
 267 0139 57AD886F 		.ascii	"W\255\210o`1\347\252\230\342`\241O\353\377\003\310\367"
 267      6031E7AA 
 267      98E260A1 
 267      4FEBFF03 
 267      C8F7
 268 014b 209748B9 		.ascii	" \227H\271\321zL\021\376N\232|\232\363i5\345d\366\357"
 268      D17A4C11 
 268      FE4E9A7C 
 268      9AF36935 
 268      E564F6EF 
 269 015f 42A5EB49 		.ascii	"B\245\353Iu\177\001\371U\312\301\213\036\"d%\311t\223"
 269      757F01F9 
 269      55CAC18B 
 269      1E226425 
 269      C97493
 270 0172 8507EBA7 		.ascii	"\205\007\353\247\243\365\004\016\270 8\245\341V/\272"
 270      A3F5040E 
 270      B82038A5 
 270      E1562FBA 
 271 0182 1D6BB8DE 		.ascii	"\035k\270\336\203\232\330\300\347a\324!\244\341\347"
 271      839AD8C0 
 271      E761D421 
 271      A4E1E7
 272 0191 F07436AA 		.ascii	"\360t6\252b\216aV\255)zA\266V\263\320\026Bzr\253\177"
 272      628E6156 
 272      AD297A41 
 272      B656B3D0 
 272      16427A72 
 273 01a7 39A510E2 		.ascii	"9\245\020\342\326\360\026\354\001\333+0\232\215\266"
 273      D6F016EC 
 273      01DB2B30 
 273      9A8DB6
 274 01b6 42CC1E42 		.ascii	"B\314\036B\366\237\203&\036\032\256\361L\270\326\360"
ARM GAS  /tmp/ccPPIFRN.s 			page 21


 274      F69F8326 
 274      1E1AAEF1 
 274      4CB8D6F0 
 275 01c6 4B7836E2 		.ascii	"Kx6\342q\330c1\240/\362T\252\263\264\252`P\002\313\272"
 275      71D86331 
 275      A02FF254 
 275      AAB3B4AA 
 275      605002CB 
 276 01db EEA18B19 		.ascii	"\356\241\213\031\226~\354\005,\021\\p<\201\031\236\261"
 276      967EEC05 
 276      2C115C70 
 276      3C81199E 
 276      B1
 277 01ec 131BAF80 		.ascii	"\023\033\257\200\275\331\324\014Wz6\003=C2\271\334\211"
 277      BDD9D40C 
 277      577A3603 
 277      3D4332B9 
 277      DC89
 278 01fe E10FB44D 		.ascii	"\341\017\264M$\273\212\344\363+\220D\373\265g:\006\332"
 278      24BB8AE4 
 278      F32B9044 
 278      FBB5673A 
 278      06DA
 279 0210 6EA5DD02 		.ascii	"n\245\335\002\361\014\324K\2754\231\012p\227a\357+&"
 279      F10CD44B 
 279      BD34990A 
 279      709761EF 
 279      2B26
 280 0222 BDE1E1E1 		.ascii	"\275\341\341\341\026\226\364 >\003\274\214ak\326\223"
 280      1696F420 
 280      3E03BC8C 
 280      616BD693 
 281 0232 79A12876 		.ascii	"y\241(v\200%\267a>I\266\367\200\217T\363\373\310\201"
 281      8025B761 
 281      3E49B6F7 
 281      808F54F3 
 281      FBC881
 282 0245 083866A2 		.ascii	"\0108f\242\014\240\315\256\353~\372,\222\331\217\355"
 282      0CA0CDAE 
 282      EB7EFA2C 
 282      92D98FED 
 283 0255 C0676A9D 		.ascii	"\300gj\235\246\217\202\2160\244{\344\330\307\264&~w"
 283      A68F828E 
 283      30A47BE4 
 283      D8C7B426 
 283      7E77
 284 0267 F2C8C78F 		.ascii	"\362\310\307\217\276\207I\237O\303\273Y\275\177.8\264"
 284      BE87499F 
 284      4FC3BB59 
 284      BD7F2E38 
 284      B4
 285 0278 0B288696 		.ascii	"\013(\206\226I$\037Ne\242\376\305\241\240?X\230\035"
 285      49241F4E 
 285      65A2FEC5 
 285      A1A03F58 
 285      981D
 286 028a 958711A8 		.ascii	"\225\207\021\250\327\037x\212\361e\2742\177W\354\257"
ARM GAS  /tmp/ccPPIFRN.s 			page 22


 286      D71F788A 
 286      F165BC32 
 286      7F57ECAF 
 287 029a C9E26FE3 		.ascii	"\311\342o\343\001_\217f\314\371\265J\031\316\334\245"
 287      015F8F66 
 287      CCF9B54A 
 287      19CEDCA5 
 288 02aa 38301DE6 		.ascii	"80\035\346\231\241\341\235x\026\374\356\3023\341w/\373"
 288      99A1E19D 
 288      7816FCEE 
 288      C233E177 
 288      2FFB
 289 02bc DD07BF93 		.ascii	"\335\007\277\223r7P\344N\314r\236\270\371\272\237\353"
 289      723750E4 
 289      4ECC729E 
 289      B8F9BA9F 
 289      EB
 290 02cd 58DE7305 		.ascii	"X\336s\005\255W\254S\371|\364<!}\364U\373\032?\321E"
 290      AD57AC53 
 290      F97CF43C 
 290      217DF455 
 290      FB1A3FD1 
 291 02e2 1672DF0A 		.ascii	"\026r\337\012z\221\351m\3033l1\010\004\334\230|\242"
 291      7A91E96D 
 291      C3336C31 
 291      0804DC98 
 291      7CA2
 292 02f4 2F3478DF 		.ascii	"/4x\337:\211\031\003)\3146\001\307\330\340x`\022C\221"
 292      3A891903 
 292      29CC3601 
 292      C7D8E078 
 292      60124391 
 293 0308 CD05E805 		.ascii	"\315\005\350\005\372\012<JV7`\326\004\220\260\2620\274"
 293      FA0A3C4A 
 293      563760D6 
 293      0490B0B2 
 293      30BC
 294 031a 1F2BE61B 		.ascii	"\037+\346\033\274\235d\373\206}=\351\\>?\243\374V2j"
 294      BC9D64FB 
 294      867D3DE9 
 294      5C3E3FA3 
 294      FC56326A 
 295 032e 6D253CED 		.ascii	"m%<\355\302E\253\327\256\000\022\341C\266\204\223\315"
 295      C245ABD7 
 295      AE0012E1 
 295      43B68493 
 295      CD
 296 033f BAA05AC3 		.ascii	"\272\240Z\303\357\000Z\015\217\224E\365[\324\254\225"
 296      EF005A0D 
 296      8F9445F5 
 296      5BD4AC95 
 297 034f 1236CCFC 		.ascii	"\0226\314\374:[\265\026\215\216\027\353\363\336$V\""
 297      3A5BB516 
 297      8D8E17EB 
 297      F3DE2456 
 297      22
 298 0360 075B9A47 		.ascii	"\007[\232Gd\232?\232Hsn<{lx\024\032\010\3717\237\357"
ARM GAS  /tmp/ccPPIFRN.s 			page 23


 298      649A3F9A 
 298      48736E3C 
 298      7B6C7814 
 298      1A08F937 
 299 0376 72CB5DBB 		.ascii	"r\313]\273\304b\371\251\035\325\022\227\243\366\\n\220"
 299      C462F9A9 
 299      1DD51297 
 299      A3F65C6E 
 299      90
 300 0387 B93C549A 		.ascii	"\271<T\232K\221\337J2\330\275\272\241Z\324\321\331J"
 300      4B91DF4A 
 300      32D8BDBA 
 300      A15AD4D1 
 300      D94A
 301 0399 00FCDC76 		.ascii	"\000\374\334vR}1\"&\025\317@A\237\331c\\/c<\374\277"
 301      527D3122 
 301      2615CF40 
 301      419FD963 
 301      5C2F633C 
 302 03af 303A5909 		.ascii	"0:Y\011\214_\332Vd\350a\347\212\224\230\374_\2271\371"
 302      8C5FDA56 
 302      64E861E7 
 302      8A9498FC 
 302      5F9731F9 
 303 03c3 A5027D67 		.ascii	"\245\002}g\237\374:9\371\\Y\223}\2500\331\307\231_g"
 303      9FFC3A39 
 303      F95C5993 
 303      7DA830D9 
 303      C7995F67 
 304 03d7 AB56E7E6 		.ascii	"\253V\347\346\220\223g\355w\266\034\365}\310\353\370"
 304      909367ED 
 304      77B61CF5 
 304      7DC8EBF8 
 305 03e7 EC753C71 		.ascii	"\354u<q\005\235\260\317\245W\316\345hY\271\354\026\271"
 305      059DB0CF 
 305      A557CEE5 
 305      6859B9EC 
 305      16B9
 306 03f9 68F8C749 		.ascii	"h\370\307I\254J\344rT\316\345gk.\347\242~26\226}\363"
 306      AC4AE472 
 306      54CEE567 
 306      6B2EE7A2 
 306      7E323696 
 307 040f C05A8249 		.ascii	"\300Z\202I7I\217\303No\032\352a{\225\215\365b\377\231"
 307      37498FC3 
 307      4E6F1AEA 
 307      617B958D 
 307      F562FF99 
 308 0423 7B21DBB8 		.ascii	"{!\333\270\261\270\201p\033\321\351>\233o\027\300@)"
 308      B1B88170 
 308      1BD1E93E 
 308      9B6F17C0 
 308      4029
 309 0435 2893C646 		.ascii	"(\223\306F{]\015\037c\213\327\037\274e\260G|l\214\362"
 309      7B5D0D1F 
 309      638BD71F 
 309      BC65B047 
ARM GAS  /tmp/ccPPIFRN.s 			page 24


 309      7C6C8CF2 
 310 0449 6C4B4DAA 		.ascii	"lKM\252\244\035|\021~iS\021t\0156\242Nc\312\305\204"
 310      A41D7C11 
 310      7E695311 
 310      740D36A2 
 310      4E63CAC5 
 311 045e B8AA839A 		.ascii	"\270\252\203\232\206\377\304|\304R!\205=\252\317\343"
 311      86FFC47C 
 311      C4522185 
 311      3DAACFE3 
 312 046e 38E34F98 		.ascii	"8\343O\230\360\370<\305A\203\005\265\241\005\271\255"
 312      F0F83CC5 
 312      418305B5 
 312      A105B9AD 
 313 047e AE92562D 		.ascii	"\256\222V-\031\205\202\036\023\351kx\012\256\344\033"
 313      1985821E 
 313      13E96B78 
 313      0AAEE41B 
 314 048e E0D4935B 		.ascii	"\340\324\223[.e[\320\223\254q\277Ue\235\215\345;z\375"
 314      2E655BD0 
 314      93AC71BF 
 314      55659D8D 
 314      E53B7AFD 
 315 04a2 C83BBDB8 		.ascii	"\310;\275\270\013\336v\015\377\303\\\375%\271\322\260"
 315      0BDE760D 
 315      FFC35CFD 
 315      25B9D2B0 
 316 04b2 4BFA7A70 		.ascii	"K\372zpY\277\036\\\236\342@|=T\250.j\226\271N*Z\203"
 316      59BF1E5C 
 316      9EE2407C 
 316      3D54A82E 
 316      6A96B94E 
 317 04c9 815711AE 		.ascii	"\201W\021\256NW\\\263\274C\315\214I\3470]\2561\364\\"
 317      4E575CB3 
 317      BC43CD8C 
 317      49E7305D 
 317      AE31F45C 
 318 04dd C20F512A 		.ascii	"\302\017Q*\215\234V\354#\327\212\310\322\267\021\335"
 318      8D9C56EC 
 318      23D78AC8 
 318      D2B711DD 
 319 04ed EF3AB95A 		.ascii	"\357:\271Z\251\024\366s\264\037e\307r\033F\337\337\217"
 319      A914F673 
 319      B41F65C7 
 319      721B46DF 
 319      DF8F
 320 04ff FBBAC841 		.ascii	"\373\272\310AB_\342\214\333\350J\351j\333\256\364\246"
 320      425FE28C 
 320      DBE84AE9 
 320      6ADBAEF4 
 320      A6
 321 0510 DC95BA94 		.ascii	"\334\225\272\224r\272\322WRWr\266\262t\245\317\311\342"
 321      72BAD257 
 321      525772B6 
 321      B274A5CF 
 321      C9E2
 322 0522 C64253A2 		.ascii	"\306BS\2426\226\351\260J\231\320`\263\343\271=\337\214"
ARM GAS  /tmp/ccPPIFRN.s 			page 25


 322      3696E9B0 
 322      4A99D060 
 322      B3E3B93D 
 322      DF8C
 323 0534 DD617CCC 		.ascii	"\335a|\314\315,\177\021Z\253L\027#c\241Q\320N\211\203"
 323      CD2C7F11 
 323      5AAB4C17 
 323      2363A151 
 323      D04E8983 
 324 0548 022EF232 		.ascii	"\002.\3622\251*\340Z#\343z\310\026\327\337\337\346b"
 324      A92AE05A 
 324      23E37AC8 
 324      16D7DFDF 
 324      E662
 325 055a 055C3C9E 		.ascii	"\005\\<\236\202~/+\302#r\204Gm#\034\3771\373\010\356"
 325      827E2F2B 
 325      C2237284 
 325      476D231C 
 325      FF31FB08 
 326 056f 1DEC2674 		.ascii	"\035\354&t\201Y\361l\266\247\272\374\364{\024i\015\246"
 326      8159F16C 
 326      B6A7BAFC 
 326      F47B1469 
 326      0DA6
 327 0581 DD405A74 		.ascii	"\335@Zt\007j\314`\231\246\202\366\326`\313\004\371\230"
 327      076ACC60 
 327      99A682F6 
 327      D660CB04 
 327      F998
 328 0593 6FB67933 		.ascii	"o\266y3\031a\026\217;\026\373\244e\027x<m\252\366\343"
 328      1961168F 
 328      3B16FBA4 
 328      6517783C 
 328      6DAAF6E3 
 329 05a7 72CE7DB6 		.ascii	"r\316}\2669\017}3~\347\366\035\204\254%\247\363+\322"
 329      390F7D33 
 329      7EE7F61D 
 329      84AC25A7 
 329      F32BD2
 330 05ba ABB041EC 		.ascii	"\253\260A\354XM9\304n\224\203lr(\335X\347\204\322\035"
 330      584D39C4 
 330      6E94836C 
 330      7228DD58 
 330      E784D21D 
 331 05ce 2E2BC266 		.ascii	".+\302f9\302S\212\315J\012\237E\337\267\244{\262\351"
 331      39C2538A 
 331      CD4A0A9F 
 331      45DFB7A4 
 331      7BB2E9
 332 05e1 0CDD3C61 		.ascii	"\014\335<al\356%\343\305^B\012M\237/\024\016-GV\323"
 332      6CEE25E3 
 332      C55E420A 
 332      4D9F2F14 
 332      0E2D4756 
 333 05f6 70A6E29E 		.ascii	"p\246\342\236\323\357\320s\314-\271\250\005\303\277"
 333      D3EFD073 
 333      CC2DB9A8 
ARM GAS  /tmp/ccPPIFRN.s 			page 26


 333      05C3BF
 334 0605 E48F0B19 		.ascii	"\344\217\013\031\205\202~\2521\257P\027\242\027\351"
 334      85827EAA 
 334      31AF5017 
 334      A217E9
 335 0614 7F0C9EFE 		.ascii	"\177\014\236\376\360`\0327Y\2764\371\301\237\223\035"
 335      F0601A37 
 335      59BE34F9 
 335      C19F931D 
 336 0624 99864A1F 		.ascii	"\231\206J\037\212\335\311\251a\333\335\211\205\321\240"
 336      8ADDC9A9 
 336      61DBDD89 
 336      85D1A0
 337 0633 81B1AE14 		.ascii	"\201\261\256\024\241\222\226\206_\256\230\317\255\016"
 337      A1929686 
 337      5FAE98CF 
 337      AD0E
 338 0641 7CFA2C7C 		.ascii	"|\372,|n\225\3714}*H `y\265\320)\222\3367J\334\257\221"
 338      6E95F934 
 338      7D2A4820 
 338      6079B5D0 
 338      2992DE37 
 339 0659 3574A63A 		.ascii	"5t\246:\244,\375\003\311!\345\011\377fz\265\342\224"
 339      A42CFD03 
 339      C921E509 
 339      FF667AB5 
 339      E294
 340 066b 071C5236 		.ascii	"\007\034R6W\253\250UH\331\264\371\226@(hU\2559et\231"
 340      57ABA855 
 340      48D9B4F9 
 340      96402868 
 340      55AD3965 
 341 0681 BF2399F0 		.ascii	"\277#\231\360\207C\313\374\367\004\002~-\021\231\023"
 341      8743CBFC 
 341      F704027E 
 341      2D119913 
 342 0691 8D45F539 		.ascii	"\215E\3659\272\266,\344\237\333|\215?\024\015\204;\332"
 342      BAB62CE4 
 342      9FDB7C8D 
 342      3F140D84 
 342      3BDA
 343 06a3 757F32D5 		.ascii	"u\1772\325\336\256\337\335\034D\265\311\320\203\272"
 343      DEAEDFDD 
 343      1C44B5C9 
 343      D083BA
 344 06b2 9AAABDE9 		.ascii	"\232\252\275\351\226\245M\013\320%\314<\231\010\370"
 344      96A54D0B 
 344      D025CC3C 
 344      9908F8
 345 06c1 03C1D0B2 		.ascii	"\003\301\320\262P,\351\207\277D\252`\026\010F\364H "
 345      502CE987 
 345      BF44AA60 
 345      160846F4 
 345      4820
 346 06d3 96D0C1D2 		.ascii	"\226\320\301\322\007\303{\364\324\335\035\321\200\232"
 346      07C37BF4 
 346      D4DD1DD1 
ARM GAS  /tmp/ccPPIFRN.s 			page 27


 346      809A
 347 06e1 BAC8C190 		.ascii	"\272\310\301\220\337\001\315x,\026N6\007\320\245\345"
 347      DF01CD78 
 347      2C164E36 
 347      07D0A5E5 
 348 06f1 44E0CA41 		.ascii	"D\340\312AT\007\343X\242S\245\327j\312\313NA]k\327\023"
 348      5407E358 
 348      A253A5D7 
 348      6ACACB4E 
 348      415D6BD7 
 349 0706 AE78508D 		.ascii	"\256xP\215\352\017\244\\\2218;\327\3039\266\354^=\220"
 349      EA0FA45C 
 349      91383BD7 
 349      C339B6EC 
 349      5E3D90
 350 0719 5269425E 		.ascii	"RiB^\270\214'b\313C\240\332\020\010.\006\303[\331\323"
 350      B88C2762 
 350      CB43A0DA 
 350      10082E06 
 350      C35BD9D3 
 351 072d B66828A5 		.ascii	"\266h(\245D\342\325T\311mhL\345\0327\307\264\366\371"
 351      44E2D554 
 351      C96D684C 
 351      E51A37C7 
 351      B4F6F9
 352 0740 8984D689 		.ascii	"\211\204\326\211\3438\352\343\367\346\207\303\261@\233"
 352      E338EAE3 
 352      F7E687C3 
 352      B1409B
 353 074f D77421C6 		.ascii	"\327t!\3067&t\275\255\032B\306\247\024oT\007\202Z\302"
 353      372674BD 
 353      AD1A42C6 
 353      A7146F54 
 353      07825AC2 
 354 0763 ADAA8C13 		.ascii	"\255\252\214\023\265\316\0304_5w\336\225\347\262\304"
 354      B5CE1834 
 354      5F3577DE 
 354      95E7B2C4 
 355 0773 8D34A3FA 		.ascii	"\2154\243\372\375\264H\311\316\244_\205Z\204\242)H\327"
 355      FDB448C9 
 355      CEA45F85 
 355      5A84A229 
 355      48D7
 356 0785 DD01E72B 		.ascii	"\335\001\347+.WSs\354t#\0320\026\325\375*\024N\353\010"
 356      2E575373 
 356      EC74231A 
 356      3016D5FD 
 356      2A144EEB 
 357 079a A7D45467 		.ascii	"\247\324Tg\\\247,MQU\303\320#\200\266\267_8)\317\020"
 357      5CA72C4D 
 357      5155C3D0 
 357      2380B6B7 
 357      5F3829CF 
 358 07af 1B8CC162 		.ascii	"\033\214\301bIg\362\346X\340\276\026\007\213x,\221J"
 358      4967F2E6 
 358      58E0BE16 
 358      078B782C 
ARM GAS  /tmp/ccPPIFRN.s 			page 28


 358      914A
 359 07c1 FAE7DFB6 		.ascii	"\372\347\337\266h\301\242\007\340\021\255\276\272\374"
 359      68C1A207 
 359      E011ADBE 
 359      BAFC
 360 07cf EA       		.ascii	"\352"
 361 07d0 08B5A58F 		.ascii	"\010\265\245\217T\340\344\276\271v\266P\026\377\202"
 361      54E0E4BE 
 361      B976B650 
 361      16FF82
 362 07df 454BDA96 		.ascii	"EK\332\226\024\203R\333@\344F`\205VWU\223zJ\275~\376"
 362      148352DB 
 362      40E44660 
 362      85565755 
 362      937A4ABD 
 363 07f5 921B16DF 		.ascii	"\222\033\026\337\326V\247\205\357\327:\223j(\032\206"
 363      D656A785 
 363      EFD73A93 
 363      6A281A86 
 364 0805 2C6B966B 		.ascii	",k\226k\341\016\335\313\300-\215\322\020^\026\254\203"
 364      E10EDDCB 
 364      C02D8DD2 
 364      105E16AC 
 364      83
 365 0816 8D4DCC5E 		.ascii	"\215M\314^yY\213\345j\236\371\252e\336\177\264wO\331"
 365      79598BE5 
 365      6A9EF9AA 
 365      65DE7FB4 
 365      774FD9
 366              		.text
 367              		.section	.gnu.lto_.symtab.29b757ec55c1d034,"",%progbits
 368 0000 6368506F 		.ascii	"chPoolObjectInit\000\000\000\000\000\000\000\000\000"
 368      6F6C4F62 
 368      6A656374 
 368      496E6974 
 368      00000000 
 369 0019 000000AB 		.ascii	"\000\000\000\253\000\000\000chPoolLoadArray\000\000"
 369      00000063 
 369      68506F6F 
 369      6C4C6F61 
 369      64417272 
 370 0031 00000000 		.ascii	"\000\000\000\000\000\000\000\000\000\000\312\000\000"
 370      00000000 
 370      0000CA00 
 370      00
 371 003e 00636850 		.ascii	"\000chPoolAllocI\000\000\000\000\000\000\000\000\000"
 371      6F6F6C41 
 371      6C6C6F63 
 371      49000000 
 371      00000000 
 372 0054 000000D6 		.ascii	"\000\000\000\326\000\000\000chPoolAlloc\000\000\000"
 372      00000063 
 372      68506F6F 
 372      6C416C6C 
 372      6F630000 
 373 0069 00000000 		.ascii	"\000\000\000\000\000\000\000\000\000\334\000\000\000"
 373      00000000 
ARM GAS  /tmp/ccPPIFRN.s 			page 29


 373      00DC0000 
 373      00
 374 0076 6368506F 		.ascii	"chPoolFreeI\000\000\000\000\000\000\000\000\000\000"
 374      6F6C4672 
 374      65654900 
 374      00000000 
 374      00000000 
 375 008b 0000E000 		.ascii	"\000\000\340\000\000\000chPoolFree\000\000\000\000\000"
 375      00006368 
 375      506F6F6C 
 375      46726565 
 375      00000000 
 376 00a0 00000000 		.ascii	"\000\000\000\000\000\000\000\351\000\000\000"
 376      000000E9 
 376      000000
 377              		.text
 378              		.section	.gnu.lto_.opts,"",%progbits
 379 0000 272D6D63 		.ascii	"'-mcpu=cortex-m4' '-mno-thumb-interwork' '-mthumb' "
 379      70753D63 
 379      6F727465 
 379      782D6D34 
 379      2720272D 
 380 0033 272D6767 		.ascii	"'-ggdb' '-O2' '-fomit-frame-pointer' '-falign-funct"
 380      64622720 
 380      272D4F32 
 380      2720272D 
 380      666F6D69 
 381 0066 696F6E73 		.ascii	"ions=16' '-ffunction-sections' '-fdata-sections' '-"
 381      3D313627 
 381      20272D66 
 381      66756E63 
 381      74696F6E 
 382 0099 666E6F2D 		.ascii	"fno-common' '-flto'\000"
 382      636F6D6D 
 382      6F6E2720 
 382      272D666C 
 382      746F2700 
 383              		.text
 384              		.cfi_sections	.debug_frame
 385              		.section	.text.chPoolObjectInit,"ax",%progbits
 386              		.align	2
 387              		.p2align 4,,15
 388              		.global	chPoolObjectInit
 389              		.thumb
 390              		.thumb_func
 391              		.type	chPoolObjectInit, %function
 392              	chPoolObjectInit:
 393              	.LFB229:
 394              		.file 1 "/usr/src/chibios/os/rt/src/chmempools.c"
 395              		.loc 1 75 0
 396              		.cfi_startproc
 397              		@ args = 0, pretend = 0, frame = 0
 398              		@ frame_needed = 0, uses_anonymous_args = 0
 399              		@ link register save eliminated.
 400              	.LVL0:
 401              		.loc 1 79 0
 402 0000 0023     		movs	r3, #0
ARM GAS  /tmp/ccPPIFRN.s 			page 30


 403              		.loc 1 80 0
 404 0002 4160     		str	r1, [r0, #4]
 405              		.loc 1 81 0
 406 0004 8260     		str	r2, [r0, #8]
 407              		.loc 1 79 0
 408 0006 0360     		str	r3, [r0]
 409 0008 7047     		bx	lr
 410              		.cfi_endproc
 411              	.LFE229:
 412              		.size	chPoolObjectInit, .-chPoolObjectInit
 413 000a 00BF     		.section	.text.chPoolLoadArray,"ax",%progbits
 414              		.align	2
 415              		.p2align 4,,15
 416              		.global	chPoolLoadArray
 417              		.thumb
 418              		.thumb_func
 419              		.type	chPoolLoadArray, %function
 420              	chPoolLoadArray:
 421              	.LFB230:
 422              		.loc 1 97 0
 423              		.cfi_startproc
 424              		@ args = 0, pretend = 0, frame = 0
 425              		@ frame_needed = 0, uses_anonymous_args = 0
 426              		@ link register save eliminated.
 427              	.LVL1:
 428 0000 30B4     		push	{r4, r5}
 429              		.cfi_def_cfa_offset 8
 430              		.cfi_offset 4, -8
 431              		.cfi_offset 5, -4
 432              		.loc 1 101 0
 433 0002 62B1     		cbz	r2, .L2
 434              	.LBB77:
 435              	.LBB78:
 436              	.LBB79:
 437              	.LBB80:
 438              	.LBB81:
 439              	.LBB82:
 440              		.file 2 "/usr/src/chibios/os/ext/CMSIS/include/core_cmFunc.h"
 441              		.loc 2 546 0
 442 0004 2025     		movs	r5, #32
 443              	.LBE82:
 444              	.LBE81:
 445              	.LBE80:
 446              	.LBE79:
 447              	.LBB86:
 448              	.LBB87:
 449              	.LBB88:
 450              	.LBB89:
 451              	.LBB90:
 452 0006 0024     		movs	r4, #0
 453              	.LVL2:
 454              	.L5:
 455              	.LBE90:
 456              	.LBE89:
 457              	.LBE88:
 458              	.LBE87:
 459              	.LBE86:
ARM GAS  /tmp/ccPPIFRN.s 			page 31


 460              	.LBB95:
 461              	.LBB85:
 462              	.LBB84:
 463              	.LBB83:
 464              	@ 546 "/usr/src/chibios/os/ext/CMSIS/include/core_cmFunc.h" 1
 465 0008 85F31188 		MSR basepri, r5
 466              	@ 0 "" 2
 467              	.LVL3:
 468              		.thumb
 469              	.LBE83:
 470              	.LBE84:
 471              	.LBE85:
 472              	.LBE95:
 473              	.LBB96:
 474              	.LBB97:
 475              		.loc 1 177 0
 476 000c 0368     		ldr	r3, [r0]
 477 000e 0B60     		str	r3, [r1]
 478              		.loc 1 178 0
 479 0010 0160     		str	r1, [r0]
 480              	.LVL4:
 481              	.LBE97:
 482              	.LBE96:
 483              	.LBB98:
 484              	.LBB94:
 485              	.LBB93:
 486              	.LBB92:
 487              	.LBB91:
 488              		.loc 2 546 0
 489              	@ 546 "/usr/src/chibios/os/ext/CMSIS/include/core_cmFunc.h" 1
 490 0012 84F31188 		MSR basepri, r4
 491              	@ 0 "" 2
 492              		.thumb
 493              	.LBE91:
 494              	.LBE92:
 495              	.LBE93:
 496              	.LBE94:
 497              	.LBE98:
 498              	.LBE78:
 499              	.LBE77:
 500              		.loc 1 104 0
 501 0016 4368     		ldr	r3, [r0, #4]
 502              		.loc 1 101 0
 503 0018 013A     		subs	r2, r2, #1
 504              	.LVL5:
 505              		.loc 1 104 0
 506 001a 1944     		add	r1, r1, r3
 507              	.LVL6:
 508              		.loc 1 101 0
 509 001c F4D1     		bne	.L5
 510              	.LVL7:
 511              	.L2:
 512              		.loc 1 108 0
 513 001e 30BC     		pop	{r4, r5}
 514 0020 7047     		bx	lr
 515              		.cfi_endproc
 516              	.LFE230:
ARM GAS  /tmp/ccPPIFRN.s 			page 32


 517              		.size	chPoolLoadArray, .-chPoolLoadArray
 518 0022 00BF     		.section	.text.chPoolAllocI,"ax",%progbits
 519              		.align	2
 520              		.p2align 4,,15
 521              		.global	chPoolAllocI
 522              		.thumb
 523              		.thumb_func
 524              		.type	chPoolAllocI, %function
 525              	chPoolAllocI:
 526              	.LFB231:
 527              		.loc 1 120 0
 528              		.cfi_startproc
 529              		@ args = 0, pretend = 0, frame = 0
 530              		@ frame_needed = 0, uses_anonymous_args = 0
 531              	.LVL8:
 532 0000 08B5     		push	{r3, lr}
 533              		.cfi_def_cfa_offset 8
 534              		.cfi_offset 3, -8
 535              		.cfi_offset 14, -4
 536              		.loc 1 120 0
 537 0002 0346     		mov	r3, r0
 538              		.loc 1 126 0
 539 0004 0068     		ldr	r0, [r0]
 540              	.LVL9:
 541              		.loc 1 128 0
 542 0006 10B1     		cbz	r0, .L12
 543              		.loc 1 129 0
 544 0008 0268     		ldr	r2, [r0]
 545 000a 1A60     		str	r2, [r3]
 546 000c 08BD     		pop	{r3, pc}
 547              	.LVL10:
 548              	.L12:
 549              		.loc 1 131 0
 550 000e 9A68     		ldr	r2, [r3, #8]
 551 0010 0AB1     		cbz	r2, .L13
 552              		.loc 1 132 0
 553 0012 5868     		ldr	r0, [r3, #4]
 554              	.LVL11:
 555 0014 9047     		blx	r2
 556              	.LVL12:
 557              	.L13:
 558              		.loc 1 137 0
 559 0016 08BD     		pop	{r3, pc}
 560              		.cfi_endproc
 561              	.LFE231:
 562              		.size	chPoolAllocI, .-chPoolAllocI
 563              		.section	.text.chPoolAlloc,"ax",%progbits
 564              		.align	2
 565              		.p2align 4,,15
 566              		.global	chPoolAlloc
 567              		.thumb
 568              		.thumb_func
 569              		.type	chPoolAlloc, %function
 570              	chPoolAlloc:
 571              	.LFB232:
 572              		.loc 1 149 0
 573              		.cfi_startproc
ARM GAS  /tmp/ccPPIFRN.s 			page 33


 574              		@ args = 0, pretend = 0, frame = 0
 575              		@ frame_needed = 0, uses_anonymous_args = 0
 576              	.LVL13:
 577 0000 08B5     		push	{r3, lr}
 578              		.cfi_def_cfa_offset 8
 579              		.cfi_offset 3, -8
 580              		.cfi_offset 14, -4
 581              	.LBB99:
 582              	.LBB100:
 583              	.LBB101:
 584              	.LBB102:
 585              		.loc 2 546 0
 586 0002 2022     		movs	r2, #32
 587              	.LBE102:
 588              	.LBE101:
 589              	.LBE100:
 590              	.LBE99:
 591              		.loc 1 149 0
 592 0004 0346     		mov	r3, r0
 593              	.LBB106:
 594              	.LBB105:
 595              	.LBB104:
 596              	.LBB103:
 597              		.loc 2 546 0
 598              	@ 546 "/usr/src/chibios/os/ext/CMSIS/include/core_cmFunc.h" 1
 599 0006 82F31188 		MSR basepri, r2
 600              	@ 0 "" 2
 601              	.LVL14:
 602              		.thumb
 603              	.LBE103:
 604              	.LBE104:
 605              	.LBE105:
 606              	.LBE106:
 607              	.LBB107:
 608              	.LBB108:
 609              		.loc 1 126 0
 610 000a 0068     		ldr	r0, [r0]
 611              	.LVL15:
 612              		.loc 1 128 0
 613 000c 28B1     		cbz	r0, .L18
 614              		.loc 1 129 0
 615 000e 0268     		ldr	r2, [r0]
 616 0010 1A60     		str	r2, [r3]
 617              	.L19:
 618              	.LVL16:
 619              	.LBE108:
 620              	.LBE107:
 621              	.LBB110:
 622              	.LBB111:
 623              	.LBB112:
 624              	.LBB113:
 625              	.LBB114:
 626              		.loc 2 546 0
 627 0012 0023     		movs	r3, #0
 628              	.LVL17:
 629              	@ 546 "/usr/src/chibios/os/ext/CMSIS/include/core_cmFunc.h" 1
 630 0014 83F31188 		MSR basepri, r3
ARM GAS  /tmp/ccPPIFRN.s 			page 34


 631              	@ 0 "" 2
 632              		.thumb
 633              	.LBE114:
 634              	.LBE113:
 635              	.LBE112:
 636              	.LBE111:
 637              	.LBE110:
 638              		.loc 1 157 0
 639 0018 08BD     		pop	{r3, pc}
 640              	.LVL18:
 641              	.L18:
 642              	.LBB119:
 643              	.LBB109:
 644              		.loc 1 131 0
 645 001a 9A68     		ldr	r2, [r3, #8]
 646 001c 002A     		cmp	r2, #0
 647 001e F8D0     		beq	.L19
 648              		.loc 1 132 0
 649 0020 5868     		ldr	r0, [r3, #4]
 650              	.LVL19:
 651 0022 9047     		blx	r2
 652              	.LVL20:
 653              	.LBE109:
 654              	.LBE119:
 655              	.LBB120:
 656              	.LBB118:
 657              	.LBB117:
 658              	.LBB116:
 659              	.LBB115:
 660              		.loc 2 546 0
 661 0024 0023     		movs	r3, #0
 662              	@ 546 "/usr/src/chibios/os/ext/CMSIS/include/core_cmFunc.h" 1
 663 0026 83F31188 		MSR basepri, r3
 664              	@ 0 "" 2
 665              		.thumb
 666              	.LBE115:
 667              	.LBE116:
 668              	.LBE117:
 669              	.LBE118:
 670              	.LBE120:
 671              		.loc 1 157 0
 672 002a 08BD     		pop	{r3, pc}
 673              		.cfi_endproc
 674              	.LFE232:
 675              		.size	chPoolAlloc, .-chPoolAlloc
 676              		.section	.text.chPoolFreeI,"ax",%progbits
 677              		.align	2
 678              		.p2align 4,,15
 679              		.global	chPoolFreeI
 680              		.thumb
 681              		.thumb_func
 682              		.type	chPoolFreeI, %function
 683              	chPoolFreeI:
 684              	.LFB233:
 685              		.loc 1 171 0
 686              		.cfi_startproc
 687              		@ args = 0, pretend = 0, frame = 0
ARM GAS  /tmp/ccPPIFRN.s 			page 35


 688              		@ frame_needed = 0, uses_anonymous_args = 0
 689              		@ link register save eliminated.
 690              	.LVL21:
 691              		.loc 1 177 0
 692 0000 0368     		ldr	r3, [r0]
 693 0002 0B60     		str	r3, [r1]
 694              		.loc 1 178 0
 695 0004 0160     		str	r1, [r0]
 696 0006 7047     		bx	lr
 697              		.cfi_endproc
 698              	.LFE233:
 699              		.size	chPoolFreeI, .-chPoolFreeI
 700              		.section	.text.chPoolFree,"ax",%progbits
 701              		.align	2
 702              		.p2align 4,,15
 703              		.global	chPoolFree
 704              		.thumb
 705              		.thumb_func
 706              		.type	chPoolFree, %function
 707              	chPoolFree:
 708              	.LFB234:
 709              		.loc 1 193 0
 710              		.cfi_startproc
 711              		@ args = 0, pretend = 0, frame = 0
 712              		@ frame_needed = 0, uses_anonymous_args = 0
 713              		@ link register save eliminated.
 714              	.LVL22:
 715              	.LBB121:
 716              	.LBB122:
 717              	.LBB123:
 718              	.LBB124:
 719              		.loc 2 546 0
 720 0000 2023     		movs	r3, #32
 721              	@ 546 "/usr/src/chibios/os/ext/CMSIS/include/core_cmFunc.h" 1
 722 0002 83F31188 		MSR basepri, r3
 723              	@ 0 "" 2
 724              	.LVL23:
 725              		.thumb
 726              	.LBE124:
 727              	.LBE123:
 728              	.LBE122:
 729              	.LBE121:
 730              	.LBB125:
 731              	.LBB126:
 732              		.loc 1 177 0
 733 0006 0368     		ldr	r3, [r0]
 734 0008 0B60     		str	r3, [r1]
 735              	.LBE126:
 736              	.LBE125:
 737              	.LBB128:
 738              	.LBB129:
 739              	.LBB130:
 740              	.LBB131:
 741              	.LBB132:
 742              		.loc 2 546 0
 743 000a 0023     		movs	r3, #0
 744              	.LBE132:
ARM GAS  /tmp/ccPPIFRN.s 			page 36


 745              	.LBE131:
 746              	.LBE130:
 747              	.LBE129:
 748              	.LBE128:
 749              	.LBB137:
 750              	.LBB127:
 751              		.loc 1 178 0
 752 000c 0160     		str	r1, [r0]
 753              	.LVL24:
 754              	.LBE127:
 755              	.LBE137:
 756              	.LBB138:
 757              	.LBB136:
 758              	.LBB135:
 759              	.LBB134:
 760              	.LBB133:
 761              		.loc 2 546 0
 762              	@ 546 "/usr/src/chibios/os/ext/CMSIS/include/core_cmFunc.h" 1
 763 000e 83F31188 		MSR basepri, r3
 764              	@ 0 "" 2
 765              		.thumb
 766 0012 7047     		bx	lr
 767              	.LBE133:
 768              	.LBE134:
 769              	.LBE135:
 770              	.LBE136:
 771              	.LBE138:
 772              		.cfi_endproc
 773              	.LFE234:
 774              		.size	chPoolFree, .-chPoolFree
 775              		.text
 776              	.Letext0:
 777              		.file 3 "/usr/lib/gcc/arm-none-eabi/4.8/include/stddef.h"
 778              		.file 4 "/usr/include/newlib/machine/_default_types.h"
 779              		.file 5 "/usr/include/newlib/sys/_stdint.h"
 780              		.file 6 "/usr/src/chibios/os/rt/ports/ARMCMx/compilers/GCC/chtypes.h"
 781              		.file 7 "/usr/src/chibios/os/rt/include/chsystypes.h"
 782              		.file 8 "/usr/src/chibios/os/rt/include/chschd.h"
 783              		.file 9 "/usr/src/chibios/os/rt/ports/ARMCMx/chcore.h"
 784              		.file 10 "/usr/src/chibios/os/rt/ports/ARMCMx/chcore_v7m.h"
 785              		.file 11 "/usr/src/chibios/os/rt/include/chtm.h"
 786              		.file 12 "/usr/src/chibios/os/rt/include/chsem.h"
 787              		.file 13 "/usr/src/chibios/os/rt/include/chmtx.h"
 788              		.file 14 "/usr/src/chibios/os/rt/include/chmemcore.h"
 789              		.file 15 "/usr/src/chibios/os/rt/include/chmempools.h"
 790              		.file 16 "/usr/src/chibios/os/rt/include/chsys.h"
 791              		.file 17 "/usr/src/chibios/os/ext/CMSIS/include/core_cm4.h"