ARM GAS  /tmp/ccYyUiVf.s 			page 1


   1              		.syntax unified
   2              		.cpu cortex-m4
   3              		.fpu softvfp
   4              		.eabi_attribute 20, 1
   5              		.eabi_attribute 21, 1
   6              		.eabi_attribute 23, 3
   7              		.eabi_attribute 24, 1
   8              		.eabi_attribute 25, 1
   9              		.eabi_attribute 26, 1
  10              		.eabi_attribute 30, 2
  11              		.eabi_attribute 34, 1
  12              		.eabi_attribute 18, 4
  13              		.thumb
  14              		.file	"chmsg.c"
  15              		.text
  16              	.Ltext0:
  17              		.section	.gnu.lto_.jmpfuncs.4ba432de7a33ecbb,"",%progbits
  18 0000 789C6362 		.ascii	"x\234cb`b\300\0064\24143\0033#S\004c&#\003\017\003\003"
  18      6062C006 
  18      34A13433 
  18      03332353 
  18      04632623 
  19 0018 23035035 		.ascii	"#\003P5\224\313\007\224cf\002)``,\003*\004\0009\234"
  19      94CB0794 
  19      63660229 
  19      60602C03 
  19      2A040039 
  20 002d 025F     		.ascii	"\002_"
  21              		.text
  22              		.section	.gnu.lto_.inline.4ba432de7a33ecbb,"",%progbits
  23 0000 789C6362 		.ascii	"x\234cb`b\300\006\342\24043\003\203\250,##\003#\220"
  23      6062C006 
  23      E2A03433 
  23      0383A82C 
  23      23230323 
  24 0015 CD24B9E2 		.ascii	"\315$\271\3420#\003\347\0153\260\026&n\006\240(\230"
  24      302303E7 
  24      0D33B016 
  24      266E06A0 
  24      2898
  25 0027 9CE0C7C4 		.ascii	"\234\340\307\304 \310\017\344H\034\330\315\310\300\266"
  25      20C80FE4 
  25      481CD8CD 
  25      C8C0B6
  26 0036 401E4901 		.ascii	"@\036I\0013\003\207\000P\206e\201<\\\202\231\007(9\301"
  26      33038700 
  26      50866581 
  26      3C5C8299 
  26      072839C1 
  27 004a 6F821F03 		.ascii	"o\202\037\003\000\332\004\0128"
  27      00DA040A 
  27      38
  28              		.text
  29              		.section	.gnu.lto_.pureconst.4ba432de7a33ecbb,"",%progbits
  30 0000 789C6362 		.ascii	"x\234cb`b`g\200\000f\006+&+f+\000\002\361\000\302"
  30      60626067 
  30      80006606 
ARM GAS  /tmp/ccYyUiVf.s 			page 2


  30      2B262B66 
  30      2B0002F1 
  31              		.text
  32              		.section	.gnu.lto_chMsgSend.4ba432de7a33ecbb,"",%progbits
  33 0000 789C8D54 		.ascii	"x\234\215T]h\023Y\024>g\356\2443&\215\215? \212\326"
  33      5D681359 
  33      143E67EE 
  33      A433268D 
  33      8D3F208A 
  34 0015 A0F8C356 		.ascii	"\240\370\303V\033\025AE\020E\020|\350\213UT\020\226"
  34      1B154145 
  34      1045107C 
  34      E88B5554 
  34      1096
  35 0027 E935B403 		.ascii	"\3515\264\003\306\306$\025\177\036\234\324\012\012V"
  35      C6C62415 
  35      7F1E9CD4 
  35      0A0A56
  36 0036 4410AA22 		.ascii	"D\020\252\"(\276\350.X\020DA\245\001\245l,Z\177^\244"
  36      28BEE82E 
  36      58104441 
  36      A501A56C 
  36      2C5A7F5E 
  37 004b 5B34ECC3 		.ascii	"[4\354\303\256\253\240U_\264\012\361\334{g&Ml\215\223"
  37      AEABA055 
  37      5FB40AF1 
  37      DC7B6726 
  37      4D6C8D93 
  38 005f CCDC3367 		.ascii	"\314\3343g\356\371\316w\317\271\367\323@\203\312k\005"
  38      EEF9CE77 
  38      CFB9F7D3 
  38      4083CA6B 
  38      05
  39 0070 DDCF6B00 		.ascii	"\335\317k\000\202\010\200\001@\355\364c\200\254\251"
  39      82088001 
  39      40EDF463 
  39      80ACA9
  40 007f 69ACBF0E 		.ascii	"i\254\277\016\234\240\376p\0358\265\014u\345\326\021"
  40      9CA0FE70 
  40      1D38B50C 
  40      75E5D611 
  41 008f 85010847 		.ascii	"\205\001\010G4\246\343\221\235(0p\036\\v\2343\205c\357"
  41      34A6E391 
  41      9D283070 
  41      1E5C769C 
  41      338563EF 
  42 00a3 5EE33927 		.ascii	"^\3439'\327u\311\371V,\"\332H\371\026\"p\204\035\364"
  42      D775C9F9 
  42      562C22DA 
  42      48F91622 
  42      70841DF4 
  43 00b7 82513968 		.ascii	"\202Q9hz9\201^-W(\026\277\335|\375\317\013\2342\203"
  43      7A39815E 
  43      2D572816 
  43      BFDD7CFD 
  43      CF0B9C32 
  44 00cc 81859709 		.ascii	"\201\205\227\011/\200\011\004\203\036h\202\215,D\017"
ARM GAS  /tmp/ccYyUiVf.s 			page 3


  44      2F800904 
  44      831E6882 
  44      8D2C440F 
  45 00dc 7D32902F 		.ascii	"}2\220/B\226\010\013@\227\343\234\216\252\331\011\244"
  45      4296080B 
  45      4097E39C 
  45      8EAAD909 
  45      A4
  46 00ed 8571E9DF 		.ascii	"\205q\351\337JOAq\033\271hd\217\240s\250\207xYx\205"
  46      4A4F4171 
  46      1BB96864 
  46      8FA073A8 
  46      87785978 
  47 0102 96D78AAC 		.ascii	"\226\327\212\254\001\376p\350\332N0\015\360\233\215"
  47      01FE70E8 
  47      DA4E300D 
  47      F09B8D
  48 0111 810B703E 		.ascii	"\201\013p>\3538\021\033k\016\303\250s\\XF\002\031a\011"
  48      EB38111B 
  48      6B0EC3A8 
  48      735C5846 
  48      02196109 
  49 0125 BA8624D9 		.ascii	"\272\206$\331\202\340\216\256\001y\350\314\315Q\240"
  49      82E08EAE 
  49      0179E8CC 
  49      CD51A0
  50 0134 8A43AB08 		.ascii	"\212C\253\010!\257\011\340\226\343\346\207[K\312\312"
  50      21AF09E0 
  50      96E3E687 
  50      5B4BCACA 
  51 0144 616AB0AB 		.ascii	"aj\260\253Z9\204\317\214\222\361\030:?<\274\177\343"
  51      5A3984CF 
  51      8C92F118 
  51      3A3F3CBC 
  51      7FE3
  52 0156 247357EA 		.ascii	"$sW\352-9\367v\364}D\263\360*\345\364}}g\357\206f\373"
  52      2D39F776 
  52      F47D44B3 
  52      F02AE5F4 
  52      7D7D67EF 
  53 016d 6F275E12 		.ascii	"o'^\022K\305\215\243H\250\321\315d\247\350\327G&\225"
  53      4BC58DA3 
  53      48A8D1CD 
  53      64A7E8D7 
  53      472695
  54 0180 8BA9CD50 		.ascii	"\213\251\315P\017O\360\242\323\263\336\306Ie\351K\337"
  54      0F4FF0A2 
  54      D3B3DEC6 
  54      4965E94B 
  54      DF
  55 0191 9FBBDF83 		.ascii	"\237\273\337\203\212 \025t\340\366\373\021\267\240n"
  55      8A201574 
  55      E0F6FB11 
  55      B7A06E
  56 01a0 35C33686 		.ascii	"5\3036\206\250\216\024\\Ku\020 ^\275\324\216k\245\251"
  56      A88E145C 
  56      4B751020 
ARM GAS  /tmp/ccYyUiVf.s 			page 4


  56      5EBDD48E 
  56      6BA5A9
  57 01b3 2272F4E8 		.ascii	"\"r\364\350\327\356\245^+\314\303p\310\366\033\262\317"
  57      D7EEA55E 
  57      2BCCC370 
  57      C8F61BB2 
  57      CF
  58 01c4 C6B00F61 		.ascii	"\306\260\017a\214\205`\245\352\020D~$X\226z\225\215"
  58      8C8560A5 
  58      EA10447E 
  58      2458967A 
  58      958D
  59 01d6 934B2CEA 		.ascii	"\223K,\352\306g\241\273c\300ec\312V\025\372\270\202"
  59      C667A1BB 
  59      63C06563 
  59      CA5615FA 
  59      B882
  60 01e8 520DCBBD 		.ascii	"R\015\313\275\352\037@\347\214\223\035)\026\353\344"
  60      EA1F40E7 
  60      8C931D29 
  60      16EBE4
  61 01f7 E6FD1BAB 		.ascii	"\346\375\033\253\265\313\353\372\317\241\230\006/\177"
  61      B5CBEBFA 
  61      CFA19806 
  61      2F7F
  62 0205 01CA54D5 		.ascii	"\001\312T\325\035\376\230\377\363\276Q\331\366\201W"
  62      1DFE98FF 
  62      F3BE51D9 
  62      F68157
  63 0214 CB2DBC47 		.ascii	"\313-\274GM\267\360\216l\275\327`\011\243*P8;8<+@\324"
  63      4DB7F08E 
  63      6CBDD760 
  63      09A32A50 
  63      383B383C 
  64 022b FD3D5D59 		.ascii	"\375=]Y\210\032\021\227\023u\360\322\015\275\270\336"
  64      881A1197 
  64      1375F0D2 
  64      0DBDB8DE 
  65 023b DD60619F 		.ascii	"\335`a\237lID\036\211Rx\330m\005[\254\302\015?\\\365"
  65      6C49441E 
  65      895278D8 
  65      6D055BAC 
  65      C20D3F5C 
  66 0250 E289A122 		.ascii	"\342\211\241\"\335\006\204~\226\332\034\223:\242V\372"
  66      DD06847E 
  66      96DA1C93 
  66      3AA256FA 
  67 0260 F97A7763 		.ascii	"\371zwc\031\300\332\012\200\310D\334\231\002\350\351"
  67      19C0DA0A 
  67      80C844DC 
  67      9902E8E9 
  68 0270 ED9E5B06 		.ascii	"\355\236[\006\020\3765\366\036\300\320\360\245S3\275"
  68      10FE35F6 
  68      1EC0D0F0 
  68      A55333BD 
  69 0280 FD18928B 		.ascii	"\375\030\222\213\217\214\277\011'\271]\372\013\036\374"
  69      8F8CBF09 
ARM GAS  /tmp/ccYyUiVf.s 			page 5


  69      27B95DFA 
  69      0B1EFC
  70 028f 970DFB21 		.ascii	"\227\015\373!b\012\011S\351\332F\310\375ul\020\272\012"
  70      620A0953 
  70      E9DA46C8 
  70      FD756C10 
  70      BA0A
  71 02a1 F92BEE21 		.ascii	"\371+\356!\001\360\225e\012\367\367\240a\343T/F\227"
  71      01F09565 
  71      0AF7F7A0 
  71      61E3542F 
  71      4697
  72 02b3 5A258206 		.ascii	"Z%\202\006\216\006\177\010\232\306\305\332\335\323\251"
  72      8E067F08 
  72      9AC6C5DA 
  72      DDD3A9
  73 02c2 D792024E 		.ascii	"\327\222\002NW\354{>\255\366\230xg\240\331\026\353\220"
  73      57EC7B3E 
  73      ADF69878 
  73      67A0D916 
  73      EB90
  74 02d4 E69AAAC7 		.ascii	"\346\232\252\307\301=\322R\314\014\205D\022K`\225J\366"
  74      C13DD252 
  74      CC0C8544 
  74      124B6095 
  74      4AF6
  75 02e6 FFDD0A25 		.ascii	"\377\335\012%\263\360\232T\225\252R&\214\211\245\354"
  75      B3F09A54 
  75      95AA5226 
  75      8C89A5EC 
  76 02f6 CD172165 		.ascii	"\315\027!e\317\312\245\354m\250\336\327w\337\235\377"
  76      CFCAA5EC 
  76      6DA8DED7 
  76      77DF9DFF 
  77 0306 778CA649 		.ascii	"w\214\246IQ\346\004\376\243\254Y\330K\206\237\332\223"
  77      51E604FE 
  77      A3AC59D8 
  77      4B869FDA 
  77      93
  78 0317 310B6F60 		.ascii	"1\013o`\275\242\365\024\262\205A\356\327M9\267\322\361"
  78      BDA2F514 
  78      B28541EE 
  78      D74D39B7 
  78      D2F1
  79 0329 A41688B9 		.ascii	"\244\026\210\271\363c\035\351T,\235\3421\336f\267\330"
  79      F3631DE9 
  79      542C9DE2 
  79      31DE66B7 
  79      D8
  80 033a EDE918FD 		.ascii	"\355\351\030\375S\031\327\223H\2676r`<\223\\>\301\274"
  80      5319D793 
  80      48B73672 
  80      603C935C 
  80      3EC1BC
  81 034d 647B2A93 		.ascii	"d{*\223\216m\330\322\264\261\351\000}\342\355\251\370"
  81      8E6DD8D2 
  81      B4B1E900 
ARM GAS  /tmp/ccYyUiVf.s 			page 6


  81      7DE2EDA9 
  81      F8
  82 035e EFFB5725 		.ascii	"\357\373W%\032\333 \260\337\332\323\021_9^\\\374@&\266"
  82      1ADB20B0 
  82      DFDAD311 
  82      5F395E5C 
  82      FC4026B6 
  83 0372 B1A97973 		.ascii	"\261\251yss\314\336\313\367t\354\216\307d\034Ol\352"
  83      73CCDECB 
  83      F774EC8E 
  83      C7641C4F 
  83      6CEA
  84 0384 D8CB2974 		.ascii	"\330\313)t\321\004\311\374\331m\351\203i\232\027ij\336"
  84      D104C9FC 
  84      D96DE983 
  84      699A1769 
  84      6ADE
  85 0396 126DB1D2 		.ascii	"\022m\261\322\361d\312^\022]\260\014\264\024\030\211"
  85      F164CA5E 
  85      125DB00C 
  85      B4141889 
  86 03a6 78A23D75 		.ascii	"x\242=u\020\264L\222e\366%\027W\207\342m\273\011\353"
  86      10B44C92 
  86      65F62517 
  86      5787E26D 
  86      BB09EB
  87 03b9 3BA7D4ED 		.ascii	";\247\324\355\361"
  87      F1
  88              		.text
  89              		.section	.gnu.lto_chMsgWait.4ba432de7a33ecbb,"",%progbits
  90 0000 789C9D55 		.ascii	"x\234\235U]h\024W\024>\347\316\354N\222\335M\203}\251"
  90      5D681457 
  90      143EE7CE 
  90      EC4E92DD 
  90      4D837DA9 
  91 0014 C586A5A2 		.ascii	"\305\206\245\242\025c3\226\026J\037\012\212P\350C^\214"
  91      15633396 
  91      164A1F0A 
  91      8A50E843 
  91      5E8C
  92 0026 C18A0F65 		.ascii	"\301\212\017e2.\331\001\327\304\335M\320\012\365fMA"
  92      322ED901 
  92      D7C4DD4D 
  92      D00AF566 
  92      4D41
  93 0038 30812814 		.ascii	"0\201(\024REP\323\274T\261\020[Z\252\324\245\0065H#"
  93      524550D3 
  93      BC54B110 
  93      5B5AAAD4 
  93      A5063548 
  94 004d 550A567C 		.ascii	"U\012V|X\241\230V\305\272m\0031\324l\317\375\231\331"
  94      58A19856 
  94      C5BA6D03 
  94      31D46CCF 
  94      FD99D9
  95 0060 1F8C09DE 		.ascii	"\037\214\011\336\335\2359s\347\236\357\234\363\335\357"
  95      DD9D3973 
ARM GAS  /tmp/ccYyUiVf.s 			page 7


  95      E79EEF9C 
  95      F3DDEF
  96 006f 9E65C0A0 		.ascii	"\236e\300\240v\274M\277\177\303\000\255\010\200!@6<"
  96      76BC4DBF 
  96      7FC300AD 
  96      08802140 
  96      363C
  97 0081 05D05FC7 		.ascii	"\005\320_\307\2301c\001o0\217]\006\340Q\003M5o\"\012"
  97      98316301 
  97      6F308F5D 
  97      06E05103 
  97      4D356F22 
  98 0096 0310F633 		.ascii	"\003\020\3663\303\304\375\333P\200\340\353p\222\363"
  98      C3C4FDDB 
  98      5080E0EB 
  98      7092F3
  99 00a5 2385B1F9 		.ascii	"#\205\261\371?\360\013\236\0378\301\377+\225\020=\244"
  99      3FF00B9E 
  99      1F38C1FF 
  99      2B95103D 
  99      A4
 100 00b6 80AB115C 		.ascii	"\200\253\021\\\204\217\350\001\343\362\306\314\352\014"
 100      848FE801 
 100      E3F2C6CC 
 100      EA0C
 101 00c4 BE66F942 		.ascii	"\276f\371B\2514x\361\341\335A\\\366\262\011\344\025"
 101      A93478F1 
 101      E1DD415C 
 101      F6B209E4 
 101      15
 102 00d5 16178B2E 		.ascii	"\026\027\213.FDXQa\305\300\301\223\024\250Q\314\320"
 102      46445851 
 102      61C5C0C1 
 102      9314A851 
 102      CCD0
 103 00e7 08C100E7 		.ascii	"\010\301\000\347\303q5\011\"\006\215-t\025\371u \023"
 103      C3713509 
 103      22068D2D 
 103      7415F975 
 103      2013
 104 00f9 77631272 		.ascii	"wc\022ru\000:\273s\305\357\326Ueg2\330\276Xvb\316\214"
 104      75003ABB 
 104      73C5EFD6 
 104      55656732 
 104      D8BE5876 
 105 0110 933105B9 		.ascii	"\2231\005\271\342\344\245\361AC\007\3663\310O\317\375"
 105      E2E4A5F1 
 105      414307F6 
 105      33C84FCF 
 105      FD
 106 0121 D5C41CFC 		.ascii	"\325\304\034\374R\246\241\347\316\177~!\262\"x\232|"
 106      52A6A1E7 
 106      CE7F7E21 
 106      B222789A 
 106      7C
 107 0132 4A693938 		.ascii	"Ji98J\374\272(\0022\372\031\2228\372\374H&\355\213\241"
 107      4AFCBA28 
ARM GAS  /tmp/ccYyUiVf.s 			page 8


 107      0232FA19 
 107      9238FAFC 
 107      4826ED8B 
 108 0147 36A719AE 		.ascii	"6\247\031\256\343q>\262\301\243\305\225\341\313\357"
 108      E3713EB2 
 108      C1A3C595 
 108      E1CBEF
 109 0156 6FE8F761 		.ascii	"o\350\367a\225\340\317\220\273=R\232e\012\277\013\315"
 109      95E0CF90 
 109      BB3D529A 
 109      650ABF0B 
 109      CD
 110 0167 16584B0C 		.ascii	"\026XK\014\265\300W\234\306n\017\255cp\264\237\363&"
 110      B5C0579C 
 110      C66E0FAD 
 110      6370B49F 
 110      F326
 111 0179 0FEBF6C1 		.ascii	"\017\353\366\301\034?(\254\372\024\372\350\365\022\245"
 111      1C3F28AC 
 111      FA14FAE8 
 111      F512A5
 112 0188 1341DFB5 		.ascii	"\023A\337\265\001D]\336V\240\212\277|\361\312\320r~"
 112      01445DDE 
 112      56A08ABF 
 112      7CF1CAD0 
 112      727E
 113 019a 2237CCE7 		.ascii	"\"7\314\347\211>\012\341\340)Y\311\363\350\243|T\212"
 113      893E0AE1 
 113      E02959C9 
 113      F3E8A37C 
 113      548A
 114 01ac 771EFD76 		.ascii	"w\036\375v\364\323Z\352\016\315\027C\016\236\223\314"
 114      F4D35AEA 
 114      0ECD1743 
 114      0E9E93CC 
 115 01bc F9FC98CA 		.ascii	"\371\374\230\312-\242\012(\314L\375ZD\243\\\320V\017"
 115      2DA20A28 
 115      CC4CFD5A 
 115      44A35CD0 
 115      560F
 116 01ce 1B828222 		.ascii	"\033\202\202\"\004/\242\372\2713\001\363\255`\256S\360"
 116      042FA2FA 
 116      B93301F3 
 116      AD60AE53 
 116      F0
 117 01df AB6D99C0 		.ascii	"\253m\231\300\334\201\037\014\007\277\221\024E\367\301"
 117      DC811F0C 
 117      07BF9114 
 117      45F7C1
 118 01ee 27A4288D 		.ascii	"'\244(\215\370\017.\0152@\273\012\023\323w?+\255\367"
 118      F80F2E0D 
 118      3240BB0A 
 118      13D3773F 
 118      2BADF7
 119 0201 19279768 		.ascii	"\031'\227h\271\342\016\212<c\031\327a\240\360\364R\203"
 119      B9E20E8A 
 119      3C6319D7 
ARM GAS  /tmp/ccYyUiVf.s 			page 9


 119      61A0F0F4 
 119      5283
 120 0213 5A031030 		.ascii	"Z\003\0200\037u\025\210d+&\304\334\350\373\231R\262"
 120      1F751588 
 120      642B26C4 
 120      DCE8FB99 
 120      52B2
 121 0225 82ACD9D2 		.ascii	"\202\254\331\322-\303G\017\373\373\271\366\205\267R"
 121      2DC3470F 
 121      FBFBB9F6 
 121      85B752
 122 0234 967F0F7D 		.ascii	"\226\177\017}D\253\252\374\303\272|\224\265\207kj\367"
 122      44ABAAFC 
 122      C3BA7C94 
 122      B5876B6A 
 122      F7
 123 0245 8750C37B 		.ascii	"\207P\303{\317S\203\301 \307\026;L\024[\253a\364\247"
 123      CF5383C1 
 123      20C7163B 
 123      4C145BAB 
 123      61F4A7
 124 0258 33A39696 		.ascii	"3\243\226\226\203\002\344\343\234\327\313\243i,Q[\201"
 124      8302E4E3 
 124      9CD7CBA3 
 124      692C515B 
 124      81
 125 0269 8CAE951C 		.ascii	"\214\256\225\034\007'\252T\024V\341bZE\307\217\374\376"
 125      0727AA54 
 125      1456E162 
 125      5A45C78F 
 125      FCFE
 126 027b EA9B041B 		.ascii	"\352\233\004\033\360\327\240K5\326\250R\245Z\256\252"
 126      F0D7A04B 
 126      35D6A852 
 126      A55AAEAA 
 127 028b AD11B5BE 		.ascii	"\255\021\265\276\346\340ezr\360\012\301\022\216J\373"
 127      E6E0657A 
 127      72F00AC1 
 127      128E4AFB 
 128 029b D6F8508B 		.ascii	"\326\370P\213z\321\205\215j_*\205\023\253$\317\254@"
 128      7AD1858D 
 128      6A5F2A85 
 128      13AB24CF 
 128      AC40
 129 02ad 24DFC9C7 		.ascii	"$\337\311\307\226\362\324\264\307\226\226M\227\220\007"
 129      96F2D4B4 
 129      C796964D 
 129      979007
 130 02bc B95F9B1D 		.ascii	"\271_\233\035\037\262\253\000\336\257\011\336X\031<"
 130      1FB2AB00 
 130      DEAF09DE 
 130      58193C
 131 02cb 540160C9 		.ascii	"T\001`\311\212\036\377}\361\025E\216\3371%\356\367#"
 131      8A1EFF7D 
 131      F115458E 
 131      DF3125EE 
 131      F723
ARM GAS  /tmp/ccYyUiVf.s 			page 10


 132 02dd A79E6861 		.ascii	"\247\236hah\334\210\207/\005r\250\252(\\\326mL\321T"
 132      68DC8887 
 132      2F0572A8 
 132      AA285CD6 
 132      6D4CD154 
 133 02f1 D15BFFBC 		.ascii	"\321[\377\274P\323[\035\034[t\007ew\023\306\302\315"
 133      50D35B1D 
 133      1C5B7407 
 133      657713C6 
 133      C2CD
 134 0303 F5FE13D1 		.ascii	"\365\376\023\321\\oV7\327\007\221\346\340\017\240\334"
 134      5C6F5637 
 134      D70791E6 
 134      E00FA0DC 
 135 0313 65275879 		.ascii	"e'Xy\377-\201\352b\3353\032\255\203\247\311\010B\373"
 135      FF2D81EA 
 135      62DD331A 
 135      AD83A7C9 
 135      0842FB
 136 0326 8DD5C1B3 		.ascii	"\215\325\301\263\330\254\322\372\005\372\013\207\022"
 136      D8ACD2FA 
 136      05FA0B87 
 136      12
 137 0333 FE7189A9 		.ascii	"\376q\211\251\311-t\234\350|\212\265+\355\336L\332\316"
 137      C92D749C 
 137      E87C8AB5 
 137      2BEDDE4C 
 137      DACE
 138 0345 A45DDB4D 		.ascii	"\244]\333Mz\235^w\306\246o:\253gR\231\256V\027X\266"
 138      7A9D5E77 
 138      C6A66F3A 
 138      AB675299 
 138      AE561758 
 139 035a E7AD0596 		.ascii	"\347\255\005\226\365t\247\263\031{\343\346\266Mm{\350"
 139      F574A7B3 
 139      197BE3E6 
 139      B64D6D7B 
 139      E8
 140 036b 95DB9D4E 		.ascii	"\225\333\235N|\334\367n\2525\011\241>ggo\342\235g\371"
 140      7CDCF76E 
 140      AA3509A1 
 140      3E67676F 
 140      E29D67F9 
 141 037f 25F664ED 		.ascii	"%\366d\355Mm\355\037\266\333\336.wg\357\216\204-\375"
 141      4D6DED1F 
 141      B6DBDE2E 
 141      7767EF8E 
 141      842DFD
 142 0392 DCD407BD 		.ascii	"\334\324\007\275\273\\r}c\201`\301\352dfo\206\3265\265"
 142      BB5C727D 
 142      638160C1 
 142      EA64666F 
 142      86D635B5 
 143 03a6 B56F8E77 		.ascii	"\265o\216w:\231DO\332[\027_\265\036X\032\254T\"\325"
 143      3A99444F 
 143      DA5B175F 
 143      B51E581A 
ARM GAS  /tmp/ccYyUiVf.s 			page 11


 143      AC5422D5 
 144 03ba 9DDEBB04 		.ascii	"\235\336\273\004\014Q[\022\214\354\356\2365\213\307"
 144      0C515B12 
 144      8CECEE9E 
 144      358BC7
 145 03c9 73933B68 		.ascii	"s\223;h\361\377\236\022\014i"
 145      F1FF9E12 
 145      0C69
 146              		.text
 147              		.section	.gnu.lto_chMsgRelease.4ba432de7a33ecbb,"",%progbits
 148 0000 789C8D52 		.ascii	"x\234\215RMh\023A\024~o\246\333D{0WA\302R)^JWA\360\252"
 148      4D681341 
 148      147E6FA6 
 148      DB447B30 
 148      5741C252 
 149 001b 14040FB9 		.ascii	"\024\004\017\2714\025\352I\266\353\322,t\233\260\233"
 149      3415EA49 
 149      B6EBD22C 
 149      749BB09B 
 150 002b 94160F9D 		.ascii	"\224\026\017\235\204\012Z=\204\202\240\207\200\325\223"
 150      840A5A3D 
 150      8482A087 
 150      80D593
 151 003a A20904C1 		.ascii	"\242\011\004\301CK\011x*Jk\017V\360\224\233\370\003"
 151      434B0978 
 151      2A4A6B0F 
 151      56F0949B 
 151      F803
 152 004c B6370DC2 		.ascii	"\2667\015\302\372fw\263MBk\034vg\336\274\277\357\275"
 152      FA6677B3 
 152      4D426B1C 
 152      7667DEBC 
 152      BFEFBD
 153 005f EF0D0306 		.ascii	"\357\015\003\006\275\3534\375\234\003(\010\200\034\220"
 153      BDEB34FD 
 153      9C032808 
 153      801C90
 154 006e 95B7018A 		.ascii	"\225\267\001\212q\206(\005@Xb\270t\003}\337\032k4=\257"
 154      71862805 
 154      405862B8 
 154      74037DDF 
 154      1A6B343D 
 155 0083 FA61A5FA 		.ascii	"\372a\245\372\003_\260\223\034m\204\001\332\244U\201"
 155      035FB093 
 155      1C6D8401 
 155      DAA45581 
 156 0093 6521CAAA 		.ascii	"e!\312\252\215\004a\370\356\223\264\313\034\327IE'\337"
 156      8D0461F8 
 156      EE93B4CB 
 156      1CD74945 
 156      27DF
 157 00a5 82521C60 		.ascii	"\202R\034`\030\326\204XmV\016\336\214>\026\215\345'"
 157      18D68458 
 157      6D560EDE 
 157      8C3E168D 
 157      E527
 158 00b7 E28FE721 		.ascii	"\342\217\347!ZH\245M\241\214\234\242\013\252\376\301"
ARM GAS  /tmp/ccYyUiVf.s 			page 12


 158      5A48A54D 
 158      A18C9CA2 
 158      0BAAFEC1 
 159 00c7 06BA6B95 		.ascii	"\006\272k\225:PI\330\206\322\301\346\333\372\003\036"
 159      3A5049D8 
 159      86D2C1E6 
 159      DBFA031E 
 160 00d7 A2B6E11B 		.ascii	"\242\266\341\033\353\255\237\011\246\343S\034\216Jj"
 160      EBAD9F09 
 160      A6E3531C 
 160      8E4A6A
 161 00e6 D41E6E0C 		.ascii	"\324\036n\014\235\211n\367>R\201:\256\241B`\022\220"
 161      9D896EF7 
 161      3E52813A 
 161      AEA14260 
 161      1290
 162 00f8 D1CFC16F 		.ascii	"\321\317\301o\025a\235D\262\363\200\250$\274\307\212"
 162      15619D44 
 162      B2F380A8 
 162      24BCC78A 
 163 0108 7874D90A 		.ascii	"xt\331\012\034\"\370C\373Nh\017\013\355l\261\261\273"
 163      1C22F843 
 163      FB4E680F 
 163      0BED6CB1 
 163      B1BB
 164 011a F20EC5AA 		.ascii	"\362\016\305\252(\356{\336)\013\025\006\237\260_\203"
 164      28EE7BDE 
 164      290B1506 
 164      9FB05F83 
 165 012a 3312A823 		.ascii	"3\022\250#IY\324\2058\341s\304-\034d\360\371?R\220b"
 165      4959D485 
 165      38E173C4 
 165      2D1C64F0 
 165      F93F5290 
 166 013f 07EEEC6F 		.ascii	"\007\356\354o~i\375\302^~\356\357\225\024\035kD\217"
 166      7E69FDC2 
 166      5E7EEEEF 
 166      95141D6B 
 166      448F
 167 0151 8EAF7C92 		.ascii	"\216\257|\222\332T\204inCK\334\025\011\013c\006\222"
 167      DA548469 
 167      6E434BDC 
 167      15090B63 
 167      0692
 168 0163 679D6C41 		.ascii	"g\235lA]\224\327\302xw\213\315\312\327\215\236)\352"
 168      5D94D7C2 
 168      78778BCD 
 168      CAD78D9E 
 168      29EA
 169 0175 F8CC67B4 		.ascii	"\370\314g\264\357\030\341\237c\374\366[\216\361u\367"
 169      EF18E19F 
 169      63FCF65B 
 169      8EF175F7 
 170 0185 18BF0F25 		.ascii	"\030\277\017%\243w\026\251\267\366:\3469(\263\032\030"
 170      A37716A9 
 170      B7F63AE6 
 170      3928B31A 
ARM GAS  /tmp/ccYyUiVf.s 			page 13


 170      18
 171 0196 3B62A43A 		.ascii	";b\244:>'!\202n\217P\307\227\230\0144\273PlVG\202T\355"
 171      3E272182 
 171      6E8F50C7 
 171      97980C34 
 171      BB506C56 
 172 01ae 35497CD3 		.ascii	"5I|\323\333\225\256g\265\202\353h\256chF\306\232\266"
 172      DB95AE67 
 172      B582EB68 
 172      AE636846 
 172      C69AB6
 173 01c1 B2AE469F 		.ascii	"\262\256F\237\223\0175\266;3f\300\205c|rY'\357jW&R\343"
 173      930F35B6 
 173      3B3366C0 
 173      85637C72 
 173      5927EF6A 
 174 01d9 A9053219 		.ascii	"\251\0052\031Y\307\2749\177\311\036\313\2002\257\317"
 174      59C7BC39 
 174      7FC91ECB 
 174      8032AFCF 
 175 01e9 16CC8B47 		.ascii	"\026\314\213G\305\231\013ym<\225\276\226\326\2549c\266"
 175      C5990B79 
 175      6D3C95BE 
 175      96D6AC39 
 175      63B6
 176 01fb 70CBD4FC 		.ascii	"p\313\324\3748\303\276Z\2303(\364\3341`\221w\306]t\311"
 176      38C3BE5A 
 176      983328F4 
 176      DC316091 
 176      77C65D74 
 177 0210 2F914A4F 		.ascii	"/\221JO\250\323\272k\346\034kT\0359\017\314\201\230"
 177      A8D3BA6B 
 177      E61C6B54 
 177      1D390FCC 
 177      8198
 178 0222 6DDA5967 		.ascii	"m\332Yg\021X>\307\251\364\376\251d\177\031\370\013\321"
 178      11583EC7 
 178      A9F4FEA9 
 178      647F19F8 
 178      0BD1
 179 0234 CA0D04   		.ascii	"\312\015\004"
 180              		.text
 181              		.section	.gnu.lto_.symbol_nodes.4ba432de7a33ecbb,"",%progbits
 182 0000 789C45C8 		.ascii	"x\234E\310\273\011\200@\020\204\341\231\335;C[\260\324"
 182      BB098040 
 182      1084E199 
 182      DD3B435B 
 182      B0D4
 183 0012 154CC4C8 		.ascii	"\025L\304\310\012L\254\301\032\004\003{\020\361\211"
 183      0A4CACC1 
 183      1A04037B 
 183      10F189
 184 0021 58822828 		.ascii	"X\202((\336D\3777\002\201\341\233L|\272\354\001\263"
 184      DE44FF37 
 184      0281E19B 
 184      4C7CBAEC 
 184      01B3
ARM GAS  /tmp/ccYyUiVf.s 			page 14


 185 0033 2AA75FF9 		.ascii	"*\247_\371\024d\2461\274\262\320$\220;M_\246)\271\321"
 185      1464A631 
 185      BCB2D024 
 185      903B4D5F 
 185      A629B9D1 
 186 0047 5CD049F3 		.ascii	"\\\320I\363\277\024\036Y\327\252\302\241.\216D\305a"
 186      BF141E59 
 186      D7AAC2A1 
 186      2E8E44C5 
 186      61
 187 0058 6C62D508 		.ascii	"lb\325\010\331p\0217\311\011&\033"
 187      D9701137 
 187      C909261B 
 188              		.text
 189              		.section	.gnu.lto_.refs.4ba432de7a33ecbb,"",%progbits
 190 0000 789C6362 		.ascii	"x\234cb`b\340f\200\000F bb\002R\214\014\000\001s\000"
 190      6062E066 
 190      80004620 
 190      62620252 
 190      8C0C0001 
 191 0016 18       		.ascii	"\030"
 192              		.text
 193              		.section	.gnu.lto_.decls.4ba432de7a33ecbb,"",%progbits
 194 0000 789CBD5B 		.ascii	"x\234\275[{t\024U\232\257\252\356\244\323y\000:\013"
 194      7B741455 
 194      9AAFAAEE 
 194      A4D37900 
 194      3A0B
 195 0012 8BEECC31 		.ascii	"\213\356\3141\2723\263\036\3271\270\203\312\2343;\350"
 195      BA33B31E 
 195      D731B883 
 195      CA9C333B 
 195      E8
 196 0023 B0BBCA39 		.ascii	"\260\273\3129\353\036\216\034\217{v\367Lo\321\251$="
 196      EB1E8E1C 
 196      8F7B76F7 
 196      4C6FD1A9 
 196      243D
 197 0035 F4CBEA0A 		.ascii	"\364\313\352\012\201\277\254\204\020\342\210\230\204"
 197      81BFAC84 
 197      10E28898 
 197      84
 198 0042 B7BC8288 		.ascii	"\267\274\202\210\016\314(\012\003\202c\240\005\243\202"
 198      0ECC280A 
 198      038263A0 
 198      05A382
 199 0051 C090C010 		.ascii	"\300\220\300\020\036B\032$\002\262\014D^\"B\366\273"
 199      1E421A24 
 199      02B20C44 
 199      5E2242F6 
 199      BB
 200 0062 5FDDEAAE 		.ascii	"_\335\352\256\272]\325]\025t\352po\335T\337\373\373"
 200      BA5DD55D 
 200      1574EA70 
 200      6FDD54DF 
 200      FBFB
 201 0074 DEDF7D54 		.ascii	"\336\337}T!p\002w\277\300q\003p\215\3729\307\335\343"
ARM GAS  /tmp/ccYyUiVf.s 			page 15


 201      21700277 
 201      BFC07103 
 201      708DFA39 
 201      C7DDE3
 202 0087 E3382FC7 		.ascii	"\3438/\307q\277\200\302\323B\256B(+\240\374\027<\370"
 202      71BF80C2 
 202      D342AE42 
 202      282BA0FC 
 202      173CF8
 203 009a 15942A28 		.ascii	"\025\224*(\277\206\022\345\265>q\275#\275H\337\341P"
 203      BF8612E5 
 203      B53E71BD 
 203      23BD48DF 
 203      E150
 204 00ac DE843204 		.ascii	"\336\2042\004J)\224C\264\357T\250\236\205r\030J\007"
 204      4A299443 
 204      B4EF54A8 
 204      9E857218 
 204      4A07
 205 00be FC7D04EE 		.ascii	"\374}\004\356G\241\254\204\366Z(w@{,\334\013\340~\001"
 205      47A1AC84 
 205      F65A2877 
 205      407B2CDC 
 205      0BE07E01 
 206 00d2 EEBD709F 		.ascii	"\356\275p\237\014%\005\245\032J\011<\253\203{3\224\361"
 206      0C2505A5 
 206      1A4A093C 
 206      AB837B33 
 206      94F1
 207 00e4 501E87E2 		.ascii	"P\036\207\342%\317\241l\200\337\312\341\376\016\334"
 207      25CFA16C 
 207      80DFCAE1 
 207      FE0EDC
 208 00f3 CF43F141 		.ascii	"\317C\361A\333O\3719\016\355>(\247\241\364S\376\211"
 208      DB4FF939 
 208      0EED3E28 
 208      A7A1F453 
 208      FE89
 209 0105 1C5F43B9 		.ascii	"\034_C\271\301kr?\003\367\247\011\223B\266LD\366a\026"
 209      C16B723F 
 209      03F7A709 
 209      9342B64C 
 209      44F66116 
 210 0119 32196530 		.ascii	"2\031e0\312F\344 \362\244\250\334\325T\036\237\201\177"
 210      CA46E420 
 210      F2A4A8DC 
 210      D5541E9F 
 210      817F
 211 012b C2FB5D94 		.ascii	"\302\373]\224o\235g?\245e\344\267P\320x\035*d\370\265"
 211      6F9D673F 
 211      A565E4B7 
 211      50D0781D 
 211      2A64F8B5 
 212 013f D2FBAFA8 		.ascii	"\322\373\257\250\274\035\006\036u\336\010\337D\307\303"
 212      BC1D061E 
 212      75DE08DF 
 212      44C7C3
ARM GAS  /tmp/ccYyUiVf.s 			page 16


 213 014e 012340C7 		.ascii	"\001#@\307\025\3211FZ#\004\315\256:\035\017\364\011"
 213      15D13146 
 213      5A2304CD 
 213      AE3A1D0F 
 213      F409
 214 0160 C2BD12CA 		.ascii	"\302\275\022\312\337\011fzwq\313\324\366T\252\357\354"
 214      DF09667A 
 214      7771CBD4 
 214      F654AAEF 
 214      EC
 215 0171 A63BD4F6 		.ascii	"\246;\324\366\206\344\300\300Xn\0047O\205\253\275IU"
 215      86E4C0C0 
 215      586E0437 
 215      4F85ABBD 
 215      4955
 216 0183 79C5CF35 		.ascii	"y\305\3175\323?\236\370\030\370\371O^\344\207\370\271"
 216      D33F9EF8 
 216      18F8F94F 
 216      5EE487F8 
 216      B9
 217 0194 726C94FA 		.ascii	"rl\224\372Q\345?\342^U\325\226\324\322\313\263\376Y"
 217      51E53FE2 
 217      5E55D596 
 217      D4D2CBB3 
 217      FE59
 218 01a6 558B447E 		.ascii	"U\213D~%\357\007\355\003\301\373\270\3250\264EU_y\230"
 218      25EF07ED 
 218      03C1FBB8 
 218      D530B445 
 218      555F7998 
 219 01ba 91122FE7 		.ascii	"\221\022/\347\320]\037-\377G\204~\035\241\347\360<'"
 219      D05D1F2D 
 219      FF47847E 
 219      1DA1E7F0 
 219      3C27
 220 01cc F2AFF1F7 		.ascii	"\362\257\361\367\271\006\272\272s\353\030\004Z\203@"
 220      B906BABA 
 220      73EB1804 
 220      5A8340
 221 01db 3B182091 		.ascii	";\030 \221/\364\0339\304\277\365\016\004\015\376$\224"
 221      2FF41B39 
 221      C4BFF50E 
 221      040DFE24 
 221      94
 222 01ec BE22D1C6 		.ascii	"\276\"\321\306?G\237\220?|\334_}\234\225\230\004\342"
 222      3F479F90 
 222      3F7CDC5F 
 222      7D9C9598 
 222      04E2
 223 01fe 157E04B6 		.ascii	"\025~\004\266<\034\232\272\204\373\215\2526P\345\334"
 223      3C1C9ABA 
 223      84FB8DAA 
 223      3650E5DC 
 224 020e CEB512BC 		.ascii	"\316\265\022\274r\203\232\332\275:\300\277\244\365\324"
 224      72839ADA 
 224      BD3AC0BF 
 224      A4F5D4
ARM GAS  /tmp/ccYyUiVf.s 			page 17


 225 021d DE33FB07 		.ascii	"\3363\373\007\252W\344\327\362\267\003\210*\230\265"
 225      AA57E4D7 
 225      F2B70388 
 225      2A98B5
 226 022c 941744E0 		.ascii	"\224\027D\340\236\307!\353`\2706\020a\325TO[\347t\276"
 226      9EC721EB 
 226      60B83610 
 226      61D5544F 
 226      5BE774BE 
 227 0240 1EDC4AFB 		.ascii	"\036\334J\373\2153\301\232\256\273\271v\340:\271`\366"
 227      8D33C19A 
 227      AEBBB976 
 227      E03AB960 
 227      F6
 228 0251 5270CB6D 		.ascii	"Rp\313m\320\377M\276\004p\337K\343ZIO\233\332E;\230"
 228      D0FF4DBE 
 228      0470DF4B 
 228      E35A494F 
 228      9BDA453B 
 229 0266 F15EDE53 		.ascii	"\361^\336S\332\"\352`\333]\203\225\233\300\226\357Y"
 229      DA22EA60 
 229      DB5D8395 
 229      9BC096EF 
 229      59
 230 0277 82CCA1FB 		.ascii	"\202\314\241\37358\012\221~\032\"\357\242\373\355\024"
 230      35380A91 
 230      7E1A22EF 
 230      A2FBED14 
 231 0287 2CFCD811 		.ascii	",\374\330\021P\327\314W\357G\240\016\004\352\0364\320"
 231      50D7CC57 
 231      EF47A00E 
 231      04EA1E34 
 231      D0
 232 0298 D59D1FB4 		.ascii	"\325\235\037\264\362\323\321\"I\204:\"\260!\341cB\302"
 232      F2D3D122 
 232      49843A22 
 232      B021E163 
 232      42C2
 233 02aa 677651FC 		.ascii	"gvQ\374\2316\210g\016\345\276\343\356\002\367\271\023"
 233      99368867 
 233      0EE5BEE3 
 233      EE02F7B9 
 233      13
 234 02bb C315D979 		.ascii	"\303\025\331y\201\232:\320\266\313\263HM6z\250'\267"
 234      819A3AD0 
 234      B6CBB348 
 234      4D367AA8 
 234      27B7
 235 02cd 17DA6949 		.ascii	"\027\332iI\340\316!\255N\326\223\217\364\354j\240\236"
 235      E0CE21AD 
 235      4ED6938F 
 235      F4EC6AA0 
 235      9E
 236 02de DCE9C893 		.ascii	"\334\351\310\2237\354\\\200\316\2227\034\005\235\376"
 236      37EC5C80 
 236      CE92371C 
 236      059DFE
ARM GAS  /tmp/ccYyUiVf.s 			page 18


 237 02ed 0F91FE4A 		.ascii	"\017\221\376J\017\241\277\223\245\277u\361\025=\222"
 237      0FA1BF93 
 237      A5BF75F1 
 237      153D92
 238 02fc 763AA2BF 		.ascii	"v:\242\277\274{n6}\221\377\305\360\\\336q\244\347\363"
 238      BC7B6E36 
 238      7D91FFC5 
 238      F05CDE71 
 238      A4E7F3
 239 030f 7E4A650F 		.ascii	"~Je\017\206\314q\017\353\035cK\314\366\203\277\015\035"
 239      86CC710F 
 239      EB1D634B 
 239      CCF683BF 
 239      0D1D
 240 0321 04EE8B34 		.ascii	"\004\356\2134\377\203\212X\020t\327\\\276m\272\372\361"
 240      FF838A58 
 240      1074D75C 
 240      BE6DBAFA 
 240      F1
 241 0332 289D8773 		.ascii	"(\235\207s\256\021\313M\232X\327\2159@\003\273\340\004"
 241      AE11CB4D 
 241      9A58D78D 
 241      394003BB 
 241      E004
 242 0344 CCD6951A 		.ascii	"\314\326\225\032\222\1770\202]t\015f\346l\243\021\354"
 242      927F3082 
 242      5D740D66 
 242      E66CA311 
 242      EC
 243 0355 8A13B061 		.ascii	"\212\023\260a\366\234m2\202]s\015f\346\354]#\3307N\300"
 243      F69C6D32 
 243      825D730D 
 243      66E6EC5D 
 243      23D8374E 
 244 036a 46DA73F6 		.ascii	"F\332s\366\236\021L\365\272\0053s\266\305\010\326\350"
 244      9E114CF5 
 244      BA053373 
 244      B6C508D6 
 244      E8
 245 037b 04ACDC82 		.ascii	"\004\254\334\202\263\364e7\251\356\340\323~.p3\275z"
 245      B3F46537 
 245      A9EEE0D3 
 245      7E2E7033 
 245      BD7A
 246 038d 4E70E9D3 		.ascii	"Np\351\323\\\006\343\005\257\333\034f\222\033\246\322"
 246      5C06E305 
 246      AFDB1C66 
 246      921BA6D2 
 247 039d DD2BF939 		.ascii	"\335+\3719Z\\h\323Y\253\023\304\034\016\263\32187.r"
 247      5A5C68D3 
 247      59AB13C4 
 247      1C0EB3D1 
 247      38372E72 
 248 03b1 0D6636CB 		.ascii	"\015f6\313~\002f\3125tNJ\255J\216\\\230IwE:\026Y j\271"
 248      7E0266CA 
 248      35744E4A 
 248      AD4A8E5C 
ARM GAS  /tmp/ccYyUiVf.s 			page 19


 248      98497745 
 249 03cb 0DD68B42 		.ascii	"\015\326\213B\272\263:r\244u_\221?\313\377\010\352\377"
 249      BAB33A72 
 249      A4755F91 
 249      3FCBFF08 
 249      EAFF
 250 03dd E3FD692E 		.ascii	"\343\375i.\264\266\336\032\340\211\236Wx\255\226\236"
 250      B4B6DE1A 
 250      E0899E57 
 250      78AD969E 
 251 03ed 08907BA8 		.ascii	"\010\220{\250\235'\2341z\302kN\324\224#\024\256\357"
 251      9D279C31 
 251      7AC26B4E 
 251      D4942314 
 251      AEEF
 252 03ff 59F2B76A 		.ascii	"Y\362\267j*\311\033\344\315\251\034XB\364\321%\304\005"
 252      2AC91BE4 
 252      CDA91C58 
 252      42F4D125 
 252      C405
 253 0411 9CAEDFF0 		.ascii	"\234\256\337\360Z\316\374\016\200\272f\316\327\326\324"
 253      5ACEFC0E 
 253      80BA66CE 
 253      D7D6D4
 254 0420 171168E3 		.ascii	"\027\021h\343\240\201\256\356\\\246\255\251\257 \320"
 254      A081AEEE 
 254      5CA6ADA9 
 254      AF20D0
 255 042f 162F3B45 		.ascii	"\026/;E\360\314\002\2027O\361i\315S\305\177W}\005\356"
 255      F0CC0282 
 255      374FF169 
 255      CD53C57F 
 255      577D05EE 
 256 0443 63D65A26 		.ascii	"c\326Z&q\362\346\232TO\367\3119\374\305\006u\341(\027"
 256      71F2E69A 
 256      544FF7C9 
 256      39FCC506 
 256      75E12817 
 257 0457 F63A4EED 		.ascii	"\366:N\355u\035\265\2637K;\027]\252G\340\016\272\026"
 257      751DB5B3 
 257      374B3B17 
 257      5DAA47E0 
 257      0EBA16
 258 046a E35EB318 		.ascii	"\343^\263\030m\247\334\213q\206\212AbS\340R\337\202"
 258      6DA7DC8B 
 258      71868A41 
 258      6253E052 
 258      DF82
 259 047c 18A75D8B 		.ascii	"\030\247]\2131\312 \006l&\272/\315\3252\340\367\270"
 259      31CA2006 
 259      6C26BA2F 
 259      CDD532E0 
 259      F7B8
 260 048e B6DCCB38 		.ascii	"\266\334\3138\302\317\014\341{\246%T\362\362\237\370"
 260      C2CF0CE1 
 260      7BA62554 
 260      F2F29FF8 
ARM GAS  /tmp/ccYyUiVf.s 			page 20


 261 049e 72ED71BE 		.ascii	"r\355q\276\325\223\232\234\323\275\204\356C\264\315"
 261      D5939A9C 
 261      D3BD84EE 
 261      43B4CD
 262 04ad ED79E49D 		.ascii	"\355y\344\235\214\035\314\252FM\276\245\315Z\032\330"
 262      8C1DCCAA 
 262      464DBEA5 
 262      CD5A1AD8 
 263 04bd 955B026B 		.ascii	"\225[\002kHnm\3237IcI\352\036\270E\270O\273\331\324"
 263      486E6DD3 
 263      37496349 
 263      EA1EB845 
 263      B84FBBD9 
 264 04d2 CDAC19D7 		.ascii	"\315\254\031\327\332\244;\352*=\263?|\237o\300E\343"
 264      DAA43BEA 
 264      2A3DB33F 
 264      7C9F6FC0 
 264      45E3
 265 04e4 4B0261A8 		.ascii	"K\002a\250\251\200u\2267yf\325H\036\030\272\330\331"
 265      A9807596 
 265      377966D5 
 265      481E18BA 
 265      D8D9
 266 04f6 70B660C8 		.ascii	"p\266`\310\275\213\012nIN\010\203\336W5\377\311\267"
 266      BD8B0A6E 
 266      494E0883 
 266      DE5735FF 
 266      C9B7
 267 0508 26FF5F1D 		.ascii	"&\377_\035\255\024\011/G\302\363\004fI\276\371l\252"
 267      AD14092F 
 267      47C2F304 
 267      6649BEF9 
 267      6CAA
 268 051a 89CA4D7E 		.ascii	"\211\312M~\313\357TG\372\374j[\251\005\275G\215\363"
 268      CBEF5447 
 268      FAFC6A5B 
 268      A905BD47 
 268      8DF3
 269 052c 7F5AABFB 		.ascii	"\177Z\253\373[\371FD_$\220]\371~F\253\372^\346Q; \201"
 269      5BF94644 
 269      5F24905D 
 269      F97E46AB 
 269      FA5EE651 
 270 0543 3B894396 		.ascii	";\211C\226\260\214\367t_\325\3672K\0340\336\220\354"
 270      B08CF774 
 270      5FD5F732 
 270      4B1C30DE 
 270      90EC
 271 0555 7FC1B82B 		.ascii	"\177\301\270+\027\371\215\274@q\007\347q_~\222^y\210"
 271      17F98DBC 
 271      407107E7 
 271      715F7E92 
 271      5E7988
 272 0568 FC26D760 		.ascii	"\374&\327`\345V\254\352\236\225\221V\344\227\011d\305"
 272      E556ACEA 
 272      9E959156 
 272      E4970964 
ARM GAS  /tmp/ccYyUiVf.s 			page 21


 272      C5
 273 0579 B05CB81B 		.ascii	"\260\\\270\033\352v\250\323\227\300]N\333\324Juy\003"
 273      EA76A8D3 
 273      97C05D4E 
 273      DBD44A75 
 273      7903
 274 058b 1A8CFFD5 		.ascii	"\032\214\377\325|\315\231\\\034\230\255z\221\036\230"
 274      7CCD995C 
 274      1C98AD7A 
 274      911E98
 275 059a 614EBD91 		.ascii	"aN\275\221\025&\257\2639\325\305\351\220\300M/dDr\272"
 275      1526AFB3 
 275      39D5C5E9 
 275      90C04D2F 
 275      644472BA 
 276 05ae B5495F76 		.ascii	"\265I_va8\327\030\206\317\027\336b\030v\237r\030\206"
 276      6138D718 
 276      86CF17DE 
 276      6218769F 
 276      721886
 277 05c1 2A6F5C78 		.ascii	"*o\\x\012\\\013R^\303\272\363\305/?\236I\335y\215\243"
 277      0A5C0B52 
 277      5EC3BAF3 
 277      C52F3F9E 
 277      49DD798D 
 278 05d6 38BC8C71 		.ascii	"8\274\214q\250\307\325\373i\324\301xBC\362\332\231\035"
 278      A8C7D5FB 
 278      69D4C178 
 278      4243F2DA 
 278      991D
 279 05e8 3CC2690B 		.ascii	"<\302i\013\351\035,\234\313\015\3467\222[\305h\336\225"
 279      E91D2C9C 
 279      CB0DE637 
 279      925BC568 
 279      DE95
 280 05fa 3CD447A6 		.ascii	"<\324G\246\267\365(SW!\353Z\232f\014\256\265\306\020"
 280      B7F52853 
 280      5721EB5A 
 280      9A660CAE 
 280      B5C610
 281 060d 27BFC738 		.ascii	"'\277\3078y\003\343d-\326o\033\243\305\316-\326\031"
 281      7903E364 
 281      2DD66F1B 
 281      A3C5CE2D 
 281      D619
 282 061f DDE2906B 		.ascii	"\335\342\220k\271\313\035z\337j#\231\324-z\337\201\356"
 282      B9CB1D7A 
 282      DF6A2399 
 282      D42D7ADF 
 282      81EE
 283 0631 F35E3C0A 		.ascii	"\363^<\012rq\210w\203.\2056c\330\236\312\322m\007\033"
 283      72718877 
 283      832E8536 
 283      63D89ECA 
 283      D26D071B 
 284 0645 B64ECEB4 		.ascii	"\266N\316\264.\016V\220\364%p_\027:\330\215\224\333"
 284      2E0E5690 
ARM GAS  /tmp/ccYyUiVf.s 			page 22


 284      F425705F 
 284      173AD88D 
 284      94DB
 285 0657 29831CCF 		.ascii	")\203\034\317^\245+\252\274\007c\372\254\264gW=\235"
 285      5EA52BAA 
 285      BC0763FA 
 285      ACB46757 
 285      3D9D
 286 0669 95B6A2A7 		.ascii	"\225\266\242\247\335,\264\236\225r\234\260\275\350#"
 286      DD2CB49E 
 286      95729CB0 
 286      BDE823
 287 0678 43B665CD 		.ascii	"C\266e\315Jm\227\364Yi\233\243Yi\237\345\254\264\315"
 287      4A6D97F4 
 287      59699BA3 
 287      59699FE5 
 287      ACB4CD
 288 068b FDAC6475 		.ascii	"\375\254du\031\031\024\371\0170@:\315S\310R\237[\355"
 288      191914F9 
 288      0F30403A 
 288      CD53C852 
 288      9F5BED
 289 069e 971BB59F 		.ascii	"\227\033\265\237\274\266o\011\257\361\257%\242\327Y"
 289      BCB66F09 
 289      AFF1AF25 
 289      A2D759
 290 06ad 3CAB4474 		.ascii	"<\253Dt\257\2555\223-\007\014k\314uN\230\033e\007\326"
 290      AFAD3593 
 290      2D070C6B 
 290      CC754E98 
 290      1B6507D6 
 291 06c1 905CA281 		.ascii	"\220\\\242\201i.\277\3115X\271\011\354\217\363uK\255"
 291      692EBFC9 
 291      3558B909 
 291      EC8FF375 
 291      4BAD
 292 06d3 C605E276 		.ascii	"\306\005\342v'xc\354\231\333w@_\235k\347\352\273]\343"
 292      277863EC 
 292      99DB7740 
 292      5F9D6BE7 
 292      EABB5DE3 
 293 06e7 99F9EB9F 		.ascii	"\231\371\353\237oZP\037t\002\367\250cG\312\274\025\021"
 293      6F5A501F 
 293      7402F7A8 
 293      6347CABC 
 293      1511
 294 06f9 F93FE019 		.ascii	"\371?\340\031\306\006\236\344\330w\260\336\214\365\007"
 294      C6069EE4 
 294      D877B0DE 
 294      8CF507
 295 0708 589FC4FA 		.ascii	"X\237\304\372s\254Oc}\036\353\257\261\036\300\272\021"
 295      73AC4F63 
 295      7D1EEBAF 
 295      B11EC0BA 
 295      11
 296 0719 F3F316AC 		.ascii	"\363\363\026\254?\302z\007\326\237`\275\033\353?a\335"
 296      3FC27A07 
ARM GAS  /tmp/ccYyUiVf.s 			page 23


 296      D69F60BD 
 296      1BEB3F61 
 296      DD
 297 072a E5248733 		.ascii	"\345$\2073\013q\372\016I\363\"l<\3551\270|\312g\216"
 297      0B71FA0E 
 297      49F3226C 
 297      3CED31B8 
 297      7CCA678E 
 298 073e F61F722B 		.ascii	"\366\037r+U\265-\325w\366 9_\367\352s\340\027\330m\005"
 298      55B52DD5 
 298      77F62039 
 298      5FF7EA73 
 298      E017D86D 
 299 0753 7F972559 		.ascii	"\177\227%Y\272\035\300\261-\352b\351\011\335g\317\345"
 299      BA1DC0B1 
 299      2DEA62E9 
 299      09DD67CF 
 299      E5
 300 0764 194679FA 		.ascii	"\031Fy\3721\267\212\244\230\265M3\206y\365\207\366\303"
 300      31B78AA4 
 300      98B54D33 
 300      8679F587 
 300      F6C3
 301 0776 A89CFB05 		.ascii	"\250\234\373\005\323{P\355-h\262\377\243\027\255\337"
 301      D37B50ED 
 301      2D68B2FF 
 301      A317ADDF 
 302 0786 826A3CDA 		.ascii	"\202j<\332)\355\2100\2023kG\340\372\031\325P>\033\324"
 302      29ED8830 
 302      82336B47 
 302      E0FA19D5 
 302      503E1BD4 
 303 079a 75BF55FD 		.ascii	"u\277U\375\372\016H\344\017\0139\331\374\324\222\315"
 303      FA0E48E4 
 303      0F0B39D9 
 303      FCD492CD 
 304 07aa AEDF7C02 		.ascii	"\256\337|\002K\014\365\233\201\001\017\313\246\315y"
 304      4B0CF59B 
 304      81010FCB 
 304      A6CD79
 305 07b9 3EC1EA15 		.ascii	">\301\352\025L\357\0055\036\362\030\370\272\245\201"
 305      4CEF0535 
 305      1EF218F8 
 305      BAA581
 306 07c8 D5EB954F 		.ascii	"\325\353\225O\350\256r@"
 306      E8AE7240 
 307 07d0 2059F698 		.ascii	" Y\366\230\215\030f\333.\327m+\362\007\363\0143\333"
 307      8D1866DB 
 307      2ED76D2B 
 307      F207F30C 
 307      33DB
 308 07e2 F64575C6 		.ascii	"\366Eu\3060\036\205\343\350(SD\235\310\326R\012\346"
 308      301E85E3 
 308      E8285344 
 308      9DC8D652 
 308      0AE6
 309 07f4 A6B60323 		.ascii	"\246\266\003#\027\256S\033\237Wo\016<\307;\327\323)"
ARM GAS  /tmp/ccYyUiVf.s 			page 24


 309      17AE531B 
 309      9F576F0E 
 309      3CC73BD7 
 309      D329
 310 0806 564F1790 		.ascii	"VO\027\220c\223^\232\213X\353j]\317Xq\222\3549q\232"
 310      63935E9A 
 310      8B58EB6A 
 310      5DCF5871 
 310      92EC3971 
 311 081b 5FA46E6B 		.ascii	"_\244nkT\007\006\236s\343Wg\255,\306p2\337\206\223s"
 311      5407069E 
 311      73E35767 
 311      AD2CC670 
 311      32DF8693 
 312 0830 969C1C3D 		.ascii	"\226\234\034=\221\314p\242\271\204\300\275b\003q\336"
 312      91CC70A2 
 312      B984C0BD 
 312      620371DE 
 313 0840 0C710FB7 		.ascii	"\014q\017\267\202@\254?\221\022\352\325m\013a\206\201"
 313      8240AC3F 
 313      9112EAD5 
 313      6D0B6186 
 313      81
 314 0851 5DC75DFA 		.ascii	"]\307]\372r\264\371\263\314\231\251:\\\227d/AH\357`"
 314      72B4F9B3 
 314      CC99A93A 
 314      5C97642F 
 314      4148EF60 
 315 0865 2FADA0AF 		.ascii	"/\255\240\257\032\373q\202[\313\320u\000%p\177\304A"
 315      1AFB7182 
 315      5BCBD075 
 315      0025707F 
 315      C441
 316 0877 97B2570B 		.ascii	"\227\262W\013\235\372\242\377\222\243E\377\322c\332"
 316      9DFAA2FF 
 316      92A345FF 
 316      D263DA
 317 0886 6C6BB19C 		.ascii	"lk\261\234N\245\227\323\3377p\277\247\3478\345\376+"
 317      4EA597D3 
 317      DF3770BF 
 317      A7E738E5 
 317      FE2B
 318 0898 E4BED386 		.ascii	"\344\276\323\206{[ \201\353\306!\327\263y\337\337Dy"
 318      7B5B2081 
 318      EBC621D7 
 318      B379DFDF 
 318      4479
 319 08aa BFEE88F7 		.ascii	"\277\356\210\367}\207\315+\205T\032wp[\226\375\207q"
 319      7D87CD2B 
 319      85541A77 
 319      705B96FD 
 319      8771
 320 08bc 72D726CF 		.ascii	"r\327&\317\323,\230\253\015\213\232<\250\201u\342\247"
 320      D32C98AB 
 320      0D8B9A3C 
 320      A88175E2 
 320      A7
ARM GAS  /tmp/ccYyUiVf.s 			page 25


 321 08cd 03E75D83 		.ascii	"\003\347]\203\225\2338\353}\331\374\376\377\262\023"
 321      959B38EB 
 321      7DD9FCFE 
 321      FFB213
 322 08dc BC1CEF38 		.ascii	"\274\034\3578.\0346\274\343\270\341\032\314\314\334"
 322      2E1C36BC 
 322      E3B8E11A 
 322      CCCCDC
 323 08eb 1523D80C 		.ascii	"\025#\330\014\277\0030\2537\001V\227\321ID\376\006\256"
 323      BF0330AB 
 323      37015697 
 323      D14944FE 
 323      06AE
 324 08fd 366FE224 		.ascii	"6o\342$\256zH\335\200u#\326MX7{Lk\321\227\374z\224X"
 324      AE7A48DD 
 324      807523D6 
 324      4D58377B 
 324      4C6BD197 
 325 0915 BA623E97 		.ascii	"\272b>\227P\223\033\354\303\303j\267\011\301}\252\236"
 325      50931BEC 
 325      C3C36AB7 
 325      09C17DAA 
 325      9E
 326 0926 9F813E3C 		.ascii	"\237\201><\313C,?\317\2377<\330\375\374\357p\310K\236"
 326      CB432C3F 
 326      CF9F373C 
 326      D8FDFCEF 
 326      70C84B9E 
 327 093a ACE3A91B 		.ascii	"\254\343\251\0333hx\220\337\362o\004\256-X\352\354U"
 327      33687890 
 327      DFF26F04 
 327      AE2D58EA 
 327      EC55
 328 094c 7B9AFEDF 		.ascii	"{\232\376\337\030\004\331sR?g\233\213\202l\313/\210"
 328      1804D973 
 328      523F679B 
 328      8B826CCB 
 328      2F88
 329 095e 1908E21C 		.ascii	"\031\010\342\034\207,\310\026\344\234.\310\002G\202"
 329      872CC816 
 329      E49C2EC8 
 329      024782
 330 096d 6C5EA07B 		.ascii	"l^\240{\377\034\017\361\261\317\322\270\203\332\354"
 330      FF1C0FF1 
 330      B1CFD2B8 
 330      83DAEC
 331 097c 26DFED41 		.ascii	"&\337\355A\207\325\300\316\272\0063{\177G\217\333\257"
 331      87D5C0CE 
 331      BA06337B 
 331      7F478FDB 
 331      AF
 332 098d 5F7AF66C 		.ascii	"_z\366l\270\0177\316\313=$\321\\d\024;\310\215\363\015"
 332      B80F37CE 
 332      CB3D24D1 
 332      5C64143B 
 332      C88DF30D 
 333 09a1 2772D81F 		.ascii	"'r\330\037\260\200U\316\317\2638\177r\276^X\345af\351"
ARM GAS  /tmp/ccYyUiVf.s 			page 26


 333      B08055CE 
 333      CFB3387F 
 333      72BE5E58 
 333      E56166E9 
 334 09b5 B1CC249D 		.ascii	"\261\314$\235K%\263\217\325\3233\343W\321*M\305f\245"
 334      4B25B38F 
 334      D5D333E3 
 334      57D12A4D 
 334      C566A5
 335 09c8 3047EF84 		.ascii	"0G\357\204\226\035\037\253=%6\036\225\365\033$\210b"
 335      961D1FAB 
 335      3D25361E 
 335      95F51B24 
 335      8862
 336 09da B75A3359 		.ascii	"\267Z3Y\237\274|Y\245\277~\306M\322\002'\200V\231\331"
 336      9FBC7C59 
 336      A5BF7EC6 
 336      4DD20227 
 336      805699D9 
 337 09ee EA32060F 		.ascii	"\3522\006\017Lr\036\222\377^\306<\267\004\353eX\257"
 337      4C721E92 
 337      FF5EC63C 
 337      B704EB65 
 337      58AF
 338 0a00 C4FA77C6 		.ascii	"\304\372w\306\314g\247\033\342\362i\354\305\036\201"
 338      CC67A71B 
 338      E2F269EC 
 338      C51E81
 339 0a0f E699C185 		.ascii	"\346\231\301\205\3217\2310\022\371\245\256\301L\212"
 339      D1379930 
 339      12F9A5AE 
 339      C14C8A
 340 0a1e 4CB61ED6 		.ascii	"L\266\036\326\367\256$*D\376\025'x9\316\013\337\322"
 340      F7AE242A 
 340      44FE1527 
 340      7839CE0B 
 340      DFD2
 341 0a30 26252DC4 		.ascii	"&%-\304\226\025\363.\301\312s\031\345%\203QZ\321(mh"
 341      9615F32E 
 341      C1CA7319 
 341      E5258351 
 341      5AD1286D 
 342 0a45 8237B07E 		.ascii	"\2027\260~\023\353\265\346\211hM13\021\231\223\276\325"
 342      13EBB5E6 
 342      89684D31 
 342      33119993 
 342      BED5
 343 0a57 BC68D48F 		.ascii	"\274h\324\217\232|\357\030\310\343\3748\352\234~\034"
 343      9A7CEF18 
 343      C8E3FC38 
 343      EA9C7E1C 
 344 0a67 B51E93F7 		.ascii	"\265\036\223\367\333\305\226\311;\327qT\022\207l\314"
 344      DBC596C9 
 344      3BD77154 
 344      12876CCC 
 345 0a77 4ADE6D7D 		.ascii	"J\336m}\372\"mc\376\344\3358=\271a\361k\231Yhz:\202"
 345      FA226D63 
ARM GAS  /tmp/ccYyUiVf.s 			page 27


 345      FEE4DD38 
 345      3DB961F1 
 345      6B995968 
 346 0a8e BF801C67 		.ascii	"\277\200\034g\347\245\246O\013\366\246\371p\351\245"
 346      E7A5A64F 
 346      0BF6A6F9 
 346      70E9A5
 347 0a9d D6B6DB68 		.ascii	"\326\266\333h\260\335&\264\335f\263\245\016\263\226"
 347      B0DD26B4 
 347      DD66B3A5 
 347      0EB396
 348 0aac B2A2673A 		.ascii	"\262\242g:n2\033\352\317\307\364E\251\366\325\3501\026"
 348      6E321BEA 
 348      CFC7F445 
 348      A9F6D5E8 
 348      3116
 349 0abe AFDDF48D 		.ascii	"\257\335\364\215(m\332\0369\251\311cn,\277\376\2353"
 349      286DDA1E 
 349      39A9C963 
 349      6E2CBFFE 
 349      9D33
 350 0ad0 8FE0DC92 		.ascii	"\217\340\334\222D\273\267\224\270\264;Q\321v\306\346"
 350      44BBB794 
 350      B8B43B51 
 350      D176C6E6 
 351 0ae0 C97EA95C 		.ascii	"\311~\251\\{\352`\315\321\207\247\376.N\2217\320S\344"
 351      7BEA60CD 
 351      D187A7FE 
 351      2E4E9137 
 351      D053E4
 352 0af3 0F315257 		.ascii	"\0171RW\224|+\223\341j\204\331\376m9\315v\203\323|\200"
 352      947C2B93 
 352      E16A84D9 
 352      FE6D39CD 
 352      7683D37C 
 353 0b08 4ED36976 		.ascii	"N\323iv\232\267J\0348M\334\326i`\032\351{\244^M.\034"
 353      9AB74A1C 
 353      384DDCD6 
 353      69601AE9 
 353      7BA45E4D 
 354 0b1e 751BD7A2 		.ascii	"u\033\327\242\357\375\250\016\223Mj3_\377\366\367\323"
 354      EFFDA80E 
 354      934D6A33 
 354      5FFFF6F7 
 354      D3
 355 0b2f 234D9B9A 		.ascii	"#M\233\232\364\007\212\177YA\347\317\335\250\307\365"
 355      F4078A7F 
 355      5941E7CF 
 355      DDA8C7F5 
 356 0b3f 8C1EDD80 		.ascii	"\214\036\335\200u\315|]\373\250v/Bm\271\005\250\253"
 356      75CD7C5D 
 356      FBA8762F 
 356      426DB905 
 356      A8AB
 357 0b51 3B8FEA9F 		.ascii	";\217\352\237\325\356C\260\217\262\354\353g\314\353"
 357      D5EE43B0 
 357      8FB2ECEB 
ARM GAS  /tmp/ccYyUiVf.s 			page 28


 357      67CCEB
 358 0b60 379BD7EF 		.ascii	"7\233\327\357\3174\006\364\213\375\342\345;\034C\205"
 358      CF3406F4 
 358      8BFDE2E5 
 358      3B1C4385 
 359 0b70 4B96E9D2 		.ascii	"K\226\351\322\035\344)\300.\317m\031}\250\351\304Vj"
 359      1DE429C0 
 359      2ECF6D19 
 359      7DA8E9C4 
 359      566A
 360 0b82 9FD70E78 		.ascii	"\237\327\016x2\037Z\225\3723\215;\323~\324\315\372\021"
 360      321F5A95 
 360      FA338D3B 
 360      D37ED4CD 
 360      FA11
 361 0b94 4397B6A7 		.ascii	"C\227\266\247:\366\334K\206\375\323\025\334?]\305\375"
 361      3AF6DC4B 
 361      86FDD315 
 361      DC3F5DC5 
 361      FD
 362 0ba5 D30B3849 		.ascii	"\323\0138I\255\303\272\003\353\255X\177b\366\353\343"
 362      ADC3BA03 
 362      EBAD587F 
 362      62F6EBE3 
 363 0bb5 6973E9D3 		.ascii	"is\351\323\226\371\034\202\2208\350I\037\2170\253\264"
 363      96F91C82 
 363      9038E849 
 363      1F8F30AB 
 363      B4
 364 0bc6 4536F140 		.ascii	"E6\361@F\035\312\254D\230Q\3759F\035\316\214\242\221"
 364      461DCAAC 
 364      449851FD 
 364      39461DCE 
 364      8CA291
 365 0bd9 D2FEE8C2 		.ascii	"\322\376\350\302!\332\307jt\3140}\214\316\337\021\327"
 365      21DAC76A 
 365      74CC307D 
 365      8CCEDF11 
 365      D7
 366 0bea 76FAD4C6 		.ascii	"v\372\324\306N\274\231t9Cy\214\336\317Gq\216\272\246"
 366      4EBC9974 
 366      3943798C 
 366      DECF4771 
 366      8EBAA6
 367 0bfd 7CCC8672 		.ascii	"|\314\206r\241\265\252\310\301\230\035T\257\255\202"
 367      A1B5AAC8 
 367      C1981D54 
 367      AFAD82
 368 0c0c 4FE51895 		.ascii	"O\345\030\225\312\214\"Ge\311\013\251E[\273\376\373"
 368      CA8C2247 
 368      65C90BA9 
 368      455BBBFE 
 368      FB
 369 0c1d F7EB5415 		.ascii	"\367\353T\025\217\017\353\033]\034 \236\360d\037\007"
 369      8F0FEB1B 
 369      5D1C209E 
 369      F0641F07 
ARM GAS  /tmp/ccYyUiVf.s 			page 29


 370 0c2d CF2AB53C 		.ascii	"\317*\265<\016\206\353\267\252'}\262y\334\303\234l~"
 370      0E86EBB7 
 370      AA277DB2 
 370      79DCC39C 
 370      6C7E
 371 0c3f E6C93AC5 		.ascii	"\346\311:\305\003\326\266,\276YH^Z\222S\274\2735z\002"
 371      03D6B62C 
 371      BE59485E 
 371      5A9253BC 
 371      BB357A02 
 372 0c53 37DF1185 		.ascii	"7\337\021\205>\226\302\347\226\024Z?{\177\026\337\272"
 372      3E96C2E7 
 372      96145A3F 
 372      7B7F16DF 
 372      BA
 373 0c64 B6496DA9 		.ascii	"\266Im\251O\015<\267<\331\342u.\376\031v?\324\221}~"
 373      4F0D3CB7 
 373      3CD9E275 
 373      2EFE1976 
 373      3FD4917D 
 374 0c79 FA6713B3 		.ascii	"\372g\023\263\330\023\266\267\245\324\321\350)s\327"
 374      D813B6B7 
 374      A5D4D1E8 
 374      2973D7
 375 0c88 87A52DBC 		.ascii	"\207\245-\274\376_\034\372q\304i\217\335\201q\207\351"
 375      FE5F1CFA 
 375      71C4698F 
 375      DD817187 
 375      E9
 376 0c99 C0F862FD 		.ascii	"\300\370b\375\204\221i\231O\2632\237\265\224\271\247"
 376      84916999 
 376      4FB3329F 
 376      B594B9A7 
 377 0ca9 BBE7CEC1 		.ascii	"\273\347\316\301\031\374KVb\323\311:\215xF\003W\031"
 377      19FC4B56 
 377      62D3C93A 
 377      8D784603 
 377      5719
 378 0cbb 735199DF 		.ascii	"sQ\231\337\221\230\223\365~[\2113'\353mj\253\246\252"
 378      919893F5 
 378      7E5B8933 
 378      27EB6D6A 
 378      ABA6AA
 379 0cce 43B8876C 		.ascii	"C\270\207l,\343s\016\244\014QU\035R\015\252\352gUu\331"
 379      2CE3730E 
 379      A40C5155 
 379      1D520DAA 
 379      EA675575 
 380 0ce3 52550BB7 		.ascii	"RU\013\267\366\377O\226\0036\2279q\300\257Y\012\327"
 380      F6FF4F96 
 380      03369739 
 380      71C0AF59 
 380      0AD7
 381 0cf5 6D5C7CB7 		.ascii	"m\\|\267/\213\302\\G\024n\260\024nz\262\316\261\367"
 381      2F8BC25C 
 381      47146EB0 
 381      146E7AB2 
ARM GAS  /tmp/ccYyUiVf.s 			page 30


 381      CEB1F7
 382 0d08 EE4D75FE 		.ascii	"\356Mu\376e!\337\234R[\300\332\003\2741\263\031V\350"
 382      6521DF9C 
 382      525BC0DA 
 382      03BC31B3 
 382      1956E8
 383 0d1b 1374C515 		.ascii	"\023t\305\025\343H\233\374\307\364\022\371\006\257\333"
 383      E3489BFC 
 383      C7F412F9 
 383      06AFDB
 384 0d2a FC37DD6B 		.ascii	"\3747\335k\235\377\214\263\\\246\027\250\242\275\214"
 384      9DFF8CB3 
 384      5CA617A8 
 384      A2BD8C
 385 0d39 7937C630 		.ascii	"y7\3060\001K\3012}\302\206\205\270\256\326\336\263\327"
 385      014BC132 
 385      7DC28685 
 385      B8AED6DE 
 385      B3D7
 386 0d4b EE30F8F8 		.ascii	"\3560\370\370c&\037/\342f\342\327\2403\324z\376\331"
 386      63261F2F 
 386      E266E2D7 
 386      A033D47A 
 386      FED9
 387 0d5d F4346BF3 		.ascii	"\3644k\363\205\266\3107{\213\200Lo\231y\201a`\227t\320"
 387      85B6C837 
 387      7B8B804C 
 387      6F997981 
 387      61609774 
 388 0d72 85D2DA7A 		.ascii	"\205\322\332z+\263\276\310\322\304Lo\376w\036}e\226"
 388      2BB3BEC8 
 388      D2C44C6F 
 388      FE771E7D 
 388      6596
 389 0d84 B1D3C1C6 		.ascii	"\261\323\301\306N\2237g\354\244_\311\035\372\224\204"
 389      4E933767 
 389      ECA45FC9 
 389      1DFA9484 
 390 0d94 80C6A269 		.ascii	"\200\306\242i\224Iv\312\340,\257u\362\350\275s\263}"
 390      944976CA 
 390      E02CAF75 
 390      F2E8BD73 
 390      B37D
 391 0da6 F2C8F596 		.ascii	"\362\310\365\226\247\205\225\370\220'K\342\313\326\022"
 391      A78595F8 
 391      90274BE2 
 391      CBD612
 392 0db5 5F23126B 		.ascii	"_#\022k\335\277\322\316\015l%6\006}\203z\361\344\204"
 392      DDBFD2CE 
 392      0D6C2536 
 392      067D837A 
 392      F1E484
 393 0dc8 27322F21 		.ascii	"'2/!\355FQ\006\333\314\0223\263jo\216Yu\236\227\235"
 393      ED465106 
 393      DBCC1233 
 393      B36A6F8E 
 393      59759E97 
ARM GAS  /tmp/ccYyUiVf.s 			page 31


 394 0ddd 55C1017F 		.ascii	"U\301\001\177`L\262\372;\250\231C,\005\334\314\232t"
 394      604CB2FA 
 394      3BA89943 
 394      2C05DCCC 
 394      9A74
 395 0def 7E6E93D2 		.ascii	"~n\223\322\027\215G\331\027\215\366\303\314/\032M\311"
 395      178D47D9 
 395      178DF6C3 
 395      CC2F1A4D 
 395      C9
 396 0e00 900C3239 		.ascii	"\220\01429\364\002\257U\"\351[\263(o\"\251\321\211\226"
 396      F402AF55 
 396      22E95BB3 
 396      286F22A9 
 396      D18996
 397 0e13 E1489B44 		.ascii	"\341H\233D\302\364\022\371\245\256\023\3112\233DRj\022"
 397      C2F412F9 
 397      A5AE13C9 
 397      329B4452 
 397      6A12
 398 0e25 44EF05CD 		.ascii	"D\357\005\315F/\363\"\226aB\340\346\0151&\022\356\357"
 398      462FF322 
 398      966142E0 
 398      E60D3126 
 398      12EEEF
 399 0e38 2B6A1372 		.ascii	"+j\023rEB\016V\004kB\223B\261D\005\374\223\025\372$"
 399      45420E56 
 399      046B4293 
 399      42B14405 
 399      FC9315FA 
 400 0e4d 92A87E20 		.ascii	"\222\250~ \310\375\334\246O<&+\211\212\307\236zr\334"
 400      C8FDDCA6 
 400      4F3C262B 
 400      898AC79E 
 400      7A72DC
 401 0e60 93532B82 		.ascii	"\223S+\202\261H<\024\226\344D\305\343\343\306AGeZ\\"
 401      B1483C14 
 401      96E444C5 
 401      E3E3C641 
 401      47655A5C 
 402 0e74 4A3C50C3 		.ascii	"J<P\303\025\000F@)|\374?\236.\037\307\335\203H\241h"
 402      15004640 
 402      297CFC3F 
 402      9E2E1FC7 
 402      DD8348A1 
 403 0e89 305C5B29 		.ascii	"0\\[)UD\245\272phREbZ\242\"\220P*CQ\005\372\373\340"
 403      5544A5BA 
 403      70685245 
 403      625AA222 
 403      90502A43 
 404 0ea2 F6D37F0A 		.ascii	"\366\323\177\012(?\261\352\032\021\201\203\250T\021"
 404      283FB1EA 
 404      1A118183 
 404      A85411
 405 0eb1 A894AAC4 		.ascii	"\250\224\252\304\332\260\022\320\251\370\003\001:\356"
 405      DAB012D0 
 405      A9F80301 
ARM GAS  /tmp/ccYyUiVf.s 			page 32


 405      3AEE
 406 0ebf 7E1B6675 		.ascii	"~\033fu\244`\015\320\323\207\025)5\262$V\006\024\177"
 406      A4600DD0 
 406      D3871529 
 406      35B22456 
 406      06147F
 407 0ed2 B026A0B5 		.ascii	"\260&\240\265\357\315?>XS\011c\013\343\201\2504U\201"
 407      EFCD3F3E 
 407      58530963 
 407      0BE381A8 
 407      345581
 408 0ee5 5B5C96A6 		.ascii	"[\\\226\246\370\224\270\034\212\005\224\242Z\312Gq "
 408      F894B81C 
 408      8A0594A2 
 408      5ACA4771 
 408      20
 409 0ef6 A037B14B 		.ascii	"\2407\261K(\346\013\306\242\012\214\370\211#u\326\004"
 409      28E60BC6 
 409      A20A8CF8 
 409      892375D6 
 409      04
 410 0f07 63B20464 		.ascii	"c\262\004dJ\310c\"\\P\231\372\240\363\221\201)\217D"
 410      4AC86322 
 410      5C5099FA 
 410      A0F39181 
 410      298F44
 411 0f1a 8880B254 		.ascii	"\210\200\262T-\312\221\200\"\310\243\005\371!A~X\220"
 411      2DCA9180 
 411      22C8A305 
 411      F921417E 
 411      5890
 412 0f2c 1F11E431 		.ascii	"\037\021\3441\202\3743\217\374\340((\017\012a\031n?"
 412      82FC338F 
 412      FCE02828 
 412      0F0A6119 
 412      6E3F
 413 0f3e 2D880780 		.ascii	"-\210\007\200\202\217\010U'\311p\217\205+%\331\033\254"
 413      828F0855 
 413      27C9708F 
 413      852B25D9 
 413      1BAC
 414 0f50 116522A9 		.ascii	"\021e\"\251\030\221\212\224\204\"*R@\361\021\301\306"
 414      18918A94 
 414      84222A52 
 414      40F111C1 
 414      C6
 415 0f61 80D23411 		.ascii	"\200\3224\021\241\005\335\3617\237\022\211UJ\370wUX"
 415      A105DDF1 
 415      379F1289 
 415      554AF877 
 415      5558
 416 0f73 AC4EF814 		.ascii	"\254N\370\024Y\252J\240\006H\243P\256\234\006\356P$"
 416      59AA4AA0 
 416      0648A350 
 416      AE9C06EE 
 416      5024
 417 0f85 4D0D2941 		.ascii	"M\015)A\350XX\247\304&\375:~;\265\002t\221d)\032\004"
ARM GAS  /tmp/ccYyUiVf.s 			page 33


 417      E85858A7 
 417      C426FD3A 
 417      7E3BB502 
 417      74916429 
 418 0f9b 80823A45 		.ascii	"\200\202:E\221"
 418      91
 419 0fa0 E3A56095 		.ascii	"\343\245`\225\204\024\021\3435 \321?\3447\214DD\036"
 419      841411E3 
 419      3520D13F 
 419      E4378C44 
 419      441E
 420 0fb2 AAA12502 		.ascii	"\252\241%\002\317\326J\265\0005,mZ\372\310G\357\005"
 420      CFD64AB5 
 420      00352C6D 
 420      5AFAC847 
 420      EF05
 421 0fc4 C1283850 		.ascii	"\301(8PA\"\000w\340\004F\307\213\240o\244\026\214\224"
 421      41220077 
 421      E00446C7 
 421      8BA06FA4 
 421      168C94
 422 0fd7 9F584499 		.ascii	"\237XD\231J\2745B1#\201X]\024\364\206\243A\340\210\346"
 422      4ABC3542 
 422      31238158 
 422      5D14F486 
 422      A341E088 
 423 0fec 1C750AF4 		.ascii	"\034u\012\364\213\227HS\244\250\022\021\023\223\341"
 423      8B974853 
 423      A4A81211 
 423      1393E1
 424 0ffb 17A98E34 		.ascii	"\027\251\2164<"
 424      3C
 425 1000 F140ED10 		.ascii	"\361@\355\020\235\255p(\001\234\01450J\236\370\343\201"
 425      9DAD7028 
 425      019C0C35 
 425      304A9EF8 
 425      E381
 426 1012 3A31A484 		.ascii	":1\244\204\242\325\305\361\000\250Mc\032\233\360@\212"
 426      A2D5C5F1 
 426      00A84D63 
 426      1A9BF040 
 426      8A
 427 1023 4B510899 		.ascii	"KQ\010\231j\350\005$H\377b\242d1\214\256\006\017\343"
 427      6AE80524 
 427      48FF62A2 
 427      64318CAE 
 427      060FE3
 428 1036 B15818DC 		.ascii	"\261X\030\334\372\311D\365D\350)(q\017\014\324\036<"
 428      FAC944F5 
 428      44E82928 
 428      710F0CD4 
 428      1E3C
 429 1048 03B0A5D8 		.ascii	"\003\260\245\330zJ\012KbB*\013\326L\014\326<\036\233"
 429      7A4A0A4B 
 429      62422A0B 
 429      D64C0CD6 
 429      3C1E9B
ARM GAS  /tmp/ccYyUiVf.s 			page 34


 430 105b 1896A4F8 		.ascii	"\030\226\244\370\304\022\374\353)`d\332\370Rl?#N\226"
 430      C412FCEB 
 430      296064DA 
 430      F8526C3F 
 430      234E96
 431 106e 6AF18700 		.ascii	"j\361\207\000\211\036)\242E\214\326.%,O\243B\000R \363"
 431      891E29A2 
 431      458CD62E 
 431      252C4FA3 
 431      42005220 
 432 1083 B74FD6D4 		.ascii	"\267O\326\324S(c\004\024\310\350c2\3651Y\3631?<\255"
 432      53286304 
 432      14C8E863 
 432      32F53159 
 432      F3313F3C 
 433 1098 95C1F04A 		.ascii	"\225\301\360J\201L\006\015\237\022\222\225Z1\034PB\021"
 433      814C060D 
 433      9F129295 
 433      5A311C50 
 433      4211
 434 10aa C8271478 		.ascii	"\310'\024x\004\000[\3740\324\364L\263\266\351\221o\212"
 434      04005BFC 
 434      30D4F44C 
 434      B3B6E991 
 434      6F8A
 435 10bc 82A62077 		.ascii	"\202\246 w\022\250~\3024\374\000\241\012O*\245\260\""
 435      12A87EC2 
 435      34FC00A1 
 435      0A4F2AA5 
 435      B022
 436 10ce 42A3AA36 		.ascii	"B\243\2526\032\014`\037\322*$}E\271\004na1\241\220\356"
 436      1A0C601F 
 436      D22A247D 
 436      45B9046E 
 436      6131A190 
 437 10e3 F088901B 		.ascii	"\360\210\220\033B\305\257\224&\325Vk&3>\361\307\305"
 437      42C5AF94 
 437      26D5566B 
 437      26333EF1 
 437      C7C5
 438 10f5 6828482C 		.ascii	"h(H,\344\251\234T]\034\021!<\320\242?\316\353O\012\361"
 438      E4A99C54 
 438      5D1C1121 
 438      3CD0A23F 
 438      CEEB4F0A 
 439 110a DD614A24 		.ascii	"\335aJ$\020\024!\323\311\242\022\212E\201#YA/-\214U"
 439      101421D3 
 439      C9A2128A 
 439      45812359 
 439      412F2D8C 
 440 111f 55252445 		.ascii	"U%$EP\"\305\011e2\364\250\216\322\\\363\360\350t\256"
 440      5022C509 
 440      6532F4A8 
 440      8ED25CF3 
 440      F0E874AE 
 441 1133 21CD21A1 		.ascii	"!\315!\241\312\260D\335\010\334G\010\3268\210\233i\230"
 441      CAB044DD 
ARM GAS  /tmp/ccYyUiVf.s 			page 35


 441      08DC4708 
 441      D638889B 
 441      6998
 442 1145 42C1D2D3 		.ascii	"B\301\322\323\022\377\036\013N\366c\312\011Ck\264\325"
 442      12FF1E0B 
 442      4EF663CA 
 442      09436BB4 
 442      D5
 443 1156 585066C5 		.ascii	"XPf\305\270''\216\237\230\201 \011'\030\3717P\035\000"
 443      B827278E 
 443      9F988120 
 443      092718F9 
 443      37501D00 
 444 116a 95052068 		.ascii	"\225\005 h\225\300/\037\233\370\257\023\236\032_&\206"
 444      95C02F1F 
 444      9BF8AF13 
 444      9E1A5F26 
 444      86
 445 117b EBC46909 		.ascii	"\353\304i\011\310`a\310\334\005S\304p\255T\252\205f"
 445      C86061C8 
 445      DC0553C4 
 445      70AD54AA 
 445      8566
 446 118d 289A9064 		.ascii	"(\232\220d\305\243<\033/A\332OG\011M-\341\325b\273("
 446      C5A33C1B 
 446      2F41DA4F 
 446      47094D2D 
 446      E1D562BB 
 447 11a2 80F60804 		.ascii	"\200\366\010\004\312\364\306\003\017\217\376\331C\016"
 447      CAF4C603 
 447      0F8FFED9 
 447      430E
 448 11b0 A213262E 		.ascii	"\242\023&.\230{\002\277\204 \030\212\236>>1A\013\230"
 448      987B02BF 
 448      8420188A 
 448      9E3E3E31 
 448      410B98
 449 11c3 F1B769D4 		.ascii	"\361\267i\324\253BU1p\325Hl\012q\377L,L4\320zh\324\350"
 449      AB425531 
 449      70D5486C 
 449      0A71FF4C 
 449      2C4C34D0 
 450 11db FF07D788 		.ascii	"\377\007\327\210\357P"
 450      EF50
 451              		.text
 452              		.section	.gnu.lto_.symtab.4ba432de7a33ecbb,"",%progbits
 453 0000 63684D73 		.ascii	"chMsgSend\000\000\000\000\000\000\000\000\000\000\000"
 453      6753656E 
 453      64000000 
 453      00000000 
 453      00000000 
 454 0014 00A10000 		.ascii	"\000\241\000\000\000chMsgWait\000\000\000\000\000\000"
 454      0063684D 
 454      73675761 
 454      69740000 
 454      00000000 
 455 0028 00000000 		.ascii	"\000\000\000\000\000\000Z\001\000\000chMsgRelease\000"
ARM GAS  /tmp/ccYyUiVf.s 			page 36


 455      00005A01 
 455      00006368 
 455      4D736752 
 455      656C6561 
 456 003f 00000000 		.ascii	"\000\000\000\000\000\000\000\000\000\000\000^\001\000"
 456      00000000 
 456      0000005E 
 456      0100
 457 004d 00636800 		.ascii	"\000ch\000\000\002\000\000\000\000\000\000\000\000\000"
 457      00020000 
 457      00000000 
 457      000000
 458 005c 70010000 		.ascii	"p\001\000\000chSchGoSleepS\000\000\002\000\000\000\000"
 458      63685363 
 458      68476F53 
 458      6C656570 
 458      53000002 
 459 0074 00000000 		.ascii	"\000\000\000\000\000f\001\000\000chSchReadyI\000\000"
 459      00660100 
 459      00636853 
 459      63685265 
 459      61647949 
 460 008a 02000000 		.ascii	"\002\000\000\000\000\000\000\000\000\000j\001\000\000"
 460      00000000 
 460      00006A01 
 460      0000
 461 0098 63685363 		.ascii	"chSchWakeupS\000\000\002\000\000\000\000\000\000\000"
 461      6857616B 
 461      65757053 
 461      00000200 
 461      00000000 
 462 00ae 00006E01 		.ascii	"\000\000n\001\000\000"
 462      0000
 463              		.text
 464              		.section	.gnu.lto_.opts,"",%progbits
 465 0000 272D6D63 		.ascii	"'-mcpu=cortex-m4' '-mno-thumb-interwork' '-mthumb' "
 465      70753D63 
 465      6F727465 
 465      782D6D34 
 465      2720272D 
 466 0033 272D6767 		.ascii	"'-ggdb' '-O2' '-fomit-frame-pointer' '-falign-funct"
 466      64622720 
 466      272D4F32 
 466      2720272D 
 466      666F6D69 
 467 0066 696F6E73 		.ascii	"ions=16' '-ffunction-sections' '-fdata-sections' '-"
 467      3D313627 
 467      20272D66 
 467      66756E63 
 467      74696F6E 
 468 0099 666E6F2D 		.ascii	"fno-common' '-flto'\000"
 468      636F6D6D 
 468      6F6E2720 
 468      272D666C 
 468      746F2700 
 469              		.text
 470              		.cfi_sections	.debug_frame
ARM GAS  /tmp/ccYyUiVf.s 			page 37


 471              		.section	.text.chMsgSend,"ax",%progbits
 472              		.align	2
 473              		.p2align 4,,15
 474              		.global	chMsgSend
 475              		.thumb
 476              		.thumb_func
 477              		.type	chMsgSend, %function
 478              	chMsgSend:
 479              	.LFB229:
 480              		.file 1 "/usr/src/chibios/os/rt/src/chmsg.c"
 481              		.loc 1 87 0
 482              		.cfi_startproc
 483              		@ args = 0, pretend = 0, frame = 0
 484              		@ frame_needed = 0, uses_anonymous_args = 0
 485              	.LVL0:
 486              		.loc 1 88 0
 487 0000 0E4B     		ldr	r3, .L5
 488              		.loc 1 87 0
 489 0002 70B5     		push	{r4, r5, r6, lr}
 490              		.cfi_def_cfa_offset 16
 491              		.cfi_offset 4, -16
 492              		.cfi_offset 5, -12
 493              		.cfi_offset 6, -8
 494              		.cfi_offset 14, -4
 495              	.LBB52:
 496              	.LBB53:
 497              	.LBB54:
 498              	.LBB55:
 499              		.file 2 "/usr/src/chibios/os/ext/CMSIS/include/core_cmFunc.h"
 500              		.loc 2 546 0
 501 0004 2022     		movs	r2, #32
 502              	.LBE55:
 503              	.LBE54:
 504              	.LBE53:
 505              	.LBE52:
 506              		.loc 1 88 0
 507 0006 9C69     		ldr	r4, [r3, #24]
 508              	.LVL1:
 509              	.LBB59:
 510              	.LBB58:
 511              	.LBB57:
 512              	.LBB56:
 513              		.loc 2 546 0
 514              	@ 546 "/usr/src/chibios/os/ext/CMSIS/include/core_cmFunc.h" 1
 515 0008 82F31188 		MSR basepri, r2
 516              	@ 0 "" 2
 517              		.thumb
 518              	.LBE56:
 519              	.LBE57:
 520              	.LBE58:
 521              	.LBE59:
 522              		.loc 1 94 0
 523 000c 00F12805 		add	r5, r0, #40
 524              		.loc 1 96 0
 525 0010 067F     		ldrb	r6, [r0, #28]	@ zero_extendqisi2
 526              		.loc 1 94 0
 527 0012 2562     		str	r5, [r4, #32]
ARM GAS  /tmp/ccYyUiVf.s 			page 38


 528              	.LVL2:
 529              	.LBB60:
 530              	.LBB61:
 531              		.file 3 "/usr/src/chibios/os/rt/include/chschd.h"
 532              		.loc 3 666 0
 533 0014 C26A     		ldr	r2, [r0, #44]
 534 0016 6260     		str	r2, [r4, #4]
 535              	.LBE61:
 536              	.LBE60:
 537              		.loc 1 96 0
 538 0018 0E2E     		cmp	r6, #14
 539              		.loc 1 93 0
 540 001a 2163     		str	r1, [r4, #48]
 541              	.LBB63:
 542              	.LBB62:
 543              		.loc 3 665 0
 544 001c 2560     		str	r5, [r4]
 545              		.loc 3 667 0
 546 001e 1460     		str	r4, [r2]
 547              		.loc 3 668 0
 548 0020 C462     		str	r4, [r0, #44]
 549              	.LBE62:
 550              	.LBE63:
 551              		.loc 1 96 0
 552 0022 07D0     		beq	.L4
 553              	.LVL3:
 554              	.L2:
 555              		.loc 1 99 0
 556 0024 0C20     		movs	r0, #12
 557 0026 FFF7FEFF 		bl	chSchGoSleepS
 558              	.LVL4:
 559              		.loc 1 100 0
 560 002a 206A     		ldr	r0, [r4, #32]
 561              	.LVL5:
 562              	.LBB64:
 563              	.LBB65:
 564              	.LBB66:
 565              	.LBB67:
 566              	.LBB68:
 567              		.loc 2 546 0
 568 002c 0023     		movs	r3, #0
 569              	@ 546 "/usr/src/chibios/os/ext/CMSIS/include/core_cmFunc.h" 1
 570 002e 83F31188 		MSR basepri, r3
 571              	@ 0 "" 2
 572              		.thumb
 573              	.LBE68:
 574              	.LBE67:
 575              	.LBE66:
 576              	.LBE65:
 577              	.LBE64:
 578              		.loc 1 104 0
 579 0032 70BD     		pop	{r4, r5, r6, pc}
 580              	.LVL6:
 581              	.L4:
 582              		.loc 1 97 0
 583 0034 FFF7FEFF 		bl	chSchReadyI
 584              	.LVL7:
ARM GAS  /tmp/ccYyUiVf.s 			page 39


 585 0038 F4E7     		b	.L2
 586              	.L6:
 587 003a 00BF     		.align	2
 588              	.L5:
 589 003c 00000000 		.word	ch
 590              		.cfi_endproc
 591              	.LFE229:
 592              		.size	chMsgSend, .-chMsgSend
 593              		.section	.text.chMsgWait,"ax",%progbits
 594              		.align	2
 595              		.p2align 4,,15
 596              		.global	chMsgWait
 597              		.thumb
 598              		.thumb_func
 599              		.type	chMsgWait, %function
 600              	chMsgWait:
 601              	.LFB230:
 602              		.loc 1 120 0
 603              		.cfi_startproc
 604              		@ args = 0, pretend = 0, frame = 0
 605              		@ frame_needed = 0, uses_anonymous_args = 0
 606              	.LVL8:
 607 0000 10B5     		push	{r4, lr}
 608              		.cfi_def_cfa_offset 8
 609              		.cfi_offset 4, -8
 610              		.cfi_offset 14, -4
 611              	.LBB69:
 612              	.LBB70:
 613              	.LBB71:
 614              	.LBB72:
 615              		.loc 2 546 0
 616 0002 2023     		movs	r3, #32
 617              	@ 546 "/usr/src/chibios/os/ext/CMSIS/include/core_cmFunc.h" 1
 618 0004 83F31188 		MSR basepri, r3
 619              	@ 0 "" 2
 620              		.thumb
 621              	.LBE72:
 622              	.LBE71:
 623              	.LBE70:
 624              	.LBE69:
 625              		.loc 1 124 0
 626 0008 0B4C     		ldr	r4, .L10
 627 000a A269     		ldr	r2, [r4, #24]
 628              	.LVL9:
 629              	.LBB73:
 630              	.LBB74:
 631              		.file 4 "/usr/src/chibios/os/rt/include/chmsg.h"
 632              		.loc 4 83 0
 633 000c 1346     		mov	r3, r2
 634 000e 53F8280F 		ldr	r0, [r3, #40]!
 635              	.LBE74:
 636              	.LBE73:
 637              		.loc 1 124 0
 638 0012 9842     		cmp	r0, r3
 639 0014 08D0     		beq	.L9
 640              	.LVL10:
 641              	.L8:
ARM GAS  /tmp/ccYyUiVf.s 			page 40


 642              	.LBB75:
 643              	.LBB76:
 644              		.loc 3 674 0
 645 0016 0168     		ldr	r1, [r0]
 646 0018 9162     		str	r1, [r2, #40]
 647              	.LBE76:
 648              	.LBE75:
 649              		.loc 1 128 0
 650 001a 0D22     		movs	r2, #13
 651              	.LBB78:
 652              	.LBB77:
 653              		.loc 3 675 0
 654 001c 4B60     		str	r3, [r1, #4]
 655              	.LBE77:
 656              	.LBE78:
 657              	.LBB79:
 658              	.LBB80:
 659              	.LBB81:
 660              	.LBB82:
 661              	.LBB83:
 662              		.loc 2 546 0
 663 001e 0023     		movs	r3, #0
 664              	.LVL11:
 665              	.LBE83:
 666              	.LBE82:
 667              	.LBE81:
 668              	.LBE80:
 669              	.LBE79:
 670              		.loc 1 128 0
 671 0020 0277     		strb	r2, [r0, #28]
 672              	.LVL12:
 673              	.LBB88:
 674              	.LBB87:
 675              	.LBB86:
 676              	.LBB85:
 677              	.LBB84:
 678              		.loc 2 546 0
 679              	@ 546 "/usr/src/chibios/os/ext/CMSIS/include/core_cmFunc.h" 1
 680 0022 83F31188 		MSR basepri, r3
 681              	@ 0 "" 2
 682              		.thumb
 683              	.LBE84:
 684              	.LBE85:
 685              	.LBE86:
 686              	.LBE87:
 687              	.LBE88:
 688              		.loc 1 132 0
 689 0026 10BD     		pop	{r4, pc}
 690              	.LVL13:
 691              	.L9:
 692              		.loc 1 125 0
 693 0028 0E20     		movs	r0, #14
 694 002a FFF7FEFF 		bl	chSchGoSleepS
 695              	.LVL14:
 696 002e A269     		ldr	r2, [r4, #24]
 697 0030 906A     		ldr	r0, [r2, #40]
 698 0032 02F12803 		add	r3, r2, #40
ARM GAS  /tmp/ccYyUiVf.s 			page 41


 699 0036 EEE7     		b	.L8
 700              	.L11:
 701              		.align	2
 702              	.L10:
 703 0038 00000000 		.word	ch
 704              		.cfi_endproc
 705              	.LFE230:
 706              		.size	chMsgWait, .-chMsgWait
 707              		.section	.text.chMsgRelease,"ax",%progbits
 708              		.align	2
 709              		.p2align 4,,15
 710              		.global	chMsgRelease
 711              		.thumb
 712              		.thumb_func
 713              		.type	chMsgRelease, %function
 714              	chMsgRelease:
 715              	.LFB231:
 716              		.loc 1 144 0
 717              		.cfi_startproc
 718              		@ args = 0, pretend = 0, frame = 0
 719              		@ frame_needed = 0, uses_anonymous_args = 0
 720              	.LVL15:
 721 0000 08B5     		push	{r3, lr}
 722              		.cfi_def_cfa_offset 8
 723              		.cfi_offset 3, -8
 724              		.cfi_offset 14, -4
 725              	.LBB89:
 726              	.LBB90:
 727              	.LBB91:
 728              	.LBB92:
 729              		.loc 2 546 0
 730 0002 2023     		movs	r3, #32
 731              	@ 546 "/usr/src/chibios/os/ext/CMSIS/include/core_cmFunc.h" 1
 732 0004 83F31188 		MSR basepri, r3
 733              	@ 0 "" 2
 734              	.LVL16:
 735              		.thumb
 736              	.LBE92:
 737              	.LBE91:
 738              	.LBE90:
 739              	.LBE89:
 740              	.LBB93:
 741              	.LBB94:
 742              		.loc 4 115 0
 743 0008 FFF7FEFF 		bl	chSchWakeupS
 744              	.LVL17:
 745              	.LBE94:
 746              	.LBE93:
 747              	.LBB95:
 748              	.LBB96:
 749              	.LBB97:
 750              	.LBB98:
 751              	.LBB99:
 752              		.loc 2 546 0
 753 000c 0023     		movs	r3, #0
 754              	@ 546 "/usr/src/chibios/os/ext/CMSIS/include/core_cmFunc.h" 1
 755 000e 83F31188 		MSR basepri, r3
ARM GAS  /tmp/ccYyUiVf.s 			page 42


 756              	@ 0 "" 2
 757              		.thumb
 758 0012 08BD     		pop	{r3, pc}
 759              	.LBE99:
 760              	.LBE98:
 761              	.LBE97:
 762              	.LBE96:
 763              	.LBE95:
 764              		.cfi_endproc
 765              	.LFE231:
 766              		.size	chMsgRelease, .-chMsgRelease
 767              		.text
 768              	.Letext0:
 769              		.file 5 "/usr/include/newlib/machine/_default_types.h"
 770              		.file 6 "/usr/include/newlib/sys/_stdint.h"
 771              		.file 7 "/usr/src/chibios/os/rt/ports/ARMCMx/compilers/GCC/chtypes.h"
 772              		.file 8 "/usr/src/chibios/os/rt/include/chsystypes.h"
 773              		.file 9 "/usr/src/chibios/os/rt/ports/ARMCMx/chcore.h"
 774              		.file 10 "/usr/src/chibios/os/rt/ports/ARMCMx/chcore_v7m.h"
 775              		.file 11 "/usr/src/chibios/os/rt/include/chtm.h"
 776              		.file 12 "/usr/src/chibios/os/rt/include/chsem.h"
 777              		.file 13 "/usr/src/chibios/os/rt/include/chmtx.h"
 778              		.file 14 "/usr/src/chibios/os/rt/include/chsys.h"
 779              		.file 15 "/usr/src/chibios/os/ext/CMSIS/include/core_cm4.h"
 780              		.section	.debug_info,"",%progbits
 781              	.Ldebug_info0:
 782 0000 A10A0000 		.4byte	0xaa1
 783 0004 0400     		.2byte	0x4
 784 0006 00000000 		.4byte	.Ldebug_abbrev0
 785 000a 04       		.byte	0x4
 786 000b 01       		.uleb128 0x1
 787 000c 7A020000 		.4byte	.LASF118
 788 0010 01       		.byte	0x1
 789 0011 D0010000 		.4byte	.LASF119
 790 0015 60000000 		.4byte	.Ldebug_ranges0+0x60
 791 0019 00000000 		.4byte	0
 792 001d 00000000 		.4byte	.Ldebug_line0
 793 0021 02       		.uleb128 0x2
 794 0022 04       		.byte	0x4
 795 0023 05       		.byte	0x5
 796 0024 696E7400 		.ascii	"int\000"
 797 0028 03       		.uleb128 0x3
 798 0029 04       		.byte	0x4
 799 002a 07       		.byte	0x7
 800 002b 92010000 		.4byte	.LASF0
 801 002f 03       		.uleb128 0x3
 802 0030 01       		.byte	0x1
 803 0031 06       		.byte	0x6
 804 0032 E1000000 		.4byte	.LASF1
 805 0036 04       		.uleb128 0x4
 806 0037 30000000 		.4byte	.LASF5
 807 003b 05       		.byte	0x5
 808 003c 1D       		.byte	0x1d
 809 003d 41000000 		.4byte	0x41
 810 0041 03       		.uleb128 0x3
 811 0042 01       		.byte	0x1
 812 0043 08       		.byte	0x8
ARM GAS  /tmp/ccYyUiVf.s 			page 43


 813 0044 01040000 		.4byte	.LASF2
 814 0048 03       		.uleb128 0x3
 815 0049 02       		.byte	0x2
 816 004a 05       		.byte	0x5
 817 004b 19040000 		.4byte	.LASF3
 818 004f 03       		.uleb128 0x3
 819 0050 02       		.byte	0x2
 820 0051 07       		.byte	0x7
 821 0052 F9010000 		.4byte	.LASF4
 822 0056 04       		.uleb128 0x4
 823 0057 65020000 		.4byte	.LASF6
 824 005b 05       		.byte	0x5
 825 005c 3F       		.byte	0x3f
 826 005d 61000000 		.4byte	0x61
 827 0061 03       		.uleb128 0x3
 828 0062 04       		.byte	0x4
 829 0063 05       		.byte	0x5
 830 0064 1A010000 		.4byte	.LASF7
 831 0068 04       		.uleb128 0x4
 832 0069 1A050000 		.4byte	.LASF8
 833 006d 05       		.byte	0x5
 834 006e 41       		.byte	0x41
 835 006f 73000000 		.4byte	0x73
 836 0073 03       		.uleb128 0x3
 837 0074 04       		.byte	0x4
 838 0075 07       		.byte	0x7
 839 0076 CA040000 		.4byte	.LASF9
 840 007a 03       		.uleb128 0x3
 841 007b 08       		.byte	0x8
 842 007c 05       		.byte	0x5
 843 007d D3000000 		.4byte	.LASF10
 844 0081 04       		.uleb128 0x4
 845 0082 B1030000 		.4byte	.LASF11
 846 0086 05       		.byte	0x5
 847 0087 5B       		.byte	0x5b
 848 0088 8C000000 		.4byte	0x8c
 849 008c 03       		.uleb128 0x3
 850 008d 08       		.byte	0x8
 851 008e 07       		.byte	0x7
 852 008f 6D000000 		.4byte	.LASF12
 853 0093 04       		.uleb128 0x4
 854 0094 8B050000 		.4byte	.LASF13
 855 0098 06       		.byte	0x6
 856 0099 14       		.byte	0x14
 857 009a 36000000 		.4byte	0x36
 858 009e 04       		.uleb128 0x4
 859 009f F9030000 		.4byte	.LASF14
 860 00a3 06       		.byte	0x6
 861 00a4 1F       		.byte	0x1f
 862 00a5 56000000 		.4byte	0x56
 863 00a9 04       		.uleb128 0x4
 864 00aa 96040000 		.4byte	.LASF15
 865 00ae 06       		.byte	0x6
 866 00af 20       		.byte	0x20
 867 00b0 68000000 		.4byte	0x68
 868 00b4 04       		.uleb128 0x4
 869 00b5 27000000 		.4byte	.LASF16
ARM GAS  /tmp/ccYyUiVf.s 			page 44


 870 00b9 06       		.byte	0x6
 871 00ba 26       		.byte	0x26
 872 00bb 81000000 		.4byte	0x81
 873 00bf 05       		.uleb128 0x5
 874 00c0 9E000000 		.4byte	0x9e
 875 00c4 04       		.uleb128 0x4
 876 00c5 4C050000 		.4byte	.LASF17
 877 00c9 07       		.byte	0x7
 878 00ca 45       		.byte	0x45
 879 00cb A9000000 		.4byte	0xa9
 880 00cf 04       		.uleb128 0x4
 881 00d0 35020000 		.4byte	.LASF18
 882 00d4 07       		.byte	0x7
 883 00d5 48       		.byte	0x48
 884 00d6 93000000 		.4byte	0x93
 885 00da 04       		.uleb128 0x4
 886 00db 2D010000 		.4byte	.LASF19
 887 00df 07       		.byte	0x7
 888 00e0 49       		.byte	0x49
 889 00e1 93000000 		.4byte	0x93
 890 00e5 04       		.uleb128 0x4
 891 00e6 BC030000 		.4byte	.LASF20
 892 00ea 07       		.byte	0x7
 893 00eb 4A       		.byte	0x4a
 894 00ec 93000000 		.4byte	0x93
 895 00f0 04       		.uleb128 0x4
 896 00f1 DB030000 		.4byte	.LASF21
 897 00f5 07       		.byte	0x7
 898 00f6 4C       		.byte	0x4c
 899 00f7 A9000000 		.4byte	0xa9
 900 00fb 04       		.uleb128 0x4
 901 00fc 23020000 		.4byte	.LASF22
 902 0100 07       		.byte	0x7
 903 0101 4D       		.byte	0x4d
 904 0102 9E000000 		.4byte	0x9e
 905 0106 04       		.uleb128 0x4
 906 0107 4B020000 		.4byte	.LASF23
 907 010b 07       		.byte	0x7
 908 010c 4F       		.byte	0x4f
 909 010d A9000000 		.4byte	0xa9
 910 0111 04       		.uleb128 0x4
 911 0112 8C010000 		.4byte	.LASF24
 912 0116 07       		.byte	0x7
 913 0117 51       		.byte	0x51
 914 0118 9E000000 		.4byte	0x9e
 915 011c 04       		.uleb128 0x4
 916 011d FC040000 		.4byte	.LASF25
 917 0121 08       		.byte	0x8
 918 0122 33       		.byte	0x33
 919 0123 A9000000 		.4byte	0xa9
 920 0127 04       		.uleb128 0x4
 921 0128 E1040000 		.4byte	.LASF26
 922 012c 08       		.byte	0x8
 923 012d 3F       		.byte	0x3f
 924 012e 32010000 		.4byte	0x132
 925 0132 06       		.uleb128 0x6
 926 0133 0C020000 		.4byte	.LASF46
ARM GAS  /tmp/ccYyUiVf.s 			page 45


 927 0137 44       		.byte	0x44
 928 0138 03       		.byte	0x3
 929 0139 C2       		.byte	0xc2
 930 013a 1F020000 		.4byte	0x21f
 931 013e 07       		.uleb128 0x7
 932 013f 39040000 		.4byte	.LASF27
 933 0143 03       		.byte	0x3
 934 0144 C3       		.byte	0xc3
 935 0145 2A020000 		.4byte	0x22a
 936 0149 00       		.byte	0
 937 014a 07       		.uleb128 0x7
 938 014b D4030000 		.4byte	.LASF28
 939 014f 03       		.byte	0x3
 940 0150 C5       		.byte	0xc5
 941 0151 2A020000 		.4byte	0x22a
 942 0155 04       		.byte	0x4
 943 0156 07       		.uleb128 0x7
 944 0157 CC000000 		.4byte	.LASF29
 945 015b 03       		.byte	0x3
 946 015c C7       		.byte	0xc7
 947 015d F0000000 		.4byte	0xf0
 948 0161 08       		.byte	0x8
 949 0162 07       		.uleb128 0x7
 950 0163 D8050000 		.4byte	.LASF30
 951 0167 03       		.byte	0x3
 952 0168 C8       		.byte	0xc8
 953 0169 5A040000 		.4byte	0x45a
 954 016d 0C       		.byte	0xc
 955 016e 07       		.uleb128 0x7
 956 016f 46010000 		.4byte	.LASF31
 957 0173 03       		.byte	0x3
 958 0174 CA       		.byte	0xca
 959 0175 2A020000 		.4byte	0x22a
 960 0179 10       		.byte	0x10
 961 017a 07       		.uleb128 0x7
 962 017b 79030000 		.4byte	.LASF32
 963 017f 03       		.byte	0x3
 964 0180 CB       		.byte	0xcb
 965 0181 2A020000 		.4byte	0x22a
 966 0185 14       		.byte	0x14
 967 0186 07       		.uleb128 0x7
 968 0187 9A050000 		.4byte	.LASF33
 969 018b 03       		.byte	0x3
 970 018c D2       		.byte	0xd2
 971 018d D9050000 		.4byte	0x5d9
 972 0191 18       		.byte	0x18
 973 0192 07       		.uleb128 0x7
 974 0193 23040000 		.4byte	.LASF34
 975 0197 03       		.byte	0x3
 976 0198 DD       		.byte	0xdd
 977 0199 DA000000 		.4byte	0xda
 978 019d 1C       		.byte	0x1c
 979 019e 07       		.uleb128 0x7
 980 019f 40040000 		.4byte	.LASF35
 981 01a3 03       		.byte	0x3
 982 01a4 E1       		.byte	0xe1
 983 01a5 CF000000 		.4byte	0xcf
ARM GAS  /tmp/ccYyUiVf.s 			page 46


 984 01a9 1D       		.byte	0x1d
 985 01aa 07       		.uleb128 0x7
 986 01ab 7E050000 		.4byte	.LASF36
 987 01af 03       		.byte	0x3
 988 01b0 E6       		.byte	0xe6
 989 01b1 E5000000 		.4byte	0xe5
 990 01b5 1E       		.byte	0x1e
 991 01b6 08       		.uleb128 0x8
 992 01b7 705F7500 		.ascii	"p_u\000"
 993 01bb 03       		.byte	0x3
 994 01bc 3101     		.2byte	0x131
 995 01be 14050000 		.4byte	0x514
 996 01c2 20       		.byte	0x20
 997 01c3 09       		.uleb128 0x9
 998 01c4 30030000 		.4byte	.LASF37
 999 01c8 03       		.byte	0x3
 1000 01c9 3601     		.2byte	0x136
 1001 01cb 30020000 		.4byte	0x230
 1002 01cf 24       		.byte	0x24
 1003 01d0 09       		.uleb128 0x9
 1004 01d1 C5010000 		.4byte	.LASF38
 1005 01d5 03       		.byte	0x3
 1006 01d6 3C01     		.2byte	0x13c
 1007 01d8 54020000 		.4byte	0x254
 1008 01dc 28       		.byte	0x28
 1009 01dd 09       		.uleb128 0x9
 1010 01de BC050000 		.4byte	.LASF39
 1011 01e2 03       		.byte	0x3
 1012 01e3 4001     		.2byte	0x140
 1013 01e5 FB000000 		.4byte	0xfb
 1014 01e9 30       		.byte	0x30
 1015 01ea 09       		.uleb128 0x9
 1016 01eb 8B040000 		.4byte	.LASF40
 1017 01ef 03       		.byte	0x3
 1018 01f0 4601     		.2byte	0x146
 1019 01f2 06010000 		.4byte	0x106
 1020 01f6 34       		.byte	0x34
 1021 01f7 09       		.uleb128 0x9
 1022 01f8 0F040000 		.4byte	.LASF41
 1023 01fc 03       		.byte	0x3
 1024 01fd 4D01     		.2byte	0x14d
 1025 01ff D3050000 		.4byte	0x5d3
 1026 0203 38       		.byte	0x38
 1027 0204 09       		.uleb128 0x9
 1028 0205 06050000 		.4byte	.LASF42
 1029 0209 03       		.byte	0x3
 1030 020a 5101     		.2byte	0x151
 1031 020c F0000000 		.4byte	0xf0
 1032 0210 3C       		.byte	0x3c
 1033 0211 09       		.uleb128 0x9
 1034 0212 ED000000 		.4byte	.LASF43
 1035 0216 03       		.byte	0x3
 1036 0217 5801     		.2byte	0x158
 1037 0219 07030000 		.4byte	0x307
 1038 021d 40       		.byte	0x40
 1039 021e 00       		.byte	0
 1040 021f 04       		.uleb128 0x4
ARM GAS  /tmp/ccYyUiVf.s 			page 47


 1041 0220 43030000 		.4byte	.LASF44
 1042 0224 08       		.byte	0x8
 1043 0225 44       		.byte	0x44
 1044 0226 2A020000 		.4byte	0x22a
 1045 022a 0A       		.uleb128 0xa
 1046 022b 04       		.byte	0x4
 1047 022c 27010000 		.4byte	0x127
 1048 0230 04       		.uleb128 0x4
 1049 0231 A1050000 		.4byte	.LASF45
 1050 0235 08       		.byte	0x8
 1051 0236 49       		.byte	0x49
 1052 0237 3B020000 		.4byte	0x23b
 1053 023b 06       		.uleb128 0x6
 1054 023c BA040000 		.4byte	.LASF47
 1055 0240 04       		.byte	0x4
 1056 0241 03       		.byte	0x3
 1057 0242 B0       		.byte	0xb0
 1058 0243 54020000 		.4byte	0x254
 1059 0247 07       		.uleb128 0x7
 1060 0248 39040000 		.4byte	.LASF27
 1061 024c 03       		.byte	0x3
 1062 024d B1       		.byte	0xb1
 1063 024e 2A020000 		.4byte	0x22a
 1064 0252 00       		.byte	0
 1065 0253 00       		.byte	0
 1066 0254 04       		.uleb128 0x4
 1067 0255 65050000 		.4byte	.LASF48
 1068 0259 08       		.byte	0x8
 1069 025a 50       		.byte	0x50
 1070 025b 5F020000 		.4byte	0x25f
 1071 025f 06       		.uleb128 0x6
 1072 0260 BB000000 		.4byte	.LASF49
 1073 0264 08       		.byte	0x8
 1074 0265 03       		.byte	0x3
 1075 0266 B7       		.byte	0xb7
 1076 0267 84020000 		.4byte	0x284
 1077 026b 07       		.uleb128 0x7
 1078 026c 39040000 		.4byte	.LASF27
 1079 0270 03       		.byte	0x3
 1080 0271 B8       		.byte	0xb8
 1081 0272 2A020000 		.4byte	0x22a
 1082 0276 00       		.byte	0
 1083 0277 07       		.uleb128 0x7
 1084 0278 D4030000 		.4byte	.LASF28
 1085 027c 03       		.byte	0x3
 1086 027d B9       		.byte	0xb9
 1087 027e 2A020000 		.4byte	0x22a
 1088 0282 04       		.byte	0x4
 1089 0283 00       		.byte	0
 1090 0284 04       		.uleb128 0x4
 1091 0285 00000000 		.4byte	.LASF50
 1092 0289 08       		.byte	0x8
 1093 028a 57       		.byte	0x57
 1094 028b 8F020000 		.4byte	0x28f
 1095 028f 0B       		.uleb128 0xb
 1096 0290 3D020000 		.4byte	.LASF51
 1097 0294 1C       		.byte	0x1c
ARM GAS  /tmp/ccYyUiVf.s 			page 48


 1098 0295 03       		.byte	0x3
 1099 0296 9001     		.2byte	0x190
 1100 0298 EB020000 		.4byte	0x2eb
 1101 029c 09       		.uleb128 0x9
 1102 029d A6040000 		.4byte	.LASF52
 1103 02a1 03       		.byte	0x3
 1104 02a2 9101     		.2byte	0x191
 1105 02a4 54020000 		.4byte	0x254
 1106 02a8 00       		.byte	0
 1107 02a9 09       		.uleb128 0x9
 1108 02aa 2B040000 		.4byte	.LASF53
 1109 02ae 03       		.byte	0x3
 1110 02af 9201     		.2byte	0x192
 1111 02b1 F0000000 		.4byte	0xf0
 1112 02b5 08       		.byte	0x8
 1113 02b6 09       		.uleb128 0x9
 1114 02b7 81030000 		.4byte	.LASF54
 1115 02bb 03       		.byte	0x3
 1116 02bc 9401     		.2byte	0x194
 1117 02be 5A040000 		.4byte	0x45a
 1118 02c2 0C       		.byte	0xc
 1119 02c3 09       		.uleb128 0x9
 1120 02c4 56010000 		.4byte	.LASF55
 1121 02c8 03       		.byte	0x3
 1122 02c9 9701     		.2byte	0x197
 1123 02cb 2A020000 		.4byte	0x22a
 1124 02cf 10       		.byte	0x10
 1125 02d0 09       		.uleb128 0x9
 1126 02d1 A9030000 		.4byte	.LASF56
 1127 02d5 03       		.byte	0x3
 1128 02d6 9801     		.2byte	0x198
 1129 02d8 2A020000 		.4byte	0x22a
 1130 02dc 14       		.byte	0x14
 1131 02dd 09       		.uleb128 0x9
 1132 02de 9F030000 		.4byte	.LASF57
 1133 02e2 03       		.byte	0x3
 1134 02e3 9B01     		.2byte	0x19b
 1135 02e5 2A020000 		.4byte	0x22a
 1136 02e9 18       		.byte	0x18
 1137 02ea 00       		.byte	0
 1138 02eb 04       		.uleb128 0x4
 1139 02ec 11050000 		.4byte	.LASF58
 1140 02f0 08       		.byte	0x8
 1141 02f1 5C       		.byte	0x5c
 1142 02f2 F6020000 		.4byte	0x2f6
 1143 02f6 0A       		.uleb128 0xa
 1144 02f7 04       		.byte	0x4
 1145 02f8 FC020000 		.4byte	0x2fc
 1146 02fc 0C       		.uleb128 0xc
 1147 02fd 07030000 		.4byte	0x307
 1148 0301 0D       		.uleb128 0xd
 1149 0302 07030000 		.4byte	0x307
 1150 0306 00       		.byte	0
 1151 0307 0E       		.uleb128 0xe
 1152 0308 04       		.byte	0x4
 1153 0309 04       		.uleb128 0x4
 1154 030a C4030000 		.4byte	.LASF59
ARM GAS  /tmp/ccYyUiVf.s 			page 49


 1155 030e 08       		.byte	0x8
 1156 030f 61       		.byte	0x61
 1157 0310 14030000 		.4byte	0x314
 1158 0314 0B       		.uleb128 0xb
 1159 0315 52040000 		.4byte	.LASF60
 1160 0319 14       		.byte	0x14
 1161 031a 03       		.byte	0x3
 1162 031b 6B01     		.2byte	0x16b
 1163 031d 63030000 		.4byte	0x363
 1164 0321 09       		.uleb128 0x9
 1165 0322 9F010000 		.4byte	.LASF61
 1166 0326 03       		.byte	0x3
 1167 0327 6C01     		.2byte	0x16c
 1168 0329 EB050000 		.4byte	0x5eb
 1169 032d 00       		.byte	0
 1170 032e 09       		.uleb128 0x9
 1171 032f 67010000 		.4byte	.LASF62
 1172 0333 03       		.byte	0x3
 1173 0334 6D01     		.2byte	0x16d
 1174 0336 EB050000 		.4byte	0x5eb
 1175 033a 04       		.byte	0x4
 1176 033b 09       		.uleb128 0x9
 1177 033c BC010000 		.4byte	.LASF63
 1178 0340 03       		.byte	0x3
 1179 0341 6E01     		.2byte	0x16e
 1180 0343 1C010000 		.4byte	0x11c
 1181 0347 08       		.byte	0x8
 1182 0348 09       		.uleb128 0x9
 1183 0349 DE050000 		.4byte	.LASF64
 1184 034d 03       		.byte	0x3
 1185 034e 6F01     		.2byte	0x16f
 1186 0350 EB020000 		.4byte	0x2eb
 1187 0354 0C       		.byte	0xc
 1188 0355 09       		.uleb128 0x9
 1189 0356 54050000 		.4byte	.LASF65
 1190 035a 03       		.byte	0x3
 1191 035b 7101     		.2byte	0x171
 1192 035d 07030000 		.4byte	0x307
 1193 0361 10       		.byte	0x10
 1194 0362 00       		.byte	0
 1195 0363 04       		.uleb128 0x4
 1196 0364 98000000 		.4byte	.LASF66
 1197 0368 08       		.byte	0x8
 1198 0369 66       		.byte	0x66
 1199 036a 6E030000 		.4byte	0x36e
 1200 036e 0B       		.uleb128 0xb
 1201 036f 56030000 		.4byte	.LASF67
 1202 0373 10       		.byte	0x10
 1203 0374 03       		.byte	0x3
 1204 0375 7B01     		.2byte	0x17b
 1205 0377 B0030000 		.4byte	0x3b0
 1206 037b 09       		.uleb128 0x9
 1207 037c 9F010000 		.4byte	.LASF61
 1208 0380 03       		.byte	0x3
 1209 0381 7C01     		.2byte	0x17c
 1210 0383 EB050000 		.4byte	0x5eb
 1211 0387 00       		.byte	0
ARM GAS  /tmp/ccYyUiVf.s 			page 50


 1212 0388 09       		.uleb128 0x9
 1213 0389 67010000 		.4byte	.LASF62
 1214 038d 03       		.byte	0x3
 1215 038e 7E01     		.2byte	0x17e
 1216 0390 EB050000 		.4byte	0x5eb
 1217 0394 04       		.byte	0x4
 1218 0395 09       		.uleb128 0x9
 1219 0396 BC010000 		.4byte	.LASF63
 1220 039a 03       		.byte	0x3
 1221 039b 8001     		.2byte	0x180
 1222 039d 1C010000 		.4byte	0x11c
 1223 03a1 08       		.byte	0x8
 1224 03a2 09       		.uleb128 0x9
 1225 03a3 6D030000 		.4byte	.LASF68
 1226 03a7 03       		.byte	0x3
 1227 03a8 8801     		.2byte	0x188
 1228 03aa 1C010000 		.4byte	0x11c
 1229 03ae 0C       		.byte	0xc
 1230 03af 00       		.byte	0
 1231 03b0 04       		.uleb128 0x4
 1232 03b1 46000000 		.4byte	.LASF69
 1233 03b5 08       		.byte	0x8
 1234 03b6 6B       		.byte	0x6b
 1235 03b7 BB030000 		.4byte	0x3bb
 1236 03bb 0B       		.uleb128 0xb
 1237 03bc E3030000 		.4byte	.LASF70
 1238 03c0 04       		.byte	0x4
 1239 03c1 03       		.byte	0x3
 1240 03c2 A201     		.2byte	0x1a2
 1241 03c4 D6030000 		.4byte	0x3d6
 1242 03c8 09       		.uleb128 0x9
 1243 03c9 33050000 		.4byte	.LASF71
 1244 03cd 03       		.byte	0x3
 1245 03ce AA01     		.2byte	0x1aa
 1246 03d0 F1050000 		.4byte	0x5f1
 1247 03d4 00       		.byte	0
 1248 03d5 00       		.byte	0
 1249 03d6 04       		.uleb128 0x4
 1250 03d7 29020000 		.4byte	.LASF72
 1251 03db 08       		.byte	0x8
 1252 03dc 70       		.byte	0x70
 1253 03dd E1030000 		.4byte	0x3e1
 1254 03e1 0F       		.uleb128 0xf
 1255 03e2 10010000 		.4byte	.LASF73
 1256 03e6 5001     		.2byte	0x150
 1257 03e8 03       		.byte	0x3
 1258 03e9 C201     		.2byte	0x1c2
 1259 03eb 3D040000 		.4byte	0x43d
 1260 03ef 09       		.uleb128 0x9
 1261 03f0 85050000 		.4byte	.LASF74
 1262 03f4 03       		.byte	0x3
 1263 03f5 C601     		.2byte	0x1c6
 1264 03f7 84020000 		.4byte	0x284
 1265 03fb 00       		.byte	0
 1266 03fc 09       		.uleb128 0x9
 1267 03fd FD000000 		.4byte	.LASF75
 1268 0401 03       		.byte	0x3
ARM GAS  /tmp/ccYyUiVf.s 			page 51


 1269 0402 CA01     		.2byte	0x1ca
 1270 0404 63030000 		.4byte	0x363
 1271 0408 1C       		.byte	0x1c
 1272 0409 08       		.uleb128 0x8
 1273 040a 64626700 		.ascii	"dbg\000"
 1274 040e 03       		.byte	0x3
 1275 040f CE01     		.2byte	0x1ce
 1276 0411 B0030000 		.4byte	0x3b0
 1277 0415 2C       		.byte	0x2c
 1278 0416 09       		.uleb128 0x9
 1279 0417 8D000000 		.4byte	.LASF76
 1280 041b 03       		.byte	0x3
 1281 041c D201     		.2byte	0x1d2
 1282 041e 27010000 		.4byte	0x127
 1283 0422 30       		.byte	0x30
 1284 0423 08       		.uleb128 0x8
 1285 0424 746D00   		.ascii	"tm\000"
 1286 0427 03       		.byte	0x3
 1287 0428 D701     		.2byte	0x1d7
 1288 042a 09050000 		.4byte	0x509
 1289 042e 74       		.byte	0x74
 1290 042f 09       		.uleb128 0x9
 1291 0430 7D010000 		.4byte	.LASF77
 1292 0434 03       		.byte	0x3
 1293 0435 E301     		.2byte	0x1e3
 1294 0437 F6050000 		.4byte	0x5f6
 1295 043b 78       		.byte	0x78
 1296 043c 00       		.byte	0
 1297 043d 03       		.uleb128 0x3
 1298 043e 04       		.byte	0x4
 1299 043f 07       		.byte	0x7
 1300 0440 3A030000 		.4byte	.LASF78
 1301 0444 04       		.uleb128 0x4
 1302 0445 5E010000 		.4byte	.LASF79
 1303 0449 09       		.byte	0x9
 1304 044a 65       		.byte	0x65
 1305 044b 07030000 		.4byte	0x307
 1306 044f 04       		.uleb128 0x4
 1307 0450 6F020000 		.4byte	.LASF80
 1308 0454 09       		.byte	0x9
 1309 0455 6D       		.byte	0x6d
 1310 0456 B4000000 		.4byte	0xb4
 1311 045a 06       		.uleb128 0x6
 1312 045b 44050000 		.4byte	.LASF81
 1313 045f 04       		.byte	0x4
 1314 0460 09       		.byte	0x9
 1315 0461 89       		.byte	0x89
 1316 0462 73040000 		.4byte	0x473
 1317 0466 10       		.uleb128 0x10
 1318 0467 72313300 		.ascii	"r13\000"
 1319 046b 09       		.byte	0x9
 1320 046c 8A       		.byte	0x8a
 1321 046d EE040000 		.4byte	0x4ee
 1322 0471 00       		.byte	0
 1323 0472 00       		.byte	0
 1324 0473 06       		.uleb128 0x6
 1325 0474 3A000000 		.4byte	.LASF82
ARM GAS  /tmp/ccYyUiVf.s 			page 52


 1326 0478 24       		.byte	0x24
 1327 0479 0A       		.byte	0xa
 1328 047a F4       		.byte	0xf4
 1329 047b EE040000 		.4byte	0x4ee
 1330 047f 08       		.uleb128 0x8
 1331 0480 723400   		.ascii	"r4\000"
 1332 0483 0A       		.byte	0xa
 1333 0484 0701     		.2byte	0x107
 1334 0486 44040000 		.4byte	0x444
 1335 048a 00       		.byte	0
 1336 048b 08       		.uleb128 0x8
 1337 048c 723500   		.ascii	"r5\000"
 1338 048f 0A       		.byte	0xa
 1339 0490 0801     		.2byte	0x108
 1340 0492 44040000 		.4byte	0x444
 1341 0496 04       		.byte	0x4
 1342 0497 08       		.uleb128 0x8
 1343 0498 723600   		.ascii	"r6\000"
 1344 049b 0A       		.byte	0xa
 1345 049c 0901     		.2byte	0x109
 1346 049e 44040000 		.4byte	0x444
 1347 04a2 08       		.byte	0x8
 1348 04a3 08       		.uleb128 0x8
 1349 04a4 723700   		.ascii	"r7\000"
 1350 04a7 0A       		.byte	0xa
 1351 04a8 0A01     		.2byte	0x10a
 1352 04aa 44040000 		.4byte	0x444
 1353 04ae 0C       		.byte	0xc
 1354 04af 08       		.uleb128 0x8
 1355 04b0 723800   		.ascii	"r8\000"
 1356 04b3 0A       		.byte	0xa
 1357 04b4 0B01     		.2byte	0x10b
 1358 04b6 44040000 		.4byte	0x444
 1359 04ba 10       		.byte	0x10
 1360 04bb 08       		.uleb128 0x8
 1361 04bc 723900   		.ascii	"r9\000"
 1362 04bf 0A       		.byte	0xa
 1363 04c0 0C01     		.2byte	0x10c
 1364 04c2 44040000 		.4byte	0x444
 1365 04c6 14       		.byte	0x14
 1366 04c7 08       		.uleb128 0x8
 1367 04c8 72313000 		.ascii	"r10\000"
 1368 04cc 0A       		.byte	0xa
 1369 04cd 0D01     		.2byte	0x10d
 1370 04cf 44040000 		.4byte	0x444
 1371 04d3 18       		.byte	0x18
 1372 04d4 08       		.uleb128 0x8
 1373 04d5 72313100 		.ascii	"r11\000"
 1374 04d9 0A       		.byte	0xa
 1375 04da 0E01     		.2byte	0x10e
 1376 04dc 44040000 		.4byte	0x444
 1377 04e0 1C       		.byte	0x1c
 1378 04e1 08       		.uleb128 0x8
 1379 04e2 6C7200   		.ascii	"lr\000"
 1380 04e5 0A       		.byte	0xa
 1381 04e6 0F01     		.2byte	0x10f
 1382 04e8 44040000 		.4byte	0x444
ARM GAS  /tmp/ccYyUiVf.s 			page 53


 1383 04ec 20       		.byte	0x20
 1384 04ed 00       		.byte	0
 1385 04ee 0A       		.uleb128 0xa
 1386 04ef 04       		.byte	0x4
 1387 04f0 73040000 		.4byte	0x473
 1388 04f4 11       		.uleb128 0x11
 1389 04f5 04       		.byte	0x4
 1390 04f6 0B       		.byte	0xb
 1391 04f7 38       		.byte	0x38
 1392 04f8 09050000 		.4byte	0x509
 1393 04fc 07       		.uleb128 0x7
 1394 04fd 3D050000 		.4byte	.LASF83
 1395 0501 0B       		.byte	0xb
 1396 0502 3C       		.byte	0x3c
 1397 0503 C4000000 		.4byte	0xc4
 1398 0507 00       		.byte	0
 1399 0508 00       		.byte	0
 1400 0509 04       		.uleb128 0x4
 1401 050a 87030000 		.4byte	.LASF84
 1402 050e 0B       		.byte	0xb
 1403 050f 3D       		.byte	0x3d
 1404 0510 F4040000 		.4byte	0x4f4
 1405 0514 12       		.uleb128 0x12
 1406 0515 04       		.byte	0x4
 1407 0516 03       		.byte	0x3
 1408 0517 FA       		.byte	0xfa
 1409 0518 71050000 		.4byte	0x571
 1410 051c 13       		.uleb128 0x13
 1411 051d 20000000 		.4byte	.LASF85
 1412 0521 03       		.byte	0x3
 1413 0522 0101     		.2byte	0x101
 1414 0524 FB000000 		.4byte	0xfb
 1415 0528 13       		.uleb128 0x13
 1416 0529 84000000 		.4byte	.LASF86
 1417 052d 03       		.byte	0x3
 1418 052e 0801     		.2byte	0x108
 1419 0530 FB000000 		.4byte	0xfb
 1420 0534 13       		.uleb128 0x13
 1421 0535 93050000 		.4byte	.LASF87
 1422 0539 03       		.byte	0x3
 1423 053a 0F01     		.2byte	0x10f
 1424 053c 07030000 		.4byte	0x307
 1425 0540 13       		.uleb128 0x13
 1426 0541 1A000000 		.4byte	.LASF88
 1427 0545 03       		.byte	0x3
 1428 0546 1601     		.2byte	0x116
 1429 0548 71050000 		.4byte	0x571
 1430 054c 13       		.uleb128 0x13
 1431 054d B5010000 		.4byte	.LASF89
 1432 0551 03       		.byte	0x3
 1433 0552 1E01     		.2byte	0x11e
 1434 0554 9C050000 		.4byte	0x59c
 1435 0558 13       		.uleb128 0x13
 1436 0559 9F040000 		.4byte	.LASF90
 1437 055d 03       		.byte	0x3
 1438 055e 2701     		.2byte	0x127
 1439 0560 D3050000 		.4byte	0x5d3
ARM GAS  /tmp/ccYyUiVf.s 			page 54


 1440 0564 13       		.uleb128 0x13
 1441 0565 32040000 		.4byte	.LASF91
 1442 0569 03       		.byte	0x3
 1443 056a 2F01     		.2byte	0x12f
 1444 056c 06010000 		.4byte	0x106
 1445 0570 00       		.byte	0
 1446 0571 0A       		.uleb128 0xa
 1447 0572 04       		.byte	0x4
 1448 0573 1F020000 		.4byte	0x21f
 1449 0577 06       		.uleb128 0x6
 1450 0578 70040000 		.4byte	.LASF92
 1451 057c 0C       		.byte	0xc
 1452 057d 0C       		.byte	0xc
 1453 057e 34       		.byte	0x34
 1454 057f 9C050000 		.4byte	0x59c
 1455 0583 07       		.uleb128 0x7
 1456 0584 4E010000 		.4byte	.LASF93
 1457 0588 0C       		.byte	0xc
 1458 0589 35       		.byte	0x35
 1459 058a 54020000 		.4byte	0x254
 1460 058e 00       		.byte	0
 1461 058f 07       		.uleb128 0x7
 1462 0590 F3010000 		.4byte	.LASF94
 1463 0594 0C       		.byte	0xc
 1464 0595 37       		.byte	0x37
 1465 0596 11010000 		.4byte	0x111
 1466 059a 08       		.byte	0x8
 1467 059b 00       		.byte	0
 1468 059c 0A       		.uleb128 0xa
 1469 059d 04       		.byte	0x4
 1470 059e 77050000 		.4byte	0x577
 1471 05a2 06       		.uleb128 0x6
 1472 05a3 75050000 		.4byte	.LASF95
 1473 05a7 10       		.byte	0x10
 1474 05a8 0D       		.byte	0xd
 1475 05a9 39       		.byte	0x39
 1476 05aa D3050000 		.4byte	0x5d3
 1477 05ae 07       		.uleb128 0x7
 1478 05af F5000000 		.4byte	.LASF96
 1479 05b3 0D       		.byte	0xd
 1480 05b4 3A       		.byte	0x3a
 1481 05b5 54020000 		.4byte	0x254
 1482 05b9 00       		.byte	0
 1483 05ba 07       		.uleb128 0x7
 1484 05bb D0050000 		.4byte	.LASF97
 1485 05bf 0D       		.byte	0xd
 1486 05c0 3C       		.byte	0x3c
 1487 05c1 2A020000 		.4byte	0x22a
 1488 05c5 08       		.byte	0x8
 1489 05c6 07       		.uleb128 0x7
 1490 05c7 98030000 		.4byte	.LASF98
 1491 05cb 0D       		.byte	0xd
 1492 05cc 3E       		.byte	0x3e
 1493 05cd 11060000 		.4byte	0x611
 1494 05d1 0C       		.byte	0xc
 1495 05d2 00       		.byte	0
 1496 05d3 0A       		.uleb128 0xa
ARM GAS  /tmp/ccYyUiVf.s 			page 55


 1497 05d4 04       		.byte	0x4
 1498 05d5 A2050000 		.4byte	0x5a2
 1499 05d9 0A       		.uleb128 0xa
 1500 05da 04       		.byte	0x4
 1501 05db DF050000 		.4byte	0x5df
 1502 05df 14       		.uleb128 0x14
 1503 05e0 E4050000 		.4byte	0x5e4
 1504 05e4 03       		.uleb128 0x3
 1505 05e5 01       		.byte	0x1
 1506 05e6 08       		.byte	0x8
 1507 05e7 DC040000 		.4byte	.LASF99
 1508 05eb 0A       		.uleb128 0xa
 1509 05ec 04       		.byte	0x4
 1510 05ed 09030000 		.4byte	0x309
 1511 05f1 05       		.uleb128 0x5
 1512 05f2 D9050000 		.4byte	0x5d9
 1513 05f6 15       		.uleb128 0x15
 1514 05f7 4F040000 		.4byte	0x44f
 1515 05fb 06060000 		.4byte	0x606
 1516 05ff 16       		.uleb128 0x16
 1517 0600 3D040000 		.4byte	0x43d
 1518 0604 1A       		.byte	0x1a
 1519 0605 00       		.byte	0
 1520 0606 04       		.uleb128 0x4
 1521 0607 6F010000 		.4byte	.LASF100
 1522 060b 0D       		.byte	0xd
 1523 060c 34       		.byte	0x34
 1524 060d A2050000 		.4byte	0x5a2
 1525 0611 0A       		.uleb128 0xa
 1526 0612 04       		.byte	0x4
 1527 0613 06060000 		.4byte	0x606
 1528 0617 17       		.uleb128 0x17
 1529 0618 25050000 		.4byte	.LASF104
 1530 061c 02       		.byte	0x2
 1531 061d 2002     		.2byte	0x220
 1532 061f 03       		.byte	0x3
 1533 0620 31060000 		.4byte	0x631
 1534 0624 18       		.uleb128 0x18
 1535 0625 77010000 		.4byte	.LASF106
 1536 0629 02       		.byte	0x2
 1537 062a 2002     		.2byte	0x220
 1538 062c A9000000 		.4byte	0xa9
 1539 0630 00       		.byte	0
 1540 0631 19       		.uleb128 0x19
 1541 0632 55000000 		.4byte	.LASF101
 1542 0636 0A       		.byte	0xa
 1543 0637 BC01     		.2byte	0x1bc
 1544 0639 03       		.byte	0x3
 1545 063a 19       		.uleb128 0x19
 1546 063b 04010000 		.4byte	.LASF102
 1547 063f 0A       		.byte	0xa
 1548 0640 CA01     		.2byte	0x1ca
 1549 0642 03       		.byte	0x3
 1550 0643 19       		.uleb128 0x19
 1551 0644 48040000 		.4byte	.LASF103
 1552 0648 0E       		.byte	0xe
 1553 0649 5A01     		.2byte	0x15a
ARM GAS  /tmp/ccYyUiVf.s 			page 56


 1554 064b 03       		.byte	0x3
 1555 064c 17       		.uleb128 0x17
 1556 064d 0D000000 		.4byte	.LASF105
 1557 0651 03       		.byte	0x3
 1558 0652 9702     		.2byte	0x297
 1559 0654 03       		.byte	0x3
 1560 0655 71060000 		.4byte	0x671
 1561 0659 1A       		.uleb128 0x1a
 1562 065a 747000   		.ascii	"tp\000"
 1563 065d 03       		.byte	0x3
 1564 065e 9702     		.2byte	0x297
 1565 0660 2A020000 		.4byte	0x22a
 1566 0664 1A       		.uleb128 0x1a
 1567 0665 74717000 		.ascii	"tqp\000"
 1568 0669 03       		.byte	0x3
 1569 066a 9702     		.2byte	0x297
 1570 066c 71060000 		.4byte	0x671
 1571 0670 00       		.byte	0
 1572 0671 0A       		.uleb128 0xa
 1573 0672 04       		.byte	0x4
 1574 0673 54020000 		.4byte	0x254
 1575 0677 17       		.uleb128 0x17
 1576 0678 B0050000 		.4byte	.LASF107
 1577 067c 0E       		.byte	0xe
 1578 067d 6601     		.2byte	0x166
 1579 067f 03       		.byte	0x3
 1580 0680 92060000 		.4byte	0x692
 1581 0684 1B       		.uleb128 0x1b
 1582 0685 A7010000 		.4byte	.LASF111
 1583 0689 A2060000 		.4byte	0x6a2
 1584 068d B0050000 		.4byte	.LASF107
 1585 0691 00       		.byte	0
 1586 0692 15       		.uleb128 0x15
 1587 0693 E4050000 		.4byte	0x5e4
 1588 0697 A2060000 		.4byte	0x6a2
 1589 069b 16       		.uleb128 0x16
 1590 069c 3D040000 		.4byte	0x43d
 1591 06a0 0B       		.byte	0xb
 1592 06a1 00       		.byte	0
 1593 06a2 14       		.uleb128 0x14
 1594 06a3 92060000 		.4byte	0x692
 1595 06a7 1C       		.uleb128 0x1c
 1596 06a8 36010000 		.4byte	.LASF109
 1597 06ac 04       		.byte	0x4
 1598 06ad 4F       		.byte	0x4f
 1599 06ae C2060000 		.4byte	0x6c2
 1600 06b2 03       		.byte	0x3
 1601 06b3 C2060000 		.4byte	0x6c2
 1602 06b7 1D       		.uleb128 0x1d
 1603 06b8 747000   		.ascii	"tp\000"
 1604 06bb 04       		.byte	0x4
 1605 06bc 4F       		.byte	0x4f
 1606 06bd 2A020000 		.4byte	0x22a
 1607 06c1 00       		.byte	0
 1608 06c2 03       		.uleb128 0x3
 1609 06c3 01       		.byte	0x1
 1610 06c4 02       		.byte	0x2
ARM GAS  /tmp/ccYyUiVf.s 			page 57


 1611 06c5 F3030000 		.4byte	.LASF108
 1612 06c9 1E       		.uleb128 0x1e
 1613 06ca EA040000 		.4byte	.LASF110
 1614 06ce 03       		.byte	0x3
 1615 06cf 9F02     		.2byte	0x29f
 1616 06d1 2A020000 		.4byte	0x22a
 1617 06d5 03       		.byte	0x3
 1618 06d6 F2060000 		.4byte	0x6f2
 1619 06da 1A       		.uleb128 0x1a
 1620 06db 74717000 		.ascii	"tqp\000"
 1621 06df 03       		.byte	0x3
 1622 06e0 9F02     		.2byte	0x29f
 1623 06e2 71060000 		.4byte	0x671
 1624 06e6 1F       		.uleb128 0x1f
 1625 06e7 747000   		.ascii	"tp\000"
 1626 06ea 03       		.byte	0x3
 1627 06eb A002     		.2byte	0x2a0
 1628 06ed 2A020000 		.4byte	0x22a
 1629 06f1 00       		.byte	0
 1630 06f2 20       		.uleb128 0x20
 1631 06f3 C2050000 		.4byte	.LASF112
 1632 06f7 04       		.byte	0x4
 1633 06f8 6F       		.byte	0x6f
 1634 06f9 03       		.byte	0x3
 1635 06fa 14070000 		.4byte	0x714
 1636 06fe 1D       		.uleb128 0x1d
 1637 06ff 747000   		.ascii	"tp\000"
 1638 0702 04       		.byte	0x4
 1639 0703 6F       		.byte	0x6f
 1640 0704 2A020000 		.4byte	0x22a
 1641 0708 1D       		.uleb128 0x1d
 1642 0709 6D736700 		.ascii	"msg\000"
 1643 070d 04       		.byte	0x4
 1644 070e 6F       		.byte	0x6f
 1645 070f FB000000 		.4byte	0xfb
 1646 0713 00       		.byte	0
 1647 0714 21       		.uleb128 0x21
 1648 0715 23010000 		.4byte	.LASF113
 1649 0719 01       		.byte	0x1
 1650 071a 57       		.byte	0x57
 1651 071b FB000000 		.4byte	0xfb
 1652 071f 00000000 		.4byte	.LFB229
 1653 0723 40000000 		.4byte	.LFE229-.LFB229
 1654 0727 01       		.uleb128 0x1
 1655 0728 9C       		.byte	0x9c
 1656 0729 29080000 		.4byte	0x829
 1657 072d 22       		.uleb128 0x22
 1658 072e 747000   		.ascii	"tp\000"
 1659 0731 01       		.byte	0x1
 1660 0732 57       		.byte	0x57
 1661 0733 2A020000 		.4byte	0x22a
 1662 0737 00000000 		.4byte	.LLST0
 1663 073b 22       		.uleb128 0x22
 1664 073c 6D736700 		.ascii	"msg\000"
 1665 0740 01       		.byte	0x1
 1666 0741 57       		.byte	0x57
 1667 0742 FB000000 		.4byte	0xfb
ARM GAS  /tmp/ccYyUiVf.s 			page 58


 1668 0746 38000000 		.4byte	.LLST1
 1669 074a 23       		.uleb128 0x23
 1670 074b 63747000 		.ascii	"ctp\000"
 1671 074f 01       		.byte	0x1
 1672 0750 58       		.byte	0x58
 1673 0751 2A020000 		.4byte	0x22a
 1674 0755 01       		.uleb128 0x1
 1675 0756 54       		.byte	0x54
 1676 0757 24       		.uleb128 0x24
 1677 0758 57020000 		.4byte	.LASF115
 1678 075c 39080000 		.4byte	0x839
 1679 0760 25       		.uleb128 0x25
 1680 0761 43060000 		.4byte	0x643
 1681 0765 04000000 		.4byte	.LBB52
 1682 0769 00000000 		.4byte	.Ldebug_ranges0+0
 1683 076d 01       		.byte	0x1
 1684 076e 5C       		.byte	0x5c
 1685 076f 9C070000 		.4byte	0x79c
 1686 0773 26       		.uleb128 0x26
 1687 0774 31060000 		.4byte	0x631
 1688 0778 04000000 		.4byte	.LBB53
 1689 077c 00000000 		.4byte	.Ldebug_ranges0+0
 1690 0780 0E       		.byte	0xe
 1691 0781 5C01     		.2byte	0x15c
 1692 0783 26       		.uleb128 0x26
 1693 0784 17060000 		.4byte	0x617
 1694 0788 04000000 		.4byte	.LBB54
 1695 078c 00000000 		.4byte	.Ldebug_ranges0+0
 1696 0790 0A       		.byte	0xa
 1697 0791 BF01     		.2byte	0x1bf
 1698 0793 27       		.uleb128 0x27
 1699 0794 24060000 		.4byte	0x624
 1700 0798 20       		.byte	0x20
 1701 0799 00       		.byte	0
 1702 079a 00       		.byte	0
 1703 079b 00       		.byte	0
 1704 079c 25       		.uleb128 0x25
 1705 079d 4C060000 		.4byte	0x64c
 1706 07a1 14000000 		.4byte	.LBB60
 1707 07a5 18000000 		.4byte	.Ldebug_ranges0+0x18
 1708 07a9 01       		.byte	0x1
 1709 07aa 5F       		.byte	0x5f
 1710 07ab BE070000 		.4byte	0x7be
 1711 07af 28       		.uleb128 0x28
 1712 07b0 64060000 		.4byte	0x664
 1713 07b4 01       		.uleb128 0x1
 1714 07b5 55       		.byte	0x55
 1715 07b6 28       		.uleb128 0x28
 1716 07b7 59060000 		.4byte	0x659
 1717 07bb 01       		.uleb128 0x1
 1718 07bc 54       		.byte	0x54
 1719 07bd 00       		.byte	0
 1720 07be 29       		.uleb128 0x29
 1721 07bf 77060000 		.4byte	0x677
 1722 07c3 2C000000 		.4byte	.LBB64
 1723 07c7 06000000 		.4byte	.LBE64-.LBB64
 1724 07cb 01       		.byte	0x1
ARM GAS  /tmp/ccYyUiVf.s 			page 59


 1725 07cc 65       		.byte	0x65
 1726 07cd 0C080000 		.4byte	0x80c
 1727 07d1 2A       		.uleb128 0x2a
 1728 07d2 2C000000 		.4byte	.LBB65
 1729 07d6 06000000 		.4byte	.LBE65-.LBB65
 1730 07da 2B       		.uleb128 0x2b
 1731 07db 84060000 		.4byte	0x684
 1732 07df 2C       		.uleb128 0x2c
 1733 07e0 3A060000 		.4byte	0x63a
 1734 07e4 2C000000 		.4byte	.LBB66
 1735 07e8 06000000 		.4byte	.LBE66-.LBB66
 1736 07ec 0E       		.byte	0xe
 1737 07ed 7301     		.2byte	0x173
 1738 07ef 2C       		.uleb128 0x2c
 1739 07f0 17060000 		.4byte	0x617
 1740 07f4 2C000000 		.4byte	.LBB67
 1741 07f8 06000000 		.4byte	.LBE67-.LBB67
 1742 07fc 0A       		.byte	0xa
 1743 07fd CD01     		.2byte	0x1cd
 1744 07ff 2D       		.uleb128 0x2d
 1745 0800 24060000 		.4byte	0x624
 1746 0804 7D000000 		.4byte	.LLST2
 1747 0808 00       		.byte	0
 1748 0809 00       		.byte	0
 1749 080a 00       		.byte	0
 1750 080b 00       		.byte	0
 1751 080c 2E       		.uleb128 0x2e
 1752 080d 2A000000 		.4byte	.LVL4
 1753 0811 690A0000 		.4byte	0xa69
 1754 0815 1F080000 		.4byte	0x81f
 1755 0819 2F       		.uleb128 0x2f
 1756 081a 01       		.uleb128 0x1
 1757 081b 50       		.byte	0x50
 1758 081c 01       		.uleb128 0x1
 1759 081d 3C       		.byte	0x3c
 1760 081e 00       		.byte	0
 1761 081f 30       		.uleb128 0x30
 1762 0820 38000000 		.4byte	.LVL7
 1763 0824 7B0A0000 		.4byte	0xa7b
 1764 0828 00       		.byte	0
 1765 0829 15       		.uleb128 0x15
 1766 082a E4050000 		.4byte	0x5e4
 1767 082e 39080000 		.4byte	0x839
 1768 0832 16       		.uleb128 0x16
 1769 0833 3D040000 		.4byte	0x43d
 1770 0837 09       		.byte	0x9
 1771 0838 00       		.byte	0
 1772 0839 14       		.uleb128 0x14
 1773 083a 29080000 		.4byte	0x829
 1774 083e 21       		.uleb128 0x21
 1775 083f 5B050000 		.4byte	.LASF114
 1776 0843 01       		.byte	0x1
 1777 0844 78       		.byte	0x78
 1778 0845 2A020000 		.4byte	0x22a
 1779 0849 00000000 		.4byte	.LFB230
 1780 084d 3C000000 		.4byte	.LFE230-.LFB230
 1781 0851 01       		.uleb128 0x1
ARM GAS  /tmp/ccYyUiVf.s 			page 60


 1782 0852 9C       		.byte	0x9c
 1783 0853 40090000 		.4byte	0x940
 1784 0857 31       		.uleb128 0x31
 1785 0858 747000   		.ascii	"tp\000"
 1786 085b 01       		.byte	0x1
 1787 085c 79       		.byte	0x79
 1788 085d 2A020000 		.4byte	0x22a
 1789 0861 29       		.uleb128 0x29
 1790 0862 43060000 		.4byte	0x643
 1791 0866 02000000 		.4byte	.LBB69
 1792 086a 06000000 		.4byte	.LBE69-.LBB69
 1793 086e 01       		.byte	0x1
 1794 086f 7B       		.byte	0x7b
 1795 0870 9D080000 		.4byte	0x89d
 1796 0874 2C       		.uleb128 0x2c
 1797 0875 31060000 		.4byte	0x631
 1798 0879 02000000 		.4byte	.LBB70
 1799 087d 06000000 		.4byte	.LBE70-.LBB70
 1800 0881 0E       		.byte	0xe
 1801 0882 5C01     		.2byte	0x15c
 1802 0884 2C       		.uleb128 0x2c
 1803 0885 17060000 		.4byte	0x617
 1804 0889 02000000 		.4byte	.LBB71
 1805 088d 06000000 		.4byte	.LBE71-.LBB71
 1806 0891 0A       		.byte	0xa
 1807 0892 BF01     		.2byte	0x1bf
 1808 0894 27       		.uleb128 0x27
 1809 0895 24060000 		.4byte	0x624
 1810 0899 20       		.byte	0x20
 1811 089a 00       		.byte	0
 1812 089b 00       		.byte	0
 1813 089c 00       		.byte	0
 1814 089d 29       		.uleb128 0x29
 1815 089e A7060000 		.4byte	0x6a7
 1816 08a2 0C000000 		.4byte	.LBB73
 1817 08a6 06000000 		.4byte	.LBE73-.LBB73
 1818 08aa 01       		.byte	0x1
 1819 08ab 7C       		.byte	0x7c
 1820 08ac BA080000 		.4byte	0x8ba
 1821 08b0 2D       		.uleb128 0x2d
 1822 08b1 B7060000 		.4byte	0x6b7
 1823 08b5 91000000 		.4byte	.LLST3
 1824 08b9 00       		.byte	0
 1825 08ba 25       		.uleb128 0x25
 1826 08bb C9060000 		.4byte	0x6c9
 1827 08bf 16000000 		.4byte	.LBB75
 1828 08c3 30000000 		.4byte	.Ldebug_ranges0+0x30
 1829 08c7 01       		.byte	0x1
 1830 08c8 7F       		.byte	0x7f
 1831 08c9 E6080000 		.4byte	0x8e6
 1832 08cd 2D       		.uleb128 0x2d
 1833 08ce DA060000 		.4byte	0x6da
 1834 08d2 AF000000 		.4byte	.LLST4
 1835 08d6 32       		.uleb128 0x32
 1836 08d7 30000000 		.4byte	.Ldebug_ranges0+0x30
 1837 08db 33       		.uleb128 0x33
 1838 08dc E6060000 		.4byte	0x6e6
ARM GAS  /tmp/ccYyUiVf.s 			page 61


 1839 08e0 CE000000 		.4byte	.LLST5
 1840 08e4 00       		.byte	0
 1841 08e5 00       		.byte	0
 1842 08e6 25       		.uleb128 0x25
 1843 08e7 77060000 		.4byte	0x677
 1844 08eb 1E000000 		.4byte	.LBB79
 1845 08ef 48000000 		.4byte	.Ldebug_ranges0+0x48
 1846 08f3 01       		.byte	0x1
 1847 08f4 81       		.byte	0x81
 1848 08f5 30090000 		.4byte	0x930
 1849 08f9 32       		.uleb128 0x32
 1850 08fa 48000000 		.4byte	.Ldebug_ranges0+0x48
 1851 08fe 2B       		.uleb128 0x2b
 1852 08ff 84060000 		.4byte	0x684
 1853 0903 26       		.uleb128 0x26
 1854 0904 3A060000 		.4byte	0x63a
 1855 0908 1E000000 		.4byte	.LBB81
 1856 090c 48000000 		.4byte	.Ldebug_ranges0+0x48
 1857 0910 0E       		.byte	0xe
 1858 0911 7301     		.2byte	0x173
 1859 0913 26       		.uleb128 0x26
 1860 0914 17060000 		.4byte	0x617
 1861 0918 1E000000 		.4byte	.LBB82
 1862 091c 48000000 		.4byte	.Ldebug_ranges0+0x48
 1863 0920 0A       		.byte	0xa
 1864 0921 CD01     		.2byte	0x1cd
 1865 0923 2D       		.uleb128 0x2d
 1866 0924 24060000 		.4byte	0x624
 1867 0928 E1000000 		.4byte	.LLST6
 1868 092c 00       		.byte	0
 1869 092d 00       		.byte	0
 1870 092e 00       		.byte	0
 1871 092f 00       		.byte	0
 1872 0930 34       		.uleb128 0x34
 1873 0931 2E000000 		.4byte	.LVL14
 1874 0935 690A0000 		.4byte	0xa69
 1875 0939 2F       		.uleb128 0x2f
 1876 093a 01       		.uleb128 0x1
 1877 093b 50       		.byte	0x50
 1878 093c 01       		.uleb128 0x1
 1879 093d 3E       		.byte	0x3e
 1880 093e 00       		.byte	0
 1881 093f 00       		.byte	0
 1882 0940 35       		.uleb128 0x35
 1883 0941 63040000 		.4byte	.LASF120
 1884 0945 01       		.byte	0x1
 1885 0946 90       		.byte	0x90
 1886 0947 00000000 		.4byte	.LFB231
 1887 094b 14000000 		.4byte	.LFE231-.LFB231
 1888 094f 01       		.uleb128 0x1
 1889 0950 9C       		.byte	0x9c
 1890 0951 3D0A0000 		.4byte	0xa3d
 1891 0955 22       		.uleb128 0x22
 1892 0956 747000   		.ascii	"tp\000"
 1893 0959 01       		.byte	0x1
 1894 095a 90       		.byte	0x90
 1895 095b 2A020000 		.4byte	0x22a
ARM GAS  /tmp/ccYyUiVf.s 			page 62


 1896 095f F5000000 		.4byte	.LLST7
 1897 0963 22       		.uleb128 0x22
 1898 0964 6D736700 		.ascii	"msg\000"
 1899 0968 01       		.byte	0x1
 1900 0969 90       		.byte	0x90
 1901 096a FB000000 		.4byte	0xfb
 1902 096e 16010000 		.4byte	.LLST8
 1903 0972 24       		.uleb128 0x24
 1904 0973 5F000000 		.4byte	.LASF116
 1905 0977 4D0A0000 		.4byte	0xa4d
 1906 097b 29       		.uleb128 0x29
 1907 097c 43060000 		.4byte	0x643
 1908 0980 02000000 		.4byte	.LBB89
 1909 0984 06000000 		.4byte	.LBE89-.LBB89
 1910 0988 01       		.byte	0x1
 1911 0989 92       		.byte	0x92
 1912 098a B7090000 		.4byte	0x9b7
 1913 098e 2C       		.uleb128 0x2c
 1914 098f 31060000 		.4byte	0x631
 1915 0993 02000000 		.4byte	.LBB90
 1916 0997 06000000 		.4byte	.LBE90-.LBB90
 1917 099b 0E       		.byte	0xe
 1918 099c 5C01     		.2byte	0x15c
 1919 099e 2C       		.uleb128 0x2c
 1920 099f 17060000 		.4byte	0x617
 1921 09a3 02000000 		.4byte	.LBB91
 1922 09a7 06000000 		.4byte	.LBE91-.LBB91
 1923 09ab 0A       		.byte	0xa
 1924 09ac BF01     		.2byte	0x1bf
 1925 09ae 27       		.uleb128 0x27
 1926 09af 24060000 		.4byte	0x624
 1927 09b3 20       		.byte	0x20
 1928 09b4 00       		.byte	0
 1929 09b5 00       		.byte	0
 1930 09b6 00       		.byte	0
 1931 09b7 29       		.uleb128 0x29
 1932 09b8 F2060000 		.4byte	0x6f2
 1933 09bc 08000000 		.4byte	.LBB93
 1934 09c0 04000000 		.4byte	.LBE93-.LBB93
 1935 09c4 01       		.byte	0x1
 1936 09c5 94       		.byte	0x94
 1937 09c6 F5090000 		.4byte	0x9f5
 1938 09ca 2D       		.uleb128 0x2d
 1939 09cb 08070000 		.4byte	0x708
 1940 09cf 37010000 		.4byte	.LLST9
 1941 09d3 2D       		.uleb128 0x2d
 1942 09d4 FE060000 		.4byte	0x6fe
 1943 09d8 58010000 		.4byte	.LLST10
 1944 09dc 34       		.uleb128 0x34
 1945 09dd 0C000000 		.4byte	.LVL17
 1946 09e1 910A0000 		.4byte	0xa91
 1947 09e5 2F       		.uleb128 0x2f
 1948 09e6 01       		.uleb128 0x1
 1949 09e7 51       		.byte	0x51
 1950 09e8 03       		.uleb128 0x3
 1951 09e9 F3       		.byte	0xf3
 1952 09ea 01       		.uleb128 0x1
ARM GAS  /tmp/ccYyUiVf.s 			page 63


 1953 09eb 51       		.byte	0x51
 1954 09ec 2F       		.uleb128 0x2f
 1955 09ed 01       		.uleb128 0x1
 1956 09ee 50       		.byte	0x50
 1957 09ef 03       		.uleb128 0x3
 1958 09f0 F3       		.byte	0xf3
 1959 09f1 01       		.uleb128 0x1
 1960 09f2 50       		.byte	0x50
 1961 09f3 00       		.byte	0
 1962 09f4 00       		.byte	0
 1963 09f5 36       		.uleb128 0x36
 1964 09f6 77060000 		.4byte	0x677
 1965 09fa 0C000000 		.4byte	.LBB95
 1966 09fe 08000000 		.4byte	.LBE95-.LBB95
 1967 0a02 01       		.byte	0x1
 1968 0a03 95       		.byte	0x95
 1969 0a04 2A       		.uleb128 0x2a
 1970 0a05 0C000000 		.4byte	.LBB96
 1971 0a09 08000000 		.4byte	.LBE96-.LBB96
 1972 0a0d 2B       		.uleb128 0x2b
 1973 0a0e 84060000 		.4byte	0x684
 1974 0a12 2C       		.uleb128 0x2c
 1975 0a13 3A060000 		.4byte	0x63a
 1976 0a17 0C000000 		.4byte	.LBB97
 1977 0a1b 08000000 		.4byte	.LBE97-.LBB97
 1978 0a1f 0E       		.byte	0xe
 1979 0a20 7301     		.2byte	0x173
 1980 0a22 2C       		.uleb128 0x2c
 1981 0a23 17060000 		.4byte	0x617
 1982 0a27 0C000000 		.4byte	.LBB98
 1983 0a2b 08000000 		.4byte	.LBE98-.LBB98
 1984 0a2f 0A       		.byte	0xa
 1985 0a30 CD01     		.2byte	0x1cd
 1986 0a32 27       		.uleb128 0x27
 1987 0a33 24060000 		.4byte	0x624
 1988 0a37 00       		.byte	0
 1989 0a38 00       		.byte	0
 1990 0a39 00       		.byte	0
 1991 0a3a 00       		.byte	0
 1992 0a3b 00       		.byte	0
 1993 0a3c 00       		.byte	0
 1994 0a3d 15       		.uleb128 0x15
 1995 0a3e E4050000 		.4byte	0x5e4
 1996 0a42 4D0A0000 		.4byte	0xa4d
 1997 0a46 16       		.uleb128 0x16
 1998 0a47 3D040000 		.4byte	0x43d
 1999 0a4b 0C       		.byte	0xc
 2000 0a4c 00       		.byte	0
 2001 0a4d 14       		.uleb128 0x14
 2002 0a4e 3D0A0000 		.4byte	0xa3d
 2003 0a52 37       		.uleb128 0x37
 2004 0a53 AE000000 		.4byte	.LASF117
 2005 0a57 0F       		.byte	0xf
 2006 0a58 A706     		.2byte	0x6a7
 2007 0a5a BF000000 		.4byte	0xbf
 2008 0a5e 38       		.uleb128 0x38
 2009 0a5f 636800   		.ascii	"ch\000"
ARM GAS  /tmp/ccYyUiVf.s 			page 64


 2010 0a62 03       		.byte	0x3
 2011 0a63 0902     		.2byte	0x209
 2012 0a65 D6030000 		.4byte	0x3d6
 2013 0a69 39       		.uleb128 0x39
 2014 0a6a 7D040000 		.4byte	.LASF121
 2015 0a6e 03       		.byte	0x3
 2016 0a6f 1402     		.2byte	0x214
 2017 0a71 7B0A0000 		.4byte	0xa7b
 2018 0a75 0D       		.uleb128 0xd
 2019 0a76 DA000000 		.4byte	0xda
 2020 0a7a 00       		.byte	0
 2021 0a7b 3A       		.uleb128 0x3a
 2022 0a7c AE040000 		.4byte	.LASF122
 2023 0a80 03       		.byte	0x3
 2024 0a81 1302     		.2byte	0x213
 2025 0a83 2A020000 		.4byte	0x22a
 2026 0a87 910A0000 		.4byte	0xa91
 2027 0a8b 0D       		.uleb128 0xd
 2028 0a8c 2A020000 		.4byte	0x22a
 2029 0a90 00       		.byte	0
 2030 0a91 3B       		.uleb128 0x3b
 2031 0a92 16020000 		.4byte	.LASF123
 2032 0a96 03       		.byte	0x3
 2033 0a97 1602     		.2byte	0x216
 2034 0a99 0D       		.uleb128 0xd
 2035 0a9a 2A020000 		.4byte	0x22a
 2036 0a9e 0D       		.uleb128 0xd
 2037 0a9f FB000000 		.4byte	0xfb
 2038 0aa3 00       		.byte	0
 2039 0aa4 00       		.byte	0
 2040              		.section	.debug_abbrev,"",%progbits
 2041              	.Ldebug_abbrev0:
 2042 0000 01       		.uleb128 0x1
 2043 0001 11       		.uleb128 0x11
 2044 0002 01       		.byte	0x1
 2045 0003 25       		.uleb128 0x25
 2046 0004 0E       		.uleb128 0xe
 2047 0005 13       		.uleb128 0x13
 2048 0006 0B       		.uleb128 0xb
 2049 0007 03       		.uleb128 0x3
 2050 0008 0E       		.uleb128 0xe
 2051 0009 55       		.uleb128 0x55
 2052 000a 17       		.uleb128 0x17
 2053 000b 11       		.uleb128 0x11
 2054 000c 01       		.uleb128 0x1
 2055 000d 10       		.uleb128 0x10
 2056 000e 17       		.uleb128 0x17
 2057 000f 00       		.byte	0
 2058 0010 00       		.byte	0
 2059 0011 02       		.uleb128 0x2
 2060 0012 24       		.uleb128 0x24
 2061 0013 00       		.byte	0
 2062 0014 0B       		.uleb128 0xb
 2063 0015 0B       		.uleb128 0xb
 2064 0016 3E       		.uleb128 0x3e
 2065 0017 0B       		.uleb128 0xb
 2066 0018 03       		.uleb128 0x3
ARM GAS  /tmp/ccYyUiVf.s 			page 65


 2067 0019 08       		.uleb128 0x8
 2068 001a 00       		.byte	0
 2069 001b 00       		.byte	0
 2070 001c 03       		.uleb128 0x3
 2071 001d 24       		.uleb128 0x24
 2072 001e 00       		.byte	0
 2073 001f 0B       		.uleb128 0xb
 2074 0020 0B       		.uleb128 0xb
 2075 0021 3E       		.uleb128 0x3e
 2076 0022 0B       		.uleb128 0xb
 2077 0023 03       		.uleb128 0x3
 2078 0024 0E       		.uleb128 0xe
 2079 0025 00       		.byte	0
 2080 0026 00       		.byte	0
 2081 0027 04       		.uleb128 0x4
 2082 0028 16       		.uleb128 0x16
 2083 0029 00       		.byte	0
 2084 002a 03       		.uleb128 0x3
 2085 002b 0E       		.uleb128 0xe
 2086 002c 3A       		.uleb128 0x3a
 2087 002d 0B       		.uleb128 0xb
 2088 002e 3B       		.uleb128 0x3b
 2089 002f 0B       		.uleb128 0xb
 2090 0030 49       		.uleb128 0x49
 2091 0031 13       		.uleb128 0x13
 2092 0032 00       		.byte	0
 2093 0033 00       		.byte	0
 2094 0034 05       		.uleb128 0x5
 2095 0035 35       		.uleb128 0x35
 2096 0036 00       		.byte	0
 2097 0037 49       		.uleb128 0x49
 2098 0038 13       		.uleb128 0x13
 2099 0039 00       		.byte	0
 2100 003a 00       		.byte	0
 2101 003b 06       		.uleb128 0x6
 2102 003c 13       		.uleb128 0x13
 2103 003d 01       		.byte	0x1
 2104 003e 03       		.uleb128 0x3
 2105 003f 0E       		.uleb128 0xe
 2106 0040 0B       		.uleb128 0xb
 2107 0041 0B       		.uleb128 0xb
 2108 0042 3A       		.uleb128 0x3a
 2109 0043 0B       		.uleb128 0xb
 2110 0044 3B       		.uleb128 0x3b
 2111 0045 0B       		.uleb128 0xb
 2112 0046 01       		.uleb128 0x1
 2113 0047 13       		.uleb128 0x13
 2114 0048 00       		.byte	0
 2115 0049 00       		.byte	0
 2116 004a 07       		.uleb128 0x7
 2117 004b 0D       		.uleb128 0xd
 2118 004c 00       		.byte	0
 2119 004d 03       		.uleb128 0x3
 2120 004e 0E       		.uleb128 0xe
 2121 004f 3A       		.uleb128 0x3a
 2122 0050 0B       		.uleb128 0xb
 2123 0051 3B       		.uleb128 0x3b
ARM GAS  /tmp/ccYyUiVf.s 			page 66


 2124 0052 0B       		.uleb128 0xb
 2125 0053 49       		.uleb128 0x49
 2126 0054 13       		.uleb128 0x13
 2127 0055 38       		.uleb128 0x38
 2128 0056 0B       		.uleb128 0xb
 2129 0057 00       		.byte	0
 2130 0058 00       		.byte	0
 2131 0059 08       		.uleb128 0x8
 2132 005a 0D       		.uleb128 0xd
 2133 005b 00       		.byte	0
 2134 005c 03       		.uleb128 0x3
 2135 005d 08       		.uleb128 0x8
 2136 005e 3A       		.uleb128 0x3a
 2137 005f 0B       		.uleb128 0xb
 2138 0060 3B       		.uleb128 0x3b
 2139 0061 05       		.uleb128 0x5
 2140 0062 49       		.uleb128 0x49
 2141 0063 13       		.uleb128 0x13
 2142 0064 38       		.uleb128 0x38
 2143 0065 0B       		.uleb128 0xb
 2144 0066 00       		.byte	0
 2145 0067 00       		.byte	0
 2146 0068 09       		.uleb128 0x9
 2147 0069 0D       		.uleb128 0xd
 2148 006a 00       		.byte	0
 2149 006b 03       		.uleb128 0x3
 2150 006c 0E       		.uleb128 0xe
 2151 006d 3A       		.uleb128 0x3a
 2152 006e 0B       		.uleb128 0xb
 2153 006f 3B       		.uleb128 0x3b
 2154 0070 05       		.uleb128 0x5
 2155 0071 49       		.uleb128 0x49
 2156 0072 13       		.uleb128 0x13
 2157 0073 38       		.uleb128 0x38
 2158 0074 0B       		.uleb128 0xb
 2159 0075 00       		.byte	0
 2160 0076 00       		.byte	0
 2161 0077 0A       		.uleb128 0xa
 2162 0078 0F       		.uleb128 0xf
 2163 0079 00       		.byte	0
 2164 007a 0B       		.uleb128 0xb
 2165 007b 0B       		.uleb128 0xb
 2166 007c 49       		.uleb128 0x49
 2167 007d 13       		.uleb128 0x13
 2168 007e 00       		.byte	0
 2169 007f 00       		.byte	0
 2170 0080 0B       		.uleb128 0xb
 2171 0081 13       		.uleb128 0x13
 2172 0082 01       		.byte	0x1
 2173 0083 03       		.uleb128 0x3
 2174 0084 0E       		.uleb128 0xe
 2175 0085 0B       		.uleb128 0xb
 2176 0086 0B       		.uleb128 0xb
 2177 0087 3A       		.uleb128 0x3a
 2178 0088 0B       		.uleb128 0xb
 2179 0089 3B       		.uleb128 0x3b
 2180 008a 05       		.uleb128 0x5
ARM GAS  /tmp/ccYyUiVf.s 			page 67


 2181 008b 01       		.uleb128 0x1
 2182 008c 13       		.uleb128 0x13
 2183 008d 00       		.byte	0
 2184 008e 00       		.byte	0
 2185 008f 0C       		.uleb128 0xc
 2186 0090 15       		.uleb128 0x15
 2187 0091 01       		.byte	0x1
 2188 0092 27       		.uleb128 0x27
 2189 0093 19       		.uleb128 0x19
 2190 0094 01       		.uleb128 0x1
 2191 0095 13       		.uleb128 0x13
 2192 0096 00       		.byte	0
 2193 0097 00       		.byte	0
 2194 0098 0D       		.uleb128 0xd
 2195 0099 05       		.uleb128 0x5
 2196 009a 00       		.byte	0
 2197 009b 49       		.uleb128 0x49
 2198 009c 13       		.uleb128 0x13
 2199 009d 00       		.byte	0
 2200 009e 00       		.byte	0
 2201 009f 0E       		.uleb128 0xe
 2202 00a0 0F       		.uleb128 0xf
 2203 00a1 00       		.byte	0
 2204 00a2 0B       		.uleb128 0xb
 2205 00a3 0B       		.uleb128 0xb
 2206 00a4 00       		.byte	0
 2207 00a5 00       		.byte	0
 2208 00a6 0F       		.uleb128 0xf
 2209 00a7 13       		.uleb128 0x13
 2210 00a8 01       		.byte	0x1
 2211 00a9 03       		.uleb128 0x3
 2212 00aa 0E       		.uleb128 0xe
 2213 00ab 0B       		.uleb128 0xb
 2214 00ac 05       		.uleb128 0x5
 2215 00ad 3A       		.uleb128 0x3a
 2216 00ae 0B       		.uleb128 0xb
 2217 00af 3B       		.uleb128 0x3b
 2218 00b0 05       		.uleb128 0x5
 2219 00b1 01       		.uleb128 0x1
 2220 00b2 13       		.uleb128 0x13
 2221 00b3 00       		.byte	0
 2222 00b4 00       		.byte	0
 2223 00b5 10       		.uleb128 0x10
 2224 00b6 0D       		.uleb128 0xd
 2225 00b7 00       		.byte	0
 2226 00b8 03       		.uleb128 0x3
 2227 00b9 08       		.uleb128 0x8
 2228 00ba 3A       		.uleb128 0x3a
 2229 00bb 0B       		.uleb128 0xb
 2230 00bc 3B       		.uleb128 0x3b
 2231 00bd 0B       		.uleb128 0xb
 2232 00be 49       		.uleb128 0x49
 2233 00bf 13       		.uleb128 0x13
 2234 00c0 38       		.uleb128 0x38
 2235 00c1 0B       		.uleb128 0xb
 2236 00c2 00       		.byte	0
 2237 00c3 00       		.byte	0
ARM GAS  /tmp/ccYyUiVf.s 			page 68


 2238 00c4 11       		.uleb128 0x11
 2239 00c5 13       		.uleb128 0x13
 2240 00c6 01       		.byte	0x1
 2241 00c7 0B       		.uleb128 0xb
 2242 00c8 0B       		.uleb128 0xb
 2243 00c9 3A       		.uleb128 0x3a
 2244 00ca 0B       		.uleb128 0xb
 2245 00cb 3B       		.uleb128 0x3b
 2246 00cc 0B       		.uleb128 0xb
 2247 00cd 01       		.uleb128 0x1
 2248 00ce 13       		.uleb128 0x13
 2249 00cf 00       		.byte	0
 2250 00d0 00       		.byte	0
 2251 00d1 12       		.uleb128 0x12
 2252 00d2 17       		.uleb128 0x17
 2253 00d3 01       		.byte	0x1
 2254 00d4 0B       		.uleb128 0xb
 2255 00d5 0B       		.uleb128 0xb
 2256 00d6 3A       		.uleb128 0x3a
 2257 00d7 0B       		.uleb128 0xb
 2258 00d8 3B       		.uleb128 0x3b
 2259 00d9 0B       		.uleb128 0xb
 2260 00da 01       		.uleb128 0x1
 2261 00db 13       		.uleb128 0x13
 2262 00dc 00       		.byte	0
 2263 00dd 00       		.byte	0
 2264 00de 13       		.uleb128 0x13
 2265 00df 0D       		.uleb128 0xd
 2266 00e0 00       		.byte	0
 2267 00e1 03       		.uleb128 0x3
 2268 00e2 0E       		.uleb128 0xe
 2269 00e3 3A       		.uleb128 0x3a
 2270 00e4 0B       		.uleb128 0xb
 2271 00e5 3B       		.uleb128 0x3b
 2272 00e6 05       		.uleb128 0x5
 2273 00e7 49       		.uleb128 0x49
 2274 00e8 13       		.uleb128 0x13
 2275 00e9 00       		.byte	0
 2276 00ea 00       		.byte	0
 2277 00eb 14       		.uleb128 0x14
 2278 00ec 26       		.uleb128 0x26
 2279 00ed 00       		.byte	0
 2280 00ee 49       		.uleb128 0x49
 2281 00ef 13       		.uleb128 0x13
 2282 00f0 00       		.byte	0
 2283 00f1 00       		.byte	0
 2284 00f2 15       		.uleb128 0x15
 2285 00f3 01       		.uleb128 0x1
 2286 00f4 01       		.byte	0x1
 2287 00f5 49       		.uleb128 0x49
 2288 00f6 13       		.uleb128 0x13
 2289 00f7 01       		.uleb128 0x1
 2290 00f8 13       		.uleb128 0x13
 2291 00f9 00       		.byte	0
 2292 00fa 00       		.byte	0
 2293 00fb 16       		.uleb128 0x16
 2294 00fc 21       		.uleb128 0x21
ARM GAS  /tmp/ccYyUiVf.s 			page 69


 2295 00fd 00       		.byte	0
 2296 00fe 49       		.uleb128 0x49
 2297 00ff 13       		.uleb128 0x13
 2298 0100 2F       		.uleb128 0x2f
 2299 0101 0B       		.uleb128 0xb
 2300 0102 00       		.byte	0
 2301 0103 00       		.byte	0
 2302 0104 17       		.uleb128 0x17
 2303 0105 2E       		.uleb128 0x2e
 2304 0106 01       		.byte	0x1
 2305 0107 03       		.uleb128 0x3
 2306 0108 0E       		.uleb128 0xe
 2307 0109 3A       		.uleb128 0x3a
 2308 010a 0B       		.uleb128 0xb
 2309 010b 3B       		.uleb128 0x3b
 2310 010c 05       		.uleb128 0x5
 2311 010d 27       		.uleb128 0x27
 2312 010e 19       		.uleb128 0x19
 2313 010f 20       		.uleb128 0x20
 2314 0110 0B       		.uleb128 0xb
 2315 0111 01       		.uleb128 0x1
 2316 0112 13       		.uleb128 0x13
 2317 0113 00       		.byte	0
 2318 0114 00       		.byte	0
 2319 0115 18       		.uleb128 0x18
 2320 0116 05       		.uleb128 0x5
 2321 0117 00       		.byte	0
 2322 0118 03       		.uleb128 0x3
 2323 0119 0E       		.uleb128 0xe
 2324 011a 3A       		.uleb128 0x3a
 2325 011b 0B       		.uleb128 0xb
 2326 011c 3B       		.uleb128 0x3b
 2327 011d 05       		.uleb128 0x5
 2328 011e 49       		.uleb128 0x49
 2329 011f 13       		.uleb128 0x13
 2330 0120 00       		.byte	0
 2331 0121 00       		.byte	0
 2332 0122 19       		.uleb128 0x19
 2333 0123 2E       		.uleb128 0x2e
 2334 0124 00       		.byte	0
 2335 0125 03       		.uleb128 0x3
 2336 0126 0E       		.uleb128 0xe
 2337 0127 3A       		.uleb128 0x3a
 2338 0128 0B       		.uleb128 0xb
 2339 0129 3B       		.uleb128 0x3b
 2340 012a 05       		.uleb128 0x5
 2341 012b 27       		.uleb128 0x27
 2342 012c 19       		.uleb128 0x19
 2343 012d 20       		.uleb128 0x20
 2344 012e 0B       		.uleb128 0xb
 2345 012f 00       		.byte	0
 2346 0130 00       		.byte	0
 2347 0131 1A       		.uleb128 0x1a
 2348 0132 05       		.uleb128 0x5
 2349 0133 00       		.byte	0
 2350 0134 03       		.uleb128 0x3
 2351 0135 08       		.uleb128 0x8
ARM GAS  /tmp/ccYyUiVf.s 			page 70


 2352 0136 3A       		.uleb128 0x3a
 2353 0137 0B       		.uleb128 0xb
 2354 0138 3B       		.uleb128 0x3b
 2355 0139 05       		.uleb128 0x5
 2356 013a 49       		.uleb128 0x49
 2357 013b 13       		.uleb128 0x13
 2358 013c 00       		.byte	0
 2359 013d 00       		.byte	0
 2360 013e 1B       		.uleb128 0x1b
 2361 013f 34       		.uleb128 0x34
 2362 0140 00       		.byte	0
 2363 0141 03       		.uleb128 0x3
 2364 0142 0E       		.uleb128 0xe
 2365 0143 49       		.uleb128 0x49
 2366 0144 13       		.uleb128 0x13
 2367 0145 34       		.uleb128 0x34
 2368 0146 19       		.uleb128 0x19
 2369 0147 1C       		.uleb128 0x1c
 2370 0148 0E       		.uleb128 0xe
 2371 0149 00       		.byte	0
 2372 014a 00       		.byte	0
 2373 014b 1C       		.uleb128 0x1c
 2374 014c 2E       		.uleb128 0x2e
 2375 014d 01       		.byte	0x1
 2376 014e 03       		.uleb128 0x3
 2377 014f 0E       		.uleb128 0xe
 2378 0150 3A       		.uleb128 0x3a
 2379 0151 0B       		.uleb128 0xb
 2380 0152 3B       		.uleb128 0x3b
 2381 0153 0B       		.uleb128 0xb
 2382 0154 27       		.uleb128 0x27
 2383 0155 19       		.uleb128 0x19
 2384 0156 49       		.uleb128 0x49
 2385 0157 13       		.uleb128 0x13
 2386 0158 20       		.uleb128 0x20
 2387 0159 0B       		.uleb128 0xb
 2388 015a 01       		.uleb128 0x1
 2389 015b 13       		.uleb128 0x13
 2390 015c 00       		.byte	0
 2391 015d 00       		.byte	0
 2392 015e 1D       		.uleb128 0x1d
 2393 015f 05       		.uleb128 0x5
 2394 0160 00       		.byte	0
 2395 0161 03       		.uleb128 0x3
 2396 0162 08       		.uleb128 0x8
 2397 0163 3A       		.uleb128 0x3a
 2398 0164 0B       		.uleb128 0xb
 2399 0165 3B       		.uleb128 0x3b
 2400 0166 0B       		.uleb128 0xb
 2401 0167 49       		.uleb128 0x49
 2402 0168 13       		.uleb128 0x13
 2403 0169 00       		.byte	0
 2404 016a 00       		.byte	0
 2405 016b 1E       		.uleb128 0x1e
 2406 016c 2E       		.uleb128 0x2e
 2407 016d 01       		.byte	0x1
 2408 016e 03       		.uleb128 0x3
ARM GAS  /tmp/ccYyUiVf.s 			page 71


 2409 016f 0E       		.uleb128 0xe
 2410 0170 3A       		.uleb128 0x3a
 2411 0171 0B       		.uleb128 0xb
 2412 0172 3B       		.uleb128 0x3b
 2413 0173 05       		.uleb128 0x5
 2414 0174 27       		.uleb128 0x27
 2415 0175 19       		.uleb128 0x19
 2416 0176 49       		.uleb128 0x49
 2417 0177 13       		.uleb128 0x13
 2418 0178 20       		.uleb128 0x20
 2419 0179 0B       		.uleb128 0xb
 2420 017a 01       		.uleb128 0x1
 2421 017b 13       		.uleb128 0x13
 2422 017c 00       		.byte	0
 2423 017d 00       		.byte	0
 2424 017e 1F       		.uleb128 0x1f
 2425 017f 34       		.uleb128 0x34
 2426 0180 00       		.byte	0
 2427 0181 03       		.uleb128 0x3
 2428 0182 08       		.uleb128 0x8
 2429 0183 3A       		.uleb128 0x3a
 2430 0184 0B       		.uleb128 0xb
 2431 0185 3B       		.uleb128 0x3b
 2432 0186 05       		.uleb128 0x5
 2433 0187 49       		.uleb128 0x49
 2434 0188 13       		.uleb128 0x13
 2435 0189 00       		.byte	0
 2436 018a 00       		.byte	0
 2437 018b 20       		.uleb128 0x20
 2438 018c 2E       		.uleb128 0x2e
 2439 018d 01       		.byte	0x1
 2440 018e 03       		.uleb128 0x3
 2441 018f 0E       		.uleb128 0xe
 2442 0190 3A       		.uleb128 0x3a
 2443 0191 0B       		.uleb128 0xb
 2444 0192 3B       		.uleb128 0x3b
 2445 0193 0B       		.uleb128 0xb
 2446 0194 27       		.uleb128 0x27
 2447 0195 19       		.uleb128 0x19
 2448 0196 20       		.uleb128 0x20
 2449 0197 0B       		.uleb128 0xb
 2450 0198 01       		.uleb128 0x1
 2451 0199 13       		.uleb128 0x13
 2452 019a 00       		.byte	0
 2453 019b 00       		.byte	0
 2454 019c 21       		.uleb128 0x21
 2455 019d 2E       		.uleb128 0x2e
 2456 019e 01       		.byte	0x1
 2457 019f 3F       		.uleb128 0x3f
 2458 01a0 19       		.uleb128 0x19
 2459 01a1 03       		.uleb128 0x3
 2460 01a2 0E       		.uleb128 0xe
 2461 01a3 3A       		.uleb128 0x3a
 2462 01a4 0B       		.uleb128 0xb
 2463 01a5 3B       		.uleb128 0x3b
 2464 01a6 0B       		.uleb128 0xb
 2465 01a7 27       		.uleb128 0x27
ARM GAS  /tmp/ccYyUiVf.s 			page 72


 2466 01a8 19       		.uleb128 0x19
 2467 01a9 49       		.uleb128 0x49
 2468 01aa 13       		.uleb128 0x13
 2469 01ab 11       		.uleb128 0x11
 2470 01ac 01       		.uleb128 0x1
 2471 01ad 12       		.uleb128 0x12
 2472 01ae 06       		.uleb128 0x6
 2473 01af 40       		.uleb128 0x40
 2474 01b0 18       		.uleb128 0x18
 2475 01b1 9742     		.uleb128 0x2117
 2476 01b3 19       		.uleb128 0x19
 2477 01b4 01       		.uleb128 0x1
 2478 01b5 13       		.uleb128 0x13
 2479 01b6 00       		.byte	0
 2480 01b7 00       		.byte	0
 2481 01b8 22       		.uleb128 0x22
 2482 01b9 05       		.uleb128 0x5
 2483 01ba 00       		.byte	0
 2484 01bb 03       		.uleb128 0x3
 2485 01bc 08       		.uleb128 0x8
 2486 01bd 3A       		.uleb128 0x3a
 2487 01be 0B       		.uleb128 0xb
 2488 01bf 3B       		.uleb128 0x3b
 2489 01c0 0B       		.uleb128 0xb
 2490 01c1 49       		.uleb128 0x49
 2491 01c2 13       		.uleb128 0x13
 2492 01c3 02       		.uleb128 0x2
 2493 01c4 17       		.uleb128 0x17
 2494 01c5 00       		.byte	0
 2495 01c6 00       		.byte	0
 2496 01c7 23       		.uleb128 0x23
 2497 01c8 34       		.uleb128 0x34
 2498 01c9 00       		.byte	0
 2499 01ca 03       		.uleb128 0x3
 2500 01cb 08       		.uleb128 0x8
 2501 01cc 3A       		.uleb128 0x3a
 2502 01cd 0B       		.uleb128 0xb
 2503 01ce 3B       		.uleb128 0x3b
 2504 01cf 0B       		.uleb128 0xb
 2505 01d0 49       		.uleb128 0x49
 2506 01d1 13       		.uleb128 0x13
 2507 01d2 02       		.uleb128 0x2
 2508 01d3 18       		.uleb128 0x18
 2509 01d4 00       		.byte	0
 2510 01d5 00       		.byte	0
 2511 01d6 24       		.uleb128 0x24
 2512 01d7 34       		.uleb128 0x34
 2513 01d8 00       		.byte	0
 2514 01d9 03       		.uleb128 0x3
 2515 01da 0E       		.uleb128 0xe
 2516 01db 49       		.uleb128 0x49
 2517 01dc 13       		.uleb128 0x13
 2518 01dd 34       		.uleb128 0x34
 2519 01de 19       		.uleb128 0x19
 2520 01df 00       		.byte	0
 2521 01e0 00       		.byte	0
 2522 01e1 25       		.uleb128 0x25
ARM GAS  /tmp/ccYyUiVf.s 			page 73


 2523 01e2 1D       		.uleb128 0x1d
 2524 01e3 01       		.byte	0x1
 2525 01e4 31       		.uleb128 0x31
 2526 01e5 13       		.uleb128 0x13
 2527 01e6 52       		.uleb128 0x52
 2528 01e7 01       		.uleb128 0x1
 2529 01e8 55       		.uleb128 0x55
 2530 01e9 17       		.uleb128 0x17
 2531 01ea 58       		.uleb128 0x58
 2532 01eb 0B       		.uleb128 0xb
 2533 01ec 59       		.uleb128 0x59
 2534 01ed 0B       		.uleb128 0xb
 2535 01ee 01       		.uleb128 0x1
 2536 01ef 13       		.uleb128 0x13
 2537 01f0 00       		.byte	0
 2538 01f1 00       		.byte	0
 2539 01f2 26       		.uleb128 0x26
 2540 01f3 1D       		.uleb128 0x1d
 2541 01f4 01       		.byte	0x1
 2542 01f5 31       		.uleb128 0x31
 2543 01f6 13       		.uleb128 0x13
 2544 01f7 52       		.uleb128 0x52
 2545 01f8 01       		.uleb128 0x1
 2546 01f9 55       		.uleb128 0x55
 2547 01fa 17       		.uleb128 0x17
 2548 01fb 58       		.uleb128 0x58
 2549 01fc 0B       		.uleb128 0xb
 2550 01fd 59       		.uleb128 0x59
 2551 01fe 05       		.uleb128 0x5
 2552 01ff 00       		.byte	0
 2553 0200 00       		.byte	0
 2554 0201 27       		.uleb128 0x27
 2555 0202 05       		.uleb128 0x5
 2556 0203 00       		.byte	0
 2557 0204 31       		.uleb128 0x31
 2558 0205 13       		.uleb128 0x13
 2559 0206 1C       		.uleb128 0x1c
 2560 0207 0B       		.uleb128 0xb
 2561 0208 00       		.byte	0
 2562 0209 00       		.byte	0
 2563 020a 28       		.uleb128 0x28
 2564 020b 05       		.uleb128 0x5
 2565 020c 00       		.byte	0
 2566 020d 31       		.uleb128 0x31
 2567 020e 13       		.uleb128 0x13
 2568 020f 02       		.uleb128 0x2
 2569 0210 18       		.uleb128 0x18
 2570 0211 00       		.byte	0
 2571 0212 00       		.byte	0
 2572 0213 29       		.uleb128 0x29
 2573 0214 1D       		.uleb128 0x1d
 2574 0215 01       		.byte	0x1
 2575 0216 31       		.uleb128 0x31
 2576 0217 13       		.uleb128 0x13
 2577 0218 11       		.uleb128 0x11
 2578 0219 01       		.uleb128 0x1
 2579 021a 12       		.uleb128 0x12
ARM GAS  /tmp/ccYyUiVf.s 			page 74


 2580 021b 06       		.uleb128 0x6
 2581 021c 58       		.uleb128 0x58
 2582 021d 0B       		.uleb128 0xb
 2583 021e 59       		.uleb128 0x59
 2584 021f 0B       		.uleb128 0xb
 2585 0220 01       		.uleb128 0x1
 2586 0221 13       		.uleb128 0x13
 2587 0222 00       		.byte	0
 2588 0223 00       		.byte	0
 2589 0224 2A       		.uleb128 0x2a
 2590 0225 0B       		.uleb128 0xb
 2591 0226 01       		.byte	0x1
 2592 0227 11       		.uleb128 0x11
 2593 0228 01       		.uleb128 0x1
 2594 0229 12       		.uleb128 0x12
 2595 022a 06       		.uleb128 0x6
 2596 022b 00       		.byte	0
 2597 022c 00       		.byte	0
 2598 022d 2B       		.uleb128 0x2b
 2599 022e 34       		.uleb128 0x34
 2600 022f 00       		.byte	0
 2601 0230 31       		.uleb128 0x31
 2602 0231 13       		.uleb128 0x13
 2603 0232 00       		.byte	0
 2604 0233 00       		.byte	0
 2605 0234 2C       		.uleb128 0x2c
 2606 0235 1D       		.uleb128 0x1d
 2607 0236 01       		.byte	0x1
 2608 0237 31       		.uleb128 0x31
 2609 0238 13       		.uleb128 0x13
 2610 0239 11       		.uleb128 0x11
 2611 023a 01       		.uleb128 0x1
 2612 023b 12       		.uleb128 0x12
 2613 023c 06       		.uleb128 0x6
 2614 023d 58       		.uleb128 0x58
 2615 023e 0B       		.uleb128 0xb
 2616 023f 59       		.uleb128 0x59
 2617 0240 05       		.uleb128 0x5
 2618 0241 00       		.byte	0
 2619 0242 00       		.byte	0
 2620 0243 2D       		.uleb128 0x2d
 2621 0244 05       		.uleb128 0x5
 2622 0245 00       		.byte	0
 2623 0246 31       		.uleb128 0x31
 2624 0247 13       		.uleb128 0x13
 2625 0248 02       		.uleb128 0x2
 2626 0249 17       		.uleb128 0x17
 2627 024a 00       		.byte	0
 2628 024b 00       		.byte	0
 2629 024c 2E       		.uleb128 0x2e
 2630 024d 898201   		.uleb128 0x4109
 2631 0250 01       		.byte	0x1
 2632 0251 11       		.uleb128 0x11
 2633 0252 01       		.uleb128 0x1
 2634 0253 31       		.uleb128 0x31
 2635 0254 13       		.uleb128 0x13
 2636 0255 01       		.uleb128 0x1
ARM GAS  /tmp/ccYyUiVf.s 			page 75


 2637 0256 13       		.uleb128 0x13
 2638 0257 00       		.byte	0
 2639 0258 00       		.byte	0
 2640 0259 2F       		.uleb128 0x2f
 2641 025a 8A8201   		.uleb128 0x410a
 2642 025d 00       		.byte	0
 2643 025e 02       		.uleb128 0x2
 2644 025f 18       		.uleb128 0x18
 2645 0260 9142     		.uleb128 0x2111
 2646 0262 18       		.uleb128 0x18
 2647 0263 00       		.byte	0
 2648 0264 00       		.byte	0
 2649 0265 30       		.uleb128 0x30
 2650 0266 898201   		.uleb128 0x4109
 2651 0269 00       		.byte	0
 2652 026a 11       		.uleb128 0x11
 2653 026b 01       		.uleb128 0x1
 2654 026c 31       		.uleb128 0x31
 2655 026d 13       		.uleb128 0x13
 2656 026e 00       		.byte	0
 2657 026f 00       		.byte	0
 2658 0270 31       		.uleb128 0x31
 2659 0271 34       		.uleb128 0x34
 2660 0272 00       		.byte	0
 2661 0273 03       		.uleb128 0x3
 2662 0274 08       		.uleb128 0x8
 2663 0275 3A       		.uleb128 0x3a
 2664 0276 0B       		.uleb128 0xb
 2665 0277 3B       		.uleb128 0x3b
 2666 0278 0B       		.uleb128 0xb
 2667 0279 49       		.uleb128 0x49
 2668 027a 13       		.uleb128 0x13
 2669 027b 00       		.byte	0
 2670 027c 00       		.byte	0
 2671 027d 32       		.uleb128 0x32
 2672 027e 0B       		.uleb128 0xb
 2673 027f 01       		.byte	0x1
 2674 0280 55       		.uleb128 0x55
 2675 0281 17       		.uleb128 0x17
 2676 0282 00       		.byte	0
 2677 0283 00       		.byte	0
 2678 0284 33       		.uleb128 0x33
 2679 0285 34       		.uleb128 0x34
 2680 0286 00       		.byte	0
 2681 0287 31       		.uleb128 0x31
 2682 0288 13       		.uleb128 0x13
 2683 0289 02       		.uleb128 0x2
 2684 028a 17       		.uleb128 0x17
 2685 028b 00       		.byte	0
 2686 028c 00       		.byte	0
 2687 028d 34       		.uleb128 0x34
 2688 028e 898201   		.uleb128 0x4109
 2689 0291 01       		.byte	0x1
 2690 0292 11       		.uleb128 0x11
 2691 0293 01       		.uleb128 0x1
 2692 0294 31       		.uleb128 0x31
 2693 0295 13       		.uleb128 0x13
ARM GAS  /tmp/ccYyUiVf.s 			page 76


 2694 0296 00       		.byte	0
 2695 0297 00       		.byte	0
 2696 0298 35       		.uleb128 0x35
 2697 0299 2E       		.uleb128 0x2e
 2698 029a 01       		.byte	0x1
 2699 029b 3F       		.uleb128 0x3f
 2700 029c 19       		.uleb128 0x19
 2701 029d 03       		.uleb128 0x3
 2702 029e 0E       		.uleb128 0xe
 2703 029f 3A       		.uleb128 0x3a
 2704 02a0 0B       		.uleb128 0xb
 2705 02a1 3B       		.uleb128 0x3b
 2706 02a2 0B       		.uleb128 0xb
 2707 02a3 27       		.uleb128 0x27
 2708 02a4 19       		.uleb128 0x19
 2709 02a5 11       		.uleb128 0x11
 2710 02a6 01       		.uleb128 0x1
 2711 02a7 12       		.uleb128 0x12
 2712 02a8 06       		.uleb128 0x6
 2713 02a9 40       		.uleb128 0x40
 2714 02aa 18       		.uleb128 0x18
 2715 02ab 9742     		.uleb128 0x2117
 2716 02ad 19       		.uleb128 0x19
 2717 02ae 01       		.uleb128 0x1
 2718 02af 13       		.uleb128 0x13
 2719 02b0 00       		.byte	0
 2720 02b1 00       		.byte	0
 2721 02b2 36       		.uleb128 0x36
 2722 02b3 1D       		.uleb128 0x1d
 2723 02b4 01       		.byte	0x1
 2724 02b5 31       		.uleb128 0x31
 2725 02b6 13       		.uleb128 0x13
 2726 02b7 11       		.uleb128 0x11
 2727 02b8 01       		.uleb128 0x1
 2728 02b9 12       		.uleb128 0x12
 2729 02ba 06       		.uleb128 0x6
 2730 02bb 58       		.uleb128 0x58
 2731 02bc 0B       		.uleb128 0xb
 2732 02bd 59       		.uleb128 0x59
 2733 02be 0B       		.uleb128 0xb
 2734 02bf 00       		.byte	0
 2735 02c0 00       		.byte	0
 2736 02c1 37       		.uleb128 0x37
 2737 02c2 34       		.uleb128 0x34
 2738 02c3 00       		.byte	0
 2739 02c4 03       		.uleb128 0x3
 2740 02c5 0E       		.uleb128 0xe
 2741 02c6 3A       		.uleb128 0x3a
 2742 02c7 0B       		.uleb128 0xb
 2743 02c8 3B       		.uleb128 0x3b
 2744 02c9 05       		.uleb128 0x5
 2745 02ca 49       		.uleb128 0x49
 2746 02cb 13       		.uleb128 0x13
 2747 02cc 3F       		.uleb128 0x3f
 2748 02cd 19       		.uleb128 0x19
 2749 02ce 3C       		.uleb128 0x3c
 2750 02cf 19       		.uleb128 0x19
ARM GAS  /tmp/ccYyUiVf.s 			page 77


 2751 02d0 00       		.byte	0
 2752 02d1 00       		.byte	0
 2753 02d2 38       		.uleb128 0x38
 2754 02d3 34       		.uleb128 0x34
 2755 02d4 00       		.byte	0
 2756 02d5 03       		.uleb128 0x3
 2757 02d6 08       		.uleb128 0x8
 2758 02d7 3A       		.uleb128 0x3a
 2759 02d8 0B       		.uleb128 0xb
 2760 02d9 3B       		.uleb128 0x3b
 2761 02da 05       		.uleb128 0x5
 2762 02db 49       		.uleb128 0x49
 2763 02dc 13       		.uleb128 0x13
 2764 02dd 3F       		.uleb128 0x3f
 2765 02de 19       		.uleb128 0x19
 2766 02df 3C       		.uleb128 0x3c
 2767 02e0 19       		.uleb128 0x19
 2768 02e1 00       		.byte	0
 2769 02e2 00       		.byte	0
 2770 02e3 39       		.uleb128 0x39
 2771 02e4 2E       		.uleb128 0x2e
 2772 02e5 01       		.byte	0x1
 2773 02e6 3F       		.uleb128 0x3f
 2774 02e7 19       		.uleb128 0x19
 2775 02e8 03       		.uleb128 0x3
 2776 02e9 0E       		.uleb128 0xe
 2777 02ea 3A       		.uleb128 0x3a
 2778 02eb 0B       		.uleb128 0xb
 2779 02ec 3B       		.uleb128 0x3b
 2780 02ed 05       		.uleb128 0x5
 2781 02ee 27       		.uleb128 0x27
 2782 02ef 19       		.uleb128 0x19
 2783 02f0 3C       		.uleb128 0x3c
 2784 02f1 19       		.uleb128 0x19
 2785 02f2 01       		.uleb128 0x1
 2786 02f3 13       		.uleb128 0x13
 2787 02f4 00       		.byte	0
 2788 02f5 00       		.byte	0
 2789 02f6 3A       		.uleb128 0x3a
 2790 02f7 2E       		.uleb128 0x2e
 2791 02f8 01       		.byte	0x1
 2792 02f9 3F       		.uleb128 0x3f
 2793 02fa 19       		.uleb128 0x19
 2794 02fb 03       		.uleb128 0x3
 2795 02fc 0E       		.uleb128 0xe
 2796 02fd 3A       		.uleb128 0x3a
 2797 02fe 0B       		.uleb128 0xb
 2798 02ff 3B       		.uleb128 0x3b
 2799 0300 05       		.uleb128 0x5
 2800 0301 27       		.uleb128 0x27
 2801 0302 19       		.uleb128 0x19
 2802 0303 49       		.uleb128 0x49
 2803 0304 13       		.uleb128 0x13
 2804 0305 3C       		.uleb128 0x3c
 2805 0306 19       		.uleb128 0x19
 2806 0307 01       		.uleb128 0x1
 2807 0308 13       		.uleb128 0x13
ARM GAS  /tmp/ccYyUiVf.s 			page 78


 2808 0309 00       		.byte	0
 2809 030a 00       		.byte	0
 2810 030b 3B       		.uleb128 0x3b
 2811 030c 2E       		.uleb128 0x2e
 2812 030d 01       		.byte	0x1
 2813 030e 3F       		.uleb128 0x3f
 2814 030f 19       		.uleb128 0x19
 2815 0310 03       		.uleb128 0x3
 2816 0311 0E       		.uleb128 0xe
 2817 0312 3A       		.uleb128 0x3a
 2818 0313 0B       		.uleb128 0xb
 2819 0314 3B       		.uleb128 0x3b
 2820 0315 05       		.uleb128 0x5
 2821 0316 27       		.uleb128 0x27
 2822 0317 19       		.uleb128 0x19
 2823 0318 3C       		.uleb128 0x3c
 2824 0319 19       		.uleb128 0x19
 2825 031a 00       		.byte	0
 2826 031b 00       		.byte	0
 2827 031c 00       		.byte	0
 2828              		.section	.debug_loc,"",%progbits
 2829              	.Ldebug_loc0:
 2830              	.LLST0:
 2831 0000 00000000 		.4byte	.LVL0
 2832 0004 24000000 		.4byte	.LVL3
 2833 0008 0100     		.2byte	0x1
 2834 000a 50       		.byte	0x50
 2835 000b 24000000 		.4byte	.LVL3
 2836 000f 34000000 		.4byte	.LVL6
 2837 0013 0300     		.2byte	0x3
 2838 0015 75       		.byte	0x75
 2839 0016 58       		.sleb128 -40
 2840 0017 9F       		.byte	0x9f
 2841 0018 34000000 		.4byte	.LVL6
 2842 001c 37000000 		.4byte	.LVL7-1
 2843 0020 0100     		.2byte	0x1
 2844 0022 50       		.byte	0x50
 2845 0023 37000000 		.4byte	.LVL7-1
 2846 0027 40000000 		.4byte	.LFE229
 2847 002b 0300     		.2byte	0x3
 2848 002d 75       		.byte	0x75
 2849 002e 58       		.sleb128 -40
 2850 002f 9F       		.byte	0x9f
 2851 0030 00000000 		.4byte	0
 2852 0034 00000000 		.4byte	0
 2853              	.LLST1:
 2854 0038 00000000 		.4byte	.LVL0
 2855 003c 24000000 		.4byte	.LVL3
 2856 0040 0100     		.2byte	0x1
 2857 0042 51       		.byte	0x51
 2858 0043 24000000 		.4byte	.LVL3
 2859 0047 2C000000 		.4byte	.LVL5
 2860 004b 0400     		.2byte	0x4
 2861 004d F3       		.byte	0xf3
 2862 004e 01       		.uleb128 0x1
 2863 004f 51       		.byte	0x51
 2864 0050 9F       		.byte	0x9f
ARM GAS  /tmp/ccYyUiVf.s 			page 79


 2865 0051 2C000000 		.4byte	.LVL5
 2866 0055 34000000 		.4byte	.LVL6
 2867 0059 0100     		.2byte	0x1
 2868 005b 50       		.byte	0x50
 2869 005c 34000000 		.4byte	.LVL6
 2870 0060 37000000 		.4byte	.LVL7-1
 2871 0064 0100     		.2byte	0x1
 2872 0066 51       		.byte	0x51
 2873 0067 37000000 		.4byte	.LVL7-1
 2874 006b 40000000 		.4byte	.LFE229
 2875 006f 0400     		.2byte	0x4
 2876 0071 F3       		.byte	0xf3
 2877 0072 01       		.uleb128 0x1
 2878 0073 51       		.byte	0x51
 2879 0074 9F       		.byte	0x9f
 2880 0075 00000000 		.4byte	0
 2881 0079 00000000 		.4byte	0
 2882              	.LLST2:
 2883 007d 2C000000 		.4byte	.LVL5
 2884 0081 34000000 		.4byte	.LVL6
 2885 0085 0200     		.2byte	0x2
 2886 0087 30       		.byte	0x30
 2887 0088 9F       		.byte	0x9f
 2888 0089 00000000 		.4byte	0
 2889 008d 00000000 		.4byte	0
 2890              	.LLST3:
 2891 0091 0C000000 		.4byte	.LVL9
 2892 0095 16000000 		.4byte	.LVL10
 2893 0099 0100     		.2byte	0x1
 2894 009b 52       		.byte	0x52
 2895 009c 28000000 		.4byte	.LVL13
 2896 00a0 2D000000 		.4byte	.LVL14-1
 2897 00a4 0100     		.2byte	0x1
 2898 00a6 52       		.byte	0x52
 2899 00a7 00000000 		.4byte	0
 2900 00ab 00000000 		.4byte	0
 2901              	.LLST4:
 2902 00af 16000000 		.4byte	.LVL10
 2903 00b3 20000000 		.4byte	.LVL11
 2904 00b7 0100     		.2byte	0x1
 2905 00b9 53       		.byte	0x53
 2906 00ba 20000000 		.4byte	.LVL11
 2907 00be 28000000 		.4byte	.LVL13
 2908 00c2 0200     		.2byte	0x2
 2909 00c4 71       		.byte	0x71
 2910 00c5 04       		.sleb128 4
 2911 00c6 00000000 		.4byte	0
 2912 00ca 00000000 		.4byte	0
 2913              	.LLST5:
 2914 00ce 16000000 		.4byte	.LVL10
 2915 00d2 28000000 		.4byte	.LVL13
 2916 00d6 0100     		.2byte	0x1
 2917 00d8 50       		.byte	0x50
 2918 00d9 00000000 		.4byte	0
 2919 00dd 00000000 		.4byte	0
 2920              	.LLST6:
 2921 00e1 22000000 		.4byte	.LVL12
ARM GAS  /tmp/ccYyUiVf.s 			page 80


 2922 00e5 28000000 		.4byte	.LVL13
 2923 00e9 0200     		.2byte	0x2
 2924 00eb 30       		.byte	0x30
 2925 00ec 9F       		.byte	0x9f
 2926 00ed 00000000 		.4byte	0
 2927 00f1 00000000 		.4byte	0
 2928              	.LLST7:
 2929 00f5 00000000 		.4byte	.LVL15
 2930 00f9 0B000000 		.4byte	.LVL17-1
 2931 00fd 0100     		.2byte	0x1
 2932 00ff 50       		.byte	0x50
 2933 0100 0B000000 		.4byte	.LVL17-1
 2934 0104 14000000 		.4byte	.LFE231
 2935 0108 0400     		.2byte	0x4
 2936 010a F3       		.byte	0xf3
 2937 010b 01       		.uleb128 0x1
 2938 010c 50       		.byte	0x50
 2939 010d 9F       		.byte	0x9f
 2940 010e 00000000 		.4byte	0
 2941 0112 00000000 		.4byte	0
 2942              	.LLST8:
 2943 0116 00000000 		.4byte	.LVL15
 2944 011a 0B000000 		.4byte	.LVL17-1
 2945 011e 0100     		.2byte	0x1
 2946 0120 51       		.byte	0x51
 2947 0121 0B000000 		.4byte	.LVL17-1
 2948 0125 14000000 		.4byte	.LFE231
 2949 0129 0400     		.2byte	0x4
 2950 012b F3       		.byte	0xf3
 2951 012c 01       		.uleb128 0x1
 2952 012d 51       		.byte	0x51
 2953 012e 9F       		.byte	0x9f
 2954 012f 00000000 		.4byte	0
 2955 0133 00000000 		.4byte	0
 2956              	.LLST9:
 2957 0137 08000000 		.4byte	.LVL16
 2958 013b 0B000000 		.4byte	.LVL17-1
 2959 013f 0100     		.2byte	0x1
 2960 0141 51       		.byte	0x51
 2961 0142 0B000000 		.4byte	.LVL17-1
 2962 0146 14000000 		.4byte	.LFE231
 2963 014a 0400     		.2byte	0x4
 2964 014c F3       		.byte	0xf3
 2965 014d 01       		.uleb128 0x1
 2966 014e 51       		.byte	0x51
 2967 014f 9F       		.byte	0x9f
 2968 0150 00000000 		.4byte	0
 2969 0154 00000000 		.4byte	0
 2970              	.LLST10:
 2971 0158 08000000 		.4byte	.LVL16
 2972 015c 0B000000 		.4byte	.LVL17-1
 2973 0160 0100     		.2byte	0x1
 2974 0162 50       		.byte	0x50
 2975 0163 0B000000 		.4byte	.LVL17-1
 2976 0167 14000000 		.4byte	.LFE231
 2977 016b 0400     		.2byte	0x4
 2978 016d F3       		.byte	0xf3
ARM GAS  /tmp/ccYyUiVf.s 			page 81


 2979 016e 01       		.uleb128 0x1
 2980 016f 50       		.byte	0x50
 2981 0170 9F       		.byte	0x9f
 2982 0171 00000000 		.4byte	0
 2983 0175 00000000 		.4byte	0
 2984              		.section	.debug_aranges,"",%progbits
 2985 0000 2C000000 		.4byte	0x2c
 2986 0004 0200     		.2byte	0x2
 2987 0006 00000000 		.4byte	.Ldebug_info0
 2988 000a 04       		.byte	0x4
 2989 000b 00       		.byte	0
 2990 000c 0000     		.2byte	0
 2991 000e 0000     		.2byte	0
 2992 0010 00000000 		.4byte	.LFB229
 2993 0014 40000000 		.4byte	.LFE229-.LFB229
 2994 0018 00000000 		.4byte	.LFB230
 2995 001c 3C000000 		.4byte	.LFE230-.LFB230
 2996 0020 00000000 		.4byte	.LFB231
 2997 0024 14000000 		.4byte	.LFE231-.LFB231
 2998 0028 00000000 		.4byte	0
 2999 002c 00000000 		.4byte	0
 3000              		.section	.debug_ranges,"",%progbits
 3001              	.Ldebug_ranges0:
 3002 0000 04000000 		.4byte	.LBB52
 3003 0004 06000000 		.4byte	.LBE52
 3004 0008 08000000 		.4byte	.LBB59
 3005 000c 0C000000 		.4byte	.LBE59
 3006 0010 00000000 		.4byte	0
 3007 0014 00000000 		.4byte	0
 3008 0018 14000000 		.4byte	.LBB60
 3009 001c 18000000 		.4byte	.LBE60
 3010 0020 1C000000 		.4byte	.LBB63
 3011 0024 22000000 		.4byte	.LBE63
 3012 0028 00000000 		.4byte	0
 3013 002c 00000000 		.4byte	0
 3014 0030 16000000 		.4byte	.LBB75
 3015 0034 1A000000 		.4byte	.LBE75
 3016 0038 1C000000 		.4byte	.LBB78
 3017 003c 1E000000 		.4byte	.LBE78
 3018 0040 00000000 		.4byte	0
 3019 0044 00000000 		.4byte	0
 3020 0048 1E000000 		.4byte	.LBB79
 3021 004c 20000000 		.4byte	.LBE79
 3022 0050 22000000 		.4byte	.LBB88
 3023 0054 26000000 		.4byte	.LBE88
 3024 0058 00000000 		.4byte	0
 3025 005c 00000000 		.4byte	0
 3026 0060 00000000 		.4byte	.LFB229
 3027 0064 40000000 		.4byte	.LFE229
 3028 0068 00000000 		.4byte	.LFB230
 3029 006c 3C000000 		.4byte	.LFE230
 3030 0070 00000000 		.4byte	.LFB231
 3031 0074 14000000 		.4byte	.LFE231
 3032 0078 00000000 		.4byte	0
 3033 007c 00000000 		.4byte	0
 3034              		.section	.debug_line,"",%progbits
 3035              	.Ldebug_line0:
ARM GAS  /tmp/ccYyUiVf.s 			page 82


 3036 0000 96020000 		.section	.debug_str,"MS",%progbits,1
 3036      0200C301 
 3036      00000201 
 3036      FB0E0D00 
 3036      01010101 
 3037              	.LASF50:
 3038 0000 72656164 		.ascii	"ready_list_t\000"
 3038      795F6C69 
 3038      73745F74 
 3038      00
 3039              	.LASF105:
 3040 000d 71756575 		.ascii	"queue_insert\000"
 3040      655F696E 
 3040      73657274 
 3040      00
 3041              	.LASF88:
 3042 001a 77747472 		.ascii	"wttrp\000"
 3042      7000
 3043              	.LASF85:
 3044 0020 7264796D 		.ascii	"rdymsg\000"
 3044      736700
 3045              	.LASF16:
 3046 0027 75696E74 		.ascii	"uint64_t\000"
 3046      36345F74 
 3046      00
 3047              	.LASF5:
 3048 0030 5F5F7569 		.ascii	"__uint8_t\000"
 3048      6E74385F 
 3048      7400
 3049              	.LASF82:
 3050 003a 706F7274 		.ascii	"port_intctx\000"
 3050      5F696E74 
 3050      63747800 
 3051              	.LASF69:
 3052 0046 73797374 		.ascii	"system_debug_t\000"
 3052      656D5F64 
 3052      65627567 
 3052      5F7400
 3053              	.LASF101:
 3054 0055 706F7274 		.ascii	"port_lock\000"
 3054      5F6C6F63 
 3054      6B00
 3055              	.LASF116:
 3056 005f 5F5F6675 		.ascii	"__func__.6504\000"
 3056      6E635F5F 
 3056      2E363530 
 3056      3400
 3057              	.LASF12:
 3058 006d 6C6F6E67 		.ascii	"long long unsigned int\000"
 3058      206C6F6E 
 3058      6720756E 
 3058      7369676E 
 3058      65642069 
 3059              	.LASF86:
 3060 0084 65786974 		.ascii	"exitcode\000"
 3060      636F6465 
 3060      00
ARM GAS  /tmp/ccYyUiVf.s 			page 83


 3061              	.LASF76:
 3062 008d 6D61696E 		.ascii	"mainthread\000"
 3062      74687265 
 3062      616400
 3063              	.LASF66:
 3064 0098 76697274 		.ascii	"virtual_timers_list_t\000"
 3064      75616C5F 
 3064      74696D65 
 3064      72735F6C 
 3064      6973745F 
 3065              	.LASF117:
 3066 00ae 49544D5F 		.ascii	"ITM_RxBuffer\000"
 3066      52784275 
 3066      66666572 
 3066      00
 3067              	.LASF49:
 3068 00bb 63685F74 		.ascii	"ch_threads_queue\000"
 3068      68726561 
 3068      64735F71 
 3068      75657565 
 3068      00
 3069              	.LASF29:
 3070 00cc 705F7072 		.ascii	"p_prio\000"
 3070      696F00
 3071              	.LASF10:
 3072 00d3 6C6F6E67 		.ascii	"long long int\000"
 3072      206C6F6E 
 3072      6720696E 
 3072      7400
 3073              	.LASF1:
 3074 00e1 7369676E 		.ascii	"signed char\000"
 3074      65642063 
 3074      68617200 
 3075              	.LASF43:
 3076 00ed 705F6D70 		.ascii	"p_mpool\000"
 3076      6F6F6C00 
 3077              	.LASF96:
 3078 00f5 6D5F7175 		.ascii	"m_queue\000"
 3078      65756500 
 3079              	.LASF75:
 3080 00fd 76746C69 		.ascii	"vtlist\000"
 3080      737400
 3081              	.LASF102:
 3082 0104 706F7274 		.ascii	"port_unlock\000"
 3082      5F756E6C 
 3082      6F636B00 
 3083              	.LASF73:
 3084 0110 63685F73 		.ascii	"ch_system\000"
 3084      79737465 
 3084      6D00
 3085              	.LASF7:
 3086 011a 6C6F6E67 		.ascii	"long int\000"
 3086      20696E74 
 3086      00
 3087              	.LASF113:
 3088 0123 63684D73 		.ascii	"chMsgSend\000"
 3088      6753656E 
ARM GAS  /tmp/ccYyUiVf.s 			page 84


 3088      6400
 3089              	.LASF19:
 3090 012d 74737461 		.ascii	"tstate_t\000"
 3090      74655F74 
 3090      00
 3091              	.LASF109:
 3092 0136 63684D73 		.ascii	"chMsgIsPendingI\000"
 3092      67497350 
 3092      656E6469 
 3092      6E674900 
 3093              	.LASF31:
 3094 0146 705F6E65 		.ascii	"p_newer\000"
 3094      77657200 
 3095              	.LASF93:
 3096 014e 735F7175 		.ascii	"s_queue\000"
 3096      65756500 
 3097              	.LASF55:
 3098 0156 725F6E65 		.ascii	"r_newer\000"
 3098      77657200 
 3099              	.LASF79:
 3100 015e 72656761 		.ascii	"regarm_t\000"
 3100      726D5F74 
 3100      00
 3101              	.LASF62:
 3102 0167 76745F70 		.ascii	"vt_prev\000"
 3102      72657600 
 3103              	.LASF100:
 3104 016f 6D757465 		.ascii	"mutex_t\000"
 3104      785F7400 
 3105              	.LASF106:
 3106 0177 76616C75 		.ascii	"value\000"
 3106      6500
 3107              	.LASF77:
 3108 017d 69646C65 		.ascii	"idle_thread_wa\000"
 3108      5F746872 
 3108      6561645F 
 3108      776100
 3109              	.LASF24:
 3110 018c 636E745F 		.ascii	"cnt_t\000"
 3110      7400
 3111              	.LASF0:
 3112 0192 756E7369 		.ascii	"unsigned int\000"
 3112      676E6564 
 3112      20696E74 
 3112      00
 3113              	.LASF61:
 3114 019f 76745F6E 		.ascii	"vt_next\000"
 3114      65787400 
 3115              	.LASF111:
 3116 01a7 5F5F6675 		.ascii	"__func__.5798\000"
 3116      6E635F5F 
 3116      2E353739 
 3116      3800
 3117              	.LASF89:
 3118 01b5 77747365 		.ascii	"wtsemp\000"
 3118      6D7000
 3119              	.LASF63:
ARM GAS  /tmp/ccYyUiVf.s 			page 85


 3120 01bc 76745F64 		.ascii	"vt_delta\000"
 3120      656C7461 
 3120      00
 3121              	.LASF38:
 3122 01c5 705F6D73 		.ascii	"p_msgqueue\000"
 3122      67717565 
 3122      756500
 3123              	.LASF119:
 3124 01d0 2F757372 		.ascii	"/usr/src/chibios/os/rt/src/chmsg.c\000"
 3124      2F737263 
 3124      2F636869 
 3124      62696F73 
 3124      2F6F732F 
 3125              	.LASF94:
 3126 01f3 735F636E 		.ascii	"s_cnt\000"
 3126      7400
 3127              	.LASF4:
 3128 01f9 73686F72 		.ascii	"short unsigned int\000"
 3128      7420756E 
 3128      7369676E 
 3128      65642069 
 3128      6E7400
 3129              	.LASF46:
 3130 020c 63685F74 		.ascii	"ch_thread\000"
 3130      68726561 
 3130      6400
 3131              	.LASF123:
 3132 0216 63685363 		.ascii	"chSchWakeupS\000"
 3132      6857616B 
 3132      65757053 
 3132      00
 3133              	.LASF22:
 3134 0223 6D73675F 		.ascii	"msg_t\000"
 3134      7400
 3135              	.LASF72:
 3136 0229 63685F73 		.ascii	"ch_system_t\000"
 3136      79737465 
 3136      6D5F7400 
 3137              	.LASF18:
 3138 0235 746D6F64 		.ascii	"tmode_t\000"
 3138      655F7400 
 3139              	.LASF51:
 3140 023d 63685F72 		.ascii	"ch_ready_list\000"
 3140      65616479 
 3140      5F6C6973 
 3140      7400
 3141              	.LASF23:
 3142 024b 6576656E 		.ascii	"eventmask_t\000"
 3142      746D6173 
 3142      6B5F7400 
 3143              	.LASF115:
 3144 0257 5F5F6675 		.ascii	"__func__.6495\000"
 3144      6E635F5F 
 3144      2E363439 
 3144      3500
 3145              	.LASF6:
 3146 0265 5F5F696E 		.ascii	"__int32_t\000"
ARM GAS  /tmp/ccYyUiVf.s 			page 86


 3146      7433325F 
 3146      7400
 3147              	.LASF80:
 3148 026f 73746B61 		.ascii	"stkalign_t\000"
 3148      6C69676E 
 3148      5F7400
 3149              	.LASF118:
 3150 027a 474E5520 		.ascii	"GNU C 4.8.4 20141219 (release) -mcpu=cortex-m4 -mno"
 3150      4320342E 
 3150      382E3420 
 3150      32303134 
 3150      31323139 
 3151 02ad 2D746875 		.ascii	"-thumb-interwork -mthumb -ggdb -O2 -fomit-frame-poi"
 3151      6D622D69 
 3151      6E746572 
 3151      776F726B 
 3151      202D6D74 
 3152 02e0 6E746572 		.ascii	"nter -falign-functions=16 -ffunction-sections -fdat"
 3152      202D6661 
 3152      6C69676E 
 3152      2D66756E 
 3152      6374696F 
 3153 0313 612D7365 		.ascii	"a-sections -fno-common -flto\000"
 3153      6374696F 
 3153      6E73202D 
 3153      666E6F2D 
 3153      636F6D6D 
 3154              	.LASF37:
 3155 0330 705F7761 		.ascii	"p_waiting\000"
 3155      6974696E 
 3155      6700
 3156              	.LASF78:
 3157 033a 73697A65 		.ascii	"sizetype\000"
 3157      74797065 
 3157      00
 3158              	.LASF44:
 3159 0343 74687265 		.ascii	"thread_reference_t\000"
 3159      61645F72 
 3159      65666572 
 3159      656E6365 
 3159      5F7400
 3160              	.LASF67:
 3161 0356 63685F76 		.ascii	"ch_virtual_timers_list\000"
 3161      69727475 
 3161      616C5F74 
 3161      696D6572 
 3161      735F6C69 
 3162              	.LASF68:
 3163 036d 76745F6C 		.ascii	"vt_lasttime\000"
 3163      61737474 
 3163      696D6500 
 3164              	.LASF32:
 3165 0379 705F6F6C 		.ascii	"p_older\000"
 3165      64657200 
 3166              	.LASF54:
 3167 0381 725F6374 		.ascii	"r_ctx\000"
 3167      7800
ARM GAS  /tmp/ccYyUiVf.s 			page 87


 3168              	.LASF84:
 3169 0387 746D5F63 		.ascii	"tm_calibration_t\000"
 3169      616C6962 
 3169      72617469 
 3169      6F6E5F74 
 3169      00
 3170              	.LASF98:
 3171 0398 6D5F6E65 		.ascii	"m_next\000"
 3171      787400
 3172              	.LASF57:
 3173 039f 725F6375 		.ascii	"r_current\000"
 3173      7272656E 
 3173      7400
 3174              	.LASF56:
 3175 03a9 725F6F6C 		.ascii	"r_older\000"
 3175      64657200 
 3176              	.LASF11:
 3177 03b1 5F5F7569 		.ascii	"__uint64_t\000"
 3177      6E743634 
 3177      5F7400
 3178              	.LASF20:
 3179 03bc 74726566 		.ascii	"trefs_t\000"
 3179      735F7400 
 3180              	.LASF59:
 3181 03c4 76697274 		.ascii	"virtual_timer_t\000"
 3181      75616C5F 
 3181      74696D65 
 3181      725F7400 
 3182              	.LASF28:
 3183 03d4 705F7072 		.ascii	"p_prev\000"
 3183      657600
 3184              	.LASF21:
 3185 03db 74707269 		.ascii	"tprio_t\000"
 3185      6F5F7400 
 3186              	.LASF70:
 3187 03e3 63685F73 		.ascii	"ch_system_debug\000"
 3187      79737465 
 3187      6D5F6465 
 3187      62756700 
 3188              	.LASF108:
 3189 03f3 5F426F6F 		.ascii	"_Bool\000"
 3189      6C00
 3190              	.LASF14:
 3191 03f9 696E7433 		.ascii	"int32_t\000"
 3191      325F7400 
 3192              	.LASF2:
 3193 0401 756E7369 		.ascii	"unsigned char\000"
 3193      676E6564 
 3193      20636861 
 3193      7200
 3194              	.LASF41:
 3195 040f 705F6D74 		.ascii	"p_mtxlist\000"
 3195      786C6973 
 3195      7400
 3196              	.LASF3:
 3197 0419 73686F72 		.ascii	"short int\000"
 3197      7420696E 
ARM GAS  /tmp/ccYyUiVf.s 			page 88


 3197      7400
 3198              	.LASF34:
 3199 0423 705F7374 		.ascii	"p_state\000"
 3199      61746500 
 3200              	.LASF53:
 3201 042b 725F7072 		.ascii	"r_prio\000"
 3201      696F00
 3202              	.LASF91:
 3203 0432 65776D61 		.ascii	"ewmask\000"
 3203      736B00
 3204              	.LASF27:
 3205 0439 705F6E65 		.ascii	"p_next\000"
 3205      787400
 3206              	.LASF35:
 3207 0440 705F666C 		.ascii	"p_flags\000"
 3207      61677300 
 3208              	.LASF103:
 3209 0448 63685379 		.ascii	"chSysLock\000"
 3209      734C6F63 
 3209      6B00
 3210              	.LASF60:
 3211 0452 63685F76 		.ascii	"ch_virtual_timer\000"
 3211      69727475 
 3211      616C5F74 
 3211      696D6572 
 3211      00
 3212              	.LASF120:
 3213 0463 63684D73 		.ascii	"chMsgRelease\000"
 3213      6752656C 
 3213      65617365 
 3213      00
 3214              	.LASF92:
 3215 0470 63685F73 		.ascii	"ch_semaphore\000"
 3215      656D6170 
 3215      686F7265 
 3215      00
 3216              	.LASF121:
 3217 047d 63685363 		.ascii	"chSchGoSleepS\000"
 3217      68476F53 
 3217      6C656570 
 3217      5300
 3218              	.LASF40:
 3219 048b 705F6570 		.ascii	"p_epending\000"
 3219      656E6469 
 3219      6E6700
 3220              	.LASF15:
 3221 0496 75696E74 		.ascii	"uint32_t\000"
 3221      33325F74 
 3221      00
 3222              	.LASF90:
 3223 049f 77746D74 		.ascii	"wtmtxp\000"
 3223      787000
 3224              	.LASF52:
 3225 04a6 725F7175 		.ascii	"r_queue\000"
 3225      65756500 
 3226              	.LASF122:
 3227 04ae 63685363 		.ascii	"chSchReadyI\000"
ARM GAS  /tmp/ccYyUiVf.s 			page 89


 3227      68526561 
 3227      64794900 
 3228              	.LASF47:
 3229 04ba 63685F74 		.ascii	"ch_threads_list\000"
 3229      68726561 
 3229      64735F6C 
 3229      69737400 
 3230              	.LASF9:
 3231 04ca 6C6F6E67 		.ascii	"long unsigned int\000"
 3231      20756E73 
 3231      69676E65 
 3231      6420696E 
 3231      7400
 3232              	.LASF99:
 3233 04dc 63686172 		.ascii	"char\000"
 3233      00
 3234              	.LASF26:
 3235 04e1 74687265 		.ascii	"thread_t\000"
 3235      61645F74 
 3235      00
 3236              	.LASF110:
 3237 04ea 71756575 		.ascii	"queue_fifo_remove\000"
 3237      655F6669 
 3237      666F5F72 
 3237      656D6F76 
 3237      6500
 3238              	.LASF25:
 3239 04fc 73797374 		.ascii	"systime_t\000"
 3239      696D655F 
 3239      7400
 3240              	.LASF42:
 3241 0506 705F7265 		.ascii	"p_realprio\000"
 3241      616C7072 
 3241      696F00
 3242              	.LASF58:
 3243 0511 76746675 		.ascii	"vtfunc_t\000"
 3243      6E635F74 
 3243      00
 3244              	.LASF8:
 3245 051a 5F5F7569 		.ascii	"__uint32_t\000"
 3245      6E743332 
 3245      5F7400
 3246              	.LASF104:
 3247 0525 5F5F7365 		.ascii	"__set_BASEPRI\000"
 3247      745F4241 
 3247      53455052 
 3247      4900
 3248              	.LASF71:
 3249 0533 70616E69 		.ascii	"panic_msg\000"
 3249      635F6D73 
 3249      6700
 3250              	.LASF83:
 3251 053d 6F666673 		.ascii	"offset\000"
 3251      657400
 3252              	.LASF81:
 3253 0544 636F6E74 		.ascii	"context\000"
 3253      65787400 
ARM GAS  /tmp/ccYyUiVf.s 			page 90


 3254              	.LASF17:
 3255 054c 7274636E 		.ascii	"rtcnt_t\000"
 3255      745F7400 
 3256              	.LASF65:
 3257 0554 76745F70 		.ascii	"vt_par\000"
 3257      617200
 3258              	.LASF114:
 3259 055b 63684D73 		.ascii	"chMsgWait\000"
 3259      67576169 
 3259      7400
 3260              	.LASF48:
 3261 0565 74687265 		.ascii	"threads_queue_t\000"
 3261      6164735F 
 3261      71756575 
 3261      655F7400 
 3262              	.LASF95:
 3263 0575 63685F6D 		.ascii	"ch_mutex\000"
 3263      75746578 
 3263      00
 3264              	.LASF36:
 3265 057e 705F7265 		.ascii	"p_refs\000"
 3265      667300
 3266              	.LASF74:
 3267 0585 726C6973 		.ascii	"rlist\000"
 3267      7400
 3268              	.LASF13:
 3269 058b 75696E74 		.ascii	"uint8_t\000"
 3269      385F7400 
 3270              	.LASF87:
 3271 0593 77746F62 		.ascii	"wtobjp\000"
 3271      6A7000
 3272              	.LASF33:
 3273 059a 705F6E61 		.ascii	"p_name\000"
 3273      6D6500
 3274              	.LASF45:
 3275 05a1 74687265 		.ascii	"threads_list_t\000"
 3275      6164735F 
 3275      6C697374 
 3275      5F7400
 3276              	.LASF107:
 3277 05b0 63685379 		.ascii	"chSysUnlock\000"
 3277      73556E6C 
 3277      6F636B00 
 3278              	.LASF39:
 3279 05bc 705F6D73 		.ascii	"p_msg\000"
 3279      6700
 3280              	.LASF112:
 3281 05c2 63684D73 		.ascii	"chMsgReleaseS\000"
 3281      6752656C 
 3281      65617365 
 3281      5300
 3282              	.LASF97:
 3283 05d0 6D5F6F77 		.ascii	"m_owner\000"
 3283      6E657200 
 3284              	.LASF30:
 3285 05d8 705F6374 		.ascii	"p_ctx\000"
 3285      7800
ARM GAS  /tmp/ccYyUiVf.s 			page 91


 3286              	.LASF64:
 3287 05de 76745F66 		.ascii	"vt_func\000"
 3287      756E6300 
 3288              		.comm	__gnu_lto_v1,1,1
 3289              		.ident	"GCC: (4.8.4-1+11-1) 4.8.4 20141219 (release)"
ARM GAS  /tmp/ccYyUiVf.s 			page 92


DEFINED SYMBOLS
                            *ABS*:00000000 chmsg.c
     /tmp/ccYyUiVf.s:472    .text.chMsgSend:00000000 $t
     /tmp/ccYyUiVf.s:478    .text.chMsgSend:00000000 chMsgSend
     /tmp/ccYyUiVf.s:589    .text.chMsgSend:0000003c $d
     /tmp/ccYyUiVf.s:594    .text.chMsgWait:00000000 $t
     /tmp/ccYyUiVf.s:600    .text.chMsgWait:00000000 chMsgWait
     /tmp/ccYyUiVf.s:703    .text.chMsgWait:00000038 $d
     /tmp/ccYyUiVf.s:708    .text.chMsgRelease:00000000 $t
     /tmp/ccYyUiVf.s:714    .text.chMsgRelease:00000000 chMsgRelease
                            *COM*:00000001 __gnu_lto_v1
                     .debug_frame:00000010 $d

UNDEFINED SYMBOLS
chSchGoSleepS
chSchReadyI
ch
chSchWakeupS
