ARM GAS  /tmp/ccYyUiVf.s 			page 1


   1              		.syntax unified
   2              		.cpu cortex-m4
   3              		.fpu softvfp
   4              		.eabi_attribute 20, 1
   5              		.eabi_attribute 21, 1
   6              		.eabi_attribute 23, 3
   7              		.eabi_attribute 24, 1
   8              		.eabi_attribute 25, 1
   9              		.eabi_attribute 26, 1
  10              		.eabi_attribute 30, 2
  11              		.eabi_attribute 34, 1
  12              		.eabi_attribute 18, 4
  13              		.thumb
  14              		.file	"chmsg.c"
  15              		.text
  16              	.Ltext0:
  17              		.section	.gnu.lto_.jmpfuncs.4ba432de7a33ecbb,"",%progbits
  18 0000 789C6362 		.ascii	"x\234cb`b\300\0064\24143\0033#S\004c&#\003\017\003\003"
  18      6062C006 
  18      34A13433 
  18      03332353 
  18      04632623 
  19 0018 23035035 		.ascii	"#\003P5\224\313\007\224cf\002)``,\003*\004\0009\234"
  19      94CB0794 
  19      63660229 
  19      60602C03 
  19      2A040039 
  20 002d 025F     		.ascii	"\002_"
  21              		.text
  22              		.section	.gnu.lto_.inline.4ba432de7a33ecbb,"",%progbits
  23 0000 789C6362 		.ascii	"x\234cb`b\300\006\342\24043\003\203\250,##\003#\220"
  23      6062C006 
  23      E2A03433 
  23      0383A82C 
  23      23230323 
  24 0015 CD24B9E2 		.ascii	"\315$\271\3420#\003\347\0153\260\026&n\006\240(\230"
  24      302303E7 
  24      0D33B016 
  24      266E06A0 
  24      2898
  25 0027 9CE0C7C4 		.ascii	"\234\340\307\304 \310\017\344H\034\330\315\310\300\266"
  25      20C80FE4 
  25      481CD8CD 
  25      C8C0B6
  26 0036 401E4901 		.ascii	"@\036I\0013\003\207\000P\206e\201<\\\202\231\007(9\301"
  26      33038700 
  26      50866581 
  26      3C5C8299 
  26      072839C1 
  27 004a 6F821F03 		.ascii	"o\202\037\003\000\332\004\0128"
  27      00DA040A 
  27      38
  28              		.text
  29              		.section	.gnu.lto_.pureconst.4ba432de7a33ecbb,"",%progbits
  30 0000 789C6362 		.ascii	"x\234cb`b`g\200\000f\006+&+f+\000\002\361\000\302"
  30      60626067 
  30      80006606 
ARM GAS  /tmp/ccYyUiVf.s 			page 2


  30      2B262B66 
  30      2B0002F1 
  31              		.text
  32              		.section	.gnu.lto_chMsgSend.4ba432de7a33ecbb,"",%progbits
  33 0000 789C8D54 		.ascii	"x\234\215T]h\023Y\024>g\356\2443&\215\215? \212\326"
  33      5D681359 
  33      143E67EE 
  33      A433268D 
  33      8D3F208A 
  34 0015 A0F8C356 		.ascii	"\240\370\303V\033\025AE\020E\020|\350\213UT\020\226"
  34      1B154145 
  34      1045107C 
  34      E88B5554 
  34      1096
  35 0027 E935B403 		.ascii	"\3515\264\003\306\306$\025\177\036\234\324\012\012V"
  35      C6C62415 
  35      7F1E9CD4 
  35      0A0A56
  36 0036 4410AA22 		.ascii	"D\020\252\"(\276\350.X\020DA\245\001\245l,Z\177^\244"
  36      28BEE82E 
  36      58104441 
  36      A501A56C 
  36      2C5A7F5E 
  37 004b 5B34ECC3 		.ascii	"[4\354\303\256\253\240U_\264\012\361\334{g&Ml\215\223"
  37      AEABA055 
  37      5FB40AF1 
  37      DC7B6726 
  37      4D6C8D93 
  38 005f CCDC3367 		.ascii	"\314\3343g\356\371\316w\317\271\367\323@\203\312k\005"
  38      EEF9CE77 
  38      CFB9F7D3 
  38      4083CA6B 
  38      05
  39 0070 DDCF6B00 		.ascii	"\335\317k\000\202\010\200\001@\355\364c\200\254\251"
  39      82088001 
  39      40EDF463 
  39      80ACA9
  40 007f 69ACBF0E 		.ascii	"i\254\277\016\234\240\376p\0358\265\014u\345\326\021"
  40      9CA0FE70 
  40      1D38B50C 
  40      75E5D611 
  41 008f 85010847 		.ascii	"\205\001\010G4\246\343\221\235(0p\036\\v\2343\205c\357"
  41      34A6E391 
  41      9D283070 
  41      1E5C769C 
  41      338563EF 
  42 00a3 5EE33927 		.ascii	"^\3439'\327u\311\371V,\"\332H\371\026\"p\204\035\364"
  42      D775C9F9 
  42      562C22DA 
  42      48F91622 
  42      70841DF4 
  43 00b7 82513968 		.ascii	"\202Q9hz9\201^-W(\026\277\335|\375\317\013\2342\203"
  43      7A39815E 
  43      2D572816 
  43      BFDD7CFD 
  43      CF0B9C32 
  44 00cc 81859709 		.ascii	"\201\205\227\011/\200\011\004\203\036h\202\215,D\017"
ARM GAS  /tmp/ccYyUiVf.s 			page 3


  44      2F800904 
  44      831E6882 
  44      8D2C440F 
  45 00dc 7D32902F 		.ascii	"}2\220/B\226\010\013@\227\343\234\216\252\331\011\244"
  45      4296080B 
  45      4097E39C 
  45      8EAAD909 
  45      A4
  46 00ed 8571E9DF 		.ascii	"\205q\351\337JOAq\033\271hd\217\240s\250\207xYx\205"
  46      4A4F4171 
  46      1BB96864 
  46      8FA073A8 
  46      87785978 
  47 0102 96D78AAC 		.ascii	"\226\327\212\254\001\376p\350\332N0\015\360\233\215"
  47      01FE70E8 
  47      DA4E300D 
  47      F09B8D
  48 0111 810B703E 		.ascii	"\201\013p>\3538\021\033k\016\303\250s\\XF\002\031a\011"
  48      EB38111B 
  48      6B0EC3A8 
  48      735C5846 
  48      02196109 
  49 0125 BA8624D9 		.ascii	"\272\206$\331\202\340\216\256\001y\350\314\315Q\240"
  49      82E08EAE 
  49      0179E8CC 
  49      CD51A0
  50 0134 8A43AB08 		.ascii	"\212C\253\010!\257\011\340\226\343\346\207[K\312\312"
  50      21AF09E0 
  50      96E3E687 
  50      5B4BCACA 
  51 0144 616AB0AB 		.ascii	"aj\260\253Z9\204\317\214\222\361\030:?<\274\177\343"
  51      5A3984CF 
  51      8C92F118 
  51      3A3F3CBC 
  51      7FE3
  52 0156 247357EA 		.ascii	"$sW\352-9\367v\364}D\263\360*\345\364}}g\357\206f\373"
  52      2D39F776 
  52      F47D44B3 
  52      F02AE5F4 
  52      7D7D67EF 
  53 016d 6F275E12 		.ascii	"o'^\022K\305\215\243H\250\321\315d\247\350\327G&\225"
  53      4BC58DA3 
  53      48A8D1CD 
  53      64A7E8D7 
  53      472695
  54 0180 8BA9CD50 		.ascii	"\213\251\315P\017O\360\242\323\263\336\306Ie\351K\337"
  54      0F4FF0A2 
  54      D3B3DEC6 
  54      4965E94B 
  54      DF
  55 0191 9FBBDF83 		.ascii	"\237\273\337\203\212 \025t\340\366\373\021\267\240n"
  55      8A201574 
  55      E0F6FB11 
  55      B7A06E
  56 01a0 35C33686 		.ascii	"5\3036\206\250\216\024\\Ku\020 ^\275\324\216k\245\251"
  56      A88E145C 
  56      4B751020 
ARM GAS  /tmp/ccYyUiVf.s 			page 4


  56      5EBDD48E 
  56      6BA5A9
  57 01b3 2272F4E8 		.ascii	"\"r\364\350\327\356\245^+\314\303p\310\366\033\262\317"
  57      D7EEA55E 
  57      2BCCC370 
  57      C8F61BB2 
  57      CF
  58 01c4 C6B00F61 		.ascii	"\306\260\017a\214\205`\245\352\020D~$X\226z\225\215"
  58      8C8560A5 
  58      EA10447E 
  58      2458967A 
  58      958D
  59 01d6 934B2CEA 		.ascii	"\223K,\352\306g\241\273c\300ec\312V\025\372\270\202"
  59      C667A1BB 
  59      63C06563 
  59      CA5615FA 
  59      B882
  60 01e8 520DCBBD 		.ascii	"R\015\313\275\352\037@\347\214\223\035)\026\353\344"
  60      EA1F40E7 
  60      8C931D29 
  60      16EBE4
  61 01f7 E6FD1BAB 		.ascii	"\346\375\033\253\265\313\353\372\317\241\230\006/\177"
  61      B5CBEBFA 
  61      CFA19806 
  61      2F7F
  62 0205 01CA54D5 		.ascii	"\001\312T\325\035\376\230\377\363\276Q\331\366\201W"
  62      1DFE98FF 
  62      F3BE51D9 
  62      F68157
  63 0214 CB2DBC47 		.ascii	"\313-\274GM\267\360\216l\275\327`\011\243*P8;8<+@\324"
  63      4DB7F08E 
  63      6CBDD760 
  63      09A32A50 
  63      383B383C 
  64 022b FD3D5D59 		.ascii	"\375=]Y\210\032\021\227\023u\360\322\015\275\270\336"
  64      881A1197 
  64      1375F0D2 
  64      0DBDB8DE 
  65 023b DD60619F 		.ascii	"\335`a\237lID\036\211Rx\330m\005[\254\302\015?\\\365"
  65      6C49441E 
  65      895278D8 
  65      6D055BAC 
  65      C20D3F5C 
  66 0250 E289A122 		.ascii	"\342\211\241\"\335\006\204~\226\332\034\223:\242V\372"
  66      DD06847E 
  66      96DA1C93 
  66      3AA256FA 
  67 0260 F97A7763 		.ascii	"\371zwc\031\300\332\012\200\310D\334\231\002\350\351"
  67      19C0DA0A 
  67      80C844DC 
  67      9902E8E9 
  68 0270 ED9E5B06 		.ascii	"\355\236[\006\020\3765\366\036\300\320\360\245S3\275"
  68      10FE35F6 
  68      1EC0D0F0 
  68      A55333BD 
  69 0280 FD18928B 		.ascii	"\375\030\222\213\217\214\277\011'\271]\372\013\036\374"
  69      8F8CBF09 
ARM GAS  /tmp/ccYyUiVf.s 			page 5


  69      27B95DFA 
  69      0B1EFC
  70 028f 970DFB21 		.ascii	"\227\015\373!b\012\011S\351\332F\310\375ul\020\272\012"
  70      620A0953 
  70      E9DA46C8 
  70      FD756C10 
  70      BA0A
  71 02a1 F92BEE21 		.ascii	"\371+\356!\001\360\225e\012\367\367\240a\343T/F\227"
  71      01F09565 
  71      0AF7F7A0 
  71      61E3542F 
  71      4697
  72 02b3 5A258206 		.ascii	"Z%\202\006\216\006\177\010\232\306\305\332\335\323\251"
  72      8E067F08 
  72      9AC6C5DA 
  72      DDD3A9
  73 02c2 D792024E 		.ascii	"\327\222\002NW\354{>\255\366\230xg\240\331\026\353\220"
  73      57EC7B3E 
  73      ADF69878 
  73      67A0D916 
  73      EB90
  74 02d4 E69AAAC7 		.ascii	"\346\232\252\307\301=\322R\314\014\205D\022K`\225J\366"
  74      C13DD252 
  74      CC0C8544 
  74      124B6095 
  74      4AF6
  75 02e6 FFDD0A25 		.ascii	"\377\335\012%\263\360\232T\225\252R&\214\211\245\354"
  75      B3F09A54 
  75      95AA5226 
  75      8C89A5EC 
  76 02f6 CD172165 		.ascii	"\315\027!e\317\312\245\354m\250\336\327w\337\235\377"
  76      CFCAA5EC 
  76      6DA8DED7 
  76      77DF9DFF 
  77 0306 778CA649 		.ascii	"w\214\246IQ\346\004\376\243\254Y\330K\206\237\332\223"
  77      51E604FE 
  77      A3AC59D8 
  77      4B869FDA 
  77      93
  78 0317 310B6F60 		.ascii	"1\013o`\275\242\365\024\262\205A\356\327M9\267\322\361"
  78      BDA2F514 
  78      B28541EE 
  78      D74D39B7 
  78      D2F1
  79 0329 A41688B9 		.ascii	"\244\026\210\271\363c\035\351T,\235\3421\336f\267\330"
  79      F3631DE9 
  79      542C9DE2 
  79      31DE66B7 
  79      D8
  80 033a EDE918FD 		.ascii	"\355\351\030\375S\031\327\223H\2676r`<\223\\>\301\274"
  80      5319D793 
  80      48B73672 
  80      603C935C 
  80      3EC1BC
  81 034d 647B2A93 		.ascii	"d{*\223\216m\330\322\264\261\351\000}\342\355\251\370"
  81      8E6DD8D2 
  81      B4B1E900 
ARM GAS  /tmp/ccYyUiVf.s 			page 6


  81      7DE2EDA9 
  81      F8
  82 035e EFFB5725 		.ascii	"\357\373W%\032\333 \260\337\332\323\021_9^\\\374@&\266"
  82      1ADB20B0 
  82      DFDAD311 
  82      5F395E5C 
  82      FC4026B6 
  83 0372 B1A97973 		.ascii	"\261\251yss\314\336\313\367t\354\216\307d\034Ol\352"
  83      73CCDECB 
  83      F774EC8E 
  83      C7641C4F 
  83      6CEA
  84 0384 D8CB2974 		.ascii	"\330\313)t\321\004\311\374\331m\351\203i\232\027ij\336"
  84      D104C9FC 
  84      D96DE983 
  84      699A1769 
  84      6ADE
  85 0396 126DB1D2 		.ascii	"\022m\261\322\361d\312^\022]\260\014\264\024\030\211"
  85      F164CA5E 
  85      125DB00C 
  85      B4141889 
  86 03a6 78A23D75 		.ascii	"x\242=u\020\264L\222e\366%\027W\207\342m\273\011\353"
  86      10B44C92 
  86      65F62517 
  86      5787E26D 
  86      BB09EB
  87 03b9 3BA7D4ED 		.ascii	";\247\324\355\361"
  87      F1
  88              		.text
  89              		.section	.gnu.lto_chMsgWait.4ba432de7a33ecbb,"",%progbits
  90 0000 789C9D55 		.ascii	"x\234\235U]h\024W\024>\347\316\354N\222\335M\203}\251"
  90      5D681457 
  90      143EE7CE 
  90      EC4E92DD 
  90      4D837DA9 
  91 0014 C586A5A2 		.ascii	"\305\206\245\242\025c3\226\026J\037\012\212P\350C^\214"
  91      15633396 
  91      164A1F0A 
  91      8A50E843 
  91      5E8C
  92 0026 C18A0F65 		.ascii	"\301\212\017e2.\331\001\327\304\335M\320\012\365fMA"
  92      322ED901 
  92      D7C4DD4D 
  92      D00AF566 
  92      4D41
  93 0038 30812814 		.ascii	"0\201(\024REP\323\274T\261\020[Z\252\324\245\0065H#"
  93      524550D3 
  93      BC54B110 
  93      5B5AAAD4 
  93      A5063548 
  94 004d 550A567C 		.ascii	"U\012V|X\241\230V\305\272m\0031\324l\317\375\231\331"
  94      58A19856 
  94      C5BA6D03 
  94      31D46CCF 
  94      FD99D9
  95 0060 1F8C09DE 		.ascii	"\037\214\011\336\335\2359s\347\236\357\234\363\335\357"
  95      DD9D3973 
ARM GAS  /tmp/ccYyUiVf.s 			page 7


  95      E79EEF9C 
  95      F3DDEF
  96 006f 9E65C0A0 		.ascii	"\236e\300\240v\274M\277\177\303\000\255\010\200!@6<"
  96      76BC4DBF 
  96      7FC300AD 
  96      08802140 
  96      363C
  97 0081 05D05FC7 		.ascii	"\005\320_\307\2301c\001o0\217]\006\340Q\003M5o\"\012"
  97      98316301 
  97      6F308F5D 
  97      06E05103 
  97      4D356F22 
  98 0096 0310F633 		.ascii	"\003\020\3663\303\304\375\333P\200\340\353p\222\363"
  98      C3C4FDDB 
  98      5080E0EB 
  98      7092F3
  99 00a5 2385B1F9 		.ascii	"#\205\261\371?\360\013\236\0378\301\377+\225\020=\244"
  99      3FF00B9E 
  99      1F38C1FF 
  99      2B95103D 
  99      A4
 100 00b6 80AB115C 		.ascii	"\200\253\021\\\204\217\350\001\343\362\306\314\352\014"
 100      848FE801 
 100      E3F2C6CC 
 100      EA0C
 101 00c4 BE66F942 		.ascii	"\276f\371B\2514x\361\341\335A\\\366\262\011\344\025"
 101      A93478F1 
 101      E1DD415C 
 101      F6B209E4 
 101      15
 102 00d5 16178B2E 		.ascii	"\026\027\213.FDXQa\305\300\301\223\024\250Q\314\320"
 102      46445851 
 102      61C5C0C1 
 102      9314A851 
 102      CCD0
 103 00e7 08C100E7 		.ascii	"\010\301\000\347\303q5\011\"\006\215-t\025\371u \023"
 103      C3713509 
 103      22068D2D 
 103      7415F975 
 103      2013
 104 00f9 77631272 		.ascii	"wc\022ru\000:\273s\305\357\326Ueg2\330\276Xvb\316\214"
 104      75003ABB 
 104      73C5EFD6 
 104      55656732 
 104      D8BE5876 
 105 0110 933105B9 		.ascii	"\2231\005\271\342\344\245\361AC\007\3663\310O\317\375"
 105      E2E4A5F1 
 105      414307F6 
 105      33C84FCF 
 105      FD
 106 0121 D5C41CFC 		.ascii	"\325\304\034\374R\246\241\347\316\177~!\262\"x\232|"
 106      52A6A1E7 
 106      CE7F7E21 
 106      B222789A 
 106      7C
 107 0132 4A693938 		.ascii	"Ji98J\374\272(\0022\372\031\2228\372\374H&\355\213\241"
 107      4AFCBA28 
ARM GAS  /tmp/ccYyUiVf.s 			page 8


 107      0232FA19 
 107      9238FAFC 
 107      4826ED8B 
 108 0147 36A719AE 		.ascii	"6\247\031\256\343q>\262\301\243\305\225\341\313\357"
 108      E3713EB2 
 108      C1A3C595 
 108      E1CBEF
 109 0156 6FE8F761 		.ascii	"o\350\367a\225\340\317\220\273=R\232e\012\277\013\315"
 109      95E0CF90 
 109      BB3D529A 
 109      650ABF0B 
 109      CD
 110 0167 16584B0C 		.ascii	"\026XK\014\265\300W\234\306n\017\255cp\264\237\363&"
 110      B5C0579C 
 110      C66E0FAD 
 110      6370B49F 
 110      F326
 111 0179 0FEBF6C1 		.ascii	"\017\353\366\301\034?(\254\372\024\372\350\365\022\245"
 111      1C3F28AC 
 111      FA14FAE8 
 111      F512A5
 112 0188 1341DFB5 		.ascii	"\023A\337\265\001D]\336V\240\212\277|\361\312\320r~"
 112      01445DDE 
 112      56A08ABF 
 112      7CF1CAD0 
 112      727E
 113 019a 2237CCE7 		.ascii	"\"7\314\347\211>\012\341\340)Y\311\363\350\243|T\212"
 113      893E0AE1 
 113      E02959C9 
 113      F3E8A37C 
 113      548A
 114 01ac 771EFD76 		.ascii	"w\036\375v\364\323Z\352\016\315\027C\016\236\223\314"
 114      F4D35AEA 
 114      0ECD1743 
 114      0E9E93CC 
 115 01bc F9FC98CA 		.ascii	"\371\374\230\312-\242\012(\314L\375ZD\243\\\320V\017"
 115      2DA20A28 
 115      CC4CFD5A 
 115      44A35CD0 
 115      560F
 116 01ce 1B828222 		.ascii	"\033\202\202\"\004/\242\372\2713\001\363\255`\256S\360"
 116      042FA2FA 
 116      B93301F3 
 116      AD60AE53 
 116      F0
 117 01df AB6D99C0 		.ascii	"\253m\231\300\334\201\037\014\007\277\221\024E\367\301"
 117      DC811F0C 
 117      07BF9114 
 117      45F7C1
 118 01ee 27A4288D 		.ascii	"'\244(\215\370\017.\0152@\273\012\023\323w?+\255\367"
 118      F80F2E0D 
 118      3240BB0A 
 118      13D3773F 
 118      2BADF7
 119 0201 19279768 		.ascii	"\031'\227h\271\342\016\212<c\031\327a\240\360\364R\203"
 119      B9E20E8A 
 119      3C6319D7 
ARM GAS  /tmp/ccYyUiVf.s 			page 9


 119      61A0F0F4 
 119      5283
 120 0213 5A031030 		.ascii	"Z\003\0200\037u\025\210d+&\304\334\350\373\231R\262"
 120      1F751588 
 120      642B26C4 
 120      DCE8FB99 
 120      52B2
 121 0225 82ACD9D2 		.ascii	"\202\254\331\322-\303G\017\373\373\271\366\205\267R"
 121      2DC3470F 
 121      FBFBB9F6 
 121      85B752
 122 0234 967F0F7D 		.ascii	"\226\177\017}D\253\252\374\303\272|\224\265\207kj\367"
 122      44ABAAFC 
 122      C3BA7C94 
 122      B5876B6A 
 122      F7
 123 0245 8750C37B 		.ascii	"\207P\303{\317S\203\301 \307\026;L\024[\253a\364\247"
 123      CF5383C1 
 123      20C7163B 
 123      4C145BAB 
 123      61F4A7
 124 0258 33A39696 		.ascii	"3\243\226\226\203\002\344\343\234\327\313\243i,Q[\201"
 124      8302E4E3 
 124      9CD7CBA3 
 124      692C515B 
 124      81
 125 0269 8CAE951C 		.ascii	"\214\256\225\034\007'\252T\024V\341bZE\307\217\374\376"
 125      0727AA54 
 125      1456E162 
 125      5A45C78F 
 125      FCFE
 126 027b EA9B041B 		.ascii	"\352\233\004\033\360\327\240K5\326\250R\245Z\256\252"
 126      F0D7A04B 
 126      35D6A852 
 126      A55AAEAA 
 127 028b AD11B5BE 		.ascii	"\255\021\265\276\346\340ezr\360\012\301\022\216J\373"
 127      E6E0657A 
 127      72F00AC1 
 127      128E4AFB 
 128 029b D6F8508B 		.ascii	"\326\370P\213z\321\205\215j_*\205\023\253$\317\254@"
 128      7AD1858D 
 128      6A5F2A85 
 128      13AB24CF 
 128      AC40
 129 02ad 24DFC9C7 		.ascii	"$\337\311\307\226\362\324\264\307\226\226M\227\220\007"
 129      96F2D4B4 
 129      C796964D 
 129      979007
 130 02bc B95F9B1D 		.ascii	"\271_\233\035\037\262\253\000\336\257\011\336X\031<"
 130      1FB2AB00 
 130      DEAF09DE 
 130      58193C
 131 02cb 540160C9 		.ascii	"T\001`\311\212\036\377}\361\025E\216\3371%\356\367#"
 131      8A1EFF7D 
 131      F115458E 
 131      DF3125EE 
 131      F723
ARM GAS  /tmp/ccYyUiVf.s 			page 10


 132 02dd A79E6861 		.ascii	"\247\236hah\334\210\207/\005r\250\252(\\\326mL\321T"
 132      68DC8887 
 132      2F0572A8 
 132      AA285CD6 
 132      6D4CD154 
 133 02f1 D15BFFBC 		.ascii	"\321[\377\274P\323[\035\034[t\007ew\023\306\302\315"
 133      50D35B1D 
 133      1C5B7407 
 133      657713C6 
 133      C2CD
 134 0303 F5FE13D1 		.ascii	"\365\376\023\321\\oV7\327\007\221\346\340\017\240\334"
 134      5C6F5637 
 134      D70791E6 
 134      E00FA0DC 
 135 0313 65275879 		.ascii	"e'Xy\377-\201\352b\3353\032\255\203\247\311\010B\373"
 135      FF2D81EA 
 135      62DD331A 
 135      AD83A7C9 
 135      0842FB
 136 0326 8DD5C1B3 		.ascii	"\215\325\301\263\330\254\322\372\005\372\013\207\022"
 136      D8ACD2FA 
 136      05FA0B87 
 136      12
 137 0333 FE7189A9 		.ascii	"\376q\211\251\311-t\234\350|\212\265+\355\336L\332\316"
 137      C92D749C 
 137      E87C8AB5 
 137      2BEDDE4C 
 137      DACE
 138 0345 A45DDB4D 		.ascii	"\244]\333Mz\235^w\306\246o:\253gR\231\256V\027X\266"
 138      7A9D5E77 
 138      C6A66F3A 
 138      AB675299 
 138      AE561758 
 139 035a E7AD0596 		.ascii	"\347\255\005\226\365t\247\263\031{\343\346\266Mm{\350"
 139      F574A7B3 
 139      197BE3E6 
 139      B64D6D7B 
 139      E8
 140 036b 95DB9D4E 		.ascii	"\225\333\235N|\334\367n\2525\011\241>ggo\342\235g\371"
 140      7CDCF76E 
 140      AA3509A1 
 140      3E67676F 
 140      E29D67F9 
 141 037f 25F664ED 		.ascii	"%\366d\355Mm\355\037\266\333\336.wg\357\216\204-\375"
 141      4D6DED1F 
 141      B6DBDE2E 
 141      7767EF8E 
 141      842DFD
 142 0392 DCD407BD 		.ascii	"\334\324\007\275\273\\r}c\201`\301\352dfo\206\3265\265"
 142      BB5C727D 
 142      638160C1 
 142      EA64666F 
 142      86D635B5 
 143 03a6 B56F8E77 		.ascii	"\265o\216w:\231DO\332[\027_\265\036X\032\254T\"\325"
 143      3A99444F 
 143      DA5B175F 
 143      B51E581A 
ARM GAS  /tmp/ccYyUiVf.s 			page 11


 143      AC5422D5 
 144 03ba 9DDEBB04 		.ascii	"\235\336\273\004\014Q[\022\214\354\356\2365\213\307"
 144      0C515B12 
 144      8CECEE9E 
 144      358BC7
 145 03c9 73933B68 		.ascii	"s\223;h\361\377\236\022\014i"
 145      F1FF9E12 
 145      0C69
 146              		.text
 147              		.section	.gnu.lto_chMsgRelease.4ba432de7a33ecbb,"",%progbits
 148 0000 789C8D52 		.ascii	"x\234\215RMh\023A\024~o\246\333D{0WA\302R)^JWA\360\252"
 148      4D681341 
 148      147E6FA6 
 148      DB447B30 
 148      5741C252 
 149 001b 14040FB9 		.ascii	"\024\004\017\2714\025\352I\266\353\322,t\233\260\233"
 149      3415EA49 
 149      B6EBD22C 
 149      749BB09B 
 150 002b 94160F9D 		.ascii	"\224\026\017\235\204\012Z=\204\202\240\207\200\325\223"
 150      840A5A3D 
 150      8482A087 
 150      80D593
 151 003a A20904C1 		.ascii	"\242\011\004\301CK\011x*Jk\017V\360\224\233\370\003"
 151      434B0978 
 151      2A4A6B0F 
 151      56F0949B 
 151      F803
 152 004c B6370DC2 		.ascii	"\2667\015\302\372fw\263MBk\034vg\336\274\277\357\275"
 152      FA6677B3 
 152      4D426B1C 
 152      7667DEBC 
 152      BFEFBD
 153 005f EF0D0306 		.ascii	"\357\015\003\006\275\3534\375\234\003(\010\200\034\220"
 153      BDEB34FD 
 153      9C032808 
 153      801C90
 154 006e 95B7018A 		.ascii	"\225\267\001\212q\206(\005@Xb\270t\003}\337\032k4=\257"
 154      71862805 
 154      405862B8 
 154      74037DDF 
 154      1A6B343D 
 155 0083 FA61A5FA 		.ascii	"\372a\245\372\003_\260\223\034m\204\001\332\244U\201"
 155      035FB093 
 155      1C6D8401 
 155      DAA45581 
 156 0093 6521CAAA 		.ascii	"e!\312\252\215\004a\370\356\223\264\313\034\327IE'\337"
 156      8D0461F8 
 156      EE93B4CB 
 156      1CD74945 
 156      27DF
 157 00a5 82521C60 		.ascii	"\202R\034`\030\326\204XmV\016\336\214>\026\215\345'"
 157      18D68458 
 157      6D560EDE 
 157      8C3E168D 
 157      E527
 158 00b7 E28FE721 		.ascii	"\342\217\347!ZH\245M\241\214\234\242\013\252\376\301"
ARM GAS  /tmp/ccYyUiVf.s 			page 12


 158      5A48A54D 
 158      A18C9CA2 
 158      0BAAFEC1 
 159 00c7 06BA6B95 		.ascii	"\006\272k\225:PI\330\206\322\301\346\333\372\003\036"
 159      3A5049D8 
 159      86D2C1E6 
 159      DBFA031E 
 160 00d7 A2B6E11B 		.ascii	"\242\266\341\033\353\255\237\011\246\343S\034\216Jj"
 160      EBAD9F09 
 160      A6E3531C 
 160      8E4A6A
 161 00e6 D41E6E0C 		.ascii	"\324\036n\014\235\211n\367>R\201:\256\241B`\022\220"
 161      9D896EF7 
 161      3E52813A 
 161      AEA14260 
 161      1290
 162 00f8 D1CFC16F 		.ascii	"\321\317\301o\025a\235D\262\363\200\250$\274\307\212"
 162      15619D44 
 162      B2F380A8 
 162      24BCC78A 
 163 0108 7874D90A 		.ascii	"xt\331\012\034\"\370C\373Nh\017\013\355l\261\261\273"
 163      1C22F843 
 163      FB4E680F 
 163      0BED6CB1 
 163      B1BB
 164 011a F20EC5AA 		.ascii	"\362\016\305\252(\356{\336)\013\025\006\237\260_\203"
 164      28EE7BDE 
 164      290B1506 
 164      9FB05F83 
 165 012a 3312A823 		.ascii	"3\022\250#IY\324\2058\341s\304-\034d\360\371?R\220b"
 165      4959D485 
 165      38E173C4 
 165      2D1C64F0 
 165      F93F5290 
 166 013f 07EEEC6F 		.ascii	"\007\356\354o~i\375\302^~\356\357\225\024\035kD\217"
 166      7E69FDC2 
 166      5E7EEEEF 
 166      95141D6B 
 166      448F
 167 0151 8EAF7C92 		.ascii	"\216\257|\222\332T\204inCK\334\025\011\013c\006\222"
 167      DA548469 
 167      6E434BDC 
 167      15090B63 
 167      0692
 168 0163 679D6C41 		.ascii	"g\235lA]\224\327\302xw\213\315\312\327\215\236)\352"
 168      5D94D7C2 
 168      78778BCD 
 168      CAD78D9E 
 168      29EA
 169 0175 F8CC67B4 		.ascii	"\370\314g\264\357\030\341\237c\374\366[\216\361u\367"
 169      EF18E19F 
 169      63FCF65B 
 169      8EF175F7 
 170 0185 18BF0F25 		.ascii	"\030\277\017%\243w\026\251\267\366:\3469(\263\032\030"
 170      A37716A9 
 170      B7F63AE6 
 170      3928B31A 
ARM GAS  /tmp/ccYyUiVf.s 			page 13


 170      18
 171 0196 3B62A43A 		.ascii	";b\244:>'!\202n\217P\307\227\230\0144\273PlVG\202T\355"
 171      3E272182 
 171      6E8F50C7 
 171      97980C34 
 171      BB506C56 
 172 01ae 35497CD3 		.ascii	"5I|\323\333\225\256g\265\202\353h\256chF\306\232\266"
 172      DB95AE67 
 172      B582EB68 
 172      AE636846 
 172      C69AB6
 173 01c1 B2AE469F 		.ascii	"\262\256F\237\223\0175\266;3f\300\205c|rY'\357jW&R\343"
 173      930F35B6 
 173      3B3366C0 
 173      85637C72 
 173      5927EF6A 
 174 01d9 A9053219 		.ascii	"\251\0052\031Y\307\2749\177\311\036\313\2002\257\317"
 174      59C7BC39 
 174      7FC91ECB 
 174      8032AFCF 
 175 01e9 16CC8B47 		.ascii	"\026\314\213G\305\231\013ym<\225\276\226\326\2549c\266"
 175      C5990B79 
 175      6D3C95BE 
 175      96D6AC39 
 175      63B6
 176 01fb 70CBD4FC 		.ascii	"p\313\324\3748\303\276Z\2303(\364\3341`\221w\306]t\311"
 176      38C3BE5A 
 176      983328F4 
 176      DC316091 
 176      77C65D74 
 177 0210 2F914A4F 		.ascii	"/\221JO\250\323\272k\346\034kT\0359\017\314\201\230"
 177      A8D3BA6B 
 177      E61C6B54 
 177      1D390FCC 
 177      8198
 178 0222 6DDA5967 		.ascii	"m\332Yg\021X>\307\251\364\376\251d\177\031\370\013\321"
 178      11583EC7 
 178      A9F4FEA9 
 178      647F19F8 
 178      0BD1
 179 0234 CA0D04   		.ascii	"\312\015\004"
 180              		.text
 181              		.section	.gnu.lto_.symbol_nodes.4ba432de7a33ecbb,"",%progbits
 182 0000 789C45C8 		.ascii	"x\234E\310\273\011\200@\020\204\341\231\335;C[\260\324"
 182      BB098040 
 182      1084E199 
 182      DD3B435B 
 182      B0D4
 183 0012 154CC4C8 		.ascii	"\025L\304\310\012L\254\301\032\004\003{\020\361\211"
 183      0A4CACC1 
 183      1A04037B 
 183      10F189
 184 0021 58822828 		.ascii	"X\202((\336D\3777\002\201\341\233L|\272\354\001\263"
 184      DE44FF37 
 184      0281E19B 
 184      4C7CBAEC 
 184      01B3
ARM GAS  /tmp/ccYyUiVf.s 			page 14


 185 0033 2AA75FF9 		.ascii	"*\247_\371\024d\2461\274\262\320$\220;M_\246)\271\321"
 185      1464A631 
 185      BCB2D024 
 185      903B4D5F 
 185      A629B9D1 
 186 0047 5CD049F3 		.ascii	"\\\320I\363\277\024\036Y\327\252\302\241.\216D\305a"
 186      BF141E59 
 186      D7AAC2A1 
 186      2E8E44C5 
 186      61
 187 0058 6C62D508 		.ascii	"lb\325\010\331p\0217\311\011&\033"
 187      D9701137 
 187      C909261B 
 188              		.text
 189              		.section	.gnu.lto_.refs.4ba432de7a33ecbb,"",%progbits
 190 0000 789C6362 		.ascii	"x\234cb`b\340f\200\000F bb\002R\214\014\000\001s\000"
 190      6062E066 
 190      80004620 
 190      62620252 
 190      8C0C0001 
 191 0016 18       		.ascii	"\030"
 192              		.text
 193              		.section	.gnu.lto_.decls.4ba432de7a33ecbb,"",%progbits
 194 0000 789CBD5B 		.ascii	"x\234\275[{t\024U\232\257\252\356\244\323y\000:\013"
 194      7B741455 
 194      9AAFAAEE 
 194      A4D37900 
 194      3A0B
 195 0012 8BEECC31 		.ascii	"\213\356\3141\2723\263\036\3271\270\203\312\2343;\350"
 195      BA33B31E 
 195      D731B883 
 195      CA9C333B 
 195      E8
 196 0023 B0BBCA39 		.ascii	"\260\273\3129\353\036\216\034\217{v\367Lo\321\251$="
 196      EB1E8E1C 
 196      8F7B76F7 
 196      4C6FD1A9 
 196      243D
 197 0035 F4CBEA0A 		.ascii	"\364\313\352\012\201\277\254\204\020\342\210\230\204"
 197      81BFAC84 
 197      10E28898 
 197      84
 198 0042 B7BC8288 		.ascii	"\267\274\202\210\016\314(\012\003\202c\240\005\243\202"
 198      0ECC280A 
 198      038263A0 
 198      05A382
 199 0051 C090C010 		.ascii	"\300\220\300\020\036B\032$\002\262\014D^\"B\366\273"
 199      1E421A24 
 199      02B20C44 
 199      5E2242F6 
 199      BB
 200 0062 5FDDEAAE 		.ascii	"_\335\352\256\272]\325]\025t\352po\335T\337\373\373"
 200      BA5DD55D 
 200      1574EA70 
 200      6FDD54DF 
 200      FBFB
 201 0074 DEDF7D54 		.ascii	"\336\337}T!p\002w\277\300q\003p\215\3729\307\335\343"
ARM GAS  /tmp/ccYyUiVf.s 			page 15


 201      21700277 
 201      BFC07103 
 201      708DFA39 
 201      C7DDE3
 202 0087 E3382FC7 		.ascii	"\3438/\307q\277\200\302\323B\256B(+\240\374\027<\370"
 202      71BF80C2 
 202      D342AE42 
 202      282BA0FC 
 202      173CF8
 203 009a 15942A28 		.ascii	"\025\224*(\277\206\022\345\265>q\275#\275H\337\341P"
 203      BF8612E5 
 203      B53E71BD 
 203      23BD48DF 
 203      E150
 204 00ac DE843204 		.ascii	"\336\2042\004J)\224C\264\357T\250\236\205r\030J\007"
 204      4A299443 
 204      B4EF54A8 
 204      9E857218 
 204      4A07
 205 00be FC7D04EE 		.ascii	"\374}\004\356G\241\254\204\366Z(w@{,\334\013\340~\001"
 205      47A1AC84 
 205      F65A2877 
 205      407B2CDC 
 205      0BE07E01 
 206 00d2 EEBD709F 		.ascii	"\356\275p\237\014%\005\245\032J\011<\253\203{3\224\361"
 206      0C2505A5 
 206      1A4A093C 
 206      AB837B33 
 206      94F1
 207 00e4 501E87E2 		.ascii	"P\036\207\342%\317\241l\200\337\312\341\376\016\334"
 207      25CFA16C 
 207      80DFCAE1 
 207      FE0EDC
 208 00f3 CF43F141 		.ascii	"\317C\361A\333O\3719\016\355>(\247\241\364S\376\211"
 208      DB4FF939 
 208      0EED3E28 
 208      A7A1F453 
 208      FE89
 209 0105 1C5F43B9 		.ascii	"\034_C\271\301kr?\003\367\247\011\223B\266LD\366a\026"
 209      C16B723F 
 209      03F7A709 
 209      9342B64C 
 209      44F66116 
 210 0119 32196530 		.ascii	"2\031e0\312F\344 \362\244\250\334\325T\036\237\201\177"
 210      CA46E420 
 210      F2A4A8DC 
 210      D5541E9F 
 210      817F
 211 012b C2FB5D94 		.ascii	"\302\373]\224o\235g?\245e\344\267P\320x\035*d\370\265"
 211      6F9D673F 
 211      A565E4B7 
 211      50D0781D 
 211      2A64F8B5 
 212 013f D2FBAFA8 		.ascii	"\322\373\257\250\274\035\006\036u\336\010\337D\307\303"
 212      BC1D061E 
 212      75DE08DF 
 212      44C7C3
ARM GAS  /tmp/ccYyUiVf.s 			page 16


 213 014e 012340C7 		.ascii	"\001#@\307\025\3211FZ#\004\315\256:\035\017\364\011"
 213      15D13146 
 213      5A2304CD 
 213      AE3A1D0F 
 213      F409
 214 0160 C2BD12CA 		.ascii	"\302\275\022\312\337\011fzwq\313\324\366T\252\357\354"
 214      DF09667A 
 214      7771CBD4 
 214      F654AAEF 
 214      EC
 215 0171 A63BD4F6 		.ascii	"\246;\324\366\206\344\300\300Xn\0047O\205\253\275IU"
 215      86E4C0C0 
 215      586E0437 
 215      4F85ABBD 
 215      4955
 216 0183 79C5CF35 		.ascii	"y\305\3175\323?\236\370\030\370\371O^\344\207\370\271"
 216      D33F9EF8 
 216      18F8F94F 
 216      5EE487F8 
 216      B9
 217 0194 726C94FA 		.ascii	"rl\224\372Q\345?\342^U\325\226\324\322\313\263\376Y"
 217      51E53FE2 
 217      5E55D596 
 217      D4D2CBB3 
 217      FE59
 218 01a6 558B447E 		.ascii	"U\213D~%\357\007\355\003\301\373\270\3250\264EU_y\230"
 218      25EF07ED 
 218      03C1FBB8 
 218      D530B445 
 218      555F7998 
 219 01ba 91122FE7 		.ascii	"\221\022/\347\320]\037-\377G\204~\035\241\347\360<'"
 219      D05D1F2D 
 219      FF47847E 
 219      1DA1E7F0 
 219      3C27
 220 01cc F2AFF1F7 		.ascii	"\362\257\361\367\271\006\272\272s\353\030\004Z\203@"
 220      B906BABA 
 220      73EB1804 
 220      5A8340
 221 01db 3B182091 		.ascii	";\030 \221/\364\0339\304\277\365\016\004\015\376$\224"
 221      2FF41B39 
 221      C4BFF50E 
 221      040DFE24 
 221      94
 222 01ec BE22D1C6 		.ascii	"\276\"\321\306?G\237\220?|\334_}\234\225\230\004\342"
 222      3F479F90 
 222      3F7CDC5F 
 222      7D9C9598 
 222      04E2
 223 01fe 157E04B6 		.ascii	"\025~\004\266<\034\232\272\204\373\215\2526P\345\334"
 223      3C1C9ABA 
 223      84FB8DAA 
 223      3650E5DC 
 224 020e CEB512BC 		.ascii	"\316\265\022\274r\203\232\332\275:\300\277\244\365\324"
 224      72839ADA 
 224      BD3AC0BF 
 224      A4F5D4
ARM GAS  /tmp/ccYyUiVf.s 			page 17


 225 021d DE33FB07 		.ascii	"\3363\373\007\252W\344\327\362\267\003\210*\230\265"
 225      AA57E4D7 
 225      F2B70388 
 225      2A98B5
 226 022c 941744E0 		.ascii	"\224\027D\340\236\307!\353`\2706\020a\325TO[\347t\276"
 226      9EC721EB 
 226      60B83610 
 226      61D5544F 
 226      5BE774BE 
 227 0240 1EDC4AFB 		.ascii	"\036\334J\373\2153\301\232\256\273\271v\340:\271`\366"
 227      8D33C19A 
 227      AEBBB976 
 227      E03AB960 
 227      F6
 228 0251 5270CB6D 		.ascii	"Rp\313m\320\377M\276\004p\337K\343ZIO\233\332E;\230"
 228      D0FF4DBE 
 228      0470DF4B 
 228      E35A494F 
 228      9BDA453B 
 229 0266 F15EDE53 		.ascii	"\361^\336S\332\"\352`\333]\203\225\233\300\226\357Y"
 229      DA22EA60 
 229      DB5D8395 
 229      9BC096EF 
 229      59
 230 0277 82CCA1FB 		.ascii	"\202\314\241\37358\012\221~\032\"\357\242\373\355\024"
 230      35380A91 
 230      7E1A22EF 
 230      A2FBED14 
 231 0287 2CFCD811 		.ascii	",\374\330\021P\327\314W\357G\240\016\004\352\0364\320"
 231      50D7CC57 
 231      EF47A00E 
 231      04EA1E34 
 231      D0
 232 0298 D59D1FB4 		.ascii	"\325\235\037\264\362\323\321\"I\204:\"\260!\341cB\302"
 232      F2D3D122 
 232      49843A22 
 232      B021E163 
 232      42C2
 233 02aa 677651FC 		.ascii	"gvQ\374\2316\210g\016\345\276\343\356\002\367\271\023"
 233      99368867 
 233      0EE5BEE3 
 233      EE02F7B9 
 233      13
 234 02bb C315D979 		.ascii	"\303\025\331y\201\232:\320\266\313\263HM6z\250'\267"
 234      819A3AD0 
 234      B6CBB348 
 234      4D367AA8 
 234      27B7
 235 02cd 17DA6949 		.ascii	"\027\332iI\340\316!\255N\326\223\217\364\354j\240\236"
 235      E0CE21AD 
 235      4ED6938F 
 235      F4EC6AA0 
 235      9E
 236 02de DCE9C893 		.ascii	"\334\351\310\2237\354\\\200\316\2227\034\005\235\376"
 236      37EC5C80 
 236      CE92371C 
 236      059DFE
ARM GAS  /tmp/ccYyUiVf.s 			page 18


 237 02ed 0F91FE4A 		.ascii	"\017\221\376J\017\241\277\223\245\277u\361\025=\222"
 237      0FA1BF93 
 237      A5BF75F1 
 237      153D92
 238 02fc 763AA2BF 		.ascii	"v:\242\277\274{n6}\221\377\305\360\\\336q\244\347\363"
 238      BC7B6E36 
 238      7D91FFC5 
 238      F05CDE71 
 238      A4E7F3
 239 030f 7E4A650F 		.ascii	"~Je\017\206\314q\017\353\035cK\314\366\203\277\015\035"
 239      86CC710F 
 239      EB1D634B 
 239      CCF683BF 
 239      0D1D
 240 0321 04EE8B34 		.ascii	"\004\356\2134\377\203\212X\020t\327\\\276m\272\372\361"
 240      FF838A58 
 240      1074D75C 
 240      BE6DBAFA 
 240      F1
 241 0332 289D8773 		.ascii	"(\235\207s\256\021\313M\232X\327\2159@\003\273\340\004"
 241      AE11CB4D 
 241      9A58D78D 
 241      394003BB 
 241      E004
 242 0344 CCD6951A 		.ascii	"\314\326\225\032\222\1770\202]t\015f\346l\243\021\354"
 242      927F3082 
 242      5D740D66 
 242      E66CA311 
 242      EC
 243 0355 8A13B061 		.ascii	"\212\023\260a\366\234m2\202]s\015f\346\354]#\3307N\300"
 243      F69C6D32 
 243      825D730D 
 243      66E6EC5D 
 243      23D8374E 
 244 036a 46DA73F6 		.ascii	"F\332s\366\236\021L\365\272\0053s\266\305\010\326\350"
 244      9E114CF5 
 244      BA053373 
 244      B6C508D6 
 244      E8
 245 037b 04ACDC82 		.ascii	"\004\254\334\202\263\364e7\251\356\340\323~.p3\275z"
 245      B3F46537 
 245      A9EEE0D3 
 245      7E2E7033 
 245      BD7A
 246 038d 4E70E9D3 		.ascii	"Np\351\323\\\006\343\005\257\333\034f\222\033\246\322"
 246      5C06E305 
 246      AFDB1C66 
 246      921BA6D2 
 247 039d DD2BF939 		.ascii	"\335+\3719Z\\h\323Y\253\023\304\034\016\263\32187.r"
 247      5A5C68D3 
 247      59AB13C4 
 247      1C0EB3D1 
 247      38372E72 
 248 03b1 0D6636CB 		.ascii	"\015f6\313~\002f\3125tNJ\255J\216\\\230IwE:\026Y j\271"
 248      7E0266CA 
 248      35744E4A 
 248      AD4A8E5C 
ARM GAS  /tmp/ccYyUiVf.s 			page 19


 248      98497745 
 249 03cb 0DD68B42 		.ascii	"\015\326\213B\272\263:r\244u_\221?\313\377\010\352\377"
 249      BAB33A72 
 249      A4755F91 
 249      3FCBFF08 
 249      EAFF
 250 03dd E3FD692E 		.ascii	"\343\375i.\264\266\336\032\340\211\236Wx\255\226\236"
 250      B4B6DE1A 
 250      E0899E57 
 250      78AD969E 
 251 03ed 08907BA8 		.ascii	"\010\220{\250\235'\2341z\302kN\324\224#\024\256\357"
 251      9D279C31 
 251      7AC26B4E 
 251      D4942314 
 251      AEEF
 252 03ff 59F2B76A 		.ascii	"Y\362\267j*\311\033\344\315\251\034XB\364\321%\304\005"
 252      2AC91BE4 
 252      CDA91C58 
 252      42F4D125 
 252      C405
 253 0411 9CAEDFF0 		.ascii	"\234\256\337\360Z\316\374\016\200\272f\316\327\326\324"
 253      5ACEFC0E 
 253      80BA66CE 
 253      D7D6D4
 254 0420 171168E3 		.ascii	"\027\021h\343\240\201\256\356\\\246\255\251\257 \320"
 254      A081AEEE 
 254      5CA6ADA9 
 254      AF20D0
 255 042f 162F3B45 		.ascii	"\026/;E\360\314\002\2027O\361i\315S\305\177W}\005\356"
 255      F0CC0282 
 255      374FF169 
 255      CD53C57F 
 255      577D05EE 
 256 0443 63D65A26 		.ascii	"c\326Z&q\362\346\232TO\367\3119\374\305\006u\341(\027"
 256      71F2E69A 
 256      544FF7C9 
 256      39FCC506 
 256      75E12817 
 257 0457 F63A4EED 		.ascii	"\366:N\355u\035\265\2637K;\027]\252G\340\016\272\026"
 257      751DB5B3 
 257      374B3B17 
 257      5DAA47E0 
 257      0EBA16
 258 046a E35EB318 		.ascii	"\343^\263\030m\247\334\213q\206\212AbS\340R\337\202"
 258      6DA7DC8B 
 258      71868A41 
 258      6253E052 
 258      DF82
 259 047c 18A75D8B 		.ascii	"\030\247]\2131\312 \006l&\272/\315\3252\340\367\270"
 259      31CA2006 
 259      6C26BA2F 
 259      CDD532E0 
 259      F7B8
 260 048e B6DCCB38 		.ascii	"\266\334\3138\302\317\014\341{\246%T\362\362\237\370"
 260      C2CF0CE1 
 260      7BA62554 
 260      F2F29FF8 
ARM GAS  /tmp/ccYyUiVf.s 			page 20


 261 049e 72ED71BE 		.ascii	"r\355q\276\325\223\232\234\323\275\204\356C\264\315"
 261      D5939A9C 
 261      D3BD84EE 
 261      43B4CD
 262 04ad ED79E49D 		.ascii	"\355y\344\235\214\035\314\252FM\276\245\315Z\032\330"
 262      8C1DCCAA 
 262      464DBEA5 
 262      CD5A1AD8 
 263 04bd 955B026B 		.ascii	"\225[\002kHnm\3237IcI\352\036\270E\270O\273\331\324"
 263      486E6DD3 
 263      37496349 
 263      EA1EB845 
 263      B84FBBD9 
 264 04d2 CDAC19D7 		.ascii	"\315\254\031\327\332\244;\352*=\263?|\237o\300E\343"
 264      DAA43BEA 
 264      2A3DB33F 
 264      7C9F6FC0 
 264      45E3
 265 04e4 4B0261A8 		.ascii	"K\002a\250\251\200u\2267yf\325H\036\030\272\330\331"
 265      A9807596 
 265      377966D5 
 265      481E18BA 
 265      D8D9
 266 04f6 70B660C8 		.ascii	"p\266`\310\275\213\012nIN\010\203\336W5\377\311\267"
 266      BD8B0A6E 
 266      494E0883 
 266      DE5735FF 
 266      C9B7
 267 0508 26FF5F1D 		.ascii	"&\377_\035\255\024\011/G\302\363\004fI\276\371l\252"
 267      AD14092F 
 267      47C2F304 
 267      6649BEF9 
 267      6CAA
 268 051a 89CA4D7E 		.ascii	"\211\312M~\313\357TG\372\374j[\251\005\275G\215\363"
 268      CBEF5447 
 268      FAFC6A5B 
 268      A905BD47 
 268      8DF3
 269 052c 7F5AABFB 		.ascii	"\177Z\253\373[\371FD_$\220]\371~F\253\372^\346Q; \201"
 269      5BF94644 
 269      5F24905D 
 269      F97E46AB 
 269      FA5EE651 
 270 0543 3B894396 		.ascii	";\211C\226\260\214\367t_\325\3672K\0340\336\220\354"
 270      B08CF774 
 270      5FD5F732 
 270      4B1C30DE 
 270      90EC
 271 0555 7FC1B82B 		.ascii	"\177\301\270+\027\371\215\274@q\007\347q_~\222^y\210"
 271      17F98DBC 
 271      407107E7 
 271      715F7E92 
 271      5E7988
 272 0568 FC26D760 		.ascii	"\374&\327`\345V\254\352\236\225\221V\344\227\011d\305"
 272      E556ACEA 
 272      9E959156 
 272      E4970964 
ARM GAS  /tmp/ccYyUiVf.s 			page 21


 272      C5
 273 0579 B05CB81B 		.ascii	"\260\\\270\033\352v\250\323\227\300]N\333\324Juy\003"
 273      EA76A8D3 
 273      97C05D4E 
 273      DBD44A75 
 273      7903
 274 058b 1A8CFFD5 		.ascii	"\032\214\377\325|\315\231\\\034\230\255z\221\036\230"
 274      7CCD995C 
 274      1C98AD7A 
 274      911E98
 275 059a 614EBD91 		.ascii	"aN\275\221\025&\257\2639\325\305\351\220\300M/dDr\272"
 275      1526AFB3 
 275      39D5C5E9 
 275      90C04D2F 
 275      644472BA 
 276 05ae B5495F76 		.ascii	"\265I_va8\327\030\206\317\027\336b\030v\237r\030\206"
 276      6138D718 
 276      86CF17DE 
 276      6218769F 
 276      721886
 277 05c1 2A6F5C78 		.ascii	"*o\\x\012\\\013R^\303\272\363\305/?\236I\335y\215\243"
 277      0A5C0B52 
 277      5EC3BAF3 
 277      C52F3F9E 
 277      49DD798D 
 278 05d6 38BC8C71 		.ascii	"8\274\214q\250\307\325\373i\324\301xBC\362\332\231\035"
 278      A8C7D5FB 
 278      69D4C178 
 278      4243F2DA 
 278      991D
 279 05e8 3CC2690B 		.ascii	"<\302i\013\351\035,\234\313\015\3467\222[\305h\336\225"
 279      E91D2C9C 
 279      CB0DE637 
 279      925BC568 
 279      DE95
 280 05fa 3CD447A6 		.ascii	"<\324G\246\267\365(SW!\353Z\232f\014\256\265\306\020"
 280      B7F52853 
 280      5721EB5A 
 280      9A660CAE 
 280      B5C610
 281 060d 27BFC738 		.ascii	"'\277\3078y\003\343d-\326o\033\243\305\316-\326\031"
 281      7903E364 
 281      2DD66F1B 
 281      A3C5CE2D 
 281      D619
 282 061f DDE2906B 		.ascii	"\335\342\220k\271\313\035z\337j#\231\324-z\337\201\356"
 282      B9CB1D7A 
 282      DF6A2399 
 282      D42D7ADF 
 282      81EE
 283 0631 F35E3C0A 		.ascii	"\363^<\012rq\210w\203.\2056c\330\236\312\322m\007\033"
 283      72718877 
 283      832E8536 
 283      63D89ECA 
 283      D26D071B 
 284 0645 B64ECEB4 		.ascii	"\266N\316\264.\016V\220\364%p_\027:\330\215\224\333"
 284      2E0E5690 
ARM GAS  /tmp/ccYyUiVf.s 			page 22


 284      F425705F 
 284      173AD88D 
 284      94DB
 285 0657 29831CCF 		.ascii	")\203\034\317^\245+\252\274\007c\372\254\264gW=\235"
 285      5EA52BAA 
 285      BC0763FA 
 285      ACB46757 
 285      3D9D
 286 0669 95B6A2A7 		.ascii	"\225\266\242\247\335,\264\236\225r\234\260\275\350#"
 286      DD2CB49E 
 286      95729CB0 
 286      BDE823
 287 0678 43B665CD 		.ascii	"C\266e\315Jm\227\364Yi\233\243Yi\237\345\254\264\315"
 287      4A6D97F4 
 287      59699BA3 
 287      59699FE5 
 287      ACB4CD
 288 068b FDAC6475 		.ascii	"\375\254du\031\031\024\371\0170@:\315S\310R\237[\355"
 288      191914F9 
 288      0F30403A 
 288      CD53C852 
 288      9F5BED
 289 069e 971BB59F 		.ascii	"\227\033\265\237\274\266o\011\257\361\257%\242\327Y"
 289      BCB66F09 
 289      AFF1AF25 
 289      A2D759
 290 06ad 3CAB4474 		.ascii	"<\253Dt\257\2555\223-\007\014k\314uN\230\033e\007\326"
 290      AFAD3593 
 290      2D070C6B 
 290      CC754E98 
 290      1B6507D6 
 291 06c1 905CA281 		.ascii	"\220\\\242\201i.\277\3115X\271\011\354\217\363uK\255"
 291      692EBFC9 
 291      3558B909 
 291      EC8FF375 
 291      4BAD
 292 06d3 C605E276 		.ascii	"\306\005\342v'xc\354\231\333w@_\235k\347\352\273]\343"
 292      277863EC 
 292      99DB7740 
 292      5F9D6BE7 
 292      EABB5DE3 
 293 06e7 99F9EB9F 		.ascii	"\231\371\353\237oZP\037t\002\367\250cG\312\274\025\021"
 293      6F5A501F 
 293      7402F7A8 
 293      6347CABC 
 293      1511
 294 06f9 F93FE019 		.ascii	"\371?\340\031\306\006\236\344\330w\260\336\214\365\007"
 294      C6069EE4 
 294      D877B0DE 
 294      8CF507
 295 0708 589FC4FA 		.ascii	"X\237\304\372s\254Oc}\036\353\257\261\036\300\272\021"
 295      73AC4F63 
 295      7D1EEBAF 
 295      B11EC0BA 
 295      11
 296 0719 F3F316AC 		.ascii	"\363\363\026\254?\302z\007\326\237`\275\033\353?a\335"
 296      3FC27A07 
ARM GAS  /tmp/ccYyUiVf.s 			page 23


 296      D69F60BD 
 296      1BEB3F61 
 296      DD
 297 072a E5248733 		.ascii	"\345$\2073\013q\372\016I\363\"l<\3551\270|\312g\216"
 297      0B71FA0E 
 297      49F3226C 
 297      3CED31B8 
 297      7CCA678E 
 298 073e F61F722B 		.ascii	"\366\037r+U\265-\325w\366 9_\367\352s\340\027\330m\005"
 298      55B52DD5 
 298      77F62039 
 298      5FF7EA73 
 298      E017D86D 
 299 0753 7F972559 		.ascii	"\177\227%Y\272\035\300\261-\352b\351\011\335g\317\345"
 299      BA1DC0B1 
 299      2DEA62E9 
 299      09DD67CF 
 299      E5
 300 0764 194679FA 		.ascii	"\031Fy\3721\267\212\244\230\265M3\206y\365\207\366\303"
 300      31B78AA4 
 300      98B54D33 
 300      8679F587 
 300      F6C3
 301 0776 A89CFB05 		.ascii	"\250\234\373\005\323{P\355-h\262\377\243\027\255\337"
 301      D37B50ED 
 301      2D68B2FF 
 301      A317ADDF 
 302 0786 826A3CDA 		.ascii	"\202j<\332)\355\2100\2023kG\340\372\031\325P>\033\324"
 302      29ED8830 
 302      82336B47 
 302      E0FA19D5 
 302      503E1BD4 
 303 079a 75BF55FD 		.ascii	"u\277U\375\372\016H\344\017\0139\331\374\324\222\315"
 303      FA0E48E4 
 303      0F0B39D9 
 303      FCD492CD 
 304 07aa AEDF7C02 		.ascii	"\256\337|\002K\014\365\233\201\001\017\313\246\315y"
 304      4B0CF59B 
 304      81010FCB 
 304      A6CD79
 305 07b9 3EC1EA15 		.ascii	">\301\352\025L\357\0055\036\362\030\370\272\245\201"
 305      4CEF0535 
 305      1EF218F8 
 305      BAA581
 306 07c8 D5EB954F 		.ascii	"\325\353\225O\350\256r@"
 306      E8AE7240 
 307 07d0 2059F698 		.ascii	" Y\366\230\215\030f\333.\327m+\362\007\363\0143\333"
 307      8D1866DB 
 307      2ED76D2B 
 307      F207F30C 
 307      33DB
 308 07e2 F64575C6 		.ascii	"\366Eu\3060\036\205\343\350(SD\235\310\326R\012\346"
 308      301E85E3 
 308      E8285344 
 308      9DC8D652 
 308      0AE6
 309 07f4 A6B60323 		.ascii	"\246\266\003#\027\256S\033\237Wo\016<\307;\327\323)"
ARM GAS  /tmp/ccYyUiVf.s 			page 24


 309      17AE531B 
 309      9F576F0E 
 309      3CC73BD7 
 309      D329
 310 0806 564F1790 		.ascii	"VO\027\220c\223^\232\213X\353j]\317Xq\222\3549q\232"
 310      63935E9A 
 310      8B58EB6A 
 310      5DCF5871 
 310      92EC3971 
 311 081b 5FA46E6B 		.ascii	"_\244nkT\007\006\236s\343Wg\255,\306p2\337\206\223s"
 311      5407069E 
 311      73E35767 
 311      AD2CC670 
 311      32DF8693 
 312 0830 969C1C3D 		.ascii	"\226\234\034=\221\314p\242\271\204\300\275b\003q\336"
 312      91CC70A2 
 312      B984C0BD 
 312      620371DE 
 313 0840 0C710FB7 		.ascii	"\014q\017\267\202@\254?\221\022\352\325m\013a\206\201"
 313      8240AC3F 
 313      9112EAD5 
 313      6D0B6186 
 313      81
 314 0851 5DC75DFA 		.ascii	"]\307]\372r\264\371\263\314\231\251:\\\227d/AH\357`"
 314      72B4F9B3 
 314      CC99A93A 
 314      5C97642F 
 314      4148EF60 
 315 0865 2FADA0AF 		.ascii	"/\255\240\257\032\373q\202[\313\320u\000%p\177\304A"
 315      1AFB7182 
 315      5BCBD075 
 315      0025707F 
 315      C441
 316 0877 97B2570B 		.ascii	"\227\262W\013\235\372\242\377\222\243E\377\322c\332"
 316      9DFAA2FF 
 316      92A345FF 
 316      D263DA
 317 0886 6C6BB19C 		.ascii	"lk\261\234N\245\227\323\3377p\277\247\3478\345\376+"
 317      4EA597D3 
 317      DF3770BF 
 317      A7E738E5 
 317      FE2B
 318 0898 E4BED386 		.ascii	"\344\276\323\206{[ \201\353\306!\327\263y\337\337Dy"
 318      7B5B2081 
 318      EBC621D7 
 318      B379DFDF 
 318      4479
 319 08aa BFEE88F7 		.ascii	"\277\356\210\367}\207\315+\205T\032wp[\226\375\207q"
 319      7D87CD2B 
 319      85541A77 
 319      705B96FD 
 319      8771
 320 08bc 72D726CF 		.ascii	"r\327&\317\323,\230\253\015\213\232<\250\201u\342\247"
 320      D32C98AB 
 320      0D8B9A3C 
 320      A88175E2 
 320      A7
ARM GAS  /tmp/ccYyUiVf.s 			page 25


 321 08cd 03E75D83 		.ascii	"\003\347]\203\225\2338\353}\331\374\376\377\262\023"
 321      959B38EB 
 321      7DD9FCFE 
 321      FFB213
 322 08dc BC1CEF38 		.ascii	"\274\034\3578.\0346\274\343\270\341\032\314\314\334"
 322      2E1C36BC 
 322      E3B8E11A 
 322      CCCCDC
 323 08eb 1523D80C 		.ascii	"\025#\330\014\277\0030\2537\001V\227\321ID\376\006\256"
 323      BF0330AB 
 323      37015697 
 323      D14944FE 
 323      06AE
 324 08fd 366FE224 		.ascii	"6o\342$\256zH\335\200u#\326MX7{Lk\321\227\374z\224X"
 324      AE7A48DD 
 324      807523D6 
 324      4D58377B 
 324      4C6BD197 
 325 0915 BA623E97 		.ascii	"\272b>\227P\223\033\354\303\303j\267\011\301}\252\236"
 325      50931BEC 
 325      C3C36AB7 
 325      09C17DAA 
 325      9E
 326 0926 9F813E3C 		.ascii	"\237\201><\313C,?\317\2377<\330\375\374\357p\310K\236"
 326      CB432C3F 
 326      CF9F373C 
 326      D8FDFCEF 
 326      70C84B9E 
 327 093a ACE3A91B 		.ascii	"\254\343\251\0333hx\220\337\362o\004\256-X\352\354U"
 327      33687890 
 327      DFF26F04 
 327      AE2D58EA 
 327      EC55
 328 094c 7B9AFEDF 		.ascii	"{\232\376\337\030\004\331sR?g\233\213\202l\313/\210"
 328      1804D973 
 328      523F679B 
 328      8B826CCB 
 328      2F88
 329 095e 1908E21C 		.ascii	"\031\010\342\034\207,\310\026\344\234.\310\002G\202"
 329      872CC816 
 329      E49C2EC8 
 329      024782
 330 096d 6C5EA07B 		.ascii	"l^\240{\377\034\017\361\261\317\322\270\203\332\354"
 330      FF1C0FF1 
 330      B1CFD2B8 
 330      83DAEC
 331 097c 26DFED41 		.ascii	"&\337\355A\207\325\300\316\272\0063{\177G\217\333\257"
 331      87D5C0CE 
 331      BA06337B 
 331      7F478FDB 
 331      AF
 332 098d 5F7AF66C 		.ascii	"_z\366l\270\0177\316\313=$\321\\d\024;\310\215\363\015"
 332      B80F37CE 
 332      CB3D24D1 
 332      5C64143B 
 332      C88DF30D 
 333 09a1 2772D81F 		.ascii	"'r\330\037\260\200U\316\317\2638\177r\276^X\345af\351"
ARM GAS  /tmp/ccYyUiVf.s 			page 26


 333      B08055CE 
 333      CFB3387F 
 333      72BE5E58 
 333      E56166E9 
 334 09b5 B1CC249D 		.ascii	"\261\314$\235K%\263\217\325\3233\343W\321*M\305f\245"
 334      4B25B38F 
 334      D5D333E3 
 334      57D12A4D 
 334      C566A5
 335 09c8 3047EF84 		.ascii	"0G\357\204\226\035\037\253=%6\036\225\365\033$\210b"
 335      961D1FAB 
 335      3D25361E 
 335      95F51B24 
 335      8862
 336 09da B75A3359 		.ascii	"\267Z3Y\237\274|Y\245\277~\306M\322\002'\200V\231\331"
 336      9FBC7C59 
 336      A5BF7EC6 
 336      4DD20227 
 336      805699D9 
 337 09ee EA32060F 		.ascii	"\3522\006\017Lr\036\222\377^\306<\267\004\353eX\257"
 337      4C721E92 
 337      FF5EC63C 
 337      B704EB65 
 337      58AF
 338 0a00 C4FA77C6 		.ascii	"\304\372w\306\314g\247\033\342\362i\354\305\036\201"
 338      CC67A71B 
 338      E2F269EC 
 338      C51E81
 339 0a0f E699C185 		.ascii	"\346\231\301\205\3217\2310\022\371\245\256\301L\212"
 339      D1379930 
 339      12F9A5AE 
 339      C14C8A
 340 0a1e 4CB61ED6 		.ascii	"L\266\036\326\367\256$*D\376\025'x9\316\013\337\322"
 340      F7AE242A 
 340      44FE1527 
 340      7839CE0B 
 340      DFD2
 341 0a30 26252DC4 		.ascii	"&%-\304\226\025\363.\301\312s\031\345%\203QZ\321(mh"
 341      9615F32E 
 341      C1CA7319 
 341      E5258351 
 341      5AD1286D 
 342 0a45 8237B07E 		.ascii	"\2027\260~\023\353\265\346\211hM13\021\231\223\276\325"
 342      13EBB5E6 
 342      89684D31 
 342      33119993 
 342      BED5
 343 0a57 BC68D48F 		.ascii	"\274h\324\217\232|\357\030\310\343\3748\352\234~\034"
 343      9A7CEF18 
 343      C8E3FC38 
 343      EA9C7E1C 
 344 0a67 B51E93F7 		.ascii	"\265\036\223\367\333\305\226\311;\327qT\022\207l\314"
 344      DBC596C9 
 344      3BD77154 
 344      12876CCC 
 345 0a77 4ADE6D7D 		.ascii	"J\336m}\372\"mc\376\344\3358=\271a\361k\231Yhz:\202"
 345      FA226D63 
ARM GAS  /tmp/ccYyUiVf.s 			page 27


 345      FEE4DD38 
 345      3DB961F1 
 345      6B995968 
 346 0a8e BF801C67 		.ascii	"\277\200\034g\347\245\246O\013\366\246\371p\351\245"
 346      E7A5A64F 
 346      0BF6A6F9 
 346      70E9A5
 347 0a9d D6B6DB68 		.ascii	"\326\266\333h\260\335&\264\335f\263\245\016\263\226"
 347      B0DD26B4 
 347      DD66B3A5 
 347      0EB396
 348 0aac B2A2673A 		.ascii	"\262\242g:n2\033\352\317\307\364E\251\366\325\3501\026"
 348      6E321BEA 
 348      CFC7F445 
 348      A9F6D5E8 
 348      3116
 349 0abe AFDDF48D 		.ascii	"\257\335\364\215(m\332\0369\251\311cn,\277\376\2353"
 349      286DDA1E 
 349      39A9C963 
 349      6E2CBFFE 
 349      9D33
 350 0ad0 8FE0DC92 		.ascii	"\217\340\334\222D\273\267\224\270\264;Q\321v\306\346"
 350      44BBB794 
 350      B8B43B51 
 350      D176C6E6 
 351 0ae0 C97EA95C 		.ascii	"\311~\251\\{\352`\315\321\207\247\376.N\2217\320S\344"
 351      7BEA60CD 
 351      D187A7FE 
 351      2E4E9137 
 351      D053E4
 352 0af3 0F315257 		.ascii	"\0171RW\224|+\223\341j\204\331\376m9\315v\203\323|\200"
 352      947C2B93 
 352      E16A84D9 
 352      FE6D39CD 
 352      7683D37C 
 353 0b08 4ED36976 		.ascii	"N\323iv\232\267J\0348M\334\326i`\032\351{\244^M.\034"
 353      9AB74A1C 
 353      384DDCD6 
 353      69601AE9 
 353      7BA45E4D 
 354 0b1e 751BD7A2 		.ascii	"u\033\327\242\357\375\250\016\223Mj3_\377\366\367\323"
 354      EFFDA80E 
 354      934D6A33 
 354      5FFFF6F7 
 354      D3
 355 0b2f 234D9B9A 		.ascii	"#M\233\232\364\007\212\177YA\347\317\335\250\307\365"
 355      F4078A7F 
 355      5941E7CF 
 355      DDA8C7F5 
 356 0b3f 8C1EDD80 		.ascii	"\214\036\335\200u\315|]\373\250v/Bm\271\005\250\253"
 356      75CD7C5D 
 356      FBA8762F 
 356      426DB905 
 356      A8AB
 357 0b51 3B8FEA9F 		.ascii	";\217\352\237\325\356C\260\217\262\354\353g\314\353"
 357      D5EE43B0 
 357      8FB2ECEB 
ARM GAS  /tmp/ccYyUiVf.s 			page 28


 357      67CCEB
 358 0b60 379BD7EF 		.ascii	"7\233\327\357\3174\006\364\213\375\342\345;\034C\205"
 358      CF3406F4 
 358      8BFDE2E5 
 358      3B1C4385 
 359 0b70 4B96E9D2 		.ascii	"K\226\351\322\035\344)\300.\317m\031}\250\351\304Vj"
 359      1DE429C0 
 359      2ECF6D19 
 359      7DA8E9C4 
 359      566A
 360 0b82 9FD70E78 		.ascii	"\237\327\016x2\037Z\225\3723\215;\323~\324\315\372\021"
 360      321F5A95 
 360      FA338D3B 
 360      D37ED4CD 
 360      FA11
 361 0b94 4397B6A7 		.ascii	"C\227\266\247:\366\334K\206\375\323\025\334?]\305\375"
 361      3AF6DC4B 
 361      86FDD315 
 361      DC3F5DC5 
 361      FD
 362 0ba5 D30B3849 		.ascii	"\323\0138I\255\303\272\003\353\255X\177b\366\353\343"
 362      ADC3BA03 
 362      EBAD587F 
 362      62F6EBE3 
 363 0bb5 6973E9D3 		.ascii	"is\351\323\226\371\034\202\2208\350I\037\2170\253\264"
 363      96F91C82 
 363      9038E849 
 363      1F8F30AB 
 363      B4
 364 0bc6 4536F140 		.ascii	"E6\361@F\035\312\254D\230Q\3759F\035\316\214\242\221"
 364      461DCAAC 
 364      449851FD 
 364      39461DCE 
 364      8CA291
 365 0bd9 D2FEE8C2 		.ascii	"\322\376\350\302!\332\307jt\3140}\214\316\337\021\327"
 365      21DAC76A 
 365      74CC307D 
 365      8CCEDF11 
 365      D7
 366 0bea 76FAD4C6 		.ascii	"v\372\324\306N\274\231t9Cy\214\336\317Gq\216\272\246"
 366      4EBC9974 
 366      3943798C 
 366      DECF4771 
 366      8EBAA6
 367 0bfd 7CCC8672 		.ascii	"|\314\206r\241\265\252\310\301\230\035T\257\255\202"
 367      A1B5AAC8 
 367      C1981D54 
 367      AFAD82
 368 0c0c 4FE51895 		.ascii	"O\345\030\225\312\214\"Ge\311\013\251E[\273\376\373"
 368      CA8C2247 
 368      65C90BA9 
 368      455BBBFE 
 368      FB
 369 0c1d F7EB5415 		.ascii	"\367\353T\025\217\017\353\033]\034 \236\360d\037\007"
 369      8F0FEB1B 
 369      5D1C209E 
 369      F0641F07 
ARM GAS  /tmp/ccYyUiVf.s 			page 29


 370 0c2d CF2AB53C 		.ascii	"\317*\265<\016\206\353\267\252'}\262y\334\303\234l~"
 370      0E86EBB7 
 370      AA277DB2 
 370      79DCC39C 
 370      6C7E
 371 0c3f E6C93AC5 		.ascii	"\346\311:\305\003\326\266,\276YH^Z\222S\274\2735z\002"
 371      03D6B62C 
 371      BE59485E 
 371      5A9253BC 
 371      BB357A02 
 372 0c53 37DF1185 		.ascii	"7\337\021\205>\226\302\347\226\024Z?{\177\026\337\272"
 372      3E96C2E7 
 372      96145A3F 
 372      7B7F16DF 
 372      BA
 373 0c64 B6496DA9 		.ascii	"\266Im\251O\015<\267<\331\342u.\376\031v?\324\221}~"
 373      4F0D3CB7 
 373      3CD9E275 
 373      2EFE1976 
 373      3FD4917D 
 374 0c79 FA6713B3 		.ascii	"\372g\023\263\330\023\266\267\245\324\321\350)s\327"
 374      D813B6B7 
 374      A5D4D1E8 
 374      2973D7
 375 0c88 87A52DBC 		.ascii	"\207\245-\274\376_\034\372q\304i\217\335\201q\207\351"
 375      FE5F1CFA 
 375      71C4698F 
 375      DD817187 
 375      E9
 376 0c99 C0F862FD 		.ascii	"\300\370b\375\204\221i\231O\2632\237\265\224\271\247"
 376      84916999 
 376      4FB3329F 
 376      B594B9A7 
 377 0ca9 BBE7CEC1 		.ascii	"\273\347\316\301\031\374KVb\323\311:\215xF\003W\031"
 377      19FC4B56 
 377      62D3C93A 
 377      8D784603 
 377      5719
 378 0cbb 735199DF 		.ascii	"sQ\231\337\221\230\223\365~[\2113'\353mj\253\246\252"
 378      919893F5 
 378      7E5B8933 
 378      27EB6D6A 
 378      ABA6AA
 379 0cce 43B8876C 		.ascii	"C\270\207l,\343s\016\244\014QU\035R\015\252\352gUu\331"
 379      2CE3730E 
 379      A40C5155 
 379      1D520DAA 
 379      EA675575 
 380 0ce3 52550BB7 		.ascii	"RU\013\267\366\377O\226\0036\2279q\300\257Y\012\327"
 380      F6FF4F96 
 380      03369739 
 380      71C0AF59 
 380      0AD7
 381 0cf5 6D5C7CB7 		.ascii	"m\\|\267/\213\302\\G\024n\260\024nz\262\316\261\367"
 381      2F8BC25C 
 381      47146EB0 
 381      146E7AB2 
ARM GAS  /tmp/ccYyUiVf.s 			page 30


 381      CEB1F7
 382 0d08 EE4D75FE 		.ascii	"\356Mu\376e!\337\234R[\300\332\003\2741\263\031V\350"
 382      6521DF9C 
 382      525BC0DA 
 382      03BC31B3 
 382      1956E8
 383 0d1b 1374C515 		.ascii	"\023t\305\025\343H\233\374\307\364\022\371\006\257\333"
 383      E3489BFC 
 383      C7F412F9 
 383      06AFDB
 384 0d2a FC37DD6B 		.ascii	"\3747\335k\235\377\214\263\\\246\027\250\242\275\214"
 384      9DFF8CB3 
 384      5CA617A8 
 384      A2BD8C
 385 0d39 7937C630 		.ascii	"y7\3060\001K\3012}\302\206\205\270\256\326\336\263\327"
 385      014BC132 
 385      7DC28685 
 385      B8AED6DE 
 385      B3D7
 386 0d4b EE30F8F8 		.ascii	"\3560\370\370c&\037/\342f\342\327\2403\324z\376\331"
 386      63261F2F 
 386      E266E2D7 
 386      A033D47A 
 386      FED9
 387 0d5d F4346BF3 		.ascii	"\3644k\363\205\266\3107{\213\200Lo\231y\201a`\227t\320"
 387      85B6C837 
 387      7B8B804C 
 387      6F997981 
 387      61609774 
 388 0d72 85D2DA7A 		.ascii	"\205\322\332z+\263\276\310\322\304Lo\376w\036}e\226"
 388      2BB3BEC8 
 388      D2C44C6F 
 388      FE771E7D 
 388      6596
 389 0d84 B1D3C1C6 		.ascii	"\261\323\301\306N\2237g\354\244_\311\035\372\224\204"
 389      4E933767 
 389      ECA45FC9 
 389      1DFA9484 
 390 0d94 80C6A269 		.ascii	"\200\306\242i\224Iv\312\340,\257u\362\350\275s\263}"
 390      944976CA 
 390      E02CAF75 
 390      F2E8BD73 
 390      B37D
 391 0da6 F2C8F596 		.ascii	"\362\310\365\226\247\205\225\370\220'K\342\313\326\022"
 391      A78595F8 
 391      90274BE2 
 391      CBD612
 392 0db5 5F23126B 		.ascii	"_#\022k\335\277\322\316\015l%6\006}\203z\361\344\204"
 392      DDBFD2CE 
 392      0D6C2536 
 392      067D837A 
 392      F1E484
 393 0dc8 27322F21 		.ascii	"'2/!\355FQ\006\333\314\0223\263jo\216Yu\236\227\235"
 393      ED465106 
 393      DBCC1233 
 393      B36A6F8E 
 393      59759E97 
ARM GAS  /tmp/ccYyUiVf.s 			page 31


 394 0ddd 55C1017F 		.ascii	"U\301\001\177`L\262\372;\250\231C,\005\334\314\232t"
 394      604CB2FA 
 394      3BA89943 
 394      2C05DCCC 
 394      9A74
 395 0def 7E6E93D2 		.ascii	"~n\223\322\027\215G\331\027\215\366\303\314/\032M\311"
 395      178D47D9 
 395      178DF6C3 
 395      CC2F1A4D 
 395      C9
 396 0e00 900C3239 		.ascii	"\220\01429\364\002\257U\"\351[\263(o\"\251\321\211\226"
 396      F402AF55 
 396      22E95BB3 
 396      286F22A9 
 396      D18996
 397 0e13 E1489B44 		.ascii	"\341H\233D\302\364\022\371\245\256\023\3112\233DRj\022"
 397      C2F412F9 
 397      A5AE13C9 
 397      329B4452 
 397      6A12
 398 0e25 44EF05CD 		.ascii	"D\357\005\315F/\363\"\226aB\340\346\0151&\022\356\357"
 398      462FF322 
 398      966142E0 
 398      E60D3126 
 398      12EEEF
 399 0e38 2B6A1372 		.ascii	"+j\023rEB\016V\004kB\223B\261D\005\374\223\025\372$"
 399      45420E56 
 399      046B4293 
 399      42B14405 
 399      FC9315FA 
 400 0e4d 92A87E20 		.ascii	"\222\250~ \310\375\334\246O<&+\211\212\307\236zr\334"
 400      C8FDDCA6 
 400      4F3C262B 
 400      898AC79E 
 400      7A72DC
 401 0e60 93532B82 		.ascii	"\223S+\202\261H<\024\226\344D\305\343\343\306AGeZ\\"
 401      B1483C14 
 401      96E444C5 
 401      E3E3C641 
 401      47655A5C 
 402 0e74 4A3C50C3 		.ascii	"J<P\303\025\000F@)|\374?\236.\037\307\335\203H\241h"
 402      15004640 
 402      297CFC3F 
 402      9E2E1FC7 
 402      DD8348A1 
 403 0e89 305C5B29 		.ascii	"0\\[)UD\245\272phREbZ\242\"\220P*CQ\005\372\373\340"
 403      5544A5BA 
 403      70685245 
 403      625AA222 
 403      90502A43 
 404 0ea2 F6D37F0A 		.ascii	"\366\323\177\012(?\261\352\032\021\201\203\250T\021"
 404      283FB1EA 
 404      1A118183 
 404      A85411
 405 0eb1 A894AAC4 		.ascii	"\250\224\252\304\332\260\022\320\251\370\003\001:\356"
 405      DAB012D0 
 405      A9F80301 
ARM GAS  /tmp/ccYyUiVf.s 			page 32


 405      3AEE
 406 0ebf 7E1B6675 		.ascii	"~\033fu\244`\015\320\323\207\025)5\262$V\006\024\177"
 406      A4600DD0 
 406      D3871529 
 406      35B22456 
 406      06147F
 407 0ed2 B026A0B5 		.ascii	"\260&\240\265\357\315?>XS\011c\013\343\201\2504U\201"
 407      EFCD3F3E 
 407      58530963 
 407      0BE381A8 
 407      345581
 408 0ee5 5B5C96A6 		.ascii	"[\\\226\246\370\224\270\034\212\005\224\242Z\312Gq "
 408      F894B81C 
 408      8A0594A2 
 408      5ACA4771 
 408      20
 409 0ef6 A037B14B 		.ascii	"\2407\261K(\346\013\306\242\012\214\370\211#u\326\004"
 409      28E60BC6 
 409      A20A8CF8 
 409      892375D6 
 409      04
 410 0f07 63B20464 		.ascii	"c\262\004dJ\310c\"\\P\231\372\240\363\221\201)\217D"
 410      4AC86322 
 410      5C5099FA 
 410      A0F39181 
 410      298F44
 411 0f1a 8880B254 		.ascii	"\210\200\262T-\312\221\200\"\310\243\005\371!A~X\220"
 411      2DCA9180 
 411      22C8A305 
 411      F921417E 
 411      5890
 412 0f2c 1F11E431 		.ascii	"\037\021\3441\202\3743\217\374\340((\017\012a\031n?"
 412      82FC338F 
 412      FCE02828 
 412      0F0A6119 
 412      6E3F
 413 0f3e 2D880780 		.ascii	"-\210\007\200\202\217\010U'\311p\217\205+%\331\033\254"
 413      828F0855 
 413      27C9708F 
 413      852B25D9 
 413      1BAC
 414 0f50 116522A9 		.ascii	"\021e\"\251\030\221\212\224\204\"*R@\361\021\301\306"
 414      18918A94 
 414      84222A52 
 414      40F111C1 
 414      C6
 415 0f61 80D23411 		.ascii	"\200\3224\021\241\005\335\3617\237\022\211UJ\370wUX"
 415      A105DDF1 
 415      379F1289 
 415      554AF877 
 415      5558
 416 0f73 AC4EF814 		.ascii	"\254N\370\024Y\252J\240\006H\243P\256\234\006\356P$"
 416      59AA4AA0 
 416      0648A350 
 416      AE9C06EE 
 416      5024
 417 0f85 4D0D2941 		.ascii	"M\015)A\350XX\247\304&\375:~;\265\002t\221d)\032\004"
ARM GAS  /tmp/ccYyUiVf.s 			page 33


 417      E85858A7 
 417      C426FD3A 
 417      7E3BB502 
 417      74916429 
 418 0f9b 80823A45 		.ascii	"\200\202:E\221"
 418      91
 419 0fa0 E3A56095 		.ascii	"\343\245`\225\204\024\021\3435 \321?\3447\214DD\036"
 419      841411E3 
 419      3520D13F 
 419      E4378C44 
 419      441E
 420 0fb2 AAA12502 		.ascii	"\252\241%\002\317\326J\265\0005,mZ\372\310G\357\005"
 420      CFD64AB5 
 420      00352C6D 
 420      5AFAC847 
 420      EF05
 421 0fc4 C1283850 		.ascii	"\301(8PA\"\000w\340\004F\307\213\240o\244\026\214\224"
 421      41220077 
 421      E00446C7 
 421      8BA06FA4 
 421      168C94
 422 0fd7 9F584499 		.ascii	"\237XD\231J\2745B1#\201X]\024\364\206\243A\340\210\346"
 422      4ABC3542 
 422      31238158 
 422      5D14F486 
 422      A341E088 
 423 0fec 1C750AF4 		.ascii	"\034u\012\364\213\227HS\244\250\022\021\023\223\341"
 423      8B974853 
 423      A4A81211 
 423      1393E1
 424 0ffb 17A98E34 		.ascii	"\027\251\2164<"
 424      3C
 425 1000 F140ED10 		.ascii	"\361@\355\020\235\255p(\001\234\01450J\236\370\343\201"
 425      9DAD7028 
 425      019C0C35 
 425      304A9EF8 
 425      E381
 426 1012 3A31A484 		.ascii	":1\244\204\242\325\305\361\000\250Mc\032\233\360@\212"
 426      A2D5C5F1 
 426      00A84D63 
 426      1A9BF040 
 426      8A
 427 1023 4B510899 		.ascii	"KQ\010\231j\350\005$H\377b\242d1\214\256\006\017\343"
 427      6AE80524 
 427      48FF62A2 
 427      64318CAE 
 427      060FE3
 428 1036 B15818DC 		.ascii	"\261X\030\334\372\311D\365D\350)(q\017\014\324\036<"
 428      FAC944F5 
 428      44E82928 
 428      710F0CD4 
 428      1E3C
 429 1048 03B0A5D8 		.ascii	"\003\260\245\330zJ\012KbB*\013\326L\014\326<\036\233"
 429      7A4A0A4B 
 429      62422A0B 
 429      D64C0CD6 
 429      3C1E9B
ARM GAS  /tmp/ccYyUiVf.s 			page 34


 430 105b 1896A4F8 		.ascii	"\030\226\244\370\304\022\374\353)`d\332\370Rl?#N\226"
 430      C412FCEB 
 430      296064DA 
 430      F8526C3F 
 430      234E96
 431 106e 6AF18700 		.ascii	"j\361\207\000\211\036)\242E\214\326.%,O\243B\000R \363"
 431      891E29A2 
 431      458CD62E 
 431      252C4FA3 
 431      42005220 
 432 1083 B74FD6D4 		.ascii	"\267O\326\324S(c\004\024\310\350c2\3651Y\3631?<\255"
 432      53286304 
 432      14C8E863 
 432      32F53159 
 432      F3313F3C 
 433 1098 95C1F04A 		.ascii	"\225\301\360J\201L\006\015\237\022\222\225Z1\034PB\021"
 433      814C060D 
 433      9F129295 
 433      5A311C50 
 433      4211
 434 10aa C8271478 		.ascii	"\310'\024x\004\000[\3740\324\364L\263\266\351\221o\212"
 434      04005BFC 
 434      30D4F44C 
 434      B3B6E991 
 434      6F8A
 435 10bc 82A62077 		.ascii	"\202\246 w\022\250~\3024\374\000\241\012O*\245\260\""
 435      12A87EC2 
 435      34FC00A1 
 435      0A4F2AA5 
 435      B022
 436 10ce 42A3AA36 		.ascii	"B\243\2526\032\014`\037\322*$}E\271\004na1\241\220\356"
 436      1A0C601F 
 436      D22A247D 
 436      45B9046E 
 436      6131A190 
 437 10e3 F088901B 		.ascii	"\360\210\220\033B\305\257\224&\325Vk&3>\361\307\305"
 437      42C5AF94 
 437      26D5566B 
 437      26333EF1 
 437      C7C5
 438 10f5 6828482C 		.ascii	"h(H,\344\251\234T]\034\021!<\320\242?\316\353O\012\361"
 438      E4A99C54 
 438      5D1C1121 
 438      3CD0A23F 
 438      CEEB4F0A 
 439 110a DD614A24 		.ascii	"\335aJ$\020\024!\323\311\242\022\212E\201#YA/-\214U"
 439      101421D3 
 439      C9A2128A 
 439      45812359 
 439      412F2D8C 
 440 111f 55252445 		.ascii	"U%$EP\"\305\011e2\364\250\216\322\\\363\360\350t\256"
 440      5022C509 
 440      6532F4A8 
 440      8ED25CF3 
 440      F0E874AE 
 441 1133 21CD21A1 		.ascii	"!\315!\241\312\260D\335\010\334G\010\3268\210\233i\230"
 441      CAB044DD 
ARM GAS  /tmp/ccYyUiVf.s 			page 35


 441      08DC4708 
 441      D638889B 
 441      6998
 442 1145 42C1D2D3 		.ascii	"B\301\322\323\022\377\036\013N\366c\312\011Ck\264\325"
 442      12FF1E0B 
 442      4EF663CA 
 442      09436BB4 
 442      D5
 443 1156 585066C5 		.ascii	"XPf\305\270''\216\237\230\201 \011'\030\3717P\035\000"
 443      B827278E 
 443      9F988120 
 443      092718F9 
 443      37501D00 
 444 116a 95052068 		.ascii	"\225\005 h\225\300/\037\233\370\257\023\236\032_&\206"
 444      95C02F1F 
 444      9BF8AF13 
 444      9E1A5F26 
 444      86
 445 117b EBC46909 		.ascii	"\353\304i\011\310`a\310\334\005S\304p\255T\252\205f"
 445      C86061C8 
 445      DC0553C4 
 445      70AD54AA 
 445      8566
 446 118d 289A9064 		.ascii	"(\232\220d\305\243<\033/A\332OG\011M-\341\325b\273("
 446      C5A33C1B 
 446      2F41DA4F 
 446      47094D2D 
 446      E1D562BB 
 447 11a2 80F60804 		.ascii	"\200\366\010\004\312\364\306\003\017\217\376\331C\016"
 447      CAF4C603 
 447      0F8FFED9 
 447      430E
 448 11b0 A213262E 		.ascii	"\242\023&.\230{\002\277\204 \030\212\236>>1A\013\230"
 448      987B02BF 
 448      8420188A 
 448      9E3E3E31 
 448      410B98
 449 11c3 F1B769D4 		.ascii	"\361\267i\324\253BU1p\325Hl\012q\377L,L4\320zh\324\350"
 449      AB425531 
 449      70D5486C 
 449      0A71FF4C 
 449      2C4C34D0 
 450 11db FF07D788 		.ascii	"\377\007\327\210\357P"
 450      EF50
 451              		.text
 452              		.section	.gnu.lto_.symtab.4ba432de7a33ecbb,"",%progbits
 453 0000 63684D73 		.ascii	"chMsgSend\000\000\000\000\000\000\000\000\000\000\000"
 453      6753656E 
 453      64000000 
 453      00000000 
 453      00000000 
 454 0014 00A10000 		.ascii	"\000\241\000\000\000chMsgWait\000\000\000\000\000\000"
 454      0063684D 
 454      73675761 
 454      69740000 
 454      00000000 
 455 0028 00000000 		.ascii	"\000\000\000\000\000\000Z\001\000\000chMsgRelease\000"
ARM GAS  /tmp/ccYyUiVf.s 			page 36


 455      00005A01 
 455      00006368 
 455      4D736752 
 455      656C6561 
 456 003f 00000000 		.ascii	"\000\000\000\000\000\000\000\000\000\000\000^\001\000"
 456      00000000 
 456      0000005E 
 456      0100
 457 004d 00636800 		.ascii	"\000ch\000\000\002\000\000\000\000\000\000\000\000\000"
 457      00020000 
 457      00000000 
 457      000000
 458 005c 70010000 		.ascii	"p\001\000\000chSchGoSleepS\000\000\002\000\000\000\000"
 458      63685363 
 458      68476F53 
 458      6C656570 
 458      53000002 
 459 0074 00000000 		.ascii	"\000\000\000\000\000f\001\000\000chSchReadyI\000\000"
 459      00660100 
 459      00636853 
 459      63685265 
 459      61647949 
 460 008a 02000000 		.ascii	"\002\000\000\000\000\000\000\000\000\000j\001\000\000"
 460      00000000 
 460      00006A01 
 460      0000
 461 0098 63685363 		.ascii	"chSchWakeupS\000\000\002\000\000\000\000\000\000\000"
 461      6857616B 
 461      65757053 
 461      00000200 
 461      00000000 
 462 00ae 00006E01 		.ascii	"\000\000n\001\000\000"
 462      0000
 463              		.text
 464              		.section	.gnu.lto_.opts,"",%progbits
 465 0000 272D6D63 		.ascii	"'-mcpu=cortex-m4' '-mno-thumb-interwork' '-mthumb' "
 465      70753D63 
 465      6F727465 
 465      782D6D34 
 465      2720272D 
 466 0033 272D6767 		.ascii	"'-ggdb' '-O2' '-fomit-frame-pointer' '-falign-funct"
 466      64622720 
 466      272D4F32 
 466      2720272D 
 466      666F6D69 
 467 0066 696F6E73 		.ascii	"ions=16' '-ffunction-sections' '-fdata-sections' '-"
 467      3D313627 
 467      20272D66 
 467      66756E63 
 467      74696F6E 
 468 0099 666E6F2D 		.ascii	"fno-common' '-flto'\000"
 468      636F6D6D 
 468      6F6E2720 
 468      272D666C 
 468      746F2700 
 469              		.text
 470              		.cfi_sections	.debug_frame
ARM GAS  /tmp/ccYyUiVf.s 			page 37


 471              		.section	.text.chMsgSend,"ax",%progbits
 472              		.align	2
 473              		.p2align 4,,15
 474              		.global	chMsgSend
 475              		.thumb
 476              		.thumb_func
 477              		.type	chMsgSend, %function
 478              	chMsgSend:
 479              	.LFB229:
 480              		.file 1 "/usr/src/chibios/os/rt/src/chmsg.c"
 481              		.loc 1 87 0
 482              		.cfi_startproc
 483              		@ args = 0, pretend = 0, frame = 0
 484              		@ frame_needed = 0, uses_anonymous_args = 0
 485              	.LVL0:
 486              		.loc 1 88 0
 487 0000 0E4B     		ldr	r3, .L5
 488              		.loc 1 87 0
 489 0002 70B5     		push	{r4, r5, r6, lr}
 490              		.cfi_def_cfa_offset 16
 491              		.cfi_offset 4, -16
 492              		.cfi_offset 5, -12
 493              		.cfi_offset 6, -8
 494              		.cfi_offset 14, -4
 495              	.LBB52:
 496              	.LBB53:
 497              	.LBB54:
 498              	.LBB55:
 499              		.file 2 "/usr/src/chibios/os/ext/CMSIS/include/core_cmFunc.h"
 500              		.loc 2 546 0
 501 0004 2022     		movs	r2, #32
 502              	.LBE55:
 503              	.LBE54:
 504              	.LBE53:
 505              	.LBE52:
 506              		.loc 1 88 0
 507 0006 9C69     		ldr	r4, [r3, #24]
 508              	.LVL1:
 509              	.LBB59:
 510              	.LBB58:
 511              	.LBB57:
 512              	.LBB56:
 513              		.loc 2 546 0
 514              	@ 546 "/usr/src/chibios/os/ext/CMSIS/include/core_cmFunc.h" 1
 515 0008 82F31188 		MSR basepri, r2
 516              	@ 0 "" 2
 517              		.thumb
 518              	.LBE56:
 519              	.LBE57:
 520              	.LBE58:
 521              	.LBE59:
 522              		.loc 1 94 0
 523 000c 00F12805 		add	r5, r0, #40
 524              		.loc 1 96 0
 525 0010 067F     		ldrb	r6, [r0, #28]	@ zero_extendqisi2
 526              		.loc 1 94 0
 527 0012 2562     		str	r5, [r4, #32]
ARM GAS  /tmp/ccYyUiVf.s 			page 38


 528              	.LVL2:
 529              	.LBB60:
 530              	.LBB61:
 531              		.file 3 "/usr/src/chibios/os/rt/include/chschd.h"
 532              		.loc 3 666 0
 533 0014 C26A     		ldr	r2, [r0, #44]
 534 0016 6260     		str	r2, [r4, #4]
 535              	.LBE61:
 536              	.LBE60:
 537              		.loc 1 96 0
 538 0018 0E2E     		cmp	r6, #14
 539              		.loc 1 93 0
 540 001a 2163     		str	r1, [r4, #48]
 541              	.LBB63:
 542              	.LBB62:
 543              		.loc 3 665 0
 544 001c 2560     		str	r5, [r4]
 545              		.loc 3 667 0
 546 001e 1460     		str	r4, [r2]
 547              		.loc 3 668 0
 548 0020 C462     		str	r4, [r0, #44]
 549              	.LBE62:
 550              	.LBE63:
 551              		.loc 1 96 0
 552 0022 07D0     		beq	.L4
 553              	.LVL3:
 554              	.L2:
 555              		.loc 1 99 0
 556 0024 0C20     		movs	r0, #12
 557 0026 FFF7FEFF 		bl	chSchGoSleepS
 558              	.LVL4:
 559              		.loc 1 100 0
 560 002a 206A     		ldr	r0, [r4, #32]
 561              	.LVL5:
 562              	.LBB64:
 563              	.LBB65:
 564              	.LBB66:
 565              	.LBB67:
 566              	.LBB68:
 567              		.loc 2 546 0
 568 002c 0023     		movs	r3, #0
 569              	@ 546 "/usr/src/chibios/os/ext/CMSIS/include/core_cmFunc.h" 1
 570 002e 83F31188 		MSR basepri, r3
 571              	@ 0 "" 2
 572              		.thumb
 573              	.LBE68:
 574              	.LBE67:
 575              	.LBE66:
 576              	.LBE65:
 577              	.LBE64:
 578              		.loc 1 104 0
 579 0032 70BD     		pop	{r4, r5, r6, pc}
 580              	.LVL6:
 581              	.L4:
 582              		.loc 1 97 0
 583 0034 FFF7FEFF 		bl	chSchReadyI
 584              	.LVL7:
ARM GAS  /tmp/ccYyUiVf.s 			page 39


 585 0038 F4E7     		b	.L2
 586              	.L6:
 587 003a 00BF     		.align	2
 588              	.L5:
 589 003c 00000000 		.word	ch
 590              		.cfi_endproc
 591              	.LFE229:
 592              		.size	chMsgSend, .-chMsgSend
 593              		.section	.text.chMsgWait,"ax",%progbits
 594              		.align	2
 595              		.p2align 4,,15
 596              		.global	chMsgWait
 597              		.thumb
 598              		.thumb_func
 599              		.type	chMsgWait, %function
 600              	chMsgWait:
 601              	.LFB230:
 602              		.loc 1 120 0
 603              		.cfi_startproc
 604              		@ args = 0, pretend = 0, frame = 0
 605              		@ frame_needed = 0, uses_anonymous_args = 0
 606              	.LVL8:
 607 0000 10B5     		push	{r4, lr}
 608              		.cfi_def_cfa_offset 8
 609              		.cfi_offset 4, -8
 610              		.cfi_offset 14, -4
 611              	.LBB69:
 612              	.LBB70:
 613              	.LBB71:
 614              	.LBB72:
 615              		.loc 2 546 0
 616 0002 2023     		movs	r3, #32
 617              	@ 546 "/usr/src/chibios/os/ext/CMSIS/include/core_cmFunc.h" 1
 618 0004 83F31188 		MSR basepri, r3
 619              	@ 0 "" 2
 620              		.thumb
 621              	.LBE72:
 622              	.LBE71:
 623              	.LBE70:
 624              	.LBE69:
 625              		.loc 1 124 0
 626 0008 0B4C     		ldr	r4, .L10
 627 000a A269     		ldr	r2, [r4, #24]
 628              	.LVL9:
 629              	.LBB73:
 630              	.LBB74:
 631              		.file 4 "/usr/src/chibios/os/rt/include/chmsg.h"
 632              		.loc 4 83 0
 633 000c 1346     		mov	r3, r2
 634 000e 53F8280F 		ldr	r0, [r3, #40]!
 635              	.LBE74:
 636              	.LBE73:
 637              		.loc 1 124 0
 638 0012 9842     		cmp	r0, r3
 639 0014 08D0     		beq	.L9
 640              	.LVL10:
 641              	.L8:
ARM GAS  /tmp/ccYyUiVf.s 			page 40


 642              	.LBB75:
 643              	.LBB76:
 644              		.loc 3 674 0
 645 0016 0168     		ldr	r1, [r0]
 646 0018 9162     		str	r1, [r2, #40]
 647              	.LBE76:
 648              	.LBE75:
 649              		.loc 1 128 0
 650 001a 0D22     		movs	r2, #13
 651              	.LBB78:
 652              	.LBB77:
 653              		.loc 3 675 0
 654 001c 4B60     		str	r3, [r1, #4]
 655              	.LBE77:
 656              	.LBE78:
 657              	.LBB79:
 658              	.LBB80:
 659              	.LBB81:
 660              	.LBB82:
 661              	.LBB83:
 662              		.loc 2 546 0
 663 001e 0023     		movs	r3, #0
 664              	.LVL11:
 665              	.LBE83:
 666              	.LBE82:
 667              	.LBE81:
 668              	.LBE80:
 669              	.LBE79:
 670              		.loc 1 128 0
 671 0020 0277     		strb	r2, [r0, #28]
 672              	.LVL12:
 673              	.LBB88:
 674              	.LBB87:
 675              	.LBB86:
 676              	.LBB85:
 677              	.LBB84:
 678              		.loc 2 546 0
 679              	@ 546 "/usr/src/chibios/os/ext/CMSIS/include/core_cmFunc.h" 1
 680 0022 83F31188 		MSR basepri, r3
 681              	@ 0 "" 2
 682              		.thumb
 683              	.LBE84:
 684              	.LBE85:
 685              	.LBE86:
 686              	.LBE87:
 687              	.LBE88:
 688              		.loc 1 132 0
 689 0026 10BD     		pop	{r4, pc}
 690              	.LVL13:
 691              	.L9:
 692              		.loc 1 125 0
 693 0028 0E20     		movs	r0, #14
 694 002a FFF7FEFF 		bl	chSchGoSleepS
 695              	.LVL14:
 696 002e A269     		ldr	r2, [r4, #24]
 697 0030 906A     		ldr	r0, [r2, #40]
 698 0032 02F12803 		add	r3, r2, #40
ARM GAS  /tmp/ccYyUiVf.s 			page 41


 699 0036 EEE7     		b	.L8
 700              	.L11:
 701              		.align	2
 702              	.L10:
 703 0038 00000000 		.word	ch
 704              		.cfi_endproc
 705              	.LFE230:
 706              		.size	chMsgWait, .-chMsgWait
 707              		.section	.text.chMsgRelease,"ax",%progbits
 708              		.align	2
 709              		.p2align 4,,15
 710              		.global	chMsgRelease
 711              		.thumb
 712              		.thumb_func
 713              		.type	chMsgRelease, %function
 714              	chMsgRelease:
 715              	.LFB231:
 716              		.loc 1 144 0
 717              		.cfi_startproc
 718              		@ args = 0, pretend = 0, frame = 0
 719              		@ frame_needed = 0, uses_anonymous_args = 0
 720              	.LVL15:
 721 0000 08B5     		push	{r3, lr}
 722              		.cfi_def_cfa_offset 8
 723              		.cfi_offset 3, -8
 724              		.cfi_offset 14, -4
 725              	.LBB89:
 726              	.LBB90:
 727              	.LBB91:
 728              	.LBB92:
 729              		.loc 2 546 0
 730 0002 2023     		movs	r3, #32
 731              	@ 546 "/usr/src/chibios/os/ext/CMSIS/include/core_cmFunc.h" 1
 732 0004 83F31188 		MSR basepri, r3
 733              	@ 0 "" 2
 734              	.LVL16:
 735              		.thumb
 736              	.LBE92:
 737              	.LBE91:
 738              	.LBE90:
 739              	.LBE89:
 740              	.LBB93:
 741              	.LBB94:
 742              		.loc 4 115 0
 743 0008 FFF7FEFF 		bl	chSchWakeupS
 744              	.LVL17:
 745              	.LBE94:
 746              	.LBE93:
 747              	.LBB95:
 748              	.LBB96:
 749              	.LBB97:
 750              	.LBB98:
 751              	.LBB99:
 752              		.loc 2 546 0
 753 000c 0023     		movs	r3, #0
 754              	@ 546 "/usr/src/chibios/os/ext/CMSIS/include/core_cmFunc.h" 1
 755 000e 83F31188 		MSR basepri, r3
ARM GAS  /tmp/ccYyUiVf.s 			page 42


 756              	@ 0 "" 2
 757              		.thumb
 758 0012 08BD     		pop	{r3, pc}
 759              	.LBE99:
 760              	.LBE98:
 761              	.LBE97:
 762              	.LBE96:
 763              	.LBE95:
 764              		.cfi_endproc
 765              	.LFE231:
 766              		.size	chMsgRelease, .-chMsgRelease
 767              		.text
 768              	.Letext0:
 769              		.file 5 "/usr/include/newlib/machine/_default_types.h"
 770              		.file 6 "/usr/include/newlib/sys/_stdint.h"
 771              		.file 7 "/usr/src/chibios/os/rt/ports/ARMCMx/compilers/GCC/chtypes.h"
 772              		.file 8 "/usr/src/chibios/os/rt/include/chsystypes.h"
 773              		.file 9 "/usr/src/chibios/os/rt/ports/ARMCMx/chcore.h"
 774              		.file 10 "/usr/src/chibios/os/rt/ports/ARMCMx/chcore_v7m.h"
 775              		.file 11 "/usr/src/chibios/os/rt/include/chtm.h"
 776              		.file 12 "/usr/src/chibios/os/rt/include/chsem.h"
 777              		.file 13 "/usr/src/chibios/os/rt/include/chmtx.h"
 778              		.file 14 "/usr/src/chibios/os/rt/include/chsys.h"
 779              		.file 15 "/usr/src/chibios/os/ext/CMSIS/include/core_cm4.h"