ARM GAS  /tmp/ccU5HzYq.s 			page 1


   1              		.syntax unified
   2              		.cpu cortex-m4
   3              		.fpu softvfp
   4              		.eabi_attribute 20, 1
   5              		.eabi_attribute 21, 1
   6              		.eabi_attribute 23, 3
   7              		.eabi_attribute 24, 1
   8              		.eabi_attribute 25, 1
   9              		.eabi_attribute 26, 1
  10              		.eabi_attribute 30, 2
  11              		.eabi_attribute 34, 1
  12              		.eabi_attribute 18, 4
  13              		.thumb
  14              		.file	"chtm.c"
  15              		.text
  16              	.Ltext0:
  17              		.section	.gnu.lto_.jmpfuncs.f075de62a02b0b55,"",%progbits
  18 0000 789C6362 		.ascii	"x\234cb`b\300\006\034\2404+\003###\023#\013\003#\003"
  18      6062C006 
  18      1CA0342B 
  18      03232323 
  18      13230B03 
  19 0016 10B13232 		.ascii	"\020\26122D0f22\374\007\002~\006\0050\033\250\026J'"
  19      44306632 
  19      32FC0702 
  19      7E060530 
  19      1BA8164A 
  20 002b 40E90646 		.ascii	"@\351\006F\020\003\310bef\000\000:\272\011\200"
  20      1003C862 
  20      65660000 
  20      3ABA0980 
  21              		.text
  22              		.section	.gnu.lto_.inline.f075de62a02b0b55,"",%progbits
  23 0000 789C6D90 		.ascii	"x\234m\220\261\015\3020\020E\377]\234\304\220\010\""
  23      B10DC230 
  23      1045FF5D 
  23      9CC49008 
  23      22
  24 0011 2442A830 		.ascii	"$B\2500\025\0353\244\240\246b\000FAT\010QPQ\323\260"
  24      151D33A4 
  24      A0A66200 
  24      46415408 
  24      515051D3 
  25 0026 03628A88 		.ascii	"\003b\212\210\021\250(\031\001\373\247!\022.\376\331"
  25      11A82819 
  25      01FBA721 
  25      122EFED9 
  26 0036 DF777E5F 		.ascii	"\337w~_V(\376\255L\332\032\003=+\320\344\263D~^\263"
  26      5628FEAD 
  26      4CDA1A03 
  26      3D2BD0E4 
  26      B3447E5E 
  27 004b 59101B40 		.ascii	"Y\020\033@\243\373\004\351aAK1-}\257\037\212\266\324"
  27      A3FB04E9 
  27      61414B31 
  27      2D7DAF1F 
  27      8AB6D4
ARM GAS  /tmp/ccU5HzYq.s 			page 2


  28 005e 9ABA1316 		.ascii	"\232\272\023\026GE^=o\202\374\261R\310;5\012\377\202"
  28      47455E3D 
  28      6F82FCB1 
  28      52C83B35 
  28      0AFF82
  29 0071 095B4BC3 		.ascii	"\011[K\303B\233a\241\324pvt\375\354\313\324J\015$S\025"
  29      429B61A1 
  29      D4707674 
  29      FDECCBD4 
  29      4A0D2453 
  30 0086 739F67D4 		.ascii	"s\237g\324\234\004\311u\326\322\263\020\252\325\030"
  30      9C04C975 
  30      D6D2B310 
  30      AAD518
  31 0095 D518E627 		.ascii	"\325\030\346'I7C\277\334_\004\203\343\246\223\301#-"
  31      493743BF 
  31      DC5F0483 
  31      E3A693C1 
  31      232D
  32 00a7 C136B805 		.ascii	"\3016\270\005\357\212\200t\004;~\305\027\270:\037\331"
  32      EF8A8074 
  32      043B7EC5 
  32      17B83A1F 
  32      D9
  33              		.text
  34              		.section	.gnu.lto_.pureconst.f075de62a02b0b55,"",%progbits
  35 0000 789C6362 		.ascii	"x\234cb`b\340f\200\000V\006)F)&)\026\011V)\000\004)"
  35      6062E066 
  35      80005606 
  35      29462926 
  35      29160956 
  36 0018 00A1     		.ascii	"\000\241"
  37              		.text
  38              		.section	.gnu.lto_chTMObjectInit.f075de62a02b0b55,"",%progbits
  39 0000 789C6362 		.ascii	"x\234cb`b@\007\222@<\225\221\201A\005H32302M8\307\300"
  39      60624007 
  39      92403C95 
  39      91814105 
  39      48333233 
  40 001a D0C8C1C4 		.ascii	"\320\310\301\304\310\010b002\32431\326G2\202\325\256"
  40      C8086230 
  40      3032D433 
  40      31D64732 
  40      82D5AE
  41 002d 673AF0E0 		.ascii	"g:\360\340\377\377u\323\332\327\257a\234\313\004T\223"
  41      FFFF75D3 
  41      DAD7AF61 
  41      9CCB0454 
  41      93
  42 003e 0B166765 		.ascii	"\013\026gehih\230\240\300\300\220\014\346\206\000I\220"
  42      68696898 
  42      A0C0C090 
  42      0CE68600 
  42      4990
  43 0050 DE504626 		.ascii	"\336PF&\020\315|\226\241i\307\216\3177\230\022\031\027"
  43      10CD7C96 
  43      A169C78E 
ARM GAS  /tmp/ccU5HzYq.s 			page 3


  43      CF379812 
  43      1917
  44 0062 32B23268 		.ascii	"2\2622h3\254j\000\002\336LF\206\331\014\263\0303\031"
  44      33AC6A00 
  44      02DE4C46 
  44      86D90CB3 
  44      183319
  45 0075 19D31999 		.ascii	"\031\323\031\231\"\2004\304iI\020\233\030@\"\314\377"
  45      228034C4 
  45      6949109B 
  45      184022CC 
  45      FF
  46 0086 81801FC8 		.ascii	"\201\200\037\310\001\231p\203x\023\030\021&0@u\377 "
  46      01997083 
  46      78131811 
  46      26304075 
  46      FF20
  47 0098 5E3713A6 		.ascii	"^7\023\246\356\031\3370u\263`\327\315\214\251{\007\026"
  47      EE19DF30 
  47      75B360D7 
  47      CD8CA97B 
  47      0716
  48 00aa DDACD875 		.ascii	"\335\254\330u\263\300u\263\201\030\027\031\032\037\334"
  48      B3C075B3 
  48      81181719 
  48      1A1FDC
  49 00b9 5286E885 		.ascii	"R\206\350\205\201\020\240\367\200\241\012\322\241\244"
  49      8110A0F7 
  49      80A10AD2 
  49      A1A4
  50 00c7 5F5A5CA4 		.ascii	"_Z\\\244_\\\224\254\237\234\221\231\224\231_\254\017"
  50      5F5C94AC 
  50      9F9C9199 
  50      94995FAC 
  50      0F
  51 00d8 44452550 		.ascii	"DE%P\221\222\\\275d\006\000\013\213j\355"
  51      91925CBD 
  51      6406000B 
  51      8B6AED
  52              		.text
  53              		.section	.gnu.lto_chTMStartMeasurementX.f075de62a02b0b55,"",%progbits
  54 0000 789C6362 		.ascii	"x\234cb`b@\007\222@\314\312\310\300\020\006\244\031"
  54      60624007 
  54      9240CCCA 
  54      C8C01006 
  54      A419
  55 0012 99191899 		.ascii	"\231\031\030\231&\234c`h\344`bd\0041\030\030\031\352"
  55      269C6360 
  55      68E46062 
  55      64043118 
  55      1819EA
  56 0025 9918EB23 		.ascii	"\231\030\353#\031\301j\3273\035x\360\377\377\272\033"
  56      19C16AD7 
  56      331D78F0 
  56      FFFFBA1B 
  57 0035 EDFBFF30 		.ascii	"\355\373\3770\316cbcf\314ed`e\310\004K\2622\26444LP"
  57      CE636263 
ARM GAS  /tmp/ccU5HzYq.s 			page 4


  57      66CC6564 
  57      6065C804 
  57      4BB232B4 
  58 004d 60604806 		.ascii	"``H\006sC\200$\310\200PF&\020\315|\226\341\320\255="
  58      73438024 
  58      C8805046 
  58      2610CD7C 
  58      96E1D0AD 
  59 0062 939FCD60 		.ascii	"\223\237\315`\203\253\2030\016t\177\377\310\314\300"
  59      83AB8330 
  59      0E747FFF 
  59      C8CCC0
  60 0071 90C8B890 		.ascii	"\220\310\270\220\221\025\250\025\2547\235\221U\233a"
  60      9115A815 
  60      AC379D91 
  60      559B61
  61 0080 55434BE3 		.ascii	"UCK\343\203\331\033\217]dd\314dd\234\3150\253qB\203"
  61      83D91B8F 
  61      5D6464CC 
  61      64649CCD 
  61      30AB7142 
  62 0095 40262353 		.ascii	"@&#S\004\220\313\334\260\240\241\201\217\001\314\004"
  62      0490CBDC 
  62      B0A0A181 
  62      8F01CC04 
  63 00a5 3B2C09A4 		.ascii	";,\011\244/\221q1\320\014 8\313\320t\362\314\016~\210"
  63      2F917131 
  63      D00C2038 
  63      CBD074F2 
  63      CC0E7E88 
  64 00b9 99209380 		.ascii	"\231 \223\200\200\027\350J\240!@\035,\351\214\314 \235"
  64      8017E84A 
  64      A021401D 
  64      2CE98CCC 
  64      209D
  65 00cb AC509D10 		.ascii	"\254P\235\020\257\245\203\370\027\031\032\037\274W\206"
  65      AFA583F8 
  65      17191A1F 
  65      BC5786
  66 00da E8838110 		.ascii	"\350\203\201\020\240\002\240\007@\001\247\244_Z\\\244"
  66      A002A007 
  66      4001A7A4 
  66      5F5A5CA4 
  67 00ea 5F5C94AC 		.ascii	"_\\\224\254\237\234\221\231\224\231_\254\017DE%P\221"
  67      9F9C9199 
  67      94995FAC 
  67      0F444525 
  67      5091
  68 00fc 925CBD64 		.ascii	"\222\\\275d\006C\034J\012\362\213J\212\365\035\203|"
  68      06431C4A 
  68      0AF28B4A 
  68      8AF51D83 
  68      7C
  69 010d 9D7D2B80 		.ascii	"\235}+\200R\311\371E\251\361e\346\271z\031\014\000\005"
  69      52C9F945 
  69      A9F165E6 
  69      B97A190C 
ARM GAS  /tmp/ccU5HzYq.s 			page 5


  69      0005
  70 011f E561DE   		.ascii	"\345a\336"
  71              		.text
  72              		.section	.gnu.lto_chTMStopMeasurementX.f075de62a02b0b55,"",%progbits
  73 0000 789C8D94 		.ascii	"x\234\215\224MHTQ\024\307\317y_\363\341\3148\213B\214"
  73      4D485451 
  73      14C7CF79 
  73      5FF3E1CC 
  73      388B428C 
  74 0014 1211DA24 		.ascii	"\022\021\332$8\270r\035\255\"\334\204R\321Bt\320q\026"
  74      38B8721D 
  74      AD22DC84 
  74      52D14274 
  74      D07116
  75 0027 D3C8CCF4 		.ascii	"\323\310\314\364\001-\2743\343B)h\320\026\222\220Z\020"
  75      012DBC33 
  75      E3422968 
  75      D0169290 
  75      5A10
  76 0039 21E2472B 		.ascii	"!\342G+\011\213!2\3222\020\\\210\204\014B.\335\264\221"
  76      098B2132 
  76      D232105C 
  76      88840C42 
  76      2EDDB491 
  77 004d 164DE7DC 		.ascii	"\026M\347\334\373\3368c\331\314e\346\334{\317\275\347"
  77      FBDE3863 
  77      D9CC65E6 
  77      DC7BCFBD 
  77      E7
  78 005e 77CFFD9F 		.ascii	"w\317\375\237\367\236\006\032\234l\327\350?o\002\364"
  78      F79E061A 
  78      9C6CD7E8 
  78      3F6F02F4 
  79 006e 538F2E40 		.ascii	"S\217.@-\367\015 \355\3264}\265\011\204\327\330\016"
  79      2DF70D20 
  79      EDD6347D 
  79      B50984D7 
  79      D80E
  80 0080 81F0E968 		.ascii	"\201\360\351h)\267\241\231\354\360Z\274\3503\035\267"
  80      29B7A199 
  80      ECF05ABC 
  80      E8331DB7 
  81 0090 85C80340 		.ascii	"\205\310\003@\030\326t\303\264p\370\026J\372\242\226"
  81      18D674C3 
  81      B470F816 
  81      4AFAA296 
  82 00a0 2F148B0B 		.ascii	"/\024\213\013\343\033\357\277\342k\255A\207(\202\201"
  82      E31BEFBF 
  82      E26BAD41 
  82      87288281 
  83 00b0 31048B46 		.ascii	"1\004\213Ft\034M\335l<l\274l\352\330\370\310h~6\001"
  83      741C4DDD 
  83      6C3C6CBC 
  83      6CEAD8F8 
  83      C8687E36 
  84 00c5 36F5EC0B 		.ascii	"6\365\354\013\262\241f\302\210\020\271f\200\260\234"
  84      B2A166C2 
ARM GAS  /tmp/ccU5HzYq.s 			page 6


  84      8810B966 
  84      80B09C
  85 00d4 7691E5B3 		.ascii	"v\221\345\263\273Q\343^\337\204\017\273\253\023\007"
  85      BB51E35E 
  85      DF840FBB 
  85      AB1307
  86 00e3 9356699F 		.ascii	"\223Vi\237\032\344\277\254\275\320\001zq\026M\012\225"
  86      1AE4BFAC 
  86      BDD0017A 
  86      71164D0A 
  86      95
  87 00f4 B111B45A 		.ascii	"\261\021\264ZaN\214\244\013S\313\237\266\020\243\250"
  87      614E8CA4 
  87      0B53CB9F 
  87      B610A3A8 
  88 0104 4FC1B374 		.ascii	"O\301\263tN\004\243h\334\244\251)f\204\010\200\034\312"
  88      4E04A368 
  88      DCA4A929 
  88      66840880 
  88      1CCA
  89 0116 FBF4715C 		.ascii	"\373\364q\\/\276T\323M\310\354~\237\177zNA#\250\267"
  89      2FBE54D3 
  89      4DC8EC7E 
  89      9F7F7A4E 
  89      4123A8B7 
  90 012a C225BA16 		.ascii	"\302%\272\0263\251\275\243(\213y\202y\256\207\360K\214"
  90      33A9BDA3 
  90      288B7982 
  90      79AE87F0 
  90      4B8C
  91 013c F2C81D93 		.ascii	"\362\310\035\223\2473\324mC\321\356\235\362\254C&oS"
  91      A733D46D 
  91      43D1EE9D 
  91      F2AC4326 
  91      6F53
  92 014e 5B605688 		.ascii	"[`V\210\361\374\304\306\223F1\223\311\211\337\305\""
  92      F1FCC4C6 
  92      93463193 
  92      C989DFC5 
  92      22
  93 015f 057A34B8 		.ascii	"\005z4\270\201\254\000S\274\315\262\2533*+\033AC\222"
  93      81AC0053 
  93      BCCDB2AB 
  93      332A2B1B 
  93      414392
  94 0172 0A8FD6AC 		.ascii	"\012\217\326\254\377\261\350\324\333\325YV\255\254\236"
  94      FFB1E8D4 
  94      DBD55956 
  94      ADAC9E
  95 0181 EA2C5D49 		.ascii	"\352,]I\267\362\\?Q$\261\310b.`\013i</\355\034\331\343"
  95      B7F25C3F 
  95      5124B1C8 
  95      622E600B 
  95      693C2FED 
  96 0198 AA692ADE 		.ascii	"\252i*\336\245\024\316\377l\214\242\257\244\260?\242"
  96      A514CEFF 
  96      6C8CA2AF 
ARM GAS  /tmp/ccU5HzYq.s 			page 7


  96      A4B03FA2 
  97 01a8 8AE6B1C5 		.ascii	"\212\346\261\305\224\325^v*\225\035\315\016\364\342"
  97      94D55E76 
  97      2A951DCD 
  97      0EF4E2
  98 01b7 92AC939B 		.ascii	"\222\254\223\233\020\274\323\207\252\210W\325\202]7"
  98      10BCD387 
  98      AA8857D5 
  98      825D37
  99 01c6 7F6DD008 		.ascii	"\177m\320\010W\217\257\261\263w\336\001{\324\003pj\264"
  99      578FAFB1 
  99      B377DE01 
  99      7BD40370 
  99      6AB4
 100 01d8 5199D258 		.ascii	"Q\231\322X\366\015:\241^\2228\302\033\245\377\225\346"
 100      F60D3AA1 
 100      5E9238C2 
 100      1BA5FF95 
 100      E6
 101 01e9 F8EBE492 		.ascii	"\370\353\344\222Rl}\311u2\323Z\316\"\210\312\364h\357"
 101      526C7DC9 
 101      7532D35A 
 101      CE2288CA 
 101      F468EF
 102 01fc AC83F529 		.ascii	"\254\203\365)\004\305\005N%\230\025\331f\016\263oK\331"
 102      04C5054E 
 102      259815D9 
 102      660EB36F 
 102      4BD9
 103 020e FA6D26A9 		.ascii	"\372m&\251\272Pr\006\010KK\177KZ\343)D\260\037\214\351"
 103      BA507206 
 103      084B4B7F 
 103      4B5AE329 
 103      44B01F8C 
 104 0223 0687595F 		.ascii	"\006\207Y_EQ\253,\307\317\360\361 \355/\023\256\376"
 104      4551AB2C 
 104      C7CFF0F1 
 104      20ED2F13 
 104      AEFE
 105 0235 F8A1EB26 		.ascii	"\370\241\353&\011W\233t\026qg\372L\205\212\355\265\361"
 105      09579B74 
 105      167167FA 
 105      4C858AED 
 105      B5F1
 106 0247 E58D15CA 		.ascii	"\345\215\025\312\200\355\020\243v'\367wt\347\274`\225"
 106      80ED10A3 
 106      7627F777 
 106      74E7BC60 
 106      95
 107 0258 4C5D9599 		.ascii	"L]\225\231\376Hw\224e\032,\317\324\204\261\0132\323"
 107      FE487794 
 107      651A2CCF 
 107      D484B10B 
 107      32D3
 108 026a 95FD23AC 		.ascii	"\225\375#\254=U\327\277R\265\344Gq\013\322\205\307\027"
 108      3D55D7BF 
 108      52B5E447 
ARM GAS  /tmp/ccU5HzYq.s 			page 8


 108      710BD285 
 108      C717
 109 027c D55BE4B4 		.ascii	"\325[\344\264.\372\352\320\032\277R-\241\273\311D(\231"
 109      2EFAEAD0 
 109      1ABF522D 
 109      A1BBC944 
 109      2899
 110 028e 0887C283 		.ascii	"\010\207\302\203\321\276h<\031\242_\"e{R\261\2660\264"
 110      D1BE683C 
 110      19A25F22 
 110      657B52B1 
 110      B630B4
 111 02a1 9FB26528 		.ascii	"\237\262e(\236H%C\227\257w^\351|@K\341x\242\277\347"
 111      9E482543 
 111      97AF775E 
 111      E97C404B 
 111      E178A2BF 
 112 02b6 5E47AC6D 		.ascii	"^G\254m\020\364TlH\277\023\277o\305\007\006\222\375"
 112      10F4546C 
 112      48BF13BF 
 112      6FC50706 
 112      92FD
 113 02c8 A93F2160 		.ascii	"\251?!`p\340"
 113      70E0
 114              		.text
 115              		.section	.gnu.lto__tm_init.f075de62a02b0b55,"",%progbits
 116 0000 789CAD53 		.ascii	"x\234\255S\317K\033A\024~o6\2111\361G\005\017zjP\012"
 116      CF4B1B41 
 116      147E6F36 
 116      8931F147 
 116      050F7A6A 
 117 0016 B64243C1 		.ascii	"\266BC\301?\305\202\036\223=\350\034\202\222\304\213"
 117      3FC5821E 
 117      933DE81C 
 117      8292C48B 
 118 0026 3D386BD3 		.ascii	"=8k\323\326K!x\022s\022/\245-x\320\303\022\017\016="
 118      D64B2178 
 118      1273122F 
 118      A52D78D0 
 118      C3120F0E 
 119 003b 14446CE9 		.ascii	"\024Dl\351M\004a\305[\205\"\024\212\210\260\276\267"
 119      4D0461C5 
 119      5B852214 
 119      8A88B0BE 
 119      B7
 120 004c 33AB5D1B 		.ascii	"3\253]\033<\365\261\273o\330}\337\367\336\367\355\214"
 120      3CF5B1BB 
 120      6FD87DDF 
 120      F7DEF7ED 
 120      8C
 121 005d 0001F763 		.ascii	"\000\001\367c\230\356\226\0030N\031\035@\321\374\006"
 121      98EE9603 
 121      304E191D 
 121      40D1FC06 
 122 006d E0650522 		.ascii	"\340e\005\"/\000aI\340\3224r)\216\300\206\322\315\340"
 122      2F006149 
 122      E0D23472 
ARM GAS  /tmp/ccU5HzYq.s 			page 9


 122      298EC086 
 122      D2CDE0
 123 0080 CDCF0BE1 		.ascii	"\315\317\013\341)\275\246\032:\014\361\261D\242}\202"
 123      29BDA61A 
 123      3A0CF1B1 
 123      44A27D82 
 124 0090 E0224CA1 		.ascii	"\340\"L\241D\324&\213\241d\243-\241\2030\274\336\336"
 124      44D4268B 
 124      A164A32D 
 124      A18330BC 
 124      DEDE
 125 00a2 396DE340 		.ascii	"9m\343@_\006$u\003HCC\251f\241\204\033\304\016\314A"
 125      5F062475 
 125      03484343 
 125      A966A184 
 125      1BC40ECC 
 126 00b7 31494FEE 		.ascii	"1IO\356\376\022\005g\347\020\226}\377\\\213\022nb\232"
 126      FE120567 
 126      E710967D 
 126      FF5C8B12 
 126      6E629A
 127 00ca 26FDA828 		.ascii	"&\375\250(^HL\331e^b\272\005\353\236R\217$f^\301\225"
 127      5E484CD9 
 127      655E62BA 
 127      05EB9E52 
 127      8F24665E 
 128 00e0 5AE15557 		.ascii	"Z\341UW%b\343a\272\242\021\312\0106\233\005\177\341"
 128      2562E361 
 128      BAA211CA 
 128      08369B05 
 128      7FE1
 129 00f2 21601F96 		.ascii	"!`\037\226\365\230ag\215jU\357\275=@\265\252\274\213"
 129      F5986167 
 129      8D6A55EF 
 129      BD3D40B5 
 129      AABC8B
 130 0105 30EC9798 		.ascii	"0\354\227\230\0250v'\260`\364\245\222\372\270\255R\372"
 130      15307627 
 130      B060F4A5 
 130      92FAB8AD 
 130      52FA
 131 0117 E4EB20D5 		.ascii	"\344\353 \325\033=\206\221\"\022\360\373HX\265\261l"
 131      1B3D8691 
 131      2212F0FB 
 131      4858B5B1 
 131      6C
 132 0128 B5FBFE69 		.ascii	"\265\373\376i\011?D\312M\255k&3\272t\353\235C\"\015"
 132      093F44CA 
 132      4DAD6B26 
 132      33BA74EB 
 132      9D43220D 
 133 013c 5799BCA0 		.ascii	"W\231\274\240\242\317L\030\315\035R\364[\356#\342.\341"
 133      A2CF4C18 
 133      CD1D52F4 
 133      5BEE23E2 
 133      2EE1
 134 014e A73B737A 		.ascii	"\247;sz\377\3029I\\<\317\345C\230Tg\314\332\237\177"
ARM GAS  /tmp/ccU5HzYq.s 			page 10


 134      FFC23949 
 134      5C3CCFE5 
 134      43985467 
 134      CCDA9F7F 
 135 0162 31DD3126 		.ascii	"1\3351&\335\031\343w\300\344bL&\201\3113\346;4\202\255"
 135      DD19E377 
 135      C0E4624C 
 135      2681C933 
 135      E63B3482 
 136 0177 D77DB177 		.ascii	"\327}\261w\267\177\263\307Ea\215^\274\357\260\304^\003"
 136      B77FB3C7 
 136      45618D5E 
 136      BCEFB0C4 
 136      5E03
 137 0189 F4CFF29D 		.ascii	"\364\317\362\235\200\316\203@\232\362\330\377\025\330"
 137      80CE8340 
 137      9AF2D8FF 
 137      15D8
 138 0197 ED358399 		.ascii	"\3555\203\231qx\226\364\002\254\230\375f\356\177\357"
 138      717896F4 
 138      02AC98FD 
 138      66EE7FEF 
 139 01a7 C119F6E0 		.ascii	"\301\031\366\340\020\276\234\333\366\246\353\004l\253"
 139      10BE9CDB 
 139      F6A6EB04 
 139      6CAB
 140 01b5 15C270C5 		.ascii	"\025\302p\305\017\360\202\366\350\355^\002sB\220O\006"
 140      0FF082F6 
 140      E8ED5E02 
 140      7342904F 
 140      06
 141 01c6 1B32525C 		.ascii	"\0332R\\\250U\213\265\252[tgeY\316\325\212tU\353\366"
 141      A8558BB5 
 141      AA5B7467 
 141      6559CED5 
 141      8A7455EB 
 142 01db 4DBDF2DC 		.ascii	"M\275\362\334\005Q\2578\365\312\374\015\337\353\356"
 142      0551AF38 
 142      F5CAFC0D 
 142      DFEBEE
 143 01ea DC       		.ascii	"\334"
 144              		.text
 145              		.section	.gnu.lto_chTMChainMeasurementToX.f075de62a02b0b55,"",%progbits
 146 0000 789C8D94 		.ascii	"x\234\215\224AL\023Q\020\206g\366\355nKii\017\032\202"
 146      414C1351 
 146      108667F6 
 146      ED6E4B69 
 146      690F1A82 
 147 0014 514248B8 		.ascii	"QBH\270H\302\206\023g\343\311\030.\006\242\306\003)"
 147      48C28613 
 147      67E3C918 
 147      2E06A2C6 
 147      0329
 148 0026 0D941E6A 		.ascii	"\015\224\036jI[\321\033\257-\007\211\007\033\015\011"
 148      495BD11B 
 148      AF2D0789 
 148      071B0D09 
ARM GAS  /tmp/ccU5HzYq.s 			page 11


 149 0036 9144205E 		.ascii	"\221D ^\0141E=U\302\241\0324B\202\011\011*!\2064$\342"
 149      0C31453D 
 149      55C2A11A 
 149      34428209 
 149      092A2186 
 150 004d CD8B174E 		.ascii	"\315\213\027N\326\231}]h\021\322\335\264\263\373\346"
 150      D6997D5D 
 150      6811D2DD 
 150      B4B3FBE6 
 151 005d ED7CEF7F 		.ascii	"\355|\357\177\377\274V\003\015N^\327\351;a\000\214\320"
 151      FFBC5603 
 151      0D4E5ED7 
 151      E93B6100 
 151      8CD0
 152 006f 1D3D805A 		.ascii	"\035=\200Z\376\013@\306\253ib\265\035\244O\337\266@"
 152      FE0B40C6 
 152      AB6962B5 
 152      1DA44FDF 
 152      B640
 153 0081 FA059A2A 		.ascii	"\372\005\232*\255k\006'|&O\372\015'm\"\362\003 LjB7"
 153      AD6B0627 
 153      7C264FFA 
 153      0D276D22 
 153      F203204C 
 154 0098 4C9CBC8D 		.ascii	"L\234\274\2156}Y+\225+\225\302\267\215\265\367\270\322"
 154      367D592B 
 154      952B95C2 
 154      B78DB5F7 
 154      B8D2
 155 00aa D52A308E 		.ascii	"\325*0\216`P\240\225b\010^\012\330\304\301\307\241\231"
 155      6050A095 
 155      62085E0A 
 155      D8C4C1C7 
 155      A199
 156 00bc 839F8216 		.ascii	"\203\237\202\026\340\320\302!\310\271\020\007\242\031"
 156      E0D0C221 
 156      C8B91007 
 156      A219
 157 00ca 302565BE 		.ascii	"0%e\276\003 b\323\007(\362\262\203\250\361]l\302\207"
 157      032062D3 
 157      0728F2B2 
 157      83A8F15D 
 157      6CC287
 158 00dd DDD5A707 		.ascii	"\335\325\247\007\263\346\321{\352\241\364\350{\226v"
 158      B3E6D17B 
 158      EAA1F4E8 
 158      7B9676
 159 00ec 18C64534 		.ascii	"\030\306E4\250\324\256\215\242\247\033\226\344T\246"
 159      A8D4AE8D 
 159      A2A71B96 
 159      E454A6
 160 00fb 3CF7E6D3 		.ascii	"<\367\346\323\026b\014\305\034<\313\344e(\206\372-\032"
 160      16620CC5 
 160      1C3CCBE4 
 160      652886FA 
 160      2D1A
 161 010d 1A7241CA 		.ascii	"\032rA\312\026\260\037\355\255\014s]\030_\250\341&d"
ARM GAS  /tmp/ccU5HzYq.s 			page 12


 161      16B01FED 
 161      AD0C735D 
 161      185FA8E1 
 161      2664
 162 011f D77F1467 		.ascii	"\327\177\024g\332\025\224Qt\005iOD\241\0223\212\202"
 162      DA159451 
 162      7405694F 
 162      44A11233 
 162      8A82
 163 0131 4B3DD552 		.ascii	"K=\325R\345F\224\307\353\220-\277\373h\252\302NX\224"
 163      E54694C7 
 163      EB902DBF 
 163      FB68AAC2 
 163      4E5894
 164 0144 F249E9EB 		.ascii	"\362I\351\353\306\3436\271\220\315\313\277\225\012W"
 164      C6E336B9 
 164      90CDCBBF 
 164      950A57
 165 0153 69701379 		.ascii	"ip\023y\223\214\360v\330\267&\275\276oQ\326\341\202"
 165      938CF076 
 165      D8B726BD 
 165      BE6F51D6 
 165      E182
 166 0165 452DBFD3 		.ascii	"E-\277\323\230\345N\027\261\206\032\2618\207U\207v\213"
 166      98E54E17 
 166      B1861AB1 
 166      38875587 
 166      768B
 167 0177 CFC5895E 		.ascii	"\317\305\211^\310_3\027\302\370\012;\311\312%;\276\244"
 167      C85F3317 
 167      C2F80A3B 
 167      C9CA253B 
 167      BEA4
 168 0189 78DC1C4D 		.ascii	"x\334\034M\351\361*GK\177\332b\350\343\306Hn\014\271"
 168      E9F12A47 
 168      4B7FDA62 
 168      E8E3C648 
 168      6E0CB9
 169 019c 6AD4BAAA 		.ascii	"j\324\272\252q\335\262\323\220\334\303\334h\030\013"
 169      71DDB2D3 
 169      90DCC3DC 
 169      68180B
 170 01ab 348C6213 		.ascii	"4\214b\023!\370M\037*%\327\324D\265O\001wP\302\250m"
 170      21F84D1F 
 170      2A25D7D4 
 170      44B54F01 
 170      7750C2A8 
 171 01c0 ECEC5D74 		.ascii	"\354\354]t\300\276n\270\254\272|z5\326K\232\316\275"
 171      C0BE6EB8 
 171      ACBA7C7A 
 171      35D64B9A 
 171      CEBD
 172 01d2 45A7B499 		.ascii	"E\247\264\231l&\200:;\257='\025\271a\022D):\334;\357"
 172      6C26803A 
 172      3BAF3D27 
 172      15B96112 
 172      44293ADC 
ARM GAS  /tmp/ccU5HzYq.s 			page 13


 173 01e8 60FD0A41 		.ascii	"`\375\012Au\315g\022D\235\252\354\357\334\312\221\252"
 173      75CD6712 
 173      449DAAEC 
 173      EFDCCA91 
 173      AA
 174 01f9 409549EE 		.ascii	"@\225I\356\025\216\222-\204\245\251\377\255s\271\012"
 174      158E922D 
 174      84A5A9FF 
 174      AD73B90A 
 175 0209 11AA0760 		.ascii	"\021\252\007`\276\325a\006\0338\247\327h\374\014k\007"
 175      BED56106 
 175      1B38A7D7 
 175      68FC0C6B 
 175      07
 176 021a 99408D71 		.ascii	"\231@\215q\301\343\0036H\353\254\266\0136qg\376\\\235"
 176      C1E30336 
 176      48EBACB6 
 176      0B367167 
 176      FE5C9D
 177 022d 8BBDEEF8 		.ascii	"\213\275\356\370\366\216\025J\207m\213Q\273\263\373"
 177      F68E154A 
 177      876D8B51 
 177      BBB3FB
 178 023c 3BC2592F 		.ascii	";\302Y/\324@\251Q\257\364g\246\257Fi\250V\251\001\323"
 178      D440A951 
 178      AFF467A6 
 178      AF4669A8 
 178      56A901D3 
 179 0250 976CA5C5 		.ascii	"\227l\245\305\375Ct/\3258M\252i\377\307mA\246\274\322"
 179      FD43742F 
 179      D5384DAA 
 179      69FFC76D 
 179      41A6BCD2 
 180 0264 A57E2DCE 		.ascii	"\245~-\3165@'\204\346\370\247\323i\335K%\255T2bE\306"
 180      35402784 
 180      E6F8A7D3 
 180      69DD4B25 
 180      AD543262 
 181 027a 62C3B144 		.ascii	"b\303\261D\312\242O2]\315\244\343=\021\350=\343\225"
 181      CAA24F32 
 181      5DCDA4E3 
 181      3D11E83D 
 181      E395
 182 028c F144329D 		.ascii	"\361D2\235\262\256\334\350\277\332\377\200\246\"\211"
 182      B2AEDCE8 
 182      BFDAFF80 
 182      A62289
 183 029b E4C8D044 		.ascii	"\344\310\320D_\274g\014D:>.\356&\356\233\211\321\321"
 183      5FBC670C 
 183      443A3E2E 
 183      EE26EE9B 
 183      89D1D1
 184 02ae D448FA1F 		.ascii	"\324H\372\037e\233f\320"
 184      659B66D0 
 185              		.text
 186              		.section	.gnu.lto_.symbol_nodes.f075de62a02b0b55,"",%progbits
 187 0000 789C6362 		.ascii	"x\234cb`bHa\200\002\246\347\214\365\014\014\023\316"
ARM GAS  /tmp/ccU5HzYq.s 			page 14


 187      60624861 
 187      8002A6E7 
 187      8CF50C0C 
 187      13CE
 188 0012 3130D4D7 		.ascii	"10\324\327\317\353`dz\301X\317\210\304}\311X\317\204"
 188      CFEB6064 
 188      7AC158CF 
 188      88C47DC9 
 188      58CF84
 189 0025 E0B2BE66 		.ascii	"\340\262\276f\004\262\030\230\2361\3263#)z\305X\317"
 189      04B21898 
 189      9E31D633 
 189      23297AC5 
 189      58CF
 190 0037 82E032B3 		.ascii	"\202\3402\26302<z\370\017H314\265\275\221g\000\000K"
 190      30323C7A 
 190      F80F4833 
 190      3134B5BD 
 190      91670000 
 191 004c 531F6A   		.ascii	"S\037j"
 192              		.text
 193              		.section	.gnu.lto_.refs.f075de62a02b0b55,"",%progbits
 194 0000 789C6362 		.ascii	"x\234cb`b\340f\200\000F&\006f&\026FfFf\006\000\001\267"
 194      6062E066 
 194      80004626 
 194      06662616 
 194      46664666 
 195 0018 0024     		.ascii	"\000$"
 196              		.text
 197              		.section	.gnu.lto_.decls.f075de62a02b0b55,"",%progbits
 198 0000 789CBD5B 		.ascii	"x\234\275[\013p\324\326\271\226\264\353\265\027;\206"
 198      0B70D4D6 
 198      B996B4EB 
 198      B5173B86 
 199 0010 D226A5F7 		.ascii	"\322&\245\367\346N\235N\037i\232\\\033\310m\350\314"
 199      E64E9D4E 
 199      1F699A5C 
 199      1BC86DE8 
 199      CC
 200 0021 9D848E43 		.ascii	"\235\204\216C\033\346B\302\000\271\2453\235\331\212"
 200      1BE642C2 
 200      00B9A533 
 200      9DD98A
 201 0030 B5B0B7F5 		.ascii	"\265\260\267\365>\256V\3060sg*\0330$\274\0148\230`\300"
 201      3EAE56C6 
 201      3073672A 
 201      1B3024BC 
 201      0C389860 
 202 0045 E6E184D7 		.ascii	"\346\341\204\327\205\340\360\206\200\032\022B\200\230"
 202      85E0F086 
 202      801A1242 
 202      8098
 203 0053 F7BBB637 		.ascii	"\367\273\2667\005\007\270I\010\357W\000\337s~\035iu"
 203      0507B849 
 203      08EF5700 
 203      DF737E1D 
 203      6975
ARM GAS  /tmp/ccU5HzYq.s 			page 15


 204 0065 B4D2AE64 		.ascii	"\264\322\256d\350\325\254\376\225tt\276\377y\316\371"
 204      E8D5ACFE 
 204      957474BE 
 204      FF79CEF9 
 205 0075 CF91C431 		.ascii	"\317\221\3041\034\363\337\034\303t\241\355\314@\206"
 205      1CF3DF1C 
 205      C374A1ED 
 205      CC4086
 206 0084 1991CD30 		.ascii	"\031\221\3150>\206a^D;\272\314\240S\306\317\250[\026"
 206      3E86615E 
 206      443BBACC 
 206      A053C6CF 
 206      A85B16
 207 0097 DA17A3BD 		.ascii	"\332\027\243\275\025\355G\321~\012\355mhg\321~\201\241"
 207      15ED47D1 
 207      7E0AED6D 
 207      6867D17E 
 207      81A1
 208 00a9 B7C5A4EE 		.ascii	"\267\305\244\356j\2647\243}\0319\337\206v\205`b\274"
 208      6AB437A3 
 208      7D1939DF 
 208      86768560 
 208      62BC
 209 00bb 5568DF88 		.ascii	"Uh\337\210\366\315h\337\212\366\235\004o1\371\337g\302"
 209      F6CD68DF 
 209      8AF69D04 
 209      6F31F9DF 
 209      67C2
 210 00cd C5BC7D04 		.ascii	"\305\274}\004\3672\272\341\012\332\177\306%y`\231o\263"
 210      F732BAE1 
 210      0ADA7FC6 
 210      25796099 
 210      6FB3
 211 00df 2A1E47EE 		.ascii	"*\036G\356\177\232S\261\016\233\260\260\016=\015r\372"
 211      7F9A53B1 
 211      0E9BB0B0 
 211      0E3D0D72 
 211      FA
 212 00f0 4D9809F4 		.ascii	"M\230\011\364\177\021]{\226S\261\363\321\236Gth&z\344"
 212      7F115D7B 
 212      9653B1F3 
 212      D19E4774 
 212      68267AE4 
 213 0104 107E1D68 		.ascii	"\020~\035h\357dU\0356\023=6\022\375<\204\027\226\343"
 213      EF64551D 
 213      36133D36 
 213      12FD3C84 
 213      1796E3
 214 0117 394E95EB 		.ascii	"9N\225\353\204\205\315N\021\036\315\006^\232lfY\214"
 214      8485CD4E 
 214      111ECD06 
 214      5E9A6C66 
 214      598C
 215 0129 761C80AE 		.ascii	"v\034\200\256-!\367jrX\331\325Kx\030}h\345\2736\302"
 215      2D21F76A 
 215      7258D9D5 
 215      4B78187D 
ARM GAS  /tmp/ccU5HzYq.s 			page 16


 215      68E5BB36 
 216 013e 7B3593F4 		.ascii	"{5\223\364\277\225\255\215\366P\210_4\333k<\2156h3\331"
 216      BF95AD8D 
 216      F650885F 
 216      34DB6B3C 
 216      8D366833 
 217 0153 A013ED67 		.ascii	"\240\023\355gM\274\177\310,\222\023\227\023\235W\337"
 217      4DBC7FC8 
 217      2C921397 
 217      139D57DF 
 218 0163 FB81DC54 		.ascii	"\373\201\334T\255tu\355\224Y\346\011\346-\031mM5\262"
 218      AD7475ED 
 218      9459E609 
 218      E62D196D 
 218      4D35B2
 219 0176 CC4A3CFB 		.ascii	"\314J<\373\342\343\314(\226g\363\375L\001\034\344\371"
 219      E2E3CC28 
 219      9667F3FD 
 219      4C011CE4 
 219      F9
 220 0187 413586E1 		.ascii	"A5\206\341\331%\354\023p\344\001\006L.\363\246,W\343"
 220      D925EC13 
 220      70E40106 
 220      4C2EF3A6 
 220      2C57E3
 221 019a 8AAFECC9 		.ascii	"\212\257\354\311\357\315\314\302(\005S\316\"\031\011"
 221      EFCDCCC2 
 221      280553CE 
 221      221909
 222 01a9 80C26A08 		.ascii	"\200\302j\010}\320\355?a\226\311rm\242\341\3164\217"
 222      7DD0ED3F 
 222      6196C972 
 222      6DA2E1CE 
 222      348F
 223 01bb 2CE7F06C 		.ascii	",\347\360l3\333\033\341\014a\231g\230\025\250f\255,"
 223      33DB1BE1 
 223      0C619967 
 223      9815A866 
 223      AD2C
 224 01cd FFBD9065 		.ascii	"\377\275\220eR\267\314\310X\266\025\010\215g\227\263"
 224      52B7CCC8 
 224      58B61508 
 224      8D6797B3 
 225 01dd CFA87C64 		.ascii	"\317\250|de\335\356<\331\253^gH\211\305\366\024\323"
 225      65DDEE3C 
 225      D9AB5E67 
 225      4889C5F6 
 225      14D3
 226 01ef 847450DE 		.ascii	"\204tP\336\337\275\000Y\344C\326\317LI\252\304X\032"
 226      DFBD0059 
 226      E443D6CF 
 226      4C49AAC4 
 226      581A
 227 0201 82A8B1F0 		.ascii	"\202\250\261\360\223\335\207\330\011\310d<\273\032U"
 227      93DD87D8 
 227      09C8643C 
 227      BB1A55
ARM GAS  /tmp/ccU5HzYq.s 			page 17


 228 0210 E398A52C 		.ascii	"\343\230\245,K\261q\016\265i\352\262g\301\"k\001\250"
 228      4BB1710E 
 228      B569EAB2 
 228      67C1226B 
 228      01A8
 229 0222 B5DB401D 		.ascii	"\265\333@\035\255\037\315\"2\265\000\324$\216\206\342"
 229      AD1FCD22 
 229      32B500D4 
 229      248E86E2 
 230 0232 D96CBF51 		.ascii	"\331l\277Q{8\327n\300xPL\016p\247\325\223\371\007\337"
 230      7B38D76E 
 230      C078504C 
 230      0E70A7D5 
 230      93F907DF 
 231 0246 CE31B520 		.ascii	"\3161\265 #v\223\225f\344P\335\310\015\224\353\022\363"
 231      23769395 
 231      66E450DD 
 231      C80D94EB 
 231      12F3
 232 0258 2F4E03D7 		.ascii	"/N\003\327i~x\3135^\001\025\012\033w\347\325\362\032"
 232      697E78CB 
 232      355E0115 
 232      0A1B77E7 
 232      D5F21A
 233 026b 588313B0 		.ascii	"X\203\023\260\034[\341\224\315\030\314EPM>\246\005\325"
 233      1C5BE194 
 233      CD18CC45 
 233      504D3EA6 
 233      05D5
 234 027d 36E0DF94 		.ascii	"6\340\337\224\342@\034#\256m\374\256k5(\233$\032nL\373"
 234      E2401C23 
 234      AE6DFCAE 
 234      6B35289B 
 234      241A6E4C 
 235 0292 D57C5999 		.ascii	"\325|Y\231WDTQj\344)l\325\272'\365\333\007\032Ate>\321"
 235      57445451 
 235      6AE4296C 
 235      D5BA27F5 
 235      DB071A41 
 236 02aa 94514099 		.ascii	"\224Q@\231\025\234e`;\002\3334\365]\265\215\354\002"
 236      159C6560 
 236      3B02DB34 
 236      F55DB58D 
 236      EC02
 237 02bc A8968780 		.ascii	"\250\226\207\200\352hm\323Z\311n\000\333\226bd\277\311"
 237      EA686DD3 
 237      5AC96E00 
 237      DB966264 
 237      BFC9
 238 02ce C67EDAC6 		.ascii	"\306~\332\306~\177\362\240K\333\350\256\353\037Z\207"
 238      7E7FF2A0 
 238      4BDBE8AE 
 238      EB1F5A87 
 239 02de 63769B1D 		.ascii	"cv\233\035J)J\016{Y\304\245\325f\354<yv%\373\023DW\261"
 239      4A294A0E 
 239      7B59C4A5 
 239      D566EC3C 
ARM GAS  /tmp/ccU5HzYq.s 			page 18


 239      797625FB 
 240 02f6 4F21BA11 		.ascii	"O!\272\021\350f\240[\201\356DT\337\354\306\211eln\022"
 240      E866A05B 
 240      81EE4454 
 240      DFECC689 
 240      656C6E12 
 241 030a FB758F7E 		.ascii	"\373u\217~?\307\0342\231\372\307\314RY\236\215\006\244"
 241      3FC71C32 
 241      99FAC7CC 
 241      52599E8D 
 241      06A4
 242 031c 3D596FCB 		.ascii	"=Yo\313\212W\255\3121\011\270m1\373CK\026:\203\2372"
 242      8A57ADCA 
 242      3109B86D 
 242      31FB434B 
 242      163A839F 
 243 0331 CD786498 		.ascii	"\315xd\230.O\352\305\302\300\305\220Z\224r{Y\316xA\035"
 243      2E4FEAC5 
 243      C2C0C590 
 243      5A94727B 
 243      59CE7841 
 244 0346 0395539F 		.ascii	"\003\225S\237\314\324\306\300\201dh\343\230s\224x0\314"
 244      CCD4C6C0 
 244      816468E3 
 244      98739478 
 244      30CC
 245 0358 71CC5D8E 		.ascii	"q\314]\2165\012+_\023^Q%\340\331\375\010\232g[\035\312"
 245      350A2B5F 
 245      135E5125 
 245      E0D9FD08 
 245      9A675B1D 
 246 036d B9531ED6 		.ascii	"\271S\036\326G\027\263\325,\346\001K1g\357\315\253\255"
 246      4717B3D5 
 246      2CE6014B 
 246      3167EFCD 
 246      ABAD
 247 037f 4A747535 		.ascii	"Jtu5\026h2N\360\244\310\310\263\207\264\312D\306+f\031"
 247      1668324E 
 247      F0A4C8C8 
 247      B387B4CA 
 247      44C62B66 
 248 0394 8F7647C6 		.ascii	"\217vG\306\243f\031\217\245\312\330\224Pv\326\354c\021"
 248      A366198F 
 248      A5CAD894 
 248      5076D6EC 
 248      6311
 249 03a6 CF7B5D5D 		.ascii	"\317{]]\036\027\311\304i\222L$#\204c\346y\350\360\320"
 249      1E17C9C4 
 249      69924C24 
 249      238463E6 
 249      79E8F0D0 
 250 03ba C59297CB 		.ascii	"\305\222\227\313\036]\254Sf\261\316X\212ul\257\301\303"
 250      1E5DAC53 
 250      66B1CE58 
 250      8A756CAF 
 250      C1C3
 251 03cc CEE56AA7 		.ascii	"\316\345j\247\223\034\325@\324\011\223\022\326\213\235"
ARM GAS  /tmp/ccU5HzYq.s 			page 19


 251      931CD540 
 251      D4099312 
 251      D68B9D
 252 03db F8E496E6 		.ascii	"\370\344\226\346\023\216\331\002\367\267\245\367\211"
 252      138ED902 
 252      F7B7A5F7 
 252      89
 253 03e8 5A4D398E 		.ascii	"ZM9\216\"\200\325*\356pRQ\263\032\262@\3177\377\250"
 253      2280D52A 
 253      EE705251 
 253      B31AB240 
 253      CF37FFA8 
 254 03fc 9BADCD6C 		.ascii	"\233\255\315l\266\317i\263\375\210Y,'j\023\365\355\373"
 254      B6CF69B3 
 254      FD88592C 
 254      276A13F5 
 254      EDFB
 255 040e FBACAE96 		.ascii	"\373\254\256\226'\256C\010]l\327KV\351\227\374\270\306"
 255      27AE4308 
 255      5D6CD74B 
 255      56E997FC 
 255      B8C6
 256 0420 F6208620 		.ascii	"\366 \206 \035\353\226\306\353\213I\307z\021r\273\267"
 256      1DEB96C6 
 256      EB8B49C7 
 256      7A1172BB 
 256      B7
 257 0431 BDB43B1D 		.ascii	"\275\264;\035@qL3T\372\312\224\316%\352\027}<\231\255"
 257      40714C33 
 257      54FACA94 
 257      CE25EA17 
 257      7D3C99AD 
 258 0445 02F0AF1C 		.ascii	"\002\360\257\034\244t\262\262\260}\001\213\363\002\215"
 258      A474B2B2 
 258      B07D018B 
 258      F3028D
 259 0454 A961E84D 		.ascii	"\251a\350M\350\331\343\223\006\351;N|N\244\277\014\322"
 259      E8D9E393 
 259      06E93B4E 
 259      7C4EA4BF 
 259      0CD2
 260 0466 AFB591DE 		.ascii	"\257\265\221\336\026\210c\266C\225k\251\262\037\255"
 260      168863B6 
 260      43956BA9 
 260      B21FAD
 261 0475 21B25F73 		.ascii	"!\262_s$\373\221\323\266\262[\215h[\032\217\316b'\002"
 261      24FB91D3 
 261      B6B25B8D 
 261      685B1A8F 
 261      CE622702 
 262 0489 FE2D107D 		.ascii	"\376-\020}\257\265\350M\003\355\2008\3464T\271\233\""
 262      AFB5E84D 
 262      03ED8038 
 262      E63454B9 
 262      9B22
 263 049b 7AFBAD6A 		.ascii	"z\373\255j\"\372]G\231\364\225\251\013!\035\263\234"
 263      22FA5D47 
ARM GAS  /tmp/ccU5HzYq.s 			page 20


 263      99F495A9 
 263      0B211DB3 
 263      9C
 264 04ac 1C18D837 		.ascii	"\034\030\3307y5\376/'\025\331\334\361\022\316\331\273"
 264      7935FE2F 
 264      2715D9DC 
 264      F112CED9 
 264      BB
 265 04bd 40892F33 		.ascii	"@\211/3\333\237\006\341\230\353P\245\232K\215\235\011"
 265      DB9F06E1 
 265      98EB50A5 
 265      9A4B8D9D 
 265      09
 266 04ce 44095C96 		.ascii	"D\011\\\226Y\211\372\031\013IN\371\000\232\335\003\035"
 266      5989FA19 
 266      0B494EF9 
 266      009ADD03 
 266      1D
 267 04df B75B39AA 		.ascii	"\267[9\2522\277\025rJ\025lR\226[\260\002\012\254\261"
 267      32BF1572 
 267      4A156C52 
 267      965BB002 
 267      0AACB1
 268 04f2 D5F55C65 		.ascii	"\325\365\\er\253\226\211\275\311\341\214gZ\326#I+\353"
 268      72AB9689 
 268      BDC9E18C 
 268      675AD623 
 268      492BEB
 269 0505 9C68629B 		.ascii	"\234hb\233\035c\277\354\237\303\316\231 \357)\322\002"
 269      1D63BFEC 
 269      9FC3CE99 
 269      20EF29D2 
 269      02
 270 0516 D467A709 		.ascii	"\324g\247\011J\305\201\331\314\024\337~\271\347\347"
 270      4AC581D9 
 270      CC14DF7E 
 270      B9E7E7
 271 0525 F364B997 		.ascii	"\363d\271\227Z\224\331\265\033\366\326;\213ONc\377c"
 271      5A94D9B5 
 271      1BF6D63B 
 271      8B4F4E63 
 271      FF63
 272 0537 607F08D8 		.ascii	"`\177\010\330\327\231\331\177{)\361\242\312\276\316"
 272      D799D97F 
 272      7B29F1A2 
 272      CABECE
 273 0546 11FBC6C3 		.ascii	"\021\373\306\303u\251\354m\307#\342\277\372//<\331\010"
 273      75A9EC6D 
 273      C723E2BF 
 273      FA2F2F3C 
 273      D908
 274 0558 4CE67138 		.ascii	"L\346q8\202f\372\314\356{)\327\310\013\316\0157\240"
 274      8266FACC 
 274      EE7B29D7 
 274      C80BCE0D 
 274      37A0
 275 056a 81D5A749 		.ascii	"\201\325\247I\337\275I\326\267\227\224\301+Zd\371\015"
ARM GAS  /tmp/ccU5HzYq.s 			page 21


 275      DFBD49D6 
 275      B79794C1 
 275      2B5A64F9 
 275      0D
 276 057b 9F264383 		.ascii	"\237&C\203kD:\212[\016C\223P\301\0269\001K3\315Zo\004"
 276      6B443A8A 
 276      5B0E4393 
 276      50C11639 
 276      014B33CD 
 277 0592 5BEC1A8C 		.ascii	"[\354\032\214\226l\243\021l\231\0230\253D[\233\000\032"
 277      966CA311 
 277      6C991330 
 277      AB445B9B 
 277      001A
 278 05a4 C1DE750D 		.ascii	"\301\336u\015FK\266\325\010\266\322\011X\037{\311\266"
 278      464BB6D5 
 278      08B6D209 
 278      581F7BC9 
 278      B6
 279 05b5 1BC1D6B8 		.ascii	"\033\301\326\270\006\243%\333a\004kq\002V`!\231\276"
 279      06A325DB 
 279      61046B71 
 279      02566021 
 279      99BE
 280 05c7 D9E56673 		.ascii	"\331\345fs8=\3169f\203O\353\020\\\3064\223\304\330\342"
 280      383DCE39 
 280      66834FEB 
 280      105CC634 
 280      93C4D8E2 
 281 05db 73DB8351 		.ascii	"s\333\203Qz\243\036\354\263\245j\017\246\365\356;\235"
 281      7AA31EEC 
 281      B3A56A0F 
 281      A6F5EE3B 
 281      9D
 282 05ec 20A60998 		.ascii	" \246\011\230\215\306\241\342\023\327`\264[\216b0\252"
 282      8DC6A1E2 
 282      13D760B4 
 282      5B8E6230 
 282      AA
 283 05fd AB218346 		.ascii	"\253!\203F\242Y\3513/\331\331\345hXx\246\243\366l\265"
 283      A259E933 
 283      2FD9D9E5 
 283      685878A6 
 283      A3F66CB5 
 284 0611 B2CCE937 		.ascii	"\262\314\3517\313}\372X\337\313\263\0338<]\334\310\371"
 284      CB7DFA58 
 284      DFCBB31B 
 284      383C5DDC 
 284      C8F9
 285 0623 7529D463 		.ascii	"u)\324c\355H\235\257\036\360Y\255\354\001@\372\252v"
 285      ED489DAF 
 285      1EF059AD 
 285      EC0140FA 
 285      AA76
 286 0635 91F0BE31 		.ascii	"\221\360\2761\022\216:1S\232\246\360m\353\202\357\313"
 286      128E3A31 
 286      539AA6F0 
ARM GAS  /tmp/ccU5HzYq.s 			page 22


 286      6DEB82EF 
 286      CB
 287 0646 098535E8 		.ascii	"\011\2055\350\233\3268x\365o\2776\242n\205\021\365\214"
 287      9BD63878 
 287      F56FBF36 
 287      A26E8511 
 287      F58C
 288 0658 A94B760E 		.ascii	"\251Kv\016\265i\352\334_\300\312\306\007\000t\256\333"
 288      B569EADC 
 288      5FC0CAC6 
 288      070074AE 
 288      DB
 289 0669 401DAD8B 		.ascii	"@\035\255\213\006\000\220\002@_\245\014\022\346!\236"
 289      06009002 
 289      405FA50C 
 289      12E6219E 
 290 0679 A58778D6 		.ascii	"\245\207x\326\237<HY\231x\204\367r\314M\263\277(u2\366"
 290      9F3C4859 
 290      997884F7 
 290      72CC4DB3 
 290      BF287532 
 291 068e 3628293D 		.ascii	"6()=7\207\275V-\353\353QN<6Y\367\330\307`\237\007)\366"
 291      3787BD56 
 291      2DEBEB51 
 291      4E3C3659 
 291      F7D8C760 
 292 06a6 F9807367 		.ascii	"\371\200sg \216\251\311v\253\310\323\264\"\213\316w"
 292      208EA9C9 
 292      76ABC8D3 
 292      B4228BCE 
 292      77
 293 06b7 4391CF34 		.ascii	"C\221\3174E\366\202\"3\262\037^\221\271\256\025)2(\202"
 293      45F68222 
 293      33B21F5E 
 293      91B9AE15 
 293      29322882 
 294 06cb A709D7EB 		.ascii	"\247\011\327\353\324~\360\273\314\354\364\231\034\254"
 294      D47EF0BB 
 294      CCECF499 
 294      1CAC
 295 06d9 7570DFA5 		.ascii	"up\337\245\322(\345\306\001\266@\275\234yr4\347\260"
 295      D228E5C6 
 295      01B640BD 
 295      9C797234 
 295      E7B0
 296 06eb 21FF959D 		.ascii	"!\377\225\235\255\325\353\371\357a0\331\302l\213F\346"
 296      ADD5EBF9 
 296      EF6130D9 
 296      C26C8B46 
 296      E6
 297 06fc 086AD3BE 		.ascii	"\010j\323\276F\265\265\036\003\240\245\335\006\352h"
 297      46B5B51E 
 297      03A0A5DD 
 297      06EA68
 298 070b DDA9B6D6 		.ascii	"\335\251\266\326\223\000\264*\305\211>\223\017}\264"
 298      9300B42A 
 298      C5893E93 
ARM GAS  /tmp/ccU5HzYq.s 			page 23


 298      0F7DB4
 299 071a 0FD129E6 		.ascii	"\017\321)\346t\033\226\004\377B\256\340\223l\346\377"
 299      741B9604 
 299      FF42AEE0 
 299      936CE6FF 
 300 072a BD1E1A8B 		.ascii	"\275\036\032\213A|\354\277\356\344\2270\023\250\323"
 300      417CECBF 
 300      EEE49730 
 300      13A8D3
 301 0739 C651D545 		.ascii	"\306Q\325E\333\037\012\261Z\3319[\233\302\275\204G\322"
 301      DB1F0AB1 
 301      5AD9395B 
 301      9BC2BD84 
 301      47D2
 302 074b 8F1F12EE 		.ascii	"\217\037\022\356o\207\315#\251)\203\357\262Y\\\327\247"
 302      6F87CD23 
 302      A92983EF 
 302      B2595CD7 
 302      A7
 303 075c E8BBFFCA 		.ascii	"\350\273\377\312VC\010\376\035\222\244\375)\016\177"
 303      564308FE 
 303      1D92A4FD 
 303      290E7F
 304 076b C09A92F8 		.ascii	"\300\232\222\370\007,\225\305\3335\246\317\215Ca\307"
 304      072C95C5 
 304      DB35A6CF 
 304      8D4361C7 
 305 077b C3E9891C 		.ascii	"\303\351\211\034\321\261LuD\246\011\322\0375\264<`\334"
 305      D1B14C75 
 305      44A609D2 
 305      1F35B43C 
 305      60DC
 306 078d 098C2F98 		.ascii	"\011\214/\230\347G\307\272\0225D\357\013\016&H\262r"
 306      E747C7BA 
 306      123544EF 
 306      0B0E2648 
 306      B272
 307 079f A6D32FCF 		.ascii	"\246\323/\317\316\323\0262\346\347h\250\204+\265j\221"
 307      CED31632 
 307      E6E768A8 
 307      842BB56A 
 307      91
 308 07b0 31AE9476 		.ascii	"1\256\224vaO\221\233~\342\250\326O\\\202 \\\222cv\322"
 308      614F919B 
 308      7EE2A8D6 
 308      4F5C8220 
 308      5C926376 
 309 07c5 3173D7EA 		.ascii	"1s\327\352\252\231,7\253\343t"
 309      AA992C37 
 309      ABE374
 310 07d0 9EA36F76 		.ascii	"\236\243ovAp\336\030\004kr\0362\010\332\317;\014\002"
 310      4170DE18 
 310      046B721E 
 310      3208DACF 
 310      3B0C02
 311 07e3 595F00EB 		.ascii	"Y_\000\353\005\2347\000\347\033\346(\270\277\364Sm\361"
 311      059C3700 
ARM GAS  /tmp/ccU5HzYq.s 			page 24


 311      E71BE628 
 311      B8BFF453 
 311      6DF1
 312 07f5 EE86A328 		.ascii	"\356\206\243(\270AE\301\027:jw\242\240Z\271s\361S\026"
 312      B84145C1 
 312      173A6A77 
 312      A2A05AB9 
 312      73F15316 
 313 0809 E0D4ACFA 		.ascii	"\340\324\254\372\222\031\316\345l\363\236\340\3260j"
 313      9219CEE5 
 313      6CF39EE0 
 313      D6306A
 314 0818 7C29A73A 		.ascii	"|)\247:\361(\367\200\303:\335L\011-\3252\206\320J\232"
 314      F128F780 
 314      C33ADD4C 
 314      092DD532 
 314      86D04A9A 
 315 082c 111902D2 		.ascii	"\021\031\002\322\354\333\034~\006s\027\350=\316\301"
 315      ECDB1C7E 
 315      067317E8 
 315      3DCEC1
 316 083b 9398FBC6 		.ascii	"\223\230\373\306\260x\340Z\357\002\207\321w\335\310"
 316      B078E05A 
 316      EF0287D1 
 316      77DDC8
 317 084a 6692FFE1 		.ascii	"f\222\377\341\242on\3737\336\267ee\242\307\315\303\370"
 317      A26F6EFB 
 317      37DEB765 
 317      65A2C7CD 
 317      C3F8
 318 085c 035AC3C5 		.ascii	"\003Z\303\305\3258f\232\377\221,p\315\353\256*\372\306"
 318      D538669A 
 318      FF912C70 
 318      CDEBAE2A 
 318      FAC6
 319 086e 318D7E07 		.ascii	"1\215~\007\223\223\002;s\340\241\361V\235\303E2}%{\177"
 319      9393023B 
 319      73E0A1F1 
 319      569DC345 
 319      327D257B 
 320 0883 15590E7E 		.ascii	"\025Y\016~\323\203cm\251\311\032\016V\333Z\240\312t"
 320      D383636D 
 320      A9C91A0E 
 320      56DB5AA0 
 320      CA74
 321 0895 4FCA4AEA 		.ascii	"O\312J\352um9\030\227e^\357:2\325\270\222\312\2635\034"
 321      756D3918 
 321      97655EEF 
 321      3A32D5B8 
 321      92CAB335 
 322 08aa 4770BB6B 		.ascii	"Gp\273kQ\312\211I\001yv\246\0077\221Z\217\241Yp\314"
 322      51CA8949 
 322      017976A6 
 322      0737915A 
 322      8FA15970 
 323 08bf 87AEAD5F 		.ascii	"\207\256\255_`\264\276r\347\210\272\022\257uE\373\315"
 323      60B4BE72 
ARM GAS  /tmp/ccU5HzYq.s 			page 25


 323      E788BA12 
 323      AF7545FB 
 323      CD
 324 08d0 78565DD1 		.ascii	"xV]\321\323\266\336Tj\217\303\364^\315qN8\021\256\310"
 324      D3B6DE54 
 324      6A8FC3F4 
 324      5ECD714E 
 324      3811AEC8 
 325 08e4 0EAC5A59 		.ascii	"\016\254ZY\240\202\251!\337\346\032\254\200\002\333"
 325      A082A921 
 325      DFE61AAC 
 325      8002DB
 326 08f3 3657F3D4 		.ascii	"6W\363\324uHP.8\301\033`/\334\221\343\013\010\236\272"
 326      7548502E 
 326      38C11B60 
 326      2FDC91E3 
 326      0B089EBA 
 327 0907 E67CD535 		.ascii	"\346|\3255\036-\337\225\271TBw\337\011\334@\307\201"
 327      1E2DDF95 
 327      B9544277 
 327      DF09DC40 
 327      C781
 328 0919 546DE86B 		.ascii	"Tm\350k'B_;\011z\331\311@\337\000:\003\350\032\240\357"
 328      27425F3B 
 328      097AD9C9 
 328      40DF003A 
 328      03E81AA0 
 329 092e 016D01BA 		.ascii	"\001m\001\272\005\350G@?\005\332\252\326\362`:\033h"
 329      05E84740 
 329      3F05DAAA 
 329      D6F2603A 
 329      1B68
 330 0940 1DD0B940 		.ascii	"\035\320\271@\347\001\235\017t\201\307A/nJ\004\265V"
 330      E7019D0F 
 330      7481C741 
 330      2F6E4A04 
 330      B556
 331 0952 74B7BBEF 		.ascii	"t\267\273\357\314(W\367\351\213L<;\3055XA:K\3365\274"
 331      CC2857F7 
 331      E98B4C3C 
 331      3BC53558 
 331      413A4BDE 
 332 0968 4B700FDE 		.ascii	"Kp\017\336%\270\017o\016,\242\033\346\244\036\332\243"
 332      25B80F6F 
 332      0E2CA21B 
 332      E6A41EDA 
 332      A3
 333 0979 B2EE8DE9 		.ascii	"\262\356\215\351\307N\323\3415\335\214\347jP\227\225"
 333      C74ED3E1 
 333      35DD8CE7 
 333      6A509795 
 334 0989 93A7C124 		.ascii	"\223\247\301$3ap\256s\015F\307j\307|\372\371\321|'x"
 334      336170AE 
 334      730D46C7 
 334      6AC77CFA 
 334      F9D17C27 
 335 099e 6916052F 		.ascii	"i\026\005/\2376,\012.q\015F\013w\323\010\266\322\011"
ARM GAS  /tmp/ccU5HzYq.s 			page 26


 335      9F362C0A 
 335      2E710D46 
 335      0B77D308 
 335      B6D209
 336 09b1 98D5D299 		.ascii	"\230\325\322\231\265\363\257\031\234\177\003\234\177"
 336      B5F3AF19 
 336      9C7F039C 
 336      7F
 337 09be 139CDF04 		.ascii	"\023\234\337\004\301\276\004\3502\240\357\000]N\007"
 337      C1BE04E8 
 337      32A0EF00 
 337      5D4E07
 338 09cd C5FA1EDA 		.ascii	"\305\372\036\332\263_\302\214~\300\2329\337\337`\377"
 338      B35FC28C 
 338      7EC09A39 
 338      DFDF60FF 
 339 09dd D0D72A23 		.ascii	"\320\327*#C\323\262\363U\354$\365->\030*\267\366\310"
 339      43D3B2F3 
 339      55EC24F5 
 339      2D3E182A 
 339      B7F6C8
 340 09f0 F8D0D19C 		.ascii	"\370\320\321\234\363\036\204*kS\206\312\366\373\223"
 340      F31E842A 
 340      6B5386CA 
 340      F6FB93
 341 09ff C850B9D6 		.ascii	"\310P\271\326\321Py\247\336\341\223S\235\377\367\014"
 341      D15079A7 
 341      DEE19353 
 341      9DFFF70C 
 342 0a0f 8A749CD3 		.ascii	"\212t\234\323\036\001\257\007E\316gV\204\006\342\230"
 342      1E01AF07 
 342      45CE6756 
 342      8406E298 
 343 0a1f 5B506553 		.ascii	"[PeS\252\"_k\212lr\244\310\226z-\372\337\367\340\030"
 343      AA225F6B 
 343      8A6C72A4 
 343      C8967A2D 
 343      FADFF7E0 
 344 0a34 9B92ABE1 		.ascii	"\233\222\253\341v\257\267\332z\002\002V\005\253u\015"
 344      76AFB7DA 
 344      7A020256 
 344      05AB750D 
 345 0a44 4647FF07 		.ascii	"FG\377\007'\334>=\335\322\261\341\031X\251\331\011\343"
 345      27DC3E3D 
 345      DDD2B1E1 
 345      1958A9D9 
 345      09E3
 346 0a56 ECBCDC47 		.ascii	"\354\274\334G\222Z.q\242\207\375$\004y\345\233\267,"
 346      925A2E71 
 346      A287FD24 
 346      0479E59B 
 346      B72C
 347 0a68 E668CEDF 		.ascii	"\346h\316\337s\371\330cz\317\005\236\031\032^kIg\222"
 347      73F9D863 
 347      7ACF059E 
 347      191A5E6B 
 347      496792
ARM GAS  /tmp/ccU5HzYq.s 			page 27


 348 0a7b C6F62A32 		.ascii	"\306\366*2\253\377\010\274\262\312d\024\323\342\010"
 348      ABFF08BC 
 348      B2CA6414 
 348      D3E208
 349 0a8a E66527C7 		.ascii	"\346e'\307\247\236\\\233\210J)C\035\204k\253Q\336\307"
 349      A79E5C9B 
 349      884A2943 
 349      1D846BAB 
 349      51DEC7
 350 0a9d EB94CDDA 		.ascii	"\353\224\315\332:\023\244\021\333\235\000:\177\221n"
 350      3A13A411 
 350      DB9D003A 
 350      7F916E
 351 0aac 93211FDD 		.ascii	"\223!\037\335\002\371\350V\350\347\266\003\335\001t"
 351      02F9E856 
 351      E8E7B603 
 351      DD0174
 352 0abb 17D07D4E 		.ascii	"\027\320}N\006~\034\362:\3666\017G\372\231\3565\243"
 352      067E1CF2 
 352      3AF6360F 
 352      47FA99EE 
 352      35A3
 353 0acd 7BC966C4 		.ascii	"{\311f\304\263\037\270\006\243\014\251\314\322\207_"
 353      B31FB806 
 353      A30CA9CC 
 353      D2875F
 354 0adc DC2A78F6 		.ascii	"\334*x\366C'xi\346\324\357\251\203\222\332\304v\345"
 354      43277869 
 354      E6D4EFA9 
 354      8392DAC4 
 354      76E5
 355 0aee B22EC10A 		.ascii	"\262.\301\012\3229e\255\301)\353\300)-\340\202\317\200"
 355      D23965AD 
 355      C129EBC0 
 355      292DE082 
 355      CF80
 356 0b00 B6023D40 		.ascii	"\266\002=@\017D\007rM\003\021\335\351[\215\213F\373"
 356      0F440772 
 356      4D0311DD 
 356      E95B8D8B 
 356      46FB
 357 0b12 C8CAF676 		.ascii	"\310\312\366v\244\217\363\011\333\327\332\204\355\010"
 357      A48FF309 
 357      DBD7DA84 
 357      ED08
 358 0b20 74DEC773 		.ascii	"t\336\307s-;\357t\023\266N\250r<u\302\326\251\275zt"
 358      2D3BEF74 
 358      13B64EA8 
 358      723C75C2 
 358      D6A9BD7A 
 359 0b35 3C73E73D 		.ascii	"<s\347=q\202\262\241\341\235\344(4Ao\301\353Q\222e\033"
 359      7182B2A1 
 359      E19DE428 
 359      34416FC1 
 359      EB519265 
 360 0b4a A5C6D9FF 		.ascii	"\245\306\331\377\015]\016\227Qj\355\273\343\006\337"
 360      0D5D0E97 
ARM GAS  /tmp/ccU5HzYq.s 			page 28


 360      516AEDBB 
 360      E306DF
 361 0b59 9D04DF9D 		.ascii	"\235\004\337\235\242=\325e\366\224\025?jBF;\352X\273"
 361      A23DD565 
 361      F694153F 
 361      6A42463B 
 361      EA58BB
 362 0b6c 36C153DF 		.ascii	"6\301S\337:\232\220g\302\243\3371\"\207\266\2232Yiw"
 362      3A9A9067 
 362      C2A3DF31 
 362      2287B693 
 362      32596977 
 363 0b80 E3F9861B 		.ascii	"\343\371\206\033\377\214_xJ\200\327g\344\271\364:6\320"
 363      FF8C5F78 
 363      4A80D767 
 363      E4B9F43A 
 363      36D0
 364 0b92 5993C795 		.ascii	"Y\223\307\225+B\201z\325A\306\321I\326\305\324\227\335"
 364      2B42817A 
 364      D541C6D1 
 364      49D6C5D4 
 364      97DD
 365 0ba4 1B81FFD9 		.ascii	"\033\201\377\331G\345\272\263\006\327\235\003\327u\322"
 365      47E5BAB3 
 365      06D79D03 
 365      D775D2
 366 0bb3 AE7BC76C 		.ascii	"\256{\307lj+~1[\327\241\316\274\363\205*\374V\372w\230"
 366      6A2B7E31 
 366      5BD7A1CE 
 366      BCF3852A 
 366      FC56FA77 
 367 0bc8 5AC86DA6 		.ascii	"Z\310m\246\234e\335\274\010^\377\345\205\177Y\011\257"
 367      9C65DDBC 
 367      085EFFE5 
 367      857F5909 
 367      AF
 368 0bd9 D5FC2F74 		.ascii	"\325\374/t;+\362\314#\373.\363\310\356\360\005m\302"
 368      3B2BF2CC 
 368      23FB2EF3 
 368      C8EEF005 
 368      6DC2
 369 0beb 54794CE3 		.ascii	"TyL\343z\222%\000\027=\337\201#jQ\032n\261s\360\327"
 369      7A922500 
 369      173DDF81 
 369      236A511A 
 369      6EB173F0 
 370 0c00 9EE4F3F1 		.ascii	"\236\344\363\361<\177\362\340\237t;\2567\333\321\304"
 370      3C7FF2E0 
 370      9F743BAE 
 370      37DBD1C4 
 371 0c10 971C8F73 		.ascii	"\227\034\217s\354\271\257\014Y\374%\310\342\277\201"
 371      ECB9AF0C 
 371      59FC25C8 
 371      E2BF81
 372 0c1f 2C7E1574 		.ascii	",~\025t\225\207\201\266\001\355\000z\201\366\353.\335"
 372      958781B6 
 372      01ED007A 
ARM GAS  /tmp/ccU5HzYq.s 			page 29


 372      81F6EB2E 
 372      DD
 373 0c30 8E5AE749 		.ascii	"\216Z\347I\277\343\211Y|\343\321\337=\005SLH\233\211"
 373      BFE38959 
 373      7CE3D1DF 
 373      3D05534C 
 373      489B89
 374 0c43 A1F93688 		.ascii	"\241\3716\210\2219\261\262zI3K\203\372C\322\367\013"
 374      9139B1B2 
 374      7A49334B 
 374      83FA43D2 
 374      F70B
 375 0c55 BFB8B38F 		.ascii	"\277\270\263\217]\007\316\277\002\215\357\266u\343\263"
 375      5D07CEBF 
 375      028DEFB6 
 375      75E3B3
 376 0c64 0782754F 		.ascii	"\007\202uOs\343[xu\017\013\271\342uG\235\355\272\253"
 376      73E35B78 
 376      750F0BB9 
 376      E275479D 
 376      EDBAAB
 377 0c77 7B3858EA 		.ascii	"{8X\352\344\331\313\020\202U\217\261\004\266\033c<\002"
 377      E4D9CB10 
 377      82558FB1 
 377      04B61B63 
 377      3C02
 378 0c89 6CC1FC71 		.ascii	"l\301\374q\213V\341j\\\303\025Pp\353i\270\351N\340\354"
 378      8B56E16A 
 378      5CC31550 
 378      70EB69B8 
 378      E94EE0EC 
 379 0c9d 067904B7 		.ascii	"\006y\004\267\221\206\253s\015GK\267\231\206kp\002g"
 379      9186AB73 
 379      0D474BB7 
 379      99866B70 
 379      0267
 380 0caf 37C94670 		.ascii	"7\311Fp[i\270e\256\341h\351\266\323p\253\234\300\331"
 380      5B69B865 
 380      AEE168E9 
 380      B6D370AB 
 380      9CC0D9
 381 0cc2 BDA35237 		.ascii	"\275\243R7A\331\241\302\351\215Ey\004\215\205c\336w"
 381      41D9A1C2 
 381      E98D4579 
 381      048D8563 
 381      DE77
 382 0cd4 2D15ADE4 		.ascii	"-\025\255\344AZ\311\315N\340\012\354]p\230\206\333\341"
 382      415AC9CD 
 382      4EE00AEC 
 382      5D709886 
 382      DBE1
 383 0ce6 1A8E96EE 		.ascii	"\032\216\226\356(\015\367\221\023\2704k\267\307U82\332"
 383      280DF791 
 383      13B8346B 
 383      B7C75538 
 383      32DA
 384 0cf8 E061599D 		.ascii	"\340aY\235\373\331\365\3343\274n\373\372\231^\353\276"
ARM GAS  /tmp/ccU5HzYq.s 			page 30


 384      FBD9F5DC 
 384      33BC6EFB 
 384      FA995EEB 
 384      BE
 385 0d09 5EDB38A6 		.ascii	"^\3338\246\325\265\016\264IN\322&9\351\004\316.\331"
 385      D5B50EB4 
 385      494ED226 
 385      39E904CE 
 385      2ED9
 386 0d1b 4170A769 		.ascii	"Ap\247i\270v\327p\264t\177\243\341\3169\201\263]\202"
 386      B876D770 
 386      B4747FA3 
 386      E1CE3981 
 386      B35D82
 387 0d2e 46A99806 		.ascii	"F\251\230\006\207=\3011\227\\\303\321\322]\246\245\273"
 387      873DC131 
 387      975CC3D1 
 387      D25DA6A5 
 387      BB
 388 0d3f ED046EA0 		.ascii	"\355\004n\240\275\355\256\322p\017\\\303\321\322]\247"
 388      BDEDAED2 
 388      700F5CC3 
 388      D1D25DA7 
 389 0d4f E126E63B 		.ascii	"\341&\346;\200{\305\336v7i\333\315p\015GKw\233\226n"
 389      807BC5DE 
 389      763769DB 
 389      CD700D47 
 389      4B779B96 
 390 0d64 9E13B861 		.ascii	"\236\023\270a\366\266\273K\303-r\015GKw\317\324\365"
 390      F6B6BB4B 
 390      C32D720D 
 390      474B77CF 
 390      D4F5
 391 0d76 3B811B65 		.ascii	";\201\033e!\235\325f\314\022x\366\006$\3027!m\272\015"
 391      219DD566 
 391      CC1278F6 
 391      0624C237 
 391      216DBA0D 
 392 0d8a F42ED07B 		.ascii	"\364.\320{@\037\000\225\275\230V\003\235\010t2\3207"
 392      401F0095 
 392      BD985603 
 392      9D087432 
 392      D037
 393 0d9c 804E053A 		.ascii	"\200N\005:\035\350,\240s\200\276\005\264\036\350\333"
 393      1DE82CA0 
 393      7380BE05 
 393      B41EE8DB 
 394 0dac 401B802E 		.ascii	"@\033\200.\004\332\010t1\320\245@\233\275\206\244\315"
 394      04DA0874 
 394      31D0A540 
 394      9BBD86A4 
 394      CD
 395 0dbd B45E73C5 		.ascii	"\264^s\305Fu\254\315\273^}\266\207?\264R.'\276\275t"
 395      4675ACCD 
 395      BB5E7DB6 
 395      873FB452 
 395      2E27BEBD 
ARM GAS  /tmp/ccU5HzYq.s 			page 31


 396 0dd2 701A7BA5 		.ascii	"p\032{\245\271F\306_\252\375\245Q\351eZ\204Z\235\246"
 396      B946C65F 
 396      AAFDA551 
 396      E9655A84 
 396      5A9DA6
 397 0de5 8F5CE14D 		.ascii	"\217\\\341M\375\012lM>\235\212\221\357\231\252\345\226"
 397      FD0A6C4D 
 397      3E9D8A91 
 397      EF99AAE5 
 397      96
 398 0df6 E5B25F85 		.ascii	"\345\262_\205\203\324\312k\375\025\024\301[\351\245"
 398      83D4CA6B 
 398      FD1514C1 
 398      5BE9A5
 399 0e05 BE6E3269 		.ascii	"\276n2ix\321f\326\201k\256N\321\260\271a\256\376\301"
 399      78D166D6 
 399      816BAE4E 
 399      D1B0B961 
 399      AEFEC1
 400 0e18 FC532EBE 		.ascii	"\374S.\276%[\343M\367-\231\252H\312\271\351\333\262"
 400      255BE34D 
 400      F72D99AA 
 400      48CAB9E9 
 400      DBB2
 401 0e2a 3D266B90 		.ascii	"=&k\220\257\311\016\231\277\360\373\037\033s\320_\223"
 401      AFC90E99 
 401      BFF0FB1F 
 401      1B73D05F 
 401      93
 402 0e3b B5ADDBCB 		.ascii	"\265\255\333\313\312\275\265\031\337A\300\266\257\011"
 402      CABDB519 
 402      DF41C0B6 
 402      AF09
 403 0e49 12919AED 		.ascii	"\022\221\232\355\230\341jx\223\360\013Oz\206D\021\362"
 403      98E16A78 
 403      93F00B4F 
 403      7A864411 
 403      F2
 404 0e5a 15DA9975 		.ascii	"\025\332\231uUM\254\354\323\277C\303\365\250\366\321"
 404      554DACEC 
 404      D3BF43C3 
 404      F5A8F6D1 
 405 0e6a 92D653F8 		.ascii	"\222\326S\370\253G;\373nNz\212\371QaE\\,\214\213\301"
 405      AB473BFB 
 405      6E4E7A8A 
 405      F9516145 
 405      5C2C8C8B 
 406 0e7f C2605968 		.ascii	"\302`Yht(\032/D?Q\"W\244\360\277\006\231\237\332\334"
 406      74281A2F 
 406      443F5122 
 406      57A4F0BF 
 406      06999FDA 
 407 0e94 128A04CB 		.ascii	"\022\212\004\313+J\004\365\2662\246\267\024\012\013"
 407      2B4A04F5 
 407      B632A6B7 
 407      140A0B
 408 0ea3 81B0C0C7 		.ascii	"\201\260\300\307+D!,D\244\200\344\373\355\253\257\027"
ARM GAS  /tmp/ccU5HzYq.s 			page 32


 408      2B44212C 
 408      44A480E4 
 408      FBEDABAF 
 408      17
 409 0eb4 1433FF6E 		.ascii	"\0243\377n\003\020\213\212R\274\360\327\303\207\026"
 409      03108B8A 
 409      52BCF0D7 
 409      C38716
 410 0ec3 0F1D5718 		.ascii	"\017\035W\030\214\206c\241rA\214\027\376\266\270\030"
 410      8C8663A1 
 410      72418C17 
 410      FEB6B818 
 411 0ed3 638E8F09 		.ascii	"c\216\217\011q\004\233-JA\214\245\012\252\361\214\010"
 411      71049B2D 
 411      4A418CA5 
 411      0AAAF18C 
 411      08
 412 0ee4 95E5A1D1 		.ascii	"\225\345\241\321\205\361\361\361\302@\\*\011E$tkN\005"
 412      85F1F1F1 
 412      C2405C2A 
 412      09452474 
 412      6B4E05
 413 0ef7 FAEFDF2F 		.ascii	"\372\357\337/ =guo\230G\334#Ba\240D\030\303W\224#H\302"
 413      203D6775 
 413      6F9847DC 
 413      234261A0 
 413      4418C357 
 414 0f0f A14720A0 		.ascii	"\241G \240U\364\216\026\342RVeT\214K\336r>.\371*\200"
 414      55F48E16 
 414      E2525665 
 414      548C4BDE 
 414      723E2EF9 
 415 0f25 371BC911 		.ascii	"7\033\311\021%PO\002\036\277|> \221Zp\030\254\010W\224"
 415      25504F02 
 415      1EBF7C3E 
 415      20915A70 
 415      18AC0857 
 416 0f3a F35268AC 		.ascii	"\363Rh\254\220\037,\0339\364\265\321\177\022\202\322"
 416      901F2C1B 
 416      39F4B5D1 
 416      7F1282D2 
 417 0f4a E04848F2 		.ascii	"\340HH\362H\341\330\343\370\322\010\211\027\245\241"
 417      48E1D8E3 
 417      F8D20889 
 417      17A5A1
 418 0f59 49DB8CCA 		.ascii	"I\333\214\312\211DC\221r$\317\367\324\342h\214*\015"
 418      89444391 
 418      7224CFF7 
 418      D4E2688C 
 418      2A0D
 419 0f6b 48E14008 		.ascii	"H\341@\010\001|\037\227\026\227\361\241\210\241xdt\224"
 419      017C1F97 
 419      1697F1A1 
 419      88A17864 
 419      7494
 420 0f7d 1701F7C5 		.ascii	"\027\001\367\305\244\337\323\031\275\023\017\226\225"
 420      A4DFD319 
ARM GAS  /tmp/ccU5HzYq.s 			page 33


 420      BD130F96 
 420      95
 421 0f8a 20359FCD 		.ascii	" 5\237\315|\343\370\270f\223\334`Y\000\237\012\341\200"
 421      7CE3F8B8 
 421      6693DC60 
 421      59009F0A 
 421      E180
 422 0f9c E4D78FF3 		.ascii	"\344\327\217\363"
 423 0fa0 44812F19 		.ascii	"D\201/\031\037(\017\305\221Q\036C\227\223\347=\2452"
 423      1F280FC5 
 423      91511E43 
 423      9793E73D 
 423      A532
 424 0fb2 7C120FFC 		.ascii	"|\022\017\374W\205P\201\354\324\013\225R\227r\3243\025"
 424      57855081 
 424      ECD40B95 
 424      529772D4 
 424      3315
 425 0fc4 4E3DF6C5 		.ascii	"N=\366\305\002\021a\234\204\376b\24206[\212\211\241"
 425      0211619C 
 425      84FE62A2 
 425      30365B8A 
 425      89A1
 426 0fd6 68403D0D 		.ascii	"h@=\015E\263\203\321\210\204J\237s\024<e\301\250(`\271"
 426      45B383D1 
 426      88844A9F 
 426      73143C65 
 426      C1A82860 
 427 0feb F1656439 		.ascii	"\361ed9)(\215\353\353\274f`\354\0138\204sD\241\224\027"
 427      29288DEB 
 427      EBBC6660 
 427      EC0B3884 
 427      7344A194 
 428 1000 91CA9CF8 		.ascii	"\221\312\234\370<'\376\033'\376\222\023_\340\304\001"
 428      3C27FE1B 
 428      27FE9213 
 428      5FE0C401 
 429 1010 9CF82B8F 		.ascii	"\234\370+\217\330\267\010\355}\271r\021\375\365\317"
 429      D8B708ED 
 429      7DB97211 
 429      FDF5CF
 430 101f 8A051087 		.ascii	"\212\005\020\207l\254@\245 \242\377hy\211 z\203e\274"
 430      6CAC40A5 
 430      20A2FF68 
 430      7989207A 
 430      8365BC
 431 1032 88B5E2C3 		.ascii	"\210\265\342\303H\337\270\304K\310\022\3318L\006 \275"
 431      48DFB8C4 
 431      4BC812D9 
 431      384C0620 
 431      BD
 432 1043 D5804147 		.ascii	"\325\200AG\350v(\313\226\302\321\022\001\316\307\224"
 432      E87628CB 
 432      96C2D112 
 432      01CEC794 
 433 1053 F3A5F16C 		.ascii	"\363\245\361lI\024\306\304\301\002\370 +\034/E\205$"
 433      4914C6C4 
ARM GAS  /tmp/ccU5HzYq.s 			page 34


 433      C102F820 
 433      2B1C2F45 
 433      8524
 434 1065 34517572 		.ascii	"4Qur\344\023K\306\243\242\034a\\H\012\"\000_\245\024"
 434      E4134BC6 
 434      A3A21C61 
 434      5C480A22 
 434      005FA514 
 435 1079 1DFDA758 		.ascii	"\035\375\247Xob`TU\020\205H\020\001gUJ\222\030\313\303"
 435      6F626054 
 435      55108548 
 435      10016755 
 435      4A9218CB 
 436 108e FE13C27C 		.ascii	"\376\023\302|\254\014i\372\263\314Q `Sd\023\267eA\003"
 436      AC0C69FA 
 436      B3CC5120 
 436      60536413 
 436      B7654103 
 437 10a2 C88A07D0 		.ascii	"\310\212\007\320?b\204\012c9\010/\\\201|\223\031+,\215"
 437      3F62840A 
 437      6339082F 
 437      5C817C93 
 437      192B2C8D 
 438 10b6 C3586115 		.ascii	"\303Xa\025\013\375G+#\310\\P\033)\022V\375_)\241\373"
 438      0BFD472B 
 438      23C85C50 
 438      1B291256 
 438      FD5F29A1 
 439 10cb 62B9C258 		.ascii	"b\271\302X\024\333a>\376gT\"T\342\003O,P\221\257E\221"
 439      14DB613E 
 439      FE675422 
 439      54E2034F 
 439      2C5091AF 
 440 10e1 1A753D0D 		.ascii	"\032u=\015q\205\257\370c\201J>$\205\"\245=b\001d\025"
 440      7185AFF8 
 440      63814A3E 
 440      248522A5 
 440      3D620164 
 441 10f6 55683844 		.ascii	"Uh8D\027\204\230\020A\235C)\272\013\261\300\367\367"
 441      17849810 
 441      419D4329 
 441      BA0BB1C0 
 441      F7F7
 442 1108 C0B6E5CB 		.ascii	"\300\266\345\313!\302\320\305X4Z\236-\252\342\371D\010"
 442      21C2D0C5 
 442      58345A9E 
 442      2DAAE2F9 
 442      4408
 443 111a BC2C115C 		.ascii	"\274,\021\\+\022\327\212\252k\375\350j\205\210\354*"
 443      2B12D78A 
 443      AA6BFDE8 
 443      6A8588EC 
 443      2A
 444 112b 658918E7 		.ascii	"e\211\030\347\361\261!Q\252\340\313\003\270[\0205\351"
 444      F1B12151 
 444      AAE0CB03 
 444      B85B1035 
ARM GAS  /tmp/ccU5HzYq.s 			page 35


 444      E9
 445 113c 9E40D259 		.ascii	"\236@\322Y\024\364\244\256\251\215\203\272\224=V\002"
 445      14F4A4AE 
 445      A98D83BA 
 445      943D5602 
 446 114c 53E07FDC 		.ascii	"S\340\177\334\026\374\270\275\251\375\015\272R\"\224"
 446      16FCB8BD 
 446      A9FD0DBA 
 446      522294
 447 115b 4B3C3A18 		.ascii	"K<:\030S\021\011\006\340\036|\344\303\367\362b.\372"
 447      53110906 
 447      E01E7CE4 
 447      C3F7F262 
 447      2EFA
 448 116d C35D15BE 		.ascii	"\303]\025\276\035]\302\354\362I\313-\021FW\224\252&"
 448      1D5DC2EC 
 448      F249CB2D 
 448      11465794 
 448      AA26
 449 117f 335EF1C7 		.ascii	"3^\361\307\370H(\210-\344)\031]\332#\214:\027\325\242"
 449      F8482888 
 449      2DE42919 
 449      5DDA238C 
 449      3A17D5A2 
 450 1193 BD50A713 		.ascii	"\275P\247\023\344Q_)\242\276,\032An\210\216\031\023"
 450      E4515F29 
 450      A2BE2C1A 
 450      416E888E 
 450      1913
 451 11a5 17244E0A 		.ascii	"\027$N\012\367\210K\177F%\245\350b~\250\244\\ >@\266"
 451      F7884B7F 
 451      4625A5E8 
 451      627EA8A4 
 451      5C203E40 
 452 11ba E7826596 		.ascii	"\347\202e\226\015\015iSX<t\304\340\021\311p\300\015"
 452      0D0D6953 
 452      583C74C4 
 452      E011C970 
 452      C00D
 453 11cc 2D187E1E 		.ascii	"-\030~\0367\264\227\177720\022\3655\336\342\221\303"
 453      37B4977F 
 453      37323012 
 453      F535DEE2 
 453      91C3
 454 11de 87F88A7F 		.ascii	"\207\370\212\177_\\\374\352H_\361\260\301\370o\320("
 454      5F5CFCEA 
 454      485FF1B0 
 454      C1F86FD0 
 454      28
 455 11ef 7C963362 		.ascii	"|\2263b\310\240A\303\360\371\220\021\257\243\277\354"
 455      C8A041C3 
 455      F0F99011 
 455      AFA3BFEC 
 456 11ff DFBC36E4 		.ascii	"\337\2746\344e\364\357\035V<bxV\361kC\207\025e\015\375"
 456      65F4EF1D 
 456      563C6278 
 456      56F16B43 
ARM GAS  /tmp/ccU5HzYq.s 			page 36


 456      8715650D 
 457 1214 F588FF28 		.ascii	"\365\210\377(\362\377\346\365W\213G\016~\355\325\"\377"
 457      F2FFE6F5 
 457      578B470E 
 457      7EEDD522 
 457      FF
 458 1225 F0412306 		.ascii	"\360A#\006\015\377\317A/\027Ay_(\357\253\227\367\325"
 458      0DFFCF41 
 458      2F174179 
 458      5F28EFAB 
 458      97F7D5
 459 1238 CBFB4279 		.ascii	"\313\373By?(\357\247\227\367\323\313\373Ay\177(\357"
 459      3F28EFA7 
 459      97F7D3CB 
 459      FB41797F 
 459      28EF
 460 124a AF97F7FF 		.ascii	"\257\227\367\377\001t.\350W*H\201`\264\002\365Ob`,_"
 460      01742EE8 
 460      572A4881 
 460      60B402F5 
 460      4F62602C 
 461 125f 5E815B32 		.ascii	"^\201[2j\322\321\230'\022\255\374?\242\331\311O"
 461      6AD2D198 
 461      2712ADFC 
 461      3FA2D9C9 
 461      4F
 462              		.text
 463              		.section	.gnu.lto_.symtab.f075de62a02b0b55,"",%progbits
 464 0000 6368544D 		.ascii	"chTMObjectInit\000\000\000\000\000\000\000\000\000\000"
 464      4F626A65 
 464      6374496E 
 464      69740000 
 464      00000000 
 465 0018 0000A100 		.ascii	"\000\000\241\000\000\000chTMStartMeasurementX\000\000"
 465      00006368 
 465      544D5374 
 465      6172744D 
 465      65617375 
 466 0035 00000000 		.ascii	"\000\000\000\000\000\000\000\000\000\000\316\000\000"
 466      00000000 
 466      0000CE00 
 466      00
 467 0042 00636854 		.ascii	"\000chTMStopMeasurementX\000\000\000\000\000\000\000"
 467      4D53746F 
 467      704D6561 
 467      73757265 
 467      6D656E74 
 468 005e 00000000 		.ascii	"\000\000\000\000\000\324\000\000\000_tm_init\000\000"
 468      00D40000 
 468      005F746D 
 468      5F696E69 
 468      740000
 469 0071 00000000 		.ascii	"\000\000\000\000\000\000\000\000\000\000\331\000\000"
 469      00000000 
 469      0000D900 
 469      00
 470 007e 00636854 		.ascii	"\000chTMChainMeasurementToX\000\000\000\000\000\000"
ARM GAS  /tmp/ccU5HzYq.s 			page 37


 470      4D436861 
 470      696E4D65 
 470      61737572 
 470      656D656E 
 471 009c 00000000 		.ascii	"\000\000\000\000\000\000\335\000\000\000ch\000\000\002"
 471      0000DD00 
 471      00006368 
 471      000002
 472 00ab 00000000 		.ascii	"\000\000\000\000\000\000\000\000\000\350\000\000\000"
 472      00000000 
 472      00E80000 
 472      00
 473              		.text
 474              		.section	.gnu.lto_.opts,"",%progbits
 475 0000 272D6D63 		.ascii	"'-mcpu=cortex-m4' '-mno-thumb-interwork' '-mthumb' "
 475      70753D63 
 475      6F727465 
 475      782D6D34 
 475      2720272D 
 476 0033 272D6767 		.ascii	"'-ggdb' '-O2' '-fomit-frame-pointer' '-falign-funct"
 476      64622720 
 476      272D4F32 
 476      2720272D 
 476      666F6D69 
 477 0066 696F6E73 		.ascii	"ions=16' '-ffunction-sections' '-fdata-sections' '-"
 477      3D313627 
 477      20272D66 
 477      66756E63 
 477      74696F6E 
 478 0099 666E6F2D 		.ascii	"fno-common' '-flto'\000"
 478      636F6D6D 
 478      6F6E2720 
 478      272D666C 
 478      746F2700 
 479              		.text
 480              		.cfi_sections	.debug_frame
 481              		.section	.text.chTMObjectInit,"ax",%progbits
 482              		.align	2
 483              		.p2align 4,,15
 484              		.global	chTMObjectInit
 485              		.thumb
 486              		.thumb_func
 487              		.type	chTMObjectInit, %function
 488              	chTMObjectInit:
 489              	.LFB231:
 490              		.file 1 "/usr/src/chibios/os/rt/src/chtm.c"
 491              		.loc 1 99 0
 492              		.cfi_startproc
 493              		@ args = 0, pretend = 0, frame = 0
 494              		@ frame_needed = 0, uses_anonymous_args = 0
 495              		@ link register save eliminated.
 496              	.LVL0:
 497              		.loc 1 105 0
 498 0000 0022     		movs	r2, #0
 499 0002 0023     		movs	r3, #0
 500 0004 C0E90423 		strd	r2, [r0, #16]
 501              		.loc 1 102 0
ARM GAS  /tmp/ccU5HzYq.s 			page 38


 502 0008 0023     		movs	r3, #0
 503 000a 4FF0FF32 		mov	r2, #-1
 504 000e 80E80C00 		stmia	r0, {r2, r3}
 505              		.loc 1 103 0
 506 0012 8360     		str	r3, [r0, #8]
 507              		.loc 1 104 0
 508 0014 C360     		str	r3, [r0, #12]
 509 0016 7047     		bx	lr
 510              		.cfi_endproc
 511              	.LFE231:
 512              		.size	chTMObjectInit, .-chTMObjectInit
 513              		.section	.text.chTMStartMeasurementX,"ax",%progbits
 514              		.align	2
 515              		.p2align 4,,15
 516              		.global	chTMStartMeasurementX
 517              		.thumb
 518              		.thumb_func
 519              		.type	chTMStartMeasurementX, %function
 520              	chTMStartMeasurementX:
 521              	.LFB232:
 522              		.loc 1 116 0
 523              		.cfi_startproc
 524              		@ args = 0, pretend = 0, frame = 0
 525              		@ frame_needed = 0, uses_anonymous_args = 0
 526              		@ link register save eliminated.
 527              	.LVL1:
 528              	.LBB14:
 529              	.LBB15:
 530              		.file 2 "/usr/src/chibios/os/rt/ports/ARMCMx/chcore_v7m.h"
 531              		.loc 2 548 0
 532 0000 014B     		ldr	r3, .L3
 533 0002 5B68     		ldr	r3, [r3, #4]
 534              	.LBE15:
 535              	.LBE14:
 536              		.loc 1 118 0
 537 0004 8360     		str	r3, [r0, #8]
 538 0006 7047     		bx	lr
 539              	.L4:
 540              		.align	2
 541              	.L3:
 542 0008 001000E0 		.word	-536866816
 543              		.cfi_endproc
 544              	.LFE232:
 545              		.size	chTMStartMeasurementX, .-chTMStartMeasurementX
 546              		.section	.text.chTMStopMeasurementX,"ax",%progbits
 547              		.align	2
 548              		.p2align 4,,15
 549              		.global	chTMStopMeasurementX
 550              		.thumb
 551              		.thumb_func
 552              		.type	chTMStopMeasurementX, %function
 553              	chTMStopMeasurementX:
 554              	.LFB233:
 555              		.loc 1 129 0
 556              		.cfi_startproc
 557              		@ args = 0, pretend = 0, frame = 0
 558              		@ frame_needed = 0, uses_anonymous_args = 0
ARM GAS  /tmp/ccU5HzYq.s 			page 39


 559              		@ link register save eliminated.
 560              	.LVL2:
 561              	.LBB16:
 562              	.LBB17:
 563              		.loc 2 548 0
 564 0000 0F4A     		ldr	r2, .L10
 565              	.LBE17:
 566              	.LBE16:
 567              		.loc 1 131 0
 568 0002 104B     		ldr	r3, .L10+4
 569              	.LBB19:
 570              	.LBB18:
 571              		.loc 2 548 0
 572 0004 5168     		ldr	r1, [r2, #4]
 573              	.LBE18:
 574              	.LBE19:
 575              		.loc 1 129 0
 576 0006 F0B4     		push	{r4, r5, r6, r7}
 577              		.cfi_def_cfa_offset 16
 578              		.cfi_offset 4, -16
 579              		.cfi_offset 5, -12
 580              		.cfi_offset 6, -8
 581              		.cfi_offset 7, -4
 582              	.LBB20:
 583              	.LBB21:
 584              		.loc 1 58 0
 585 0008 8668     		ldr	r6, [r0, #8]
 586              	.LBE21:
 587              	.LBE20:
 588              		.loc 1 131 0
 589 000a 5F6F     		ldr	r7, [r3, #116]
 590              	.LVL3:
 591              	.LBB24:
 592              	.LBB22:
 593              		.loc 1 57 0
 594 000c C568     		ldr	r5, [r0, #12]
 595              		.loc 1 61 0
 596 000e 4468     		ldr	r4, [r0, #4]
 597              		.loc 1 59 0
 598 0010 D0E90423 		ldrd	r2, [r0, #16]
 599              		.loc 1 58 0
 600 0014 891B     		subs	r1, r1, r6
 601              	.LVL4:
 602 0016 C91B     		subs	r1, r1, r7
 603              		.loc 1 59 0
 604 0018 5218     		adds	r2, r2, r1
 605 001a 43F10003 		adc	r3, r3, #0
 606              		.loc 1 57 0
 607 001e 0135     		adds	r5, r5, #1
 608              		.loc 1 61 0
 609 0020 A142     		cmp	r1, r4
 610              		.loc 1 57 0
 611 0022 C560     		str	r5, [r0, #12]
 612              		.loc 1 58 0
 613 0024 8160     		str	r1, [r0, #8]
 614              		.loc 1 59 0
 615 0026 C0E90423 		strd	r2, [r0, #16]
ARM GAS  /tmp/ccU5HzYq.s 			page 40


 616              		.loc 1 61 0
 617 002a 05D8     		bhi	.L9
 618              		.loc 1 64 0
 619 002c 0368     		ldr	r3, [r0]
 620 002e 9942     		cmp	r1, r3
 621              		.loc 1 65 0
 622 0030 38BF     		it	cc
 623 0032 0160     		strcc	r1, [r0]
 624              	.LBE22:
 625              	.LBE24:
 626              		.loc 1 132 0
 627 0034 F0BC     		pop	{r4, r5, r6, r7}
 628              	.LVL5:
 629 0036 7047     		bx	lr
 630              	.LVL6:
 631              	.L9:
 632              	.LBB25:
 633              	.LBB23:
 634              		.loc 1 62 0
 635 0038 4160     		str	r1, [r0, #4]
 636              	.LBE23:
 637              	.LBE25:
 638              		.loc 1 132 0
 639 003a F0BC     		pop	{r4, r5, r6, r7}
 640              	.LVL7:
 641 003c 7047     		bx	lr
 642              	.L11:
 643 003e 00BF     		.align	2
 644              	.L10:
 645 0040 001000E0 		.word	-536866816
 646 0044 00000000 		.word	ch
 647              		.cfi_endproc
 648              	.LFE233:
 649              		.size	chTMStopMeasurementX, .-chTMStopMeasurementX
 650              		.section	.text._tm_init,"ax",%progbits
 651              		.align	2
 652              		.p2align 4,,15
 653              		.global	_tm_init
 654              		.thumb
 655              		.thumb_func
 656              		.type	_tm_init, %function
 657              	_tm_init:
 658              	.LFB230:
 659              		.loc 1 79 0
 660              		.cfi_startproc
 661              		@ args = 0, pretend = 0, frame = 24
 662              		@ frame_needed = 0, uses_anonymous_args = 0
 663 0000 30B5     		push	{r4, r5, lr}
 664              		.cfi_def_cfa_offset 12
 665              		.cfi_offset 4, -12
 666              		.cfi_offset 5, -8
 667              		.cfi_offset 14, -4
 668              		.loc 1 85 0
 669 0002 0C4C     		ldr	r4, .L13
 670              		.loc 1 79 0
 671 0004 87B0     		sub	sp, sp, #28
 672              		.cfi_def_cfa_offset 40
ARM GAS  /tmp/ccU5HzYq.s 			page 41


 673              		.loc 1 85 0
 674 0006 0021     		movs	r1, #0
 675              	.LBB26:
 676              	.LBB27:
 677              		.loc 1 105 0
 678 0008 0022     		movs	r2, #0
 679 000a 0023     		movs	r3, #0
 680              	.LBE27:
 681              	.LBE26:
 682              		.loc 1 87 0
 683 000c 6846     		mov	r0, sp
 684              	.LBB30:
 685              	.LBB28:
 686              		.loc 1 101 0
 687 000e 4FF0FF35 		mov	r5, #-1
 688              		.loc 1 105 0
 689 0012 CDE90423 		strd	r2, [sp, #16]
 690              	.LBE28:
 691              	.LBE30:
 692              		.loc 1 85 0
 693 0016 6167     		str	r1, [r4, #116]
 694              	.LVL8:
 695              	.LBB31:
 696              	.LBB29:
 697              		.loc 1 102 0
 698 0018 0191     		str	r1, [sp, #4]
 699              		.loc 1 103 0
 700 001a 0291     		str	r1, [sp, #8]
 701              		.loc 1 104 0
 702 001c 0391     		str	r1, [sp, #12]
 703              		.loc 1 101 0
 704 001e 0095     		str	r5, [sp]
 705              	.LBE29:
 706              	.LBE31:
 707              		.loc 1 87 0
 708 0020 FFF7FEFF 		bl	chTMStartMeasurementX
 709              	.LVL9:
 710              		.loc 1 88 0
 711 0024 6846     		mov	r0, sp
 712 0026 FFF7FEFF 		bl	chTMStopMeasurementX
 713              	.LVL10:
 714              		.loc 1 89 0
 715 002a 029B     		ldr	r3, [sp, #8]
 716 002c 6367     		str	r3, [r4, #116]
 717              		.loc 1 90 0
 718 002e 07B0     		add	sp, sp, #28
 719              	.LVL11:
 720              		@ sp needed
 721 0030 30BD     		pop	{r4, r5, pc}
 722              	.LVL12:
 723              	.L14:
 724 0032 00BF     		.align	2
 725              	.L13:
 726 0034 00000000 		.word	ch
 727              		.cfi_endproc
 728              	.LFE230:
 729              		.size	_tm_init, .-_tm_init
ARM GAS  /tmp/ccU5HzYq.s 			page 42


 730              		.section	.text.chTMChainMeasurementToX,"ax",%progbits
 731              		.align	2
 732              		.p2align 4,,15
 733              		.global	chTMChainMeasurementToX
 734              		.thumb
 735              		.thumb_func
 736              		.type	chTMChainMeasurementToX, %function
 737              	chTMChainMeasurementToX:
 738              	.LFB234:
 739              		.loc 1 147 0
 740              		.cfi_startproc
 741              		@ args = 0, pretend = 0, frame = 0
 742              		@ frame_needed = 0, uses_anonymous_args = 0
 743              		@ link register save eliminated.
 744              	.LVL13:
 745              	.LBB32:
 746              	.LBB33:
 747              		.loc 2 548 0
 748 0000 0E4B     		ldr	r3, .L19
 749              	.LBE33:
 750              	.LBE32:
 751              		.loc 1 147 0
 752 0002 70B4     		push	{r4, r5, r6}
 753              		.cfi_def_cfa_offset 12
 754              		.cfi_offset 4, -12
 755              		.cfi_offset 5, -8
 756              		.cfi_offset 6, -4
 757              	.LBB35:
 758              	.LBB34:
 759              		.loc 2 548 0
 760 0004 5C68     		ldr	r4, [r3, #4]
 761              	.LBE34:
 762              	.LBE35:
 763              		.loc 1 150 0
 764 0006 8C60     		str	r4, [r1, #8]
 765              	.LVL14:
 766              	.LBB36:
 767              	.LBB37:
 768              		.loc 1 59 0
 769 0008 D0E90423 		ldrd	r2, [r0, #16]
 770              		.loc 1 58 0
 771 000c 8168     		ldr	r1, [r0, #8]
 772              	.LVL15:
 773              		.loc 1 57 0
 774 000e C668     		ldr	r6, [r0, #12]
 775              		.loc 1 61 0
 776 0010 4568     		ldr	r5, [r0, #4]
 777              		.loc 1 58 0
 778 0012 611A     		subs	r1, r4, r1
 779              		.loc 1 59 0
 780 0014 5218     		adds	r2, r2, r1
 781 0016 43F10003 		adc	r3, r3, #0
 782              		.loc 1 57 0
 783 001a 0136     		adds	r6, r6, #1
 784              		.loc 1 61 0
 785 001c A942     		cmp	r1, r5
 786              		.loc 1 57 0
ARM GAS  /tmp/ccU5HzYq.s 			page 43


 787 001e C660     		str	r6, [r0, #12]
 788              		.loc 1 58 0
 789 0020 8160     		str	r1, [r0, #8]
 790              		.loc 1 59 0
 791 0022 C0E90423 		strd	r2, [r0, #16]
 792              		.loc 1 61 0
 793 0026 05D8     		bhi	.L18
 794              		.loc 1 64 0
 795 0028 0368     		ldr	r3, [r0]
 796 002a 9942     		cmp	r1, r3
 797              		.loc 1 65 0
 798 002c 38BF     		it	cc
 799 002e 0160     		strcc	r1, [r0]
 800              	.LBE37:
 801              	.LBE36:
 802              		.loc 1 154 0
 803 0030 70BC     		pop	{r4, r5, r6}
 804              	.LVL16:
 805 0032 7047     		bx	lr
 806              	.LVL17:
 807              	.L18:
 808              	.LBB39:
 809              	.LBB38:
 810              		.loc 1 62 0
 811 0034 4160     		str	r1, [r0, #4]
 812              	.LBE38:
 813              	.LBE39:
 814              		.loc 1 154 0
 815 0036 70BC     		pop	{r4, r5, r6}
 816              	.LVL18:
 817 0038 7047     		bx	lr
 818              	.L20:
 819 003a 00BF     		.align	2
 820              	.L19:
 821 003c 001000E0 		.word	-536866816
 822              		.cfi_endproc
 823              	.LFE234:
 824              		.size	chTMChainMeasurementToX, .-chTMChainMeasurementToX
 825              		.text
 826              	.Letext0:
 827              		.file 3 "/usr/include/newlib/machine/_default_types.h"
 828              		.file 4 "/usr/include/newlib/sys/_stdint.h"
 829              		.file 5 "/usr/src/chibios/os/rt/ports/ARMCMx/compilers/GCC/chtypes.h"
 830              		.file 6 "/usr/src/chibios/os/rt/include/chsystypes.h"
 831              		.file 7 "/usr/src/chibios/os/rt/include/chschd.h"
 832              		.file 8 "/usr/src/chibios/os/ext/CMSIS/include/core_cm4.h"
 833              		.file 9 "/usr/src/chibios/os/rt/ports/ARMCMx/chcore.h"
 834              		.file 10 "/usr/src/chibios/os/rt/include/chtm.h"
 835              		.file 11 "/usr/src/chibios/os/rt/include/chsem.h"
 836              		.file 12 "/usr/src/chibios/os/rt/include/chmtx.h"