ARM GAS  /tmp/ccNI8AFB.s 			page 1


   1              		.syntax unified
   2              		.cpu cortex-m4
   3              		.fpu softvfp
   4              		.eabi_attribute 20, 1
   5              		.eabi_attribute 21, 1
   6              		.eabi_attribute 23, 3
   7              		.eabi_attribute 24, 1
   8              		.eabi_attribute 25, 1
   9              		.eabi_attribute 26, 1
  10              		.eabi_attribute 30, 2
  11              		.eabi_attribute 34, 1
  12              		.eabi_attribute 18, 4
  13              		.thumb
  14              		.file	"climate_conf.c"
  15              		.text
  16              	.Ltext0:
  17              		.section	.gnu.lto_.jmpfuncs.28dc610e7c3cf1dc,"",%progbits
  18 0000 789C6362 		.ascii	"x\234cb`b\300\006*\030!4\220bb\252f\370\325\320\321"
  18      6062C006 
  18      2A182134 
  18      906262AA 
  18      66F8D5D0 
  19 0015 2090C9C8 		.ascii	" \220\311\310\220\013\021\006\213\314\000\2110\3462"
  19      900B1106 
  19      8BCC0089 
  19      30E632
  20 0024 82855015 		.ascii	"\202\205P\0251a(b\006\21103E0f225,\350h`\001\312\203"
  20      31612862 
  20      06893033 
  20      45306632 
  20      32352CE8 
  21 003d 38CC7016 		.ascii	"8\314p\026K\023#B\305\014d\025\015\214p%L8\2248\020"
  21      4B132342 
  21      C50C6415 
  21      0D8C7025 
  21      4C389438 
  22 0052 54A1804D 		.ascii	"T\241\200M\005\212C\340\266 \271c\002\222\002\016\230"
  22      058A43E0 
  22      B620B963 
  22      0292020E 
  22      98
  23 0063 3C037679 		.ascii	"<\003vy\026\002\362L\004\344\031\221\344\031\000Z,>"
  23      1602F24C 
  23      04E41991 
  23      E419005A 
  23      2C3E
  24 0075 33       		.ascii	"3"
  25              		.text
  26              		.section	.gnu.lto_.inline.28dc610e7c3cf1dc,"",%progbits
  27 0000 789C6362 		.ascii	"x\234cb`b\300\006\262\2414#\003\203n?##X\025\333\002"
  27      6062C006 
  27      B2A13423 
  27      03836E3F 
  27      23235815 
  28 0016 79B06266 		.ascii	"y\260bf\036\006\020\037J\261\360\002\231\014\224\323"
  28      1E06101F 
  28      4AB1F002 
ARM GAS  /tmp/ccNI8AFB.s 			page 2


  28      990C94D3 
  29 0026 0C00F068 		.ascii	"\014\000\360h\002\316"
  29      02CE
  30              		.text
  31              		.section	.gnu.lto_.pureconst.28dc610e7c3cf1dc,"",%progbits
  32 0000 789C6362 		.ascii	"x\234cb`b`f\200\000F\006\011\000\000\203\000!"
  32      60626066 
  32      80004606 
  32      09000083 
  32      0021
  33              		.text
  34              		.section	.gnu.lto_baseInit.28dc610e7c3cf1dc,"",%progbits
  35 0000 789C9592 		.ascii	"x\234\225\222\317J\0031\020\306\347\233\335\265{\021"
  35      CF4A0331 
  35      10C6E79B 
  35      DDB57B11 
  36 0010 0411F456 		.ascii	"\004\021\364V\350]_\301\207\250\240')A!\340*\2507\017"
  36      E85D5FC1 
  36      87A8A027 
  36      294121E0 
  36      2AA8370F 
  37 0024 4DAB961E 		.ascii	"M\253\226\036\367T\004W]\351\331\366\001\004\365\352"
  37      F7540457 
  37      5DE9D9F6 
  37      0104F5EA 
  38 0034 45F10DF6 		.ascii	"E\361\015\3669\274\324d\377t\027#\324\015$\023&\363"
  38      39BCD464 
  38      FF741723 
  38      D40D2413 
  38      26F3
  39 0046 FB92990C 		.ascii	"\373\222\231\014\023\323\357\261\241g\313!Z\323\026"
  39      13D3EFB1 
  39      A167CB21 
  39      5AD316
  40 0055 0E81C30F 		.ascii	"\016\201\303\017\242\236\317\200\331\020\250\313\350"
  40      A29ECF80 
  40      D910A8CB 
  40      E8
  41 0062 EE218D9D 		.ascii	"\356!\215\235\362[2\233MF\203Q\204\210\227\265\307\243"
  41      F25B329B 
  41      4D468351 
  41      848897B5 
  41      C7A3
  42 0074 2BA5C226 		.ascii	"+\245\302&\221H#\332z5\330\016\330X\347\223\006\311"
  42      914823DA 
  42      7A35D80E 
  42      D858E793 
  42      06C9
  43 0086 ED181D3C 		.ascii	"\355\030\035<\302\323\307\027\364\255\206jEB\207g\212"
  43      C2D3C717 
  43      F4AD866A 
  43      45428767 
  43      8A
  44 0097 BB90800A 		.ascii	"\273\220\200\012\207\312M\267\214\324\350\347H\270D"
  44      87CA4DB7 
  44      8CD4E8E7 
  44      48B844
ARM GAS  /tmp/ccNI8AFB.s 			page 3


  45 00a6 1A8F23E7 		.ascii	"\032\217#\347\3774[\364]\015\332\265\350\373\032\264"
  45      FF345BF4 
  45      5D0DDAB5 
  45      E8FB1AB4 
  46 00b6 6FD10F0B 		.ascii	"o\321\017\013\351xN\253<q\224\370\323B\374\246\304\233"
  46      E9784EAB 
  46      3C7194F8 
  46      D342FCA6 
  46      C49B
  47 00c8 19DEE792 		.ascii	"\031\336\347\222\237\324\341\267m~Z\207/\336_\021H\236"
  47      9FD4E1B7 
  47      6D7E5A87 
  47      2FDE5F11 
  47      489E
  48 00da 2F177E7C 		.ascii	"/\027~|\245\000y\365\373\363\012\\'/\343\206%\340\011"
  48      A50079F5 
  48      FBF30A5C 
  48      272FE386 
  48      25E009
  49 00ed 643D6C3C 		.ascii	"d=l<\276\304R\000\312\203\214g]\242\021\240\270W\302"
  49      BEC45200 
  49      CA838C67 
  49      5DA211A0 
  49      B857C2
  50 0100 4F95E257 		.ascii	"O\225\342W;\227?\204\330\022r\252B_\324K\336[\205P6"
  50      3B973F84 
  50      D81272AA 
  50      425FD44B 
  50      DE5B8550 
  51 0115 DA3A1DDD 		.ascii	"\332:\035\335\350Fi\365\354Tl\211#\031t\316\017\366"
  51      E84669F5 
  51      EC546C89 
  51      231974CE 
  51      0FF6
  52 0127 C5C9F1E1 		.ascii	"\305\311\361\341\246\240\037dH\267@"
  52      A6A01F64 
  52      48B740
  53              		.text
  54              		.section	.gnu.lto_.symbol_nodes.28dc610e7c3cf1dc,"",%progbits
  55 0000 789C3DCA 		.ascii	"x\234=\312K\012\203@\020\204\341\352\032'\327\360\250"
  55      4B0A8340 
  55      1084E1EA 
  55      1A27D7F0 
  55      A8
  56 0011 2D0C313E 		.ascii	"-\0141>6\236@\020\2172{\317\240\270\365\014!F\013{\363"
  56      369E4010 
  56      8F327BCF 
  56      A0B8F50C 
  56      21460B7B 
  57 0026 F1534D10 		.ascii	"\361SM\020\023t\374\320\201a\001\334\307\306bG\302\021"
  57      1374FCD0 
  57      816101DC 
  57      C7C66247 
  57      C211
  58 0038 DF0C8587 		.ascii	"\337\014\205\207\330\023\377\252igYK\267\373\265\252"
  58      D813FFAA 
  58      6967594B 
ARM GAS  /tmp/ccNI8AFB.s 			page 4


  58      B7FBB5AA 
  59 0048 CC1A3A9F 		.ascii	"\314\032:\237\012x!\255\337\313Yf\271\313\264i\227Y"
  59      0A7821AD 
  59      DFCB5966 
  59      B9CBB469 
  59      9759
  60 005a EE32D547 		.ascii	"\3562\325G\031\0201\313|\212\037O\346,\344"
  60      191031CB 
  60      7C8A1F4F 
  60      E62CE4
  61              		.text
  62              		.section	.gnu.lto_.refs.28dc610e7c3cf1dc,"",%progbits
  63 0000 789C6362 		.ascii	"x\234cb`b\340f\200\000\026\006&F&&&f&\026\006\000\001"
  63      6062E066 
  63      80001606 
  63      26462626 
  63      26662616 
  64 0017 C40026   		.ascii	"\304\000&"
  65              		.text
  66              		.section	.gnu.lto_.decls.28dc610e7c3cf1dc,"",%progbits
  67 0000 789CED9A 		.ascii	"x\234\355\232{l\024\307\031\300gv\317\217\003\227@("
  67      7B6C14C7 
  67      19C06776 
  67      CF8F0397 
  67      4028
  68 0012 D4AD2271 		.ascii	"\324\255\"q\211\024Di\312\025\203\"R)\0108\273`\005"
  68      89144469 
  68      CA158322 
  68      52290838 
  68      BB6005
  69 0025 636B6D14 		.ascii	"ckm\024\242\252:\226\363\001W\316g\367\356\014B\252"
  69      A2AA3A96 
  69      F30157CE 
  69      67F7EE0C 
  69      42AA
  70 0037 9AB5A10E 		.ascii	"\232\265\241\016\220>\214!\2248\216k\247\230B\313\243"
  70      903E8C21 
  70      94388E6B 
  70      A79842CB 
  70      A3
  71 0048 010C0430 		.ascii	"\001\014\0040\271R(\017\253\304\211\213\215AN\016*\010"
  71      B952280F 
  71      ABC4898B 
  71      8D414E0E 
  71      2A08
  72 005a 42698278 		.ascii	"Bi\202x5\224\220\353\314\267\273w\263\353]\337\356\211"
  72      359490EB 
  72      CCB7BB77 
  72      B3EB5DDF 
  72      EE89
  73 006c 3FBB62BF 		.ascii	"?\273b\277\233]\317\374\346\233\357\373\346\265\003"
  73      9B5DCFFC 
  73      E69BEFFB 
  73      E6B503
  74 007b 87387400 		.ascii	"\2078t\000!\224 \327\212\211\010EyD\336 4\223\334Y\344"
  74      219420D7 
  74      8A890845 
ARM GAS  /tmp/ccNI8AFB.s 			page 5


  74      7944DE20 
  74      3493DC59 
  75 0090 6E27F741 		.ascii	"n'\367ArO\301\010\345\220\337\237\220_z\221lh1IW\222"
  75      724FC108 
  75      E590DF9F 
  75      905F7A91 
  75      6C683149 
  76 00a6 3B406E07 		.ascii	";@n\007y\256%\277\253\310\375*\271\353\224|\352E\363"
  76      79AE25BF 
  76      ABC8FD2A 
  76      B9EB947C 
  76      EA45F3
  77 00b9 3AC9EF7A 		.ascii	":\311\357z\254e\375\224\334\033p\252\036\277\216\037"
  77      AC65FD94 
  77      DC1B70AA 
  77      1EBF8E1F 
  78 00c9 50EAA07C 		.ascii	"P\352\240|\225\253\326\303^#\321\006I\252\227\332\032"
  78      95ABD6C3 
  78      5E23D106 
  78      49AA97DA 
  78      1A
  79 00da A4796746 		.ascii	"\244ygF=\2116J\344r\235\031\205\320\",\342QN\024\307"
  79      3D89364A 
  79      E4729D19 
  79      85D0222C 
  79      E2514E14 
  80 00ef 90CA73A2 		.ascii	"\220\312s\242\247H\356g\3216Ij\214_\273\331\303KR\256"
  80      A748EE67 
  80      D136496A 
  80      8C5FBBD9 
  80      C34B52AE 
  81 0103 88DFC14F 		.ascii	"\210\337\301O\222V\177\027\243\311h')\330(IW\277\203"
  81      92567F17 
  81      A3C96827 
  81      29D82849 
  81      57BF83
  82 0116 865E69B9 		.ascii	"\206^i\271\"\336\2069\"\267\023\236\210;\360d\271&)"
  82      22DE8639 
  82      22B7139E 
  82      883BF064 
  82      B92629
  83 0129 7EEFDADE 		.ascii	"~\357\332\336|\250\211\376\005)\1773\270\236Fm\244\031"
  83      7CA889FE 
  83      05297F33 
  83      B89E466D 
  83      A419
  84 013b B187FDAD 		.ascii	"\261\207\375\255\337\222\3421\234\203\032h\253\342\277"
  84      DF92E231 
  84      9C831A68 
  84      ABE2BF
  85 014a ACCFDF9A 		.ascii	"\254\317\337\232\2523W\255\022\247\232r\352\323|\311"
  85      AA3357AD 
  85      12A79A72 
  85      EAD37CC9 
  86 015a 21E29DA4 		.ascii	"!\342\235\244\010\207\"XS\203\005\012Ui\027)\313*\035"
  86      08872258 
  86      5383050A 
ARM GAS  /tmp/ccNI8AFB.s 			page 6


  86      55691729 
  86      CB2A1D
  87 016d EB6C7882 		.ascii	"\353lx\2022\351\373aT\346i\274p\350\027\262!\034\316"
  87      32E9FB61 
  87      54E669BC 
  87      70E817B2 
  87      211CCE
  88 0180 D4ABF538 		.ascii	"\324\253\3658\371\01639\233R\2579\205A\037\2613\225"
  88      F90E3339 
  88      9B52AF39 
  88      85411FB1 
  88      3395
  89 0192 4868BDCB 		.ascii	"Hh\275\313\352&\342\335\370Y\"\367`\336\260\030\207"
  89      EA26E2DD 
  89      F85922F7 
  89      60DEB018 
  89      87
  90 01a3 5A30565C 		.ascii	"Z0V\\`\324R%\231\252w\224\372\240\030?~\257\343\300"
  90      60D45225 
  90      99AA7794 
  90      FAA0183F 
  90      7EAFE3C0 
  91 01b7 CC37A5D8 		.ascii	"\3147\245\330Z\336(\246H\016\314\270\277\215W\201\323"
  91      5ADE28A6 
  91      480ECCB8 
  91      BF8D5781 
  91      D3
  92 01c8 93BE880D 		.ascii	"\223\276\210\015\364c\227A\250h\363\212\3700iG\332l"
  92      F4639741 
  92      A868F38A 
  92      F8306947 
  92      DA6C
  93 01da 34E3115D 		.ascii	"4\343\021]4\305:\373\362\250c\216X\212\245\017\373Z"
  93      34C53AFB 
  93      F2A8638E 
  93      588AA50F 
  93      FB5A
  94 01ec BF2DB59D 		.ascii	"\277-\265\235 \346Y\227jM\2626\227Z\231#\025Ko\274\276"
  94      20E65997 
  94      6A4DB236 
  94      975A9923 
  94      154B6FBC 
  95 0201 ED3908D6 		.ascii	"\3559\010\326.L]t\012k\303\311:\250\353\374\311\215"
  95      2E4C5D74 
  95      0A6BC3C9 
  95      3AA8EBFC 
  95      C98D
  96 0213 780DB198 		.ascii	"x\015\261\230\210c\200\372J\207\022q\216\223U\031\236"
  96      886380FA 
  96      4A871271 
  96      8E935519 
  96      9E
  97 0224 D50C9497 		.ascii	"\325\014\224\227\343L%\350\020\365\004\262\233\235C"
  97      E34C25E8 
  97      10F504B2 
  97      9B9D43
  98 0233 AF715831 		.ascii	"\257qX1\242\221\252\026\342\341\275\335/B<Xnxl`\323"
ARM GAS  /tmp/ccNI8AFB.s 			page 7


  98      A291AA16 
  98      E2E1BDDD 
  98      2F423C58 
  98      6E786C60 
  99 0248 38EAA053 		.ascii	"8\352\240S\320\350\215\234\276\321]\330v\2539\324l\273"
  99      D0E88D9C 
  99      BED15DD8 
  99      76AB39D4 
  99      6CBB
 100 025a 192E4D1C 		.ascii	"\031.M\034<P\342@\023\325\343\321\033\020\325d\200\300"
 100      3C50E240 
 100      13D5E3D1 
 100      1B10D564 
 100      80C0
 101 026c 5111CF1C 		.ascii	"Q\021\317\034g\010\247*v\343\361\220\342\345N+\342v"
 101      6708A72A 
 101      76E3F190 
 101      E2E54E2B 
 101      E276
 102 027e 4212F142 		.ascii	"B\022\361B>\331\214a\002\341\324\3471\016\"\352\034"
 102      3ED98C61 
 102      02E1D4E7 
 102      310E22EA 
 102      1C
 103 028f 29C4A176 		.ascii	")\304\241v\235E4*\311U\231\251\361\001\324j\024\361"
 103      9D45342A 
 103      C95599A9 
 103      F101D46A 
 103      14F1
 104 02a1 43FEC6A1 		.ascii	"C\376\306\241\275VL\226k\346y2j\267\357y\261\216z~\014"
 104      BD564C96 
 104      6BE67932 
 104      6AB7EF79 
 104      B18E7A7E 
 105 02b6 6A54BAA9 		.ascii	"jT\272\251:\014\314b\"`\026\213R\"\340\255>\354\022"
 105      3A0CCC62 
 105      2260168B 
 105      5222E0AD 
 105      3EEC12
 106 02c9 712FCC2B 		.ascii	"q/\314+\207u\315M\313\240\215\351\323w\372;\275\320"
 106      8775CD4D 
 106      CBA08DE9 
 106      D377FA3B 
 106      BDD0
 107 02db E9FBAC4D 		.ascii	"\351\373\254M \2756;}\354-9d\007 d\317>\236\220\355"
 107      20BD363B 
 107      7DEC2D39 
 107      64072064 
 107      CF3E9E90 
 108 02f0 054C5FA6 		.ascii	"\005L_\246=/\366;%d\345\270\021q\017L\256vx.#\033\251"
 108      3D2FF63B 
 108      2564E5B8 
 108      11710F4C 
 108      AE76782E 
 109 0307 4D489958 		.ascii	"MH\231X\304\3750\251\\\304O\0239Hd\362R@\022\247\362"
 109      C4FD30A9 
 109      5CC44F13 
ARM GAS  /tmp/ccNI8AFB.s 			page 8


 109      394864F2 
 109      524012A7 
 110 031c 5D4AE98F 		.ascii	"]J\351\217\360\030H\201\211\245d\360\222\034f\261\373"
 110      F0184881 
 110      89A564F0 
 110      921C66B1 
 110      FB
 111 032d B162C3A4 		.ascii	"\261b\303\244\242JB\355B\034\272\250\017Xm\265F\021"
 111      A24A42ED 
 111      421CBAA8 
 111      0F586DB5 
 111      4611
 112 033f EBD258AC 		.ascii	"\353\322X\254\245?\257QT\007\356+V\302\177\2229\254"
 112      A53FAF51 
 112      5407EE2B 
 112      56C27F92 
 112      39AC
 113 0351 8F855DB3 		.ascii	"\217\205]\263\002\373\201\201/\031\203\313\246>\012"
 113      02FB8181 
 113      2F1983CB 
 113      A63E0A
 114 0360 A63E06A6 		.ascii	"\246>\006\246>\011\362,\310\017A\306A^e]\300\241\233"
 114      3E09F22C 
 114      C80F41C6 
 114      415E655D 
 114      C0A19B
 115 0373 43E2519E 		.ascii	"C\342Q\236\373\030vj\222D\366\350f\336:HB.\251\300]"
 115      FB18766A 
 115      9244F6E8 
 115      66DE3A48 
 115      422EA9C0 
 116 0388 4EB7A6B0 		.ascii	"N\267\246\2609\3706_\002S\322\011A\304g\222k\304L\206"
 116      39F8365F 
 116      0253D209 
 116      41C46792 
 116      6BC44C86 
 117 039c A5FAD83E 		.ascii	"\245\372\330>\012\263\336\263\337\227{\366\015p\343"
 117      0AB3DEB3 
 117      DF977BF6 
 117      0D70E3
 118 03ab C3C7D3B3 		.ascii	"\303\307\323\263_\343-\330c\2308=zI^\340*\255\210wH"
 118      5FE32DD8 
 118      6398383D 
 118      7A495EE0 
 118      2AAD8877 
 119 03c0 6916B8B1 		.ascii	"i\026\270\261\316\336o\322V\374\033Z\361[\336pI\222"
 119      CEDE6FD2 
 119      56FC1B5A 
 119      F15BDE70 
 119      4992
 120 03d2 1E43D636 		.ascii	"\036C\3266[\276\0073\321-\000\265d\014\352:\337:\003"
 120      5BBE0733 
 120      D12D00B5 
 120      640CEA3A 
 120      DF3A03
 121 03e5 407700B4 		.ascii	"@w\000\264\215\327\333UoV\2545\353\260\313\335\307\230"
 121      8DD7DB55 
ARM GAS  /tmp/ccNI8AFB.s 			page 9


 121      6F56AC35 
 121      EBB0CBDD 
 121      C798
 122 03f7 57C49FE8 		.ascii	"W\304\237\350\303\315h=<\3324\334\342\367:;\345\365"
 122      C3CD683D 
 122      3CDA34DC 
 122      E2F73A3B 
 122      E5F5
 123 0409 8F3A14EC 		.ascii	"\217:\024\354\261\342|\015P\353\374;\315\277\037\272"
 123      B1E27C0D 
 123      50EBFC3B 
 123      CDBF1FBA 
 124 0419 12315809 		.ascii	"\0221X\011K\331*lq\312\356\003\227\357=\017v\377/\314"
 124      4BD92A6C 
 124      71CAEE03 
 124      97EF3D0F 
 124      76FF2FCC 
 125 042d AD5FF086 		.ascii	"\255_\360\206s\2539\206Z\344\221~n}t\011\346\326G\351"
 125      73AB3986 
 125      5AE4917E 
 125      6E7D7409 
 125      E6D647E9 
 126 0441 E7D6B56B 		.ascii	"\347\326\265kb\211K-\251\271u\315\260=P\304\307a\260"
 126      62894B2D 
 126      A9B975CD 
 126      B03D50C4 
 126      C761B0
 127 0454 B3D2A51E 		.ascii	"\263\322\245\036BK\036e6Y\022\265\032/\303\020#q\324"
 127      424B1E65 
 127      365912B5 
 127      1A2FC310 
 127      2371D4
 128 0467 4509DB30 		.ascii	"E\011\3330\227\006\326\304\302\3268,\300\314\306+\002"
 128      9706D6C4 
 128      C2D6382C 
 128      C0CCC62B 
 128      02
 129 0478 DBCCC2D6 		.ascii	"\333\314\302\326\331\206i5\333\302\302~m\005f\026\332"
 129      D9866935 
 129      DBC2C27E 
 129      6D056616 
 129      DA
 130 0489 04B69585 		.ascii	"\004\266\225\2055\332\206i5kfa\233\255\300\362\3155"
 130      35DA8669 
 130      356B6661 
 130      9BADC0F2 
 130      CD35
 131 049b 6B6161CD 		.ascii	"kaa\315\266aZ\315ZYX\233\025\230\313\\\263\277\260\260"
 131      B6615ACD 
 131      5A59589B 
 131      1598CB5C 
 131      B3BFB0B0 
 132 04af 0EDB30AD 		.ascii	"\016\3330\255f\373X\330N+\260I\346\232\035`a\273m\303"
 132      66FB58D8 
 132      4E2BB049 
 132      E69A1D60 
 132      61BB6DC3 
ARM GAS  /tmp/ccNI8AFB.s 			page 10


 133 04c3 B49A1D64 		.ascii	"\264\232\035da\357Z\201\031-~\000V\027;\374\343F1\265"
 133      61EF5A81 
 133      192D7E00 
 133      56173BFC 
 133      E34631B5 
 134 04d7 8790A9EA 		.ascii	"\207\220\251\352\350\204\265\241\305f\243\303\255I6"
 134      E884B5A1 
 134      C566A3C3 
 134      AD4936
 135 04e6 11B77063 		.ascii	"\021\267pc\224\324\307\354T\303<r\250S\257\267\026c"
 135      94D4C7EC 
 135      54C33C72 
 135      A853AFB7 
 135      1663
 136 04f8 A4B8D60A 		.ascii	"\244\270\326\012GX+\274g\305\012\263\314a\307X\330q"
 136      47582BBC 
 136      67C50AB3 
 136      CC61C758 
 136      D871
 137 050a 2BB079E6 		.ascii	"+\260y\346\316>\316\302N\330\206i5\353aa\247\255\300"
 137      CE3ECEC2 
 137      4ED88669 
 137      35EB6161 
 137      A7ADC0
 138 051d CACC35FB 		.ascii	"\312\3145\373\210\205\235\263\015c5\253\213\3753\025"
 138      88859DB3 
 138      0D6335AB 
 138      8BFD3315 
 139 052d 3974BFA8 		.ascii	"9t\277\250\011\035\335\236Q\223\215\011\235![\313?q"
 139      091DDD9E 
 139      51938D09 
 139      9D215BCB 
 139      3F71
 140 053f 76772E7F 		.ascii	"vw.\177\346\214w.\354Z$\225\2134\273G\337l\215\022J"
 140      E68C772E 
 140      EC5A2495 
 140      8B34BB47 
 140      DF6C8D12 
 141 0554 7291810D 		.ascii	"r\221\201\015\215.v\302\026\361\3270\243&`!_\317Q\271"
 141      8D2E76C2 
 141      16F1D730 
 141      A3266021 
 141      5FCF51B9 
 142 0568 166403C8 		.ascii	"\026d\003\310u 7\200\374\025\310\337\200l\004\331\004"
 142      75203780 
 142      FC15C8DF 
 142      806C04D9 
 142      04
 143 0579 7233C82D 		.ascii	"r3\310- \267\202l\006\331\012\262\015\344; \267\201"
 143      20B7826C 
 143      06D90AB2 
 143      0DE43B20 
 143      B781
 144 058b DC0E7207 		.ascii	"\334\016r\007ga\323\360\200\3354\\pXX'\031\315\001\306"
 144      6761D3F0 
 144      80DD345C 
 144      70585827 
ARM GAS  /tmp/ccNI8AFB.s 			page 11


 144      19CD01C6 
 145 059f 46D8CE18 		.ascii	"F\330\316\030\341\217`\204\035`\204N\220\327A~\012\362"
 145      E18F6084 
 145      1D60844E 
 145      90D7417E 
 145      0AF2
 146 05b1 3390F741 		.ascii	"3\220\367A~ie\257\323\236R;\355\207\364\344\216\364"
 146      7E6965AF 
 146      D39E523B 
 146      ED87F4E4 
 146      8EF4
 147 05c3 39945C94 		.ascii	"9\224\\\224\335\271\036w\313\337\371\366rtU\266)+\355"
 147      DDB91E77 
 147      CBDFF9F6 
 147      727455B6 
 147      292BED
 148 05d6 AA4CCBA1 		.ascii	"\252L\313\241J\354\343t\253\262\375\335\260*\243\357"
 148      4AECE374 
 148      ABB2FDDD 
 148      B02AA3EF 
 149 05e6 D3AFCA0E 		.ascii	"\323\257\312\016u\267(\337\012\224i\016T\240e3[N\035"
 149      75B728DF 
 149      0A94690E 
 149      54A06533 
 149      5B4E1D
 150 05f9 EE667AF1 		.ascii	"\356fz\361v\3330\227\006v\204\205\355\266\002\033f9"
 150      76DB3097 
 150      06768485 
 150      EDB6021B 
 150      6639
 151 060b 758C8575 		.ascii	"u\214\205u\332\206i5;\316\302\216Z\201\015\263\234\352"
 151      DA866935 
 151      3BCEC28E 
 151      5A810DB3 
 151      9CEA
 152 061d 6161EFDB 		.ascii	"aa\357\333\206\261\232\325\305>\351>\207\245\246\274"
 152      86B19AD5 
 152      C53EE93E 
 152      87A5A6BC 
 153 062d B1A84992 		.ascii	"\261\250I\222\352\244\266l\26356B\220E\0326\213\210"
 153      EAA4B66C 
 153      B3353642 
 153      90451A36 
 153      8B88
 154 063f 4F7063B5 		.ascii	"Opc\265\321\325\373\372(\032]\364}\372\357i\027\222"
 154      D1D5FBFA 
 154      281A5DF4 
 154      7DFAEF69 
 154      1792
 155 0651 D1256F81 		.ascii	"\321%o\201\376\006\215\243e3\210.R\371`\367HiC^\362"
 155      FE068DA3 
 155      6533882E 
 155      52F960F7 
 155      4869435E 
 156 0666 43E08E61 		.ascii	"C\340\216a\024?\255\357\026\375\335\234K~\235^\357\201"
 156      143FADEF 
 156      16FDDD9C 
ARM GAS  /tmp/ccNI8AFB.s 			page 12


 156      4B7E9D5E 
 156      EF81
 157 0678 EE967CA9 		.ascii	"\356\226|\251\355\257\352>[j\220&1u\215V\353\242\237"
 157      EDAFEA3E 
 157      5B6A9026 
 157      31758D56 
 157      EBA29F
 158 068b 74931BE4 		.ascii	"t\223\033\344\267\345\217\377\347\300\213\247t=\331"
 158      B7E58FFF 
 158      E7C08BA7 
 158      743DD9
 159 069a 3AA8EBFC 		.ascii	":\250\353\374\356\027\000\364\017\000\235\327\201D\314"
 159      EE1700F4 
 159      0F009DD7 
 159      8144CC
 160 06a9 EB36C8BC 		.ascii	"\3536\310\274v\223\304;S\211D\202G\3662sh\000*<\235"
 160      7693C43B 
 160      53894482 
 160      47F63273 
 160      68002A3C 
 161 06be 8A3F8D92 		.ascii	"\212?\215\222\351\\T\037\277}\375\306\224\255R\254\236"
 161      E95C541F 
 161      BF7DFDC6 
 161      94AD52AC 
 161      9E
 162 06cf 574D3168 		.ascii	"WM1h\0338Z\347\024\016\375+\323\270a\232\256~\343:\011"
 162      1B385AE7 
 162      140EFD2B 
 162      D3B8619A 
 162      AE7EE33A 
 163 06e4 D3D2DFD9 		.ascii	"\323\322\337\331i\211C\327\254\364\272a\366\035\267"
 163      698943D7 
 163      ACF4BA61 
 163      F61DB7
 164 06f3 D82E7CD3 		.ascii	"\330.|\3236\314\245\201\335fa_X\201\271\3145\273\313"
 164      36CCA581 
 164      DD66615F 
 164      5881B9CC 
 164      35BBCB
 165 0706 C2EEDA86 		.ascii	"\302\356\332\206i5\273\317\302\036X\201\031\355;\214"
 165      6935BBCF 
 165      C21E5881 
 165      19ED3B8C 
 166 0716 2E761E13 		.ascii	".v\036\023\361~\216\316\323\007\300S\007A\036\006y\004"
 166      F17E8ECE 
 166      D307C053 
 166      07411E06 
 166      7904
 167 0728 E43190C7 		.ascii	"\3441\220\307A\306@^\000\331\017r\000\344e+\313\216"
 167      41C6405E 
 167      00D90F72 
 167      00E4652B 
 167      CB8E
 168 073a 3D9CE6E4 		.ascii	"=\234\346\344\303\372\267\301\376&\37068\010vx4\244"
 168      C3FAB7C1 
 168      FE26F836 
 168      38087678 
ARM GAS  /tmp/ccNI8AFB.s 			page 13


 168      34A4
 169 074c 8B66F06D 		.ascii	"\213f\360mp\002j\225\332\342\361\267o_\314\337\262F"
 169      70026A95 
 169      DAE2F1B7 
 169      6F5FCCDF 
 169      B246
 170 075e 3A23DDA2 		.ascii	":#\335\242o\255\0373]\341\306+)\365d\211l\177\263\265"
 170      6FAD1F33 
 170      5DE1C62B 
 170      29F56489 
 170      6C7FB3B5 
 171 0772 7A213411 		.ascii	"z!4\021uP\236\264C\342\201F\363\307\271\011Z]\257r\034"
 171      75509EB4 
 171      43E28146 
 171      F3C7B909 
 171      5A5DAF72 
 172 0787 FB822A16 		.ascii	"\373\202*\026o\214w\354;\201\337\224N\254\225\022\211"
 172      6F8C77EC 
 172      3B81DF94 
 172      4EAC9512 
 172      89
 173 0798 576DE875 		.ascii	"Wm\350u\21538\376J>(\337\2125\307a\034\372\303\020\275"
 173      8D3338FE 
 173      4A3E28DF 
 173      8A35C761 
 173      1CFAC310 
 174 07ad E54C370C 		.ascii	"\345L7\014\025\273}=\366\363\014\024\273\251ULw\224"
 174      15BB7D3D 
 174      F6F30C14 
 174      BBA9554C 
 174      7794
 175 07bf B6D724A8 		.ascii	"\266\327$\250\025\367\377\247\351)\352\376\3178z*\267"
 175      15F7FFA7 
 175      E929EAFE 
 175      CF387A2A 
 175      B7
 176 07d0 2B5BEF7E 		.ascii	"+[\357~\032V\032\315uq\246\324i=\334\272\344p\273\005"
 176      1A561ACD 
 176      7571A6D4 
 176      693DDCBA 
 176      E470BB05 
 177 07e4 E1766848 		.ascii	"\341vhH}\031\204\033\353\222Ay\377\241\363\302I\023"
 177      7D19841B 
 177      EB924179 
 177      FFA1F3C2 
 177      4913
 178 07f6 2FDCD57A 		.ascii	"/\334\325z\341\031\324N\275p\367\312!,\265\223\011\356"
 178      E119D44E 
 178      BD70F7CA 
 178      212CB593 
 178      09EE
 179 0808 EB4402AB 		.ascii	"\353D\002\253\3771\344R\022\241.^5\377\353\203\322\356"
 179      FF31E452 
 179      12A12E5E 
 179      35FFEB83 
 179      D2EE
 180 081a A76894D4 		.ascii	"\247h\224\324\323Cz@O\003\336$\221. \305\010k\202\210"
ARM GAS  /tmp/ccNI8AFB.s 			page 14


 180      D3437A40 
 180      4F03DE24 
 180      912E20C5 
 180      086B8288 
 181 082e 0F012CAE 		.ascii	"\017\001,\256\207\015=\360\377R\201MG\373\245u\261\305"
 181      870D3DF0 
 181      FF52814D 
 181      47FBA575 
 181      B1C5
 182 0840 7249F950 		.ascii	"rI\371PCi}\333\256R$\237o(/$\372\215\367\254\362\374"
 182      43697DDB 
 182      AE52249F 
 182      6F282F24 
 182      FA8DF7AC 
 183 0856 0184A37C 		.ascii	"\001\204\243|\346!3f\311\347U\311\341K~\353\222O(\345"
 183      E6213366 
 183      C9E755C9 
 183      E14B7EEB 
 183      924F28E5 
 184 086a 732F0544 		.ascii	"s/\005D\225\033\324p\324R8\243R\\F\245x{\245\220|\262"
 184      951BD470 
 184      D45238A3 
 184      525C46A5 
 184      787BA590 
 185 0880 938C11F9 		.ascii	"\223\214\021\371\210'\371\230\364\356\275w\217M\256"
 185      8827F998 
 185      F4EEBD77 
 185      8F4DAE
 186 088f A37D4CFA 		.ascii	"\243}L\372\212\270$\351\337\033\351\375+\361C\375{q"
 186      8AB824E9 
 186      DF1BE9FD 
 186      2BF143FD 
 186      7B71
 187 08a1 AD917F3F 		.ascii	"\255\221\177?O\357\337z\376\377\376}\274\376\325\015"
 187      4FEFDF7A 
 187      FEFFFE7D 
 187      BCFED50D 
 188 08b1 7B745034 		.ascii	"{tP4\0330\327\363\306{]y\2147+\265!U\012Mt\327F\302"
 188      1B30D7F3 
 188      C67B5D79 
 188      8C372BB5 
 188      21550A4D 
 189 08c9 EE48D8E7 		.ascii	"\356H\330\347\366-\017,\011TG\334\344\337r1\350\016"
 189      F62D0F2C 
 189      095447DC 
 189      E4DF7231 
 189      E80E
 190 08db 847CC1DA 		.ascii	"\204|\301\332J\277\273fU\325\224\345\310Y\366rIa8\260"
 190      4ABFBB66 
 190      55D594E5 
 190      C859F672 
 190      496138B0 
 191 08ef D21FCE9E 		.ascii	"\322\037\316\236\273`\241\313\203f\230\225\253\251\016"
 191      BB60A1CB 
 191      83669895 
 191      ABA90E
 192 08fe 4723EEF2 		.ascii	"G#\356\362\212\222i\005\356\371\363\013\335\025\305"
ARM GAS  /tmp/ccNI8AFB.s 			page 15


 192      8A926905 
 192      EEF9F30B 
 192      DD15C5
 193 090d 252BA752 		.ascii	"%+\247R\2127\030\254$\244\021$\031\211\212Q\2777:\202"
 193      8A3718AC 
 193      24A41124 
 193      19898A51 
 193      BF373A82 
 194 0921 40BD0B17 		.ascii	"@\275\013\027\024/(\256\310\245\311\362\212\3222Z\221"
 194      142F28AE 
 194      C8A5C9F2 
 194      8AD2325A 
 194      91
 195 0932 57289A5D 		.ascii	"W(\232]\370J\026\344z\006\352Q\225\011\371W\005\003"
 195      F84A16E4 
 195      7A06EA51 
 195      9509F957 
 195      0503
 196 0944 4BDC91D5 		.ascii	"K\334\221\325\021\2677\022\255\014\204\242\204\230["
 196      11B73712 
 196      AD0C84A2 
 196      84985B
 197 0953 4B7EA715 		.ascii	"K~\247\025x\243\3377\312[%\022\005C~\267\267\322\277"
 197      78A3DF37 
 197      CA5B2512 
 197      05437EB7 
 197      B7D2BF
 198 0966 54AC0D46 		.ascii	"T\254\015F\275\321\3255\376\010U\304\353U\013:\227\206"
 198      BDD1D535 
 198      FE0855C4 
 198      EB550B3A 
 198      9786
 199 0978 FD3FABF5 		.ascii	"\375?\253\365\207|\253s\211v\276\020\311\224]\343\017"
 199      877CAB73 
 199      8976BE10 
 199      C9945DE3 
 199      0F
 200 0989 07AA2BBF 		.ascii	"\007\252+\277A\237\305`p\211\350[\341\215\346\252\311"
 200      419FC560 
 200      7089E85B 
 200      E18DE6AA 
 200      C9
 201 099a D1444BCF 		.ascii	"\321DK\317r1\024\362\007=\325\241\245\201eN\222\257"
 201      723114F2 
 201      073DD5A1 
 201      A581654E 
 201      92AF
 202 09ac AABA9234 		.ascii	"\252\272\2224\312A\177r}\362\037#\274/\\\340\250\014"
 202      CA417F72 
 202      7DF21F23 
 202      BC2F5CE0 
 202      A80C
 203 09be F8C3B45D 		.ascii	"\370\303\264]r\326l\037\374\214\244\344\345\241\252"
 203      72D66C1F 
 203      FC8CA4E4 
 203      E5A1AA
 204 09cd 08E1E6F8 		.ascii	"\010\341\346\370C\342\222\240\2772\017\336AI\362\222"
ARM GAS  /tmp/ccNI8AFB.s 			page 16


 204      43E292A0 
 204      BF320FDE 
 204      4149F292 
 205 09dd 6A378328 		.ascii	"j7\203('\353IRY\276`\265o\305\017\355Y>\022\255\242"
 205      27EB4952 
 205      59BE60B5 
 205      6FC50FED 
 205      593E12AD 
 206 09f2 4D0C502F 		.ascii	"M\014P/\216L>x\243\274G\230J\356\002Gy\211Gp\024\026"
 206      8E4C3E78 
 206      A3BC4798 
 206      4AEE0247 
 206      79894770 
 207 0a08 17095CB9 		.ascii	"\027\011\\\271\300\027\315\025\262<\236\022a*\310\002"
 207      C017CD15 
 207      B23C9E12 
 207      612AC802 
 208 0a18 87C75324 		.ascii	"\207\307S$\360\236\005\025|Y\271\207\237-\010\274\340"
 208      F09E0515 
 208      7C59B987 
 208      9F2D08BC 
 208      E0
 209 0a29 21CFA4C0 		.ascii	"!\317\244\300\234\302\012\201/\244%Kf\013\\\251\\j\032"
 209      9CC20A81 
 209      2FA4254B 
 209      660B5CA9 
 209      5C6A1A
 210 0a3c C9BF48E0 		.ascii	"\311\277H\340\011\377\005\253J\316-+.]Y\340\256\021"
 210      09FF05AB 
 210      4ACE2D2B 
 210      2E5D59E0 
 210      AE11
 211 0a4e 834A7CE4 		.ascii	"\203J|\344\311:.\253\011T\223\026\227\224\026\026\011"
 211      C93A2EAB 
 211      09549316 
 211      97941616 
 211      09
 212 0a5f D9A515AF 		.ascii	"\331\245\025\257\224\025\0119\245\345eEE\205BV\331\302"
 212      94150939 
 212      A5E56545 
 212      45854256 
 212      D9C2
 213 0a71 B242812F 		.ascii	"\262B\201/&wi\241\200_\006\377O}\236\304\223l)\232\344"
 213      267769A1 
 213      805F06FF 
 213      4F7D9EC4 
 213      936C299A 
 214 0a86 237E6A2E 		.ascii	"#~j.\277\030\306\363\034s\312\005\3011\337\363\222\340"
 214      BF18C6F3 
 214      1C73CA05 
 214      C131DFF3 
 214      92E0
 215 0a98 98FD2361 		.ascii	"\230\375#a>\025\363\3709\202\220\033\250\226]6\026\364"
 215      3E15F3F8 
 215      3982901B 
 215      A8965D36 
 215      16F4
ARM GAS  /tmp/ccNI8AFB.s 			page 17


 216 0aaa 0C06AA68 		.ascii	"\014\006\252hTR\357L\361\241\334%b\304_\034\012DiD\224"
 216      5452EF4C 
 216      F1A1DC25 
 216      62C45F1C 
 216      0A446944 
 217 0abf 47C57074 		.ascii	"G\305ptD\240\232*\037\250\364F\363\344d\225H\2357\316"
 217      44A09A2A 
 217      1FA8F446 
 217      F3E46495 
 217      489D37CE 
 218 0ad3 AB28EF25 		.ascii	"\253(\357%u.\013W\327\326Pj\026\3550Ss\250C\227.+\200"
 218      752E0B57 
 218      D7D6506A 
 218      16ED3053 
 218      73A84397 
 219 0aea A7E9D9F2 		.ascii	"\247\351\331\362\323\377\000)\305\363\265"
 219      D3FF0029 
 219      C5F3B5
 220              		.text
 221              		.section	.gnu.lto_.symtab.28dc610e7c3cf1dc,"",%progbits
 222 0000 62617365 		.ascii	"baseInit\000\000\000\000\000\000\000\000\000\000\000"
 222      496E6974 
 222      00000000 
 222      00000000 
 222      000000
 223 0013 00600100 		.ascii	"\000`\001\000\000PWMD4\000\000\002\000\000\000\000\000"
 223      0050574D 
 223      44340000 
 223      02000000 
 223      0000
 224 0025 00000000 		.ascii	"\000\000\000\000\177\001\000\000PWMD1\000\000\002\000"
 224      7F010000 
 224      50574D44 
 224      31000002 
 224      00
 225 0036 00000000 		.ascii	"\000\000\000\000\000\000\000\000u\001\000\000pwmSta"
 225      00000000 
 225      75010000 
 225      70776D53 
 225      7461
 226 0048 72740000 		.ascii	"rt\000\000\002\000\000\000\000\000\000\000\000\000d"
 226      02000000 
 226      00000000 
 226      000064
 227 0057 0100005F 		.ascii	"\001\000\000_pal_lld_setgroupmode\000\000\002\000\000"
 227      70616C5F 
 227      6C6C645F 
 227      73657467 
 227      726F7570 
 228 0074 00000000 		.ascii	"\000\000\000\000\000\000\000i\001\000\000"
 228      00000069 
 228      010000
 229              		.text
 230              		.section	.gnu.lto_.opts,"",%progbits
 231 0000 272D6D63 		.ascii	"'-mcpu=cortex-m4' '-mno-thumb-interwork' '-mthumb' "
 231      70753D63 
 231      6F727465 
ARM GAS  /tmp/ccNI8AFB.s 			page 18


 231      782D6D34 
 231      2720272D 
 232 0033 272D6767 		.ascii	"'-ggdb' '-O2' '-fomit-frame-pointer' '-falign-funct"
 232      64622720 
 232      272D4F32 
 232      2720272D 
 232      666F6D69 
 233 0066 696F6E73 		.ascii	"ions=16' '-ffunction-sections' '-fdata-sections' '-"
 233      3D313627 
 233      20272D66 
 233      66756E63 
 233      74696F6E 
 234 0099 666E6F2D 		.ascii	"fno-common' '-flto'\000"
 234      636F6D6D 
 234      6F6E2720 
 234      272D666C 
 234      746F2700 
 235              		.text
 236              		.cfi_sections	.debug_frame
 237              		.section	.text.baseInit,"ax",%progbits
 238              		.align	2
 239              		.p2align 4,,15
 240              		.global	baseInit
 241              		.thumb
 242              		.thumb_func
 243              		.type	baseInit, %function
 244              	baseInit:
 245              	.LFB261:
 246              		.file 1 "src/climate_conf.c"
 247              		.loc 1 67 0
 248              		.cfi_startproc
 249              		@ args = 0, pretend = 0, frame = 0
 250              		@ frame_needed = 0, uses_anonymous_args = 0
 251 0000 70B5     		push	{r4, r5, r6, lr}
 252              		.cfi_def_cfa_offset 16
 253              		.cfi_offset 4, -16
 254              		.cfi_offset 5, -12
 255              		.cfi_offset 6, -8
 256              		.cfi_offset 14, -4
 257              		.loc 1 75 0
 258 0002 204C     		ldr	r4, .L2
 259              		.loc 1 79 0
 260 0004 204E     		ldr	r6, .L2+4
 261              		.loc 1 85 0
 262 0006 214D     		ldr	r5, .L2+8
 263              		.loc 1 75 0
 264 0008 2046     		mov	r0, r4
 265 000a 0121     		movs	r1, #1
 266 000c 0022     		movs	r2, #0
 267 000e FFF7FEFF 		bl	_pal_lld_setgroupmode
 268              	.LVL0:
 269              		.loc 1 76 0
 270 0012 2046     		mov	r0, r4
 271 0014 0221     		movs	r1, #2
 272 0016 0022     		movs	r2, #0
 273 0018 FFF7FEFF 		bl	_pal_lld_setgroupmode
 274              	.LVL1:
ARM GAS  /tmp/ccNI8AFB.s 			page 19


 275              		.loc 1 77 0
 276 001c 2046     		mov	r0, r4
 277 001e 0421     		movs	r1, #4
 278 0020 0022     		movs	r2, #0
 279 0022 FFF7FEFF 		bl	_pal_lld_setgroupmode
 280              	.LVL2:
 281              		.loc 1 78 0
 282 0026 2046     		mov	r0, r4
 283 0028 0821     		movs	r1, #8
 284 002a 0022     		movs	r2, #0
 285 002c FFF7FEFF 		bl	_pal_lld_setgroupmode
 286              	.LVL3:
 287              		.loc 1 79 0
 288 0030 3046     		mov	r0, r6
 289 0032 8021     		movs	r1, #128
 290 0034 0122     		movs	r2, #1
 291 0036 FFF7FEFF 		bl	_pal_lld_setgroupmode
 292              	.LVL4:
 293              		.loc 1 85 0
 294 003a 2846     		mov	r0, r5
 295 003c 4FF48051 		mov	r1, #4096
 296 0040 4FF48172 		mov	r2, #258
 297 0044 FFF7FEFF 		bl	_pal_lld_setgroupmode
 298              	.LVL5:
 299              		.loc 1 86 0
 300 0048 2846     		mov	r0, r5
 301 004a 4FF40051 		mov	r1, #8192
 302 004e 4FF48172 		mov	r2, #258
 303 0052 FFF7FEFF 		bl	_pal_lld_setgroupmode
 304              	.LVL6:
 305              		.loc 1 87 0
 306 0056 2846     		mov	r0, r5
 307 0058 4FF48041 		mov	r1, #16384
 308 005c 4FF48172 		mov	r2, #258
 309 0060 FFF7FEFF 		bl	_pal_lld_setgroupmode
 310              	.LVL7:
 311              		.loc 1 91 0
 312 0064 3046     		mov	r0, r6
 313 0066 4FF40071 		mov	r1, #512
 314 006a 8222     		movs	r2, #130
 315 006c FFF7FEFF 		bl	_pal_lld_setgroupmode
 316              	.LVL8:
 317              		.loc 1 94 0
 318 0070 0748     		ldr	r0, .L2+12
 319 0072 0849     		ldr	r1, .L2+16
 320 0074 FFF7FEFF 		bl	pwmStart
 321              	.LVL9:
 322              		.loc 1 95 0
 323 0078 0748     		ldr	r0, .L2+20
 324 007a 0849     		ldr	r1, .L2+24
 325              		.loc 1 97 0
 326 007c BDE87040 		pop	{r4, r5, r6, lr}
 327              		.loc 1 95 0
 328 0080 FFF7FEBF 		b	pwmStart
 329              	.LVL10:
 330              	.L3:
 331              		.align	2
ARM GAS  /tmp/ccNI8AFB.s 			page 20


 332              	.L2:
 333 0084 00080240 		.word	1073874944
 334 0088 00100240 		.word	1073876992
 335 008c 000C0240 		.word	1073875968
 336 0090 00000000 		.word	PWMD4
 337 0094 00000000 		.word	.LANCHOR0
 338 0098 00000000 		.word	PWMD1
 339 009c 00000000 		.word	.LANCHOR1
 340              		.cfi_endproc
 341              	.LFE261:
 342              		.size	baseInit, .-baseInit
 343              		.section	.rodata.pwmcfg,"a",%progbits
 344              		.align	2
 345              		.set	.LANCHOR0,. + 0
 346              		.type	pwmcfg, %object
 347              		.size	pwmcfg, 52
 348              	pwmcfg:
 349 0000 20D61300 		.word	1300000
 350 0004 00010000 		.word	256
 351 0008 00000000 		.word	0
 352 000c 01000000 		.word	1
 353 0010 00000000 		.word	0
 354 0014 01000000 		.word	1
 355 0018 00000000 		.word	0
 356 001c 01000000 		.word	1
 357 0020 00000000 		.word	0
 358 0024 01000000 		.word	1
 359 0028 00000000 		.word	0
 360 002c 00000000 		.word	0
 361 0030 00000000 		.word	0
 362              		.section	.rodata.pwmcfg2,"a",%progbits
 363              		.align	2
 364              		.set	.LANCHOR1,. + 0
 365              		.type	pwmcfg2, %object
 366              		.size	pwmcfg2, 52
 367              	pwmcfg2:
 368 0000 20D61300 		.word	1300000
 369 0004 00010000 		.word	256
 370 0008 00000000 		.word	0
 371 000c 01000000 		.word	1
 372 0010 00000000 		.word	0
 373 0014 01000000 		.word	1
 374 0018 00000000 		.word	0
 375 001c 01000000 		.word	1
 376 0020 00000000 		.word	0
 377 0024 01000000 		.word	1
 378 0028 00000000 		.word	0
 379 002c 00000000 		.word	0
 380 0030 00000000 		.word	0
 381              		.text
 382              	.Letext0:
 383              		.file 2 "/usr/lib/gcc/arm-none-eabi/4.8/include/stddef.h"
 384              		.file 3 "/usr/include/newlib/machine/_default_types.h"
 385              		.file 4 "/usr/include/newlib/sys/_stdint.h"
 386              		.file 5 "/usr/src/chibios/os/rt/ports/ARMCMx/compilers/GCC/chtypes.h"
 387              		.file 6 "/usr/src/chibios/os/rt/include/chsystypes.h"
 388              		.file 7 "/usr/src/chibios/os/rt/include/chschd.h"
ARM GAS  /tmp/ccNI8AFB.s 			page 21


 389              		.file 8 "/usr/src/chibios/os/rt/ports/ARMCMx/chcore.h"
 390              		.file 9 "/usr/src/chibios/os/rt/ports/ARMCMx/chcore_v7m.h"
 391              		.file 10 "/usr/src/chibios/os/hal/ports/STM32/LLD/TIMv1/stm32_tim.h"
 392              		.file 11 "/usr/src/chibios/os/rt/include/chtm.h"
 393              		.file 12 "/usr/src/chibios/os/rt/include/chsem.h"
 394              		.file 13 "/usr/src/chibios/os/rt/include/chmtx.h"
 395              		.file 14 "/usr/src/chibios/os/hal/ports/STM32/LLD/GPIOv2/pal_lld.h"
 396              		.file 15 "/usr/src/chibios/os/hal/include/pwm.h"
 397              		.file 16 "/usr/src/chibios/os/hal/ports/STM32/LLD/TIMv1/pwm_lld.h"
 398              		.file 17 "/usr/src/chibios/os/ext/CMSIS/include/core_cm4.h"
 399              		.section	.debug_info,"",%progbits
 400              	.Ldebug_info0:
 401 0000 090C0000 		.4byte	0xc09
 402 0004 0400     		.2byte	0x4
 403 0006 00000000 		.4byte	.Ldebug_abbrev0
 404 000a 04       		.byte	0x4
 405 000b 01       		.uleb128 0x1
 406 000c EB020000 		.4byte	.LASF155
 407 0010 01       		.byte	0x1
 408 0011 9D020000 		.4byte	.LASF156
 409 0015 43020000 		.4byte	.LASF157
 410 0019 00000000 		.4byte	.Ldebug_ranges0+0
 411 001d 00000000 		.4byte	0
 412 0021 00000000 		.4byte	.Ldebug_line0
 413 0025 02       		.uleb128 0x2
 414 0026 04       		.byte	0x4
 415 0027 05       		.byte	0x5
 416 0028 696E7400 		.ascii	"int\000"
 417 002c 03       		.uleb128 0x3
 418 002d 1F000000 		.4byte	.LASF2
 419 0031 02       		.byte	0x2
 420 0032 D4       		.byte	0xd4
 421 0033 37000000 		.4byte	0x37
 422 0037 04       		.uleb128 0x4
 423 0038 04       		.byte	0x4
 424 0039 07       		.byte	0x7
 425 003a 0D020000 		.4byte	.LASF0
 426 003e 04       		.uleb128 0x4
 427 003f 01       		.byte	0x1
 428 0040 06       		.byte	0x6
 429 0041 2C010000 		.4byte	.LASF1
 430 0045 03       		.uleb128 0x3
 431 0046 36000000 		.4byte	.LASF3
 432 004a 03       		.byte	0x3
 433 004b 1D       		.byte	0x1d
 434 004c 50000000 		.4byte	0x50
 435 0050 04       		.uleb128 0x4
 436 0051 01       		.byte	0x1
 437 0052 08       		.byte	0x8
 438 0053 98040000 		.4byte	.LASF4
 439 0057 04       		.uleb128 0x4
 440 0058 02       		.byte	0x2
 441 0059 05       		.byte	0x5
 442 005a B6040000 		.4byte	.LASF5
 443 005e 03       		.uleb128 0x3
 444 005f 72050000 		.4byte	.LASF6
 445 0063 03       		.byte	0x3
ARM GAS  /tmp/ccNI8AFB.s 			page 22


 446 0064 2B       		.byte	0x2b
 447 0065 69000000 		.4byte	0x69
 448 0069 04       		.uleb128 0x4
 449 006a 02       		.byte	0x2
 450 006b 07       		.byte	0x7
 451 006c A1010000 		.4byte	.LASF7
 452 0070 03       		.uleb128 0x3
 453 0071 D6020000 		.4byte	.LASF8
 454 0075 03       		.byte	0x3
 455 0076 3F       		.byte	0x3f
 456 0077 7B000000 		.4byte	0x7b
 457 007b 04       		.uleb128 0x4
 458 007c 04       		.byte	0x4
 459 007d 05       		.byte	0x5
 460 007e 63010000 		.4byte	.LASF9
 461 0082 03       		.uleb128 0x3
 462 0083 BC050000 		.4byte	.LASF10
 463 0087 03       		.byte	0x3
 464 0088 41       		.byte	0x41
 465 0089 8D000000 		.4byte	0x8d
 466 008d 04       		.uleb128 0x4
 467 008e 04       		.byte	0x4
 468 008f 07       		.byte	0x7
 469 0090 52050000 		.4byte	.LASF11
 470 0094 04       		.uleb128 0x4
 471 0095 08       		.byte	0x8
 472 0096 05       		.byte	0x5
 473 0097 7A010000 		.4byte	.LASF12
 474 009b 03       		.uleb128 0x3
 475 009c 30040000 		.4byte	.LASF13
 476 00a0 03       		.byte	0x3
 477 00a1 5B       		.byte	0x5b
 478 00a2 A6000000 		.4byte	0xa6
 479 00a6 04       		.uleb128 0x4
 480 00a7 08       		.byte	0x8
 481 00a8 07       		.byte	0x7
 482 00a9 8D000000 		.4byte	.LASF14
 483 00ad 03       		.uleb128 0x3
 484 00ae 61060000 		.4byte	.LASF15
 485 00b2 04       		.byte	0x4
 486 00b3 14       		.byte	0x14
 487 00b4 45000000 		.4byte	0x45
 488 00b8 03       		.uleb128 0x3
 489 00b9 88010000 		.4byte	.LASF16
 490 00bd 04       		.byte	0x4
 491 00be 1A       		.byte	0x1a
 492 00bf 5E000000 		.4byte	0x5e
 493 00c3 03       		.uleb128 0x3
 494 00c4 90040000 		.4byte	.LASF17
 495 00c8 04       		.byte	0x4
 496 00c9 1F       		.byte	0x1f
 497 00ca 70000000 		.4byte	0x70
 498 00ce 03       		.uleb128 0x3
 499 00cf 29050000 		.4byte	.LASF18
 500 00d3 04       		.byte	0x4
 501 00d4 20       		.byte	0x20
 502 00d5 82000000 		.4byte	0x82
ARM GAS  /tmp/ccNI8AFB.s 			page 23


 503 00d9 03       		.uleb128 0x3
 504 00da 2D000000 		.4byte	.LASF19
 505 00de 04       		.byte	0x4
 506 00df 26       		.byte	0x26
 507 00e0 9B000000 		.4byte	0x9b
 508 00e4 05       		.uleb128 0x5
 509 00e5 C3000000 		.4byte	0xc3
 510 00e9 05       		.uleb128 0x5
 511 00ea CE000000 		.4byte	0xce
 512 00ee 03       		.uleb128 0x3
 513 00ef 12060000 		.4byte	.LASF20
 514 00f3 05       		.byte	0x5
 515 00f4 45       		.byte	0x45
 516 00f5 CE000000 		.4byte	0xce
 517 00f9 03       		.uleb128 0x3
 518 00fa A4060000 		.4byte	.LASF21
 519 00fe 05       		.byte	0x5
 520 00ff 48       		.byte	0x48
 521 0100 AD000000 		.4byte	0xad
 522 0104 03       		.uleb128 0x3
 523 0105 6C010000 		.4byte	.LASF22
 524 0109 05       		.byte	0x5
 525 010a 49       		.byte	0x49
 526 010b AD000000 		.4byte	0xad
 527 010f 03       		.uleb128 0x3
 528 0110 53040000 		.4byte	.LASF23
 529 0114 05       		.byte	0x5
 530 0115 4A       		.byte	0x4a
 531 0116 AD000000 		.4byte	0xad
 532 011a 03       		.uleb128 0x3
 533 011b 72040000 		.4byte	.LASF24
 534 011f 05       		.byte	0x5
 535 0120 4C       		.byte	0x4c
 536 0121 CE000000 		.4byte	0xce
 537 0125 03       		.uleb128 0x3
 538 0126 72020000 		.4byte	.LASF25
 539 012a 05       		.byte	0x5
 540 012b 4D       		.byte	0x4d
 541 012c C3000000 		.4byte	0xc3
 542 0130 03       		.uleb128 0x3
 543 0131 CA020000 		.4byte	.LASF26
 544 0135 05       		.byte	0x5
 545 0136 4F       		.byte	0x4f
 546 0137 CE000000 		.4byte	0xce
 547 013b 03       		.uleb128 0x3
 548 013c 07020000 		.4byte	.LASF27
 549 0140 05       		.byte	0x5
 550 0141 51       		.byte	0x51
 551 0142 C3000000 		.4byte	0xc3
 552 0146 03       		.uleb128 0x3
 553 0147 9E050000 		.4byte	.LASF28
 554 014b 06       		.byte	0x6
 555 014c 33       		.byte	0x33
 556 014d CE000000 		.4byte	0xce
 557 0151 03       		.uleb128 0x3
 558 0152 8E050000 		.4byte	.LASF29
 559 0156 06       		.byte	0x6
ARM GAS  /tmp/ccNI8AFB.s 			page 24


 560 0157 3F       		.byte	0x3f
 561 0158 5C010000 		.4byte	0x15c
 562 015c 06       		.uleb128 0x6
 563 015d 34020000 		.4byte	.LASF49
 564 0161 44       		.byte	0x44
 565 0162 07       		.byte	0x7
 566 0163 C2       		.byte	0xc2
 567 0164 49020000 		.4byte	0x249
 568 0168 07       		.uleb128 0x7
 569 0169 D6040000 		.4byte	.LASF30
 570 016d 07       		.byte	0x7
 571 016e C3       		.byte	0xc3
 572 016f 54020000 		.4byte	0x254
 573 0173 00       		.byte	0
 574 0174 07       		.uleb128 0x7
 575 0175 6B040000 		.4byte	.LASF31
 576 0179 07       		.byte	0x7
 577 017a C5       		.byte	0xc5
 578 017b 54020000 		.4byte	0x254
 579 017f 04       		.byte	0x4
 580 0180 07       		.uleb128 0x7
 581 0181 00010000 		.4byte	.LASF32
 582 0185 07       		.byte	0x7
 583 0186 C7       		.byte	0xc7
 584 0187 1A010000 		.4byte	0x11a
 585 018b 08       		.byte	0x8
 586 018c 07       		.uleb128 0x7
 587 018d CB060000 		.4byte	.LASF33
 588 0191 07       		.byte	0x7
 589 0192 C8       		.byte	0xc8
 590 0193 A4040000 		.4byte	0x4a4
 591 0197 0C       		.byte	0xc
 592 0198 07       		.uleb128 0x7
 593 0199 91010000 		.4byte	.LASF34
 594 019d 07       		.byte	0x7
 595 019e CA       		.byte	0xca
 596 019f 54020000 		.4byte	0x254
 597 01a3 10       		.byte	0x10
 598 01a4 07       		.uleb128 0x7
 599 01a5 FF030000 		.4byte	.LASF35
 600 01a9 07       		.byte	0x7
 601 01aa CB       		.byte	0xcb
 602 01ab 54020000 		.4byte	0x254
 603 01af 14       		.byte	0x14
 604 01b0 07       		.uleb128 0x7
 605 01b1 8E060000 		.4byte	.LASF36
 606 01b5 07       		.byte	0x7
 607 01b6 D2       		.byte	0xd2
 608 01b7 45070000 		.4byte	0x745
 609 01bb 18       		.byte	0x18
 610 01bc 07       		.uleb128 0x7
 611 01bd C0040000 		.4byte	.LASF37
 612 01c1 07       		.byte	0x7
 613 01c2 DD       		.byte	0xdd
 614 01c3 04010000 		.4byte	0x104
 615 01c7 1C       		.byte	0x1c
 616 01c8 07       		.uleb128 0x7
ARM GAS  /tmp/ccNI8AFB.s 			page 25


 617 01c9 E9040000 		.4byte	.LASF38
 618 01cd 07       		.byte	0x7
 619 01ce E1       		.byte	0xe1
 620 01cf F9000000 		.4byte	0xf9
 621 01d3 1D       		.byte	0x1d
 622 01d4 07       		.uleb128 0x7
 623 01d5 54060000 		.4byte	.LASF39
 624 01d9 07       		.byte	0x7
 625 01da E6       		.byte	0xe6
 626 01db 0F010000 		.4byte	0x10f
 627 01df 1E       		.byte	0x1e
 628 01e0 08       		.uleb128 0x8
 629 01e1 705F7500 		.ascii	"p_u\000"
 630 01e5 07       		.byte	0x7
 631 01e6 3101     		.2byte	0x131
 632 01e8 80060000 		.4byte	0x680
 633 01ec 20       		.byte	0x20
 634 01ed 09       		.uleb128 0x9
 635 01ee A1030000 		.4byte	.LASF40
 636 01f2 07       		.byte	0x7
 637 01f3 3601     		.2byte	0x136
 638 01f5 5A020000 		.4byte	0x25a
 639 01f9 24       		.byte	0x24
 640 01fa 09       		.uleb128 0x9
 641 01fb 29020000 		.4byte	.LASF41
 642 01ff 07       		.byte	0x7
 643 0200 3C01     		.2byte	0x13c
 644 0202 7E020000 		.4byte	0x27e
 645 0206 28       		.byte	0x28
 646 0207 09       		.uleb128 0x9
 647 0208 B2060000 		.4byte	.LASF42
 648 020c 07       		.byte	0x7
 649 020d 4001     		.2byte	0x140
 650 020f 25010000 		.4byte	0x125
 651 0213 30       		.byte	0x30
 652 0214 09       		.uleb128 0x9
 653 0215 1E050000 		.4byte	.LASF43
 654 0219 07       		.byte	0x7
 655 021a 4601     		.2byte	0x146
 656 021c 30010000 		.4byte	0x130
 657 0220 34       		.byte	0x34
 658 0221 09       		.uleb128 0x9
 659 0222 AC040000 		.4byte	.LASF44
 660 0226 07       		.byte	0x7
 661 0227 4D01     		.2byte	0x14d
 662 0229 3F070000 		.4byte	0x73f
 663 022d 38       		.byte	0x38
 664 022e 09       		.uleb128 0x9
 665 022f A8050000 		.4byte	.LASF45
 666 0233 07       		.byte	0x7
 667 0234 5101     		.2byte	0x151
 668 0236 1A010000 		.4byte	0x11a
 669 023a 3C       		.byte	0x3c
 670 023b 09       		.uleb128 0x9
 671 023c CA010000 		.4byte	.LASF46
 672 0240 07       		.byte	0x7
 673 0241 5801     		.2byte	0x158
ARM GAS  /tmp/ccNI8AFB.s 			page 26


 674 0243 31030000 		.4byte	0x331
 675 0247 40       		.byte	0x40
 676 0248 00       		.byte	0
 677 0249 03       		.uleb128 0x3
 678 024a B4030000 		.4byte	.LASF47
 679 024e 06       		.byte	0x6
 680 024f 44       		.byte	0x44
 681 0250 54020000 		.4byte	0x254
 682 0254 0A       		.uleb128 0xa
 683 0255 04       		.byte	0x4
 684 0256 51010000 		.4byte	0x151
 685 025a 03       		.uleb128 0x3
 686 025b 95060000 		.4byte	.LASF48
 687 025f 06       		.byte	0x6
 688 0260 49       		.byte	0x49
 689 0261 65020000 		.4byte	0x265
 690 0265 06       		.uleb128 0x6
 691 0266 78020000 		.4byte	.LASF50
 692 026a 04       		.byte	0x4
 693 026b 07       		.byte	0x7
 694 026c B0       		.byte	0xb0
 695 026d 7E020000 		.4byte	0x27e
 696 0271 07       		.uleb128 0x7
 697 0272 D6040000 		.4byte	.LASF30
 698 0276 07       		.byte	0x7
 699 0277 B1       		.byte	0xb1
 700 0278 54020000 		.4byte	0x254
 701 027c 00       		.byte	0
 702 027d 00       		.byte	0
 703 027e 03       		.uleb128 0x3
 704 027f 3B060000 		.4byte	.LASF51
 705 0283 06       		.byte	0x6
 706 0284 50       		.byte	0x50
 707 0285 89020000 		.4byte	0x289
 708 0289 06       		.uleb128 0x6
 709 028a 53000000 		.4byte	.LASF52
 710 028e 08       		.byte	0x8
 711 028f 07       		.byte	0x7
 712 0290 B7       		.byte	0xb7
 713 0291 AE020000 		.4byte	0x2ae
 714 0295 07       		.uleb128 0x7
 715 0296 D6040000 		.4byte	.LASF30
 716 029a 07       		.byte	0x7
 717 029b B8       		.byte	0xb8
 718 029c 54020000 		.4byte	0x254
 719 02a0 00       		.byte	0
 720 02a1 07       		.uleb128 0x7
 721 02a2 6B040000 		.4byte	.LASF31
 722 02a6 07       		.byte	0x7
 723 02a7 B9       		.byte	0xb9
 724 02a8 54020000 		.4byte	0x254
 725 02ac 04       		.byte	0x4
 726 02ad 00       		.byte	0
 727 02ae 03       		.uleb128 0x3
 728 02af 0D000000 		.4byte	.LASF53
 729 02b3 06       		.byte	0x6
 730 02b4 57       		.byte	0x57
ARM GAS  /tmp/ccNI8AFB.s 			page 27


 731 02b5 B9020000 		.4byte	0x2b9
 732 02b9 0B       		.uleb128 0xb
 733 02ba BC020000 		.4byte	.LASF54
 734 02be 1C       		.byte	0x1c
 735 02bf 07       		.byte	0x7
 736 02c0 9001     		.2byte	0x190
 737 02c2 15030000 		.4byte	0x315
 738 02c6 09       		.uleb128 0x9
 739 02c7 39050000 		.4byte	.LASF55
 740 02cb 07       		.byte	0x7
 741 02cc 9101     		.2byte	0x191
 742 02ce 7E020000 		.4byte	0x27e
 743 02d2 00       		.byte	0
 744 02d3 09       		.uleb128 0x9
 745 02d4 C8040000 		.4byte	.LASF56
 746 02d8 07       		.byte	0x7
 747 02d9 9201     		.2byte	0x192
 748 02db 1A010000 		.4byte	0x11a
 749 02df 08       		.byte	0x8
 750 02e0 09       		.uleb128 0x9
 751 02e1 07040000 		.4byte	.LASF57
 752 02e5 07       		.byte	0x7
 753 02e6 9401     		.2byte	0x194
 754 02e8 A4040000 		.4byte	0x4a4
 755 02ec 0C       		.byte	0xc
 756 02ed 09       		.uleb128 0x9
 757 02ee C2010000 		.4byte	.LASF58
 758 02f2 07       		.byte	0x7
 759 02f3 9701     		.2byte	0x197
 760 02f5 54020000 		.4byte	0x254
 761 02f9 10       		.byte	0x10
 762 02fa 09       		.uleb128 0x9
 763 02fb 28040000 		.4byte	.LASF59
 764 02ff 07       		.byte	0x7
 765 0300 9801     		.2byte	0x198
 766 0302 54020000 		.4byte	0x254
 767 0306 14       		.byte	0x14
 768 0307 09       		.uleb128 0x9
 769 0308 1E040000 		.4byte	.LASF60
 770 030c 07       		.byte	0x7
 771 030d 9B01     		.2byte	0x19b
 772 030f 54020000 		.4byte	0x254
 773 0313 18       		.byte	0x18
 774 0314 00       		.byte	0
 775 0315 03       		.uleb128 0x3
 776 0316 B3050000 		.4byte	.LASF61
 777 031a 06       		.byte	0x6
 778 031b 5C       		.byte	0x5c
 779 031c 20030000 		.4byte	0x320
 780 0320 0A       		.uleb128 0xa
 781 0321 04       		.byte	0x4
 782 0322 26030000 		.4byte	0x326
 783 0326 0C       		.uleb128 0xc
 784 0327 31030000 		.4byte	0x331
 785 032b 0D       		.uleb128 0xd
 786 032c 31030000 		.4byte	0x331
 787 0330 00       		.byte	0
ARM GAS  /tmp/ccNI8AFB.s 			page 28


 788 0331 0E       		.uleb128 0xe
 789 0332 04       		.byte	0x4
 790 0333 03       		.uleb128 0x3
 791 0334 5B040000 		.4byte	.LASF62
 792 0338 06       		.byte	0x6
 793 0339 61       		.byte	0x61
 794 033a 3E030000 		.4byte	0x33e
 795 033e 0B       		.uleb128 0xb
 796 033f FB040000 		.4byte	.LASF63
 797 0343 14       		.byte	0x14
 798 0344 07       		.byte	0x7
 799 0345 6B01     		.2byte	0x16b
 800 0347 8D030000 		.4byte	0x38d
 801 034b 09       		.uleb128 0x9
 802 034c 1A020000 		.4byte	.LASF64
 803 0350 07       		.byte	0x7
 804 0351 6C01     		.2byte	0x16c
 805 0353 57070000 		.4byte	0x757
 806 0357 00       		.byte	0
 807 0358 09       		.uleb128 0x9
 808 0359 DB010000 		.4byte	.LASF65
 809 035d 07       		.byte	0x7
 810 035e 6D01     		.2byte	0x16d
 811 0360 57070000 		.4byte	0x757
 812 0364 04       		.byte	0x4
 813 0365 09       		.uleb128 0x9
 814 0366 41050000 		.4byte	.LASF66
 815 036a 07       		.byte	0x7
 816 036b 6E01     		.2byte	0x16e
 817 036d 46010000 		.4byte	0x146
 818 0371 08       		.byte	0x8
 819 0372 09       		.uleb128 0x9
 820 0373 D1060000 		.4byte	.LASF67
 821 0377 07       		.byte	0x7
 822 0378 6F01     		.2byte	0x16f
 823 037a 15030000 		.4byte	0x315
 824 037e 0C       		.byte	0xc
 825 037f 09       		.uleb128 0x9
 826 0380 2A060000 		.4byte	.LASF68
 827 0384 07       		.byte	0x7
 828 0385 7101     		.2byte	0x171
 829 0387 31030000 		.4byte	0x331
 830 038b 10       		.byte	0x10
 831 038c 00       		.byte	0
 832 038d 03       		.uleb128 0x3
 833 038e C6000000 		.4byte	.LASF69
 834 0392 06       		.byte	0x6
 835 0393 66       		.byte	0x66
 836 0394 98030000 		.4byte	0x398
 837 0398 0B       		.uleb128 0xb
 838 0399 D0030000 		.4byte	.LASF70
 839 039d 10       		.byte	0x10
 840 039e 07       		.byte	0x7
 841 039f 7B01     		.2byte	0x17b
 842 03a1 DA030000 		.4byte	0x3da
 843 03a5 09       		.uleb128 0x9
 844 03a6 1A020000 		.4byte	.LASF64
ARM GAS  /tmp/ccNI8AFB.s 			page 29


 845 03aa 07       		.byte	0x7
 846 03ab 7C01     		.2byte	0x17c
 847 03ad 57070000 		.4byte	0x757
 848 03b1 00       		.byte	0
 849 03b2 09       		.uleb128 0x9
 850 03b3 DB010000 		.4byte	.LASF65
 851 03b7 07       		.byte	0x7
 852 03b8 7E01     		.2byte	0x17e
 853 03ba 57070000 		.4byte	0x757
 854 03be 04       		.byte	0x4
 855 03bf 09       		.uleb128 0x9
 856 03c0 41050000 		.4byte	.LASF66
 857 03c4 07       		.byte	0x7
 858 03c5 8001     		.2byte	0x180
 859 03c7 46010000 		.4byte	0x146
 860 03cb 08       		.byte	0x8
 861 03cc 09       		.uleb128 0x9
 862 03cd F3030000 		.4byte	.LASF71
 863 03d1 07       		.byte	0x7
 864 03d2 8801     		.2byte	0x188
 865 03d4 46010000 		.4byte	0x146
 866 03d8 0C       		.byte	0xc
 867 03d9 00       		.byte	0
 868 03da 03       		.uleb128 0x3
 869 03db 64000000 		.4byte	.LASF72
 870 03df 06       		.byte	0x6
 871 03e0 6B       		.byte	0x6b
 872 03e1 E5030000 		.4byte	0x3e5
 873 03e5 0B       		.uleb128 0xb
 874 03e6 7A040000 		.4byte	.LASF73
 875 03ea 04       		.byte	0x4
 876 03eb 07       		.byte	0x7
 877 03ec A201     		.2byte	0x1a2
 878 03ee 00040000 		.4byte	0x400
 879 03f2 09       		.uleb128 0x9
 880 03f3 C7050000 		.4byte	.LASF74
 881 03f7 07       		.byte	0x7
 882 03f8 AA01     		.2byte	0x1aa
 883 03fa 5D070000 		.4byte	0x75d
 884 03fe 00       		.byte	0
 885 03ff 00       		.byte	0
 886 0400 03       		.uleb128 0x3
 887 0401 88020000 		.4byte	.LASF75
 888 0405 06       		.byte	0x6
 889 0406 70       		.byte	0x70
 890 0407 0B040000 		.4byte	0x40b
 891 040b 0F       		.uleb128 0xf
 892 040c F1040000 		.4byte	.LASF76
 893 0410 5001     		.2byte	0x150
 894 0412 07       		.byte	0x7
 895 0413 C201     		.2byte	0x1c2
 896 0415 67040000 		.4byte	0x467
 897 0419 09       		.uleb128 0x9
 898 041a 5B060000 		.4byte	.LASF77
 899 041e 07       		.byte	0x7
 900 041f C601     		.2byte	0x1c6
 901 0421 AE020000 		.4byte	0x2ae
ARM GAS  /tmp/ccNI8AFB.s 			page 30


 902 0425 00       		.byte	0
 903 0426 09       		.uleb128 0x9
 904 0427 4D010000 		.4byte	.LASF78
 905 042b 07       		.byte	0x7
 906 042c CA01     		.2byte	0x1ca
 907 042e 8D030000 		.4byte	0x38d
 908 0432 1C       		.byte	0x1c
 909 0433 08       		.uleb128 0x8
 910 0434 64626700 		.ascii	"dbg\000"
 911 0438 07       		.byte	0x7
 912 0439 CE01     		.2byte	0x1ce
 913 043b DA030000 		.4byte	0x3da
 914 043f 2C       		.byte	0x2c
 915 0440 09       		.uleb128 0x9
 916 0441 BB000000 		.4byte	.LASF79
 917 0445 07       		.byte	0x7
 918 0446 D201     		.2byte	0x1d2
 919 0448 51010000 		.4byte	0x151
 920 044c 30       		.byte	0x30
 921 044d 08       		.uleb128 0x8
 922 044e 746D00   		.ascii	"tm\000"
 923 0451 07       		.byte	0x7
 924 0452 D701     		.2byte	0x1d7
 925 0454 75060000 		.4byte	0x675
 926 0458 74       		.byte	0x74
 927 0459 09       		.uleb128 0x9
 928 045a F8010000 		.4byte	.LASF80
 929 045e 07       		.byte	0x7
 930 045f E301     		.2byte	0x1e3
 931 0461 62070000 		.4byte	0x762
 932 0465 78       		.byte	0x78
 933 0466 00       		.byte	0
 934 0467 04       		.uleb128 0x4
 935 0468 04       		.byte	0x4
 936 0469 07       		.byte	0x7
 937 046a AB030000 		.4byte	.LASF81
 938 046e 10       		.uleb128 0x10
 939 046f CE000000 		.4byte	0xce
 940 0473 7E040000 		.4byte	0x47e
 941 0477 11       		.uleb128 0x11
 942 0478 67040000 		.4byte	0x467
 943 047c 01       		.byte	0x1
 944 047d 00       		.byte	0
 945 047e 10       		.uleb128 0x10
 946 047f CE000000 		.4byte	0xce
 947 0483 8E040000 		.4byte	0x48e
 948 0487 11       		.uleb128 0x11
 949 0488 67040000 		.4byte	0x467
 950 048c 03       		.byte	0x3
 951 048d 00       		.byte	0
 952 048e 03       		.uleb128 0x3
 953 048f D2010000 		.4byte	.LASF82
 954 0493 08       		.byte	0x8
 955 0494 65       		.byte	0x65
 956 0495 31030000 		.4byte	0x331
 957 0499 03       		.uleb128 0x3
 958 049a E0020000 		.4byte	.LASF83
ARM GAS  /tmp/ccNI8AFB.s 			page 31


 959 049e 08       		.byte	0x8
 960 049f 6D       		.byte	0x6d
 961 04a0 D9000000 		.4byte	0xd9
 962 04a4 06       		.uleb128 0x6
 963 04a5 E3050000 		.4byte	.LASF84
 964 04a9 04       		.byte	0x4
 965 04aa 08       		.byte	0x8
 966 04ab 89       		.byte	0x89
 967 04ac BD040000 		.4byte	0x4bd
 968 04b0 12       		.uleb128 0x12
 969 04b1 72313300 		.ascii	"r13\000"
 970 04b5 08       		.byte	0x8
 971 04b6 8A       		.byte	0x8a
 972 04b7 38050000 		.4byte	0x538
 973 04bb 00       		.byte	0
 974 04bc 00       		.byte	0
 975 04bd 06       		.uleb128 0x6
 976 04be 47000000 		.4byte	.LASF85
 977 04c2 24       		.byte	0x24
 978 04c3 09       		.byte	0x9
 979 04c4 F4       		.byte	0xf4
 980 04c5 38050000 		.4byte	0x538
 981 04c9 08       		.uleb128 0x8
 982 04ca 723400   		.ascii	"r4\000"
 983 04cd 09       		.byte	0x9
 984 04ce 0701     		.2byte	0x107
 985 04d0 8E040000 		.4byte	0x48e
 986 04d4 00       		.byte	0
 987 04d5 08       		.uleb128 0x8
 988 04d6 723500   		.ascii	"r5\000"
 989 04d9 09       		.byte	0x9
 990 04da 0801     		.2byte	0x108
 991 04dc 8E040000 		.4byte	0x48e
 992 04e0 04       		.byte	0x4
 993 04e1 08       		.uleb128 0x8
 994 04e2 723600   		.ascii	"r6\000"
 995 04e5 09       		.byte	0x9
 996 04e6 0901     		.2byte	0x109
 997 04e8 8E040000 		.4byte	0x48e
 998 04ec 08       		.byte	0x8
 999 04ed 08       		.uleb128 0x8
 1000 04ee 723700   		.ascii	"r7\000"
 1001 04f1 09       		.byte	0x9
 1002 04f2 0A01     		.2byte	0x10a
 1003 04f4 8E040000 		.4byte	0x48e
 1004 04f8 0C       		.byte	0xc
 1005 04f9 08       		.uleb128 0x8
 1006 04fa 723800   		.ascii	"r8\000"
 1007 04fd 09       		.byte	0x9
 1008 04fe 0B01     		.2byte	0x10b
 1009 0500 8E040000 		.4byte	0x48e
 1010 0504 10       		.byte	0x10
 1011 0505 08       		.uleb128 0x8
 1012 0506 723900   		.ascii	"r9\000"
 1013 0509 09       		.byte	0x9
 1014 050a 0C01     		.2byte	0x10c
 1015 050c 8E040000 		.4byte	0x48e
ARM GAS  /tmp/ccNI8AFB.s 			page 32


 1016 0510 14       		.byte	0x14
 1017 0511 08       		.uleb128 0x8
 1018 0512 72313000 		.ascii	"r10\000"
 1019 0516 09       		.byte	0x9
 1020 0517 0D01     		.2byte	0x10d
 1021 0519 8E040000 		.4byte	0x48e
 1022 051d 18       		.byte	0x18
 1023 051e 08       		.uleb128 0x8
 1024 051f 72313100 		.ascii	"r11\000"
 1025 0523 09       		.byte	0x9
 1026 0524 0E01     		.2byte	0x10e
 1027 0526 8E040000 		.4byte	0x48e
 1028 052a 1C       		.byte	0x1c
 1029 052b 08       		.uleb128 0x8
 1030 052c 6C7200   		.ascii	"lr\000"
 1031 052f 09       		.byte	0x9
 1032 0530 0F01     		.2byte	0x10f
 1033 0532 8E040000 		.4byte	0x48e
 1034 0536 20       		.byte	0x20
 1035 0537 00       		.byte	0
 1036 0538 0A       		.uleb128 0xa
 1037 0539 04       		.byte	0x4
 1038 053a BD040000 		.4byte	0x4bd
 1039 053e 13       		.uleb128 0x13
 1040 053f 60       		.byte	0x60
 1041 0540 0A       		.byte	0xa
 1042 0541 9E01     		.2byte	0x19e
 1043 0543 4A060000 		.4byte	0x64a
 1044 0547 08       		.uleb128 0x8
 1045 0548 43523100 		.ascii	"CR1\000"
 1046 054c 0A       		.byte	0xa
 1047 054d 9F01     		.2byte	0x19f
 1048 054f E9000000 		.4byte	0xe9
 1049 0553 00       		.byte	0
 1050 0554 08       		.uleb128 0x8
 1051 0555 43523200 		.ascii	"CR2\000"
 1052 0559 0A       		.byte	0xa
 1053 055a A001     		.2byte	0x1a0
 1054 055c E9000000 		.4byte	0xe9
 1055 0560 04       		.byte	0x4
 1056 0561 09       		.uleb128 0x9
 1057 0562 6D020000 		.4byte	.LASF86
 1058 0566 0A       		.byte	0xa
 1059 0567 A101     		.2byte	0x1a1
 1060 0569 E9000000 		.4byte	0xe9
 1061 056d 08       		.byte	0x8
 1062 056e 09       		.uleb128 0x9
 1063 056f 1A000000 		.4byte	.LASF87
 1064 0573 0A       		.byte	0xa
 1065 0574 A201     		.2byte	0x1a2
 1066 0576 E9000000 		.4byte	0xe9
 1067 057a 0C       		.byte	0xc
 1068 057b 08       		.uleb128 0x8
 1069 057c 535200   		.ascii	"SR\000"
 1070 057f 0A       		.byte	0xa
 1071 0580 A301     		.2byte	0x1a3
 1072 0582 E9000000 		.4byte	0xe9
ARM GAS  /tmp/ccNI8AFB.s 			page 33


 1073 0586 10       		.byte	0x10
 1074 0587 08       		.uleb128 0x8
 1075 0588 45475200 		.ascii	"EGR\000"
 1076 058c 0A       		.byte	0xa
 1077 058d A401     		.2byte	0x1a4
 1078 058f E9000000 		.4byte	0xe9
 1079 0593 14       		.byte	0x14
 1080 0594 09       		.uleb128 0x9
 1081 0595 1A010000 		.4byte	.LASF88
 1082 0599 0A       		.byte	0xa
 1083 059a A501     		.2byte	0x1a5
 1084 059c E9000000 		.4byte	0xe9
 1085 05a0 18       		.byte	0x18
 1086 05a1 09       		.uleb128 0x9
 1087 05a2 20010000 		.4byte	.LASF89
 1088 05a6 0A       		.byte	0xa
 1089 05a7 A601     		.2byte	0x1a6
 1090 05a9 E9000000 		.4byte	0xe9
 1091 05ad 1C       		.byte	0x1c
 1092 05ae 09       		.uleb128 0x9
 1093 05af 75010000 		.4byte	.LASF90
 1094 05b3 0A       		.byte	0xa
 1095 05b4 A701     		.2byte	0x1a7
 1096 05b6 E9000000 		.4byte	0xe9
 1097 05ba 20       		.byte	0x20
 1098 05bb 08       		.uleb128 0x8
 1099 05bc 434E5400 		.ascii	"CNT\000"
 1100 05c0 0A       		.byte	0xa
 1101 05c1 A801     		.2byte	0x1a8
 1102 05c3 E9000000 		.4byte	0xe9
 1103 05c7 24       		.byte	0x24
 1104 05c8 08       		.uleb128 0x8
 1105 05c9 50534300 		.ascii	"PSC\000"
 1106 05cd 0A       		.byte	0xa
 1107 05ce A901     		.2byte	0x1a9
 1108 05d0 E9000000 		.4byte	0xe9
 1109 05d4 28       		.byte	0x28
 1110 05d5 08       		.uleb128 0x8
 1111 05d6 41525200 		.ascii	"ARR\000"
 1112 05da 0A       		.byte	0xa
 1113 05db AA01     		.2byte	0x1aa
 1114 05dd E9000000 		.4byte	0xe9
 1115 05e1 2C       		.byte	0x2c
 1116 05e2 08       		.uleb128 0x8
 1117 05e3 52435200 		.ascii	"RCR\000"
 1118 05e7 0A       		.byte	0xa
 1119 05e8 AB01     		.2byte	0x1ab
 1120 05ea E9000000 		.4byte	0xe9
 1121 05ee 30       		.byte	0x30
 1122 05ef 08       		.uleb128 0x8
 1123 05f0 43435200 		.ascii	"CCR\000"
 1124 05f4 0A       		.byte	0xa
 1125 05f5 AC01     		.2byte	0x1ac
 1126 05f7 4A060000 		.4byte	0x64a
 1127 05fb 34       		.byte	0x34
 1128 05fc 09       		.uleb128 0x9
 1129 05fd E9000000 		.4byte	.LASF91
ARM GAS  /tmp/ccNI8AFB.s 			page 34


 1130 0601 0A       		.byte	0xa
 1131 0602 AD01     		.2byte	0x1ad
 1132 0604 E9000000 		.4byte	0xe9
 1133 0608 44       		.byte	0x44
 1134 0609 08       		.uleb128 0x8
 1135 060a 44435200 		.ascii	"DCR\000"
 1136 060e 0A       		.byte	0xa
 1137 060f AE01     		.2byte	0x1ae
 1138 0611 E9000000 		.4byte	0xe9
 1139 0615 48       		.byte	0x48
 1140 0616 09       		.uleb128 0x9
 1141 0617 89050000 		.4byte	.LASF92
 1142 061b 0A       		.byte	0xa
 1143 061c AF01     		.2byte	0x1af
 1144 061e E9000000 		.4byte	0xe9
 1145 0622 4C       		.byte	0x4c
 1146 0623 08       		.uleb128 0x8
 1147 0624 4F5200   		.ascii	"OR\000"
 1148 0627 0A       		.byte	0xa
 1149 0628 B001     		.2byte	0x1b0
 1150 062a E9000000 		.4byte	0xe9
 1151 062e 50       		.byte	0x50
 1152 062f 09       		.uleb128 0x9
 1153 0630 26010000 		.4byte	.LASF93
 1154 0634 0A       		.byte	0xa
 1155 0635 B101     		.2byte	0x1b1
 1156 0637 E9000000 		.4byte	0xe9
 1157 063b 54       		.byte	0x54
 1158 063c 09       		.uleb128 0x9
 1159 063d 19050000 		.4byte	.LASF94
 1160 0641 0A       		.byte	0xa
 1161 0642 B201     		.2byte	0x1b2
 1162 0644 4F060000 		.4byte	0x64f
 1163 0648 58       		.byte	0x58
 1164 0649 00       		.byte	0
 1165 064a 05       		.uleb128 0x5
 1166 064b 7E040000 		.4byte	0x47e
 1167 064f 05       		.uleb128 0x5
 1168 0650 6E040000 		.4byte	0x46e
 1169 0654 14       		.uleb128 0x14
 1170 0655 B0020000 		.4byte	.LASF95
 1171 0659 0A       		.byte	0xa
 1172 065a B301     		.2byte	0x1b3
 1173 065c 3E050000 		.4byte	0x53e
 1174 0660 15       		.uleb128 0x15
 1175 0661 04       		.byte	0x4
 1176 0662 0B       		.byte	0xb
 1177 0663 38       		.byte	0x38
 1178 0664 75060000 		.4byte	0x675
 1179 0668 07       		.uleb128 0x7
 1180 0669 D1050000 		.4byte	.LASF96
 1181 066d 0B       		.byte	0xb
 1182 066e 3C       		.byte	0x3c
 1183 066f EE000000 		.4byte	0xee
 1184 0673 00       		.byte	0
 1185 0674 00       		.byte	0
 1186 0675 03       		.uleb128 0x3
ARM GAS  /tmp/ccNI8AFB.s 			page 35


 1187 0676 0D040000 		.4byte	.LASF97
 1188 067a 0B       		.byte	0xb
 1189 067b 3D       		.byte	0x3d
 1190 067c 60060000 		.4byte	0x660
 1191 0680 16       		.uleb128 0x16
 1192 0681 04       		.byte	0x4
 1193 0682 07       		.byte	0x7
 1194 0683 FA       		.byte	0xfa
 1195 0684 DD060000 		.4byte	0x6dd
 1196 0688 17       		.uleb128 0x17
 1197 0689 26000000 		.4byte	.LASF98
 1198 068d 07       		.byte	0x7
 1199 068e 0101     		.2byte	0x101
 1200 0690 25010000 		.4byte	0x125
 1201 0694 17       		.uleb128 0x17
 1202 0695 B2000000 		.4byte	.LASF99
 1203 0699 07       		.byte	0x7
 1204 069a 0801     		.2byte	0x108
 1205 069c 25010000 		.4byte	0x125
 1206 06a0 17       		.uleb128 0x17
 1207 06a1 87060000 		.4byte	.LASF100
 1208 06a5 07       		.byte	0x7
 1209 06a6 0F01     		.2byte	0x10f
 1210 06a8 31030000 		.4byte	0x331
 1211 06ac 17       		.uleb128 0x17
 1212 06ad ED030000 		.4byte	.LASF101
 1213 06b1 07       		.byte	0x7
 1214 06b2 1601     		.2byte	0x116
 1215 06b4 DD060000 		.4byte	0x6dd
 1216 06b8 17       		.uleb128 0x17
 1217 06b9 22020000 		.4byte	.LASF102
 1218 06bd 07       		.byte	0x7
 1219 06be 1E01     		.2byte	0x11e
 1220 06c0 08070000 		.4byte	0x708
 1221 06c4 17       		.uleb128 0x17
 1222 06c5 32050000 		.4byte	.LASF103
 1223 06c9 07       		.byte	0x7
 1224 06ca 2701     		.2byte	0x127
 1225 06cc 3F070000 		.4byte	0x73f
 1226 06d0 17       		.uleb128 0x17
 1227 06d1 CF040000 		.4byte	.LASF104
 1228 06d5 07       		.byte	0x7
 1229 06d6 2F01     		.2byte	0x12f
 1230 06d8 30010000 		.4byte	0x130
 1231 06dc 00       		.byte	0
 1232 06dd 0A       		.uleb128 0xa
 1233 06de 04       		.byte	0x4
 1234 06df 49020000 		.4byte	0x249
 1235 06e3 06       		.uleb128 0x6
 1236 06e4 0C050000 		.4byte	.LASF105
 1237 06e8 0C       		.byte	0xc
 1238 06e9 0C       		.byte	0xc
 1239 06ea 34       		.byte	0x34
 1240 06eb 08070000 		.4byte	0x708
 1241 06ef 07       		.uleb128 0x7
 1242 06f0 99010000 		.4byte	.LASF106
 1243 06f4 0C       		.byte	0xc
ARM GAS  /tmp/ccNI8AFB.s 			page 36


 1244 06f5 35       		.byte	0x35
 1245 06f6 7E020000 		.4byte	0x27e
 1246 06fa 00       		.byte	0
 1247 06fb 07       		.uleb128 0x7
 1248 06fc A6040000 		.4byte	.LASF107
 1249 0700 0C       		.byte	0xc
 1250 0701 37       		.byte	0x37
 1251 0702 3B010000 		.4byte	0x13b
 1252 0706 08       		.byte	0x8
 1253 0707 00       		.byte	0
 1254 0708 0A       		.uleb128 0xa
 1255 0709 04       		.byte	0x4
 1256 070a E3060000 		.4byte	0x6e3
 1257 070e 06       		.uleb128 0x6
 1258 070f 4B060000 		.4byte	.LASF108
 1259 0713 10       		.byte	0x10
 1260 0714 0D       		.byte	0xd
 1261 0715 39       		.byte	0x39
 1262 0716 3F070000 		.4byte	0x73f
 1263 071a 07       		.uleb128 0x7
 1264 071b F8000000 		.4byte	.LASF109
 1265 071f 0D       		.byte	0xd
 1266 0720 3A       		.byte	0x3a
 1267 0721 7E020000 		.4byte	0x27e
 1268 0725 00       		.byte	0
 1269 0726 07       		.uleb128 0x7
 1270 0727 C3060000 		.4byte	.LASF110
 1271 072b 0D       		.byte	0xd
 1272 072c 3C       		.byte	0x3c
 1273 072d 54020000 		.4byte	0x254
 1274 0731 08       		.byte	0x8
 1275 0732 07       		.uleb128 0x7
 1276 0733 97050000 		.4byte	.LASF111
 1277 0737 0D       		.byte	0xd
 1278 0738 3E       		.byte	0x3e
 1279 0739 7D070000 		.4byte	0x77d
 1280 073d 0C       		.byte	0xc
 1281 073e 00       		.byte	0
 1282 073f 0A       		.uleb128 0xa
 1283 0740 04       		.byte	0x4
 1284 0741 0E070000 		.4byte	0x70e
 1285 0745 0A       		.uleb128 0xa
 1286 0746 04       		.byte	0x4
 1287 0747 4B070000 		.4byte	0x74b
 1288 074b 18       		.uleb128 0x18
 1289 074c 50070000 		.4byte	0x750
 1290 0750 04       		.uleb128 0x4
 1291 0751 01       		.byte	0x1
 1292 0752 08       		.byte	0x8
 1293 0753 6D050000 		.4byte	.LASF112
 1294 0757 0A       		.uleb128 0xa
 1295 0758 04       		.byte	0x4
 1296 0759 33030000 		.4byte	0x333
 1297 075d 05       		.uleb128 0x5
 1298 075e 45070000 		.4byte	0x745
 1299 0762 10       		.uleb128 0x10
 1300 0763 99040000 		.4byte	0x499
ARM GAS  /tmp/ccNI8AFB.s 			page 37


 1301 0767 72070000 		.4byte	0x772
 1302 076b 11       		.uleb128 0x11
 1303 076c 67040000 		.4byte	0x467
 1304 0770 1A       		.byte	0x1a
 1305 0771 00       		.byte	0
 1306 0772 03       		.uleb128 0x3
 1307 0773 F0010000 		.4byte	.LASF113
 1308 0777 0D       		.byte	0xd
 1309 0778 34       		.byte	0x34
 1310 0779 0E070000 		.4byte	0x70e
 1311 077d 0A       		.uleb128 0xa
 1312 077e 04       		.byte	0x4
 1313 077f 72070000 		.4byte	0x772
 1314 0783 04       		.uleb128 0x4
 1315 0784 01       		.byte	0x1
 1316 0785 02       		.byte	0x2
 1317 0786 8A040000 		.4byte	.LASF114
 1318 078a 15       		.uleb128 0x15
 1319 078b 04       		.byte	0x4
 1320 078c 0E       		.byte	0xe
 1321 078d B3       		.byte	0xb3
 1322 078e AB070000 		.4byte	0x7ab
 1323 0792 12       		.uleb128 0x12
 1324 0793 73657400 		.ascii	"set\000"
 1325 0797 0E       		.byte	0xe
 1326 0798 B4       		.byte	0xb4
 1327 0799 B8000000 		.4byte	0xb8
 1328 079d 00       		.byte	0
 1329 079e 07       		.uleb128 0x7
 1330 079f E7030000 		.4byte	.LASF115
 1331 07a3 0E       		.byte	0xe
 1332 07a4 B5       		.byte	0xb5
 1333 07a5 B8000000 		.4byte	0xb8
 1334 07a9 02       		.byte	0x2
 1335 07aa 00       		.byte	0
 1336 07ab 16       		.uleb128 0x16
 1337 07ac 04       		.byte	0x4
 1338 07ad 0E       		.byte	0xe
 1339 07ae B1       		.byte	0xb1
 1340 07af C6070000 		.4byte	0x7c6
 1341 07b3 19       		.uleb128 0x19
 1342 07b4 5700     		.ascii	"W\000"
 1343 07b6 0E       		.byte	0xe
 1344 07b7 B2       		.byte	0xb2
 1345 07b8 CE000000 		.4byte	0xce
 1346 07bc 19       		.uleb128 0x19
 1347 07bd 4800     		.ascii	"H\000"
 1348 07bf 0E       		.byte	0xe
 1349 07c0 B6       		.byte	0xb6
 1350 07c1 8A070000 		.4byte	0x78a
 1351 07c5 00       		.byte	0
 1352 07c6 15       		.uleb128 0x15
 1353 07c7 2C       		.byte	0x2c
 1354 07c8 0E       		.byte	0xe
 1355 07c9 A9       		.byte	0xa9
 1356 07ca 53080000 		.4byte	0x853
 1357 07ce 07       		.uleb128 0x7
ARM GAS  /tmp/ccNI8AFB.s 			page 38


 1358 07cf 87000000 		.4byte	.LASF116
 1359 07d3 0E       		.byte	0xe
 1360 07d4 AB       		.byte	0xab
 1361 07d5 E9000000 		.4byte	0xe9
 1362 07d9 00       		.byte	0
 1363 07da 07       		.uleb128 0x7
 1364 07db 40000000 		.4byte	.LASF117
 1365 07df 0E       		.byte	0xe
 1366 07e0 AC       		.byte	0xac
 1367 07e1 E9000000 		.4byte	0xe9
 1368 07e5 04       		.byte	0x4
 1369 07e6 07       		.uleb128 0x7
 1370 07e7 BA010000 		.4byte	.LASF118
 1371 07eb 0E       		.byte	0xe
 1372 07ec AD       		.byte	0xad
 1373 07ed E9000000 		.4byte	0xe9
 1374 07f1 08       		.byte	0x8
 1375 07f2 07       		.uleb128 0x7
 1376 07f3 AC000000 		.4byte	.LASF119
 1377 07f7 0E       		.byte	0xe
 1378 07f8 AE       		.byte	0xae
 1379 07f9 E9000000 		.4byte	0xe9
 1380 07fd 0C       		.byte	0xc
 1381 07fe 12       		.uleb128 0x12
 1382 07ff 49445200 		.ascii	"IDR\000"
 1383 0803 0E       		.byte	0xe
 1384 0804 AF       		.byte	0xaf
 1385 0805 E9000000 		.4byte	0xe9
 1386 0809 10       		.byte	0x10
 1387 080a 12       		.uleb128 0x12
 1388 080b 4F445200 		.ascii	"ODR\000"
 1389 080f 0E       		.byte	0xe
 1390 0810 B0       		.byte	0xb0
 1391 0811 E9000000 		.4byte	0xe9
 1392 0815 14       		.byte	0x14
 1393 0816 07       		.uleb128 0x7
 1394 0817 38010000 		.4byte	.LASF120
 1395 081b 0E       		.byte	0xe
 1396 081c B7       		.byte	0xb7
 1397 081d 53080000 		.4byte	0x853
 1398 0821 18       		.byte	0x18
 1399 0822 07       		.uleb128 0x7
 1400 0823 3E020000 		.4byte	.LASF121
 1401 0827 0E       		.byte	0xe
 1402 0828 B8       		.byte	0xb8
 1403 0829 E9000000 		.4byte	0xe9
 1404 082d 1C       		.byte	0x1c
 1405 082e 07       		.uleb128 0x7
 1406 082f 40040000 		.4byte	.LASF122
 1407 0833 0E       		.byte	0xe
 1408 0834 B9       		.byte	0xb9
 1409 0835 E9000000 		.4byte	0xe9
 1410 0839 20       		.byte	0x20
 1411 083a 07       		.uleb128 0x7
 1412 083b 3B040000 		.4byte	.LASF123
 1413 083f 0E       		.byte	0xe
 1414 0840 BA       		.byte	0xba
ARM GAS  /tmp/ccNI8AFB.s 			page 39


 1415 0841 E9000000 		.4byte	0xe9
 1416 0845 24       		.byte	0x24
 1417 0846 12       		.uleb128 0x12
 1418 0847 42525200 		.ascii	"BRR\000"
 1419 084b 0E       		.byte	0xe
 1420 084c BB       		.byte	0xbb
 1421 084d E9000000 		.4byte	0xe9
 1422 0851 28       		.byte	0x28
 1423 0852 00       		.byte	0
 1424 0853 05       		.uleb128 0x5
 1425 0854 AB070000 		.4byte	0x7ab
 1426 0858 03       		.uleb128 0x3
 1427 0859 E3010000 		.4byte	.LASF124
 1428 085d 0E       		.byte	0xe
 1429 085e BC       		.byte	0xbc
 1430 085f C6070000 		.4byte	0x7c6
 1431 0863 14       		.uleb128 0x14
 1432 0864 73000000 		.4byte	.LASF125
 1433 0868 0E       		.byte	0xe
 1434 0869 0E01     		.2byte	0x10e
 1435 086b CE000000 		.4byte	0xce
 1436 086f 14       		.uleb128 0x14
 1437 0870 C7030000 		.4byte	.LASF126
 1438 0874 0E       		.byte	0xe
 1439 0875 1301     		.2byte	0x113
 1440 0877 CE000000 		.4byte	0xce
 1441 087b 14       		.uleb128 0x14
 1442 087c D8050000 		.4byte	.LASF127
 1443 0880 0E       		.byte	0xe
 1444 0881 1B01     		.2byte	0x11b
 1445 0883 87080000 		.4byte	0x887
 1446 0887 0A       		.uleb128 0xa
 1447 0888 04       		.byte	0x4
 1448 0889 58080000 		.4byte	0x858
 1449 088d 1A       		.uleb128 0x1a
 1450 088e 01       		.byte	0x1
 1451 088f 0F       		.byte	0xf
 1452 0890 4A       		.byte	0x4a
 1453 0891 A8080000 		.4byte	0x8a8
 1454 0895 1B       		.uleb128 0x1b
 1455 0896 B8060000 		.4byte	.LASF128
 1456 089a 00       		.sleb128 0
 1457 089b 1B       		.uleb128 0x1b
 1458 089c 64050000 		.4byte	.LASF129
 1459 08a0 01       		.sleb128 1
 1460 08a1 1B       		.uleb128 0x1b
 1461 08a2 07010000 		.4byte	.LASF130
 1462 08a6 02       		.sleb128 2
 1463 08a7 00       		.byte	0
 1464 08a8 03       		.uleb128 0x3
 1465 08a9 73060000 		.4byte	.LASF131
 1466 08ad 0F       		.byte	0xf
 1467 08ae 4E       		.byte	0x4e
 1468 08af 8D080000 		.4byte	0x88d
 1469 08b3 03       		.uleb128 0x3
 1470 08b4 69060000 		.4byte	.LASF132
 1471 08b8 0F       		.byte	0xf
ARM GAS  /tmp/ccNI8AFB.s 			page 40


 1472 08b9 53       		.byte	0x53
 1473 08ba BE080000 		.4byte	0x8be
 1474 08be 0B       		.uleb128 0xb
 1475 08bf 69060000 		.4byte	.LASF132
 1476 08c3 1C       		.byte	0x1c
 1477 08c4 10       		.byte	0x10
 1478 08c5 7901     		.2byte	0x179
 1479 08c7 27090000 		.4byte	0x927
 1480 08cb 09       		.uleb128 0x9
 1481 08cc 54010000 		.4byte	.LASF133
 1482 08d0 10       		.byte	0x10
 1483 08d1 7D01     		.2byte	0x17d
 1484 08d3 A8080000 		.4byte	0x8a8
 1485 08d7 00       		.byte	0
 1486 08d8 09       		.uleb128 0x9
 1487 08d9 82050000 		.4byte	.LASF134
 1488 08dd 10       		.byte	0x10
 1489 08de 8101     		.2byte	0x181
 1490 08e0 1D0A0000 		.4byte	0xa1d
 1491 08e4 04       		.byte	0x4
 1492 08e5 09       		.uleb128 0x9
 1493 08e6 80000000 		.4byte	.LASF135
 1494 08ea 10       		.byte	0x10
 1495 08eb 8501     		.2byte	0x185
 1496 08ed 6D090000 		.4byte	0x96d
 1497 08f1 08       		.byte	0x8
 1498 08f2 09       		.uleb128 0x9
 1499 08f3 4A050000 		.4byte	.LASF136
 1500 08f7 10       		.byte	0x10
 1501 08f8 8901     		.2byte	0x189
 1502 08fa 61090000 		.4byte	0x961
 1503 08fe 0C       		.byte	0xc
 1504 08ff 09       		.uleb128 0x9
 1505 0900 5A010000 		.4byte	.LASF137
 1506 0904 10       		.byte	0x10
 1507 0905 8D01     		.2byte	0x18d
 1508 0907 55090000 		.4byte	0x955
 1509 090b 10       		.byte	0x10
 1510 090c 09       		.uleb128 0x9
 1511 090d AC060000 		.4byte	.LASF138
 1512 0911 10       		.byte	0x10
 1513 0912 9501     		.2byte	0x195
 1514 0914 CE000000 		.4byte	0xce
 1515 0918 14       		.byte	0x14
 1516 0919 08       		.uleb128 0x8
 1517 091a 74696D00 		.ascii	"tim\000"
 1518 091e 10       		.byte	0x10
 1519 091f 9901     		.2byte	0x199
 1520 0921 280A0000 		.4byte	0xa28
 1521 0925 18       		.byte	0x18
 1522 0926 00       		.byte	0
 1523 0927 03       		.uleb128 0x3
 1524 0928 45040000 		.4byte	.LASF139
 1525 092c 0F       		.byte	0xf
 1526 092d 5A       		.byte	0x5a
 1527 092e 32090000 		.4byte	0x932
 1528 0932 0A       		.uleb128 0xa
ARM GAS  /tmp/ccNI8AFB.s 			page 41


 1529 0933 04       		.byte	0x4
 1530 0934 38090000 		.4byte	0x938
 1531 0938 0C       		.uleb128 0xc
 1532 0939 43090000 		.4byte	0x943
 1533 093d 0D       		.uleb128 0xd
 1534 093e 43090000 		.4byte	0x943
 1535 0942 00       		.byte	0
 1536 0943 0A       		.uleb128 0xa
 1537 0944 04       		.byte	0x4
 1538 0945 B3080000 		.4byte	0x8b3
 1539 0949 14       		.uleb128 0x14
 1540 094a 3D010000 		.4byte	.LASF140
 1541 094e 10       		.byte	0x10
 1542 094f 2501     		.2byte	0x125
 1543 0951 CE000000 		.4byte	0xce
 1544 0955 14       		.uleb128 0x14
 1545 0956 00000000 		.4byte	.LASF141
 1546 095a 10       		.byte	0x10
 1547 095b 2A01     		.2byte	0x12a
 1548 095d AD000000 		.4byte	0xad
 1549 0961 14       		.uleb128 0x14
 1550 0962 DD040000 		.4byte	.LASF142
 1551 0966 10       		.byte	0x10
 1552 0967 2F01     		.2byte	0x12f
 1553 0969 CE000000 		.4byte	0xce
 1554 096d 14       		.uleb128 0x14
 1555 096e 7E060000 		.4byte	.LASF143
 1556 0972 10       		.byte	0x10
 1557 0973 3401     		.2byte	0x134
 1558 0975 CE000000 		.4byte	0xce
 1559 0979 13       		.uleb128 0x13
 1560 097a 08       		.byte	0x8
 1561 097b 10       		.byte	0x10
 1562 097c 3901     		.2byte	0x139
 1563 097e 9D090000 		.4byte	0x99d
 1564 0982 09       		.uleb128 0x9
 1565 0983 7D050000 		.4byte	.LASF144
 1566 0987 10       		.byte	0x10
 1567 0988 3D01     		.2byte	0x13d
 1568 098a 49090000 		.4byte	0x949
 1569 098e 00       		.byte	0
 1570 098f 09       		.uleb128 0x9
 1571 0990 94020000 		.4byte	.LASF145
 1572 0994 10       		.byte	0x10
 1573 0995 4301     		.2byte	0x143
 1574 0997 27090000 		.4byte	0x927
 1575 099b 04       		.byte	0x4
 1576 099c 00       		.byte	0
 1577 099d 14       		.uleb128 0x14
 1578 099e 01060000 		.4byte	.LASF146
 1579 09a2 10       		.byte	0x10
 1580 09a3 4501     		.2byte	0x145
 1581 09a5 79090000 		.4byte	0x979
 1582 09a9 13       		.uleb128 0x13
 1583 09aa 34       		.byte	0x34
 1584 09ab 10       		.byte	0x10
 1585 09ac 4A01     		.2byte	0x14a
ARM GAS  /tmp/ccNI8AFB.s 			page 42


 1586 09ae 010A0000 		.4byte	0xa01
 1587 09b2 09       		.uleb128 0x9
 1588 09b3 EE000000 		.4byte	.LASF147
 1589 09b7 10       		.byte	0x10
 1590 09b8 5001     		.2byte	0x150
 1591 09ba CE000000 		.4byte	0xce
 1592 09be 00       		.byte	0
 1593 09bf 09       		.uleb128 0x9
 1594 09c0 80000000 		.4byte	.LASF135
 1595 09c4 10       		.byte	0x10
 1596 09c5 5601     		.2byte	0x156
 1597 09c7 6D090000 		.4byte	0x96d
 1598 09cb 04       		.byte	0x4
 1599 09cc 09       		.uleb128 0x9
 1600 09cd 94020000 		.4byte	.LASF145
 1601 09d1 10       		.byte	0x10
 1602 09d2 5C01     		.2byte	0x15c
 1603 09d4 27090000 		.4byte	0x927
 1604 09d8 08       		.byte	0x8
 1605 09d9 09       		.uleb128 0x9
 1606 09da 5A010000 		.4byte	.LASF137
 1607 09de 10       		.byte	0x10
 1608 09df 6001     		.2byte	0x160
 1609 09e1 010A0000 		.4byte	0xa01
 1610 09e5 0C       		.byte	0xc
 1611 09e6 08       		.uleb128 0x8
 1612 09e7 63723200 		.ascii	"cr2\000"
 1613 09eb 10       		.byte	0x10
 1614 09ec 6601     		.2byte	0x166
 1615 09ee CE000000 		.4byte	0xce
 1616 09f2 2C       		.byte	0x2c
 1617 09f3 09       		.uleb128 0x9
 1618 09f4 D9060000 		.4byte	.LASF148
 1619 09f8 10       		.byte	0x10
 1620 09f9 7301     		.2byte	0x173
 1621 09fb CE000000 		.4byte	0xce
 1622 09ff 30       		.byte	0x30
 1623 0a00 00       		.byte	0
 1624 0a01 10       		.uleb128 0x10
 1625 0a02 9D090000 		.4byte	0x99d
 1626 0a06 110A0000 		.4byte	0xa11
 1627 0a0a 11       		.uleb128 0x11
 1628 0a0b 67040000 		.4byte	0x467
 1629 0a0f 03       		.byte	0x3
 1630 0a10 00       		.byte	0
 1631 0a11 14       		.uleb128 0x14
 1632 0a12 31060000 		.4byte	.LASF149
 1633 0a16 10       		.byte	0x10
 1634 0a17 7401     		.2byte	0x174
 1635 0a19 A9090000 		.4byte	0x9a9
 1636 0a1d 0A       		.uleb128 0xa
 1637 0a1e 04       		.byte	0x4
 1638 0a1f 230A0000 		.4byte	0xa23
 1639 0a23 18       		.uleb128 0x18
 1640 0a24 110A0000 		.4byte	0xa11
 1641 0a28 0A       		.uleb128 0xa
 1642 0a29 04       		.byte	0x4
ARM GAS  /tmp/ccNI8AFB.s 			page 43


 1643 0a2a 54060000 		.4byte	0x654
 1644 0a2e 1C       		.uleb128 0x1c
 1645 0a2f 1A060000 		.4byte	.LASF158
 1646 0a33 01       		.byte	0x1
 1647 0a34 43       		.byte	0x43
 1648 0a35 00000000 		.4byte	.LFB261
 1649 0a39 A0000000 		.4byte	.LFE261-.LFB261
 1650 0a3d 01       		.uleb128 0x1
 1651 0a3e 9C       		.byte	0x9c
 1652 0a3f 8C0B0000 		.4byte	0xb8c
 1653 0a43 1D       		.uleb128 0x1d
 1654 0a44 12000000 		.4byte	.LVL0
 1655 0a48 DD0B0000 		.4byte	0xbdd
 1656 0a4c 610A0000 		.4byte	0xa61
 1657 0a50 1E       		.uleb128 0x1e
 1658 0a51 01       		.uleb128 0x1
 1659 0a52 52       		.byte	0x52
 1660 0a53 01       		.uleb128 0x1
 1661 0a54 30       		.byte	0x30
 1662 0a55 1E       		.uleb128 0x1e
 1663 0a56 01       		.uleb128 0x1
 1664 0a57 51       		.byte	0x51
 1665 0a58 01       		.uleb128 0x1
 1666 0a59 31       		.byte	0x31
 1667 0a5a 1E       		.uleb128 0x1e
 1668 0a5b 01       		.uleb128 0x1
 1669 0a5c 50       		.byte	0x50
 1670 0a5d 02       		.uleb128 0x2
 1671 0a5e 74       		.byte	0x74
 1672 0a5f 00       		.sleb128 0
 1673 0a60 00       		.byte	0
 1674 0a61 1D       		.uleb128 0x1d
 1675 0a62 1C000000 		.4byte	.LVL1
 1676 0a66 DD0B0000 		.4byte	0xbdd
 1677 0a6a 7F0A0000 		.4byte	0xa7f
 1678 0a6e 1E       		.uleb128 0x1e
 1679 0a6f 01       		.uleb128 0x1
 1680 0a70 52       		.byte	0x52
 1681 0a71 01       		.uleb128 0x1
 1682 0a72 30       		.byte	0x30
 1683 0a73 1E       		.uleb128 0x1e
 1684 0a74 01       		.uleb128 0x1
 1685 0a75 51       		.byte	0x51
 1686 0a76 01       		.uleb128 0x1
 1687 0a77 32       		.byte	0x32
 1688 0a78 1E       		.uleb128 0x1e
 1689 0a79 01       		.uleb128 0x1
 1690 0a7a 50       		.byte	0x50
 1691 0a7b 02       		.uleb128 0x2
 1692 0a7c 74       		.byte	0x74
 1693 0a7d 00       		.sleb128 0
 1694 0a7e 00       		.byte	0
 1695 0a7f 1D       		.uleb128 0x1d
 1696 0a80 26000000 		.4byte	.LVL2
 1697 0a84 DD0B0000 		.4byte	0xbdd
 1698 0a88 9D0A0000 		.4byte	0xa9d
 1699 0a8c 1E       		.uleb128 0x1e
ARM GAS  /tmp/ccNI8AFB.s 			page 44


 1700 0a8d 01       		.uleb128 0x1
 1701 0a8e 52       		.byte	0x52
 1702 0a8f 01       		.uleb128 0x1
 1703 0a90 30       		.byte	0x30
 1704 0a91 1E       		.uleb128 0x1e
 1705 0a92 01       		.uleb128 0x1
 1706 0a93 51       		.byte	0x51
 1707 0a94 01       		.uleb128 0x1
 1708 0a95 34       		.byte	0x34
 1709 0a96 1E       		.uleb128 0x1e
 1710 0a97 01       		.uleb128 0x1
 1711 0a98 50       		.byte	0x50
 1712 0a99 02       		.uleb128 0x2
 1713 0a9a 74       		.byte	0x74
 1714 0a9b 00       		.sleb128 0
 1715 0a9c 00       		.byte	0
 1716 0a9d 1D       		.uleb128 0x1d
 1717 0a9e 30000000 		.4byte	.LVL3
 1718 0aa2 DD0B0000 		.4byte	0xbdd
 1719 0aa6 BB0A0000 		.4byte	0xabb
 1720 0aaa 1E       		.uleb128 0x1e
 1721 0aab 01       		.uleb128 0x1
 1722 0aac 52       		.byte	0x52
 1723 0aad 01       		.uleb128 0x1
 1724 0aae 30       		.byte	0x30
 1725 0aaf 1E       		.uleb128 0x1e
 1726 0ab0 01       		.uleb128 0x1
 1727 0ab1 51       		.byte	0x51
 1728 0ab2 01       		.uleb128 0x1
 1729 0ab3 38       		.byte	0x38
 1730 0ab4 1E       		.uleb128 0x1e
 1731 0ab5 01       		.uleb128 0x1
 1732 0ab6 50       		.byte	0x50
 1733 0ab7 02       		.uleb128 0x2
 1734 0ab8 74       		.byte	0x74
 1735 0ab9 00       		.sleb128 0
 1736 0aba 00       		.byte	0
 1737 0abb 1D       		.uleb128 0x1d
 1738 0abc 3A000000 		.4byte	.LVL4
 1739 0ac0 DD0B0000 		.4byte	0xbdd
 1740 0ac4 DA0A0000 		.4byte	0xada
 1741 0ac8 1E       		.uleb128 0x1e
 1742 0ac9 01       		.uleb128 0x1
 1743 0aca 52       		.byte	0x52
 1744 0acb 01       		.uleb128 0x1
 1745 0acc 31       		.byte	0x31
 1746 0acd 1E       		.uleb128 0x1e
 1747 0ace 01       		.uleb128 0x1
 1748 0acf 51       		.byte	0x51
 1749 0ad0 02       		.uleb128 0x2
 1750 0ad1 08       		.byte	0x8
 1751 0ad2 80       		.byte	0x80
 1752 0ad3 1E       		.uleb128 0x1e
 1753 0ad4 01       		.uleb128 0x1
 1754 0ad5 50       		.byte	0x50
 1755 0ad6 02       		.uleb128 0x2
 1756 0ad7 76       		.byte	0x76
ARM GAS  /tmp/ccNI8AFB.s 			page 45


 1757 0ad8 00       		.sleb128 0
 1758 0ad9 00       		.byte	0
 1759 0ada 1D       		.uleb128 0x1d
 1760 0adb 48000000 		.4byte	.LVL5
 1761 0adf DD0B0000 		.4byte	0xbdd
 1762 0ae3 FC0A0000 		.4byte	0xafc
 1763 0ae7 1E       		.uleb128 0x1e
 1764 0ae8 01       		.uleb128 0x1
 1765 0ae9 52       		.byte	0x52
 1766 0aea 03       		.uleb128 0x3
 1767 0aeb 0A       		.byte	0xa
 1768 0aec 0201     		.2byte	0x102
 1769 0aee 1E       		.uleb128 0x1e
 1770 0aef 01       		.uleb128 0x1
 1771 0af0 51       		.byte	0x51
 1772 0af1 03       		.uleb128 0x3
 1773 0af2 0A       		.byte	0xa
 1774 0af3 0010     		.2byte	0x1000
 1775 0af5 1E       		.uleb128 0x1e
 1776 0af6 01       		.uleb128 0x1
 1777 0af7 50       		.byte	0x50
 1778 0af8 02       		.uleb128 0x2
 1779 0af9 75       		.byte	0x75
 1780 0afa 00       		.sleb128 0
 1781 0afb 00       		.byte	0
 1782 0afc 1D       		.uleb128 0x1d
 1783 0afd 56000000 		.4byte	.LVL6
 1784 0b01 DD0B0000 		.4byte	0xbdd
 1785 0b05 1E0B0000 		.4byte	0xb1e
 1786 0b09 1E       		.uleb128 0x1e
 1787 0b0a 01       		.uleb128 0x1
 1788 0b0b 52       		.byte	0x52
 1789 0b0c 03       		.uleb128 0x3
 1790 0b0d 0A       		.byte	0xa
 1791 0b0e 0201     		.2byte	0x102
 1792 0b10 1E       		.uleb128 0x1e
 1793 0b11 01       		.uleb128 0x1
 1794 0b12 51       		.byte	0x51
 1795 0b13 03       		.uleb128 0x3
 1796 0b14 0A       		.byte	0xa
 1797 0b15 0020     		.2byte	0x2000
 1798 0b17 1E       		.uleb128 0x1e
 1799 0b18 01       		.uleb128 0x1
 1800 0b19 50       		.byte	0x50
 1801 0b1a 02       		.uleb128 0x2
 1802 0b1b 75       		.byte	0x75
 1803 0b1c 00       		.sleb128 0
 1804 0b1d 00       		.byte	0
 1805 0b1e 1D       		.uleb128 0x1d
 1806 0b1f 64000000 		.4byte	.LVL7
 1807 0b23 DD0B0000 		.4byte	0xbdd
 1808 0b27 400B0000 		.4byte	0xb40
 1809 0b2b 1E       		.uleb128 0x1e
 1810 0b2c 01       		.uleb128 0x1
 1811 0b2d 52       		.byte	0x52
 1812 0b2e 03       		.uleb128 0x3
 1813 0b2f 0A       		.byte	0xa
ARM GAS  /tmp/ccNI8AFB.s 			page 46


 1814 0b30 0201     		.2byte	0x102
 1815 0b32 1E       		.uleb128 0x1e
 1816 0b33 01       		.uleb128 0x1
 1817 0b34 51       		.byte	0x51
 1818 0b35 03       		.uleb128 0x3
 1819 0b36 0A       		.byte	0xa
 1820 0b37 0040     		.2byte	0x4000
 1821 0b39 1E       		.uleb128 0x1e
 1822 0b3a 01       		.uleb128 0x1
 1823 0b3b 50       		.byte	0x50
 1824 0b3c 02       		.uleb128 0x2
 1825 0b3d 75       		.byte	0x75
 1826 0b3e 00       		.sleb128 0
 1827 0b3f 00       		.byte	0
 1828 0b40 1D       		.uleb128 0x1d
 1829 0b41 70000000 		.4byte	.LVL8
 1830 0b45 DD0B0000 		.4byte	0xbdd
 1831 0b49 610B0000 		.4byte	0xb61
 1832 0b4d 1E       		.uleb128 0x1e
 1833 0b4e 01       		.uleb128 0x1
 1834 0b4f 52       		.byte	0x52
 1835 0b50 02       		.uleb128 0x2
 1836 0b51 08       		.byte	0x8
 1837 0b52 82       		.byte	0x82
 1838 0b53 1E       		.uleb128 0x1e
 1839 0b54 01       		.uleb128 0x1
 1840 0b55 51       		.byte	0x51
 1841 0b56 03       		.uleb128 0x3
 1842 0b57 0A       		.byte	0xa
 1843 0b58 0002     		.2byte	0x200
 1844 0b5a 1E       		.uleb128 0x1e
 1845 0b5b 01       		.uleb128 0x1
 1846 0b5c 50       		.byte	0x50
 1847 0b5d 02       		.uleb128 0x2
 1848 0b5e 76       		.byte	0x76
 1849 0b5f 00       		.sleb128 0
 1850 0b60 00       		.byte	0
 1851 0b61 1D       		.uleb128 0x1d
 1852 0b62 78000000 		.4byte	.LVL9
 1853 0b66 F90B0000 		.4byte	0xbf9
 1854 0b6a 780B0000 		.4byte	0xb78
 1855 0b6e 1E       		.uleb128 0x1e
 1856 0b6f 01       		.uleb128 0x1
 1857 0b70 51       		.byte	0x51
 1858 0b71 05       		.uleb128 0x5
 1859 0b72 03       		.byte	0x3
 1860 0b73 00000000 		.4byte	.LANCHOR0
 1861 0b77 00       		.byte	0
 1862 0b78 1F       		.uleb128 0x1f
 1863 0b79 84000000 		.4byte	.LVL10
 1864 0b7d F90B0000 		.4byte	0xbf9
 1865 0b81 1E       		.uleb128 0x1e
 1866 0b82 01       		.uleb128 0x1
 1867 0b83 51       		.byte	0x51
 1868 0b84 05       		.uleb128 0x5
 1869 0b85 03       		.byte	0x3
 1870 0b86 00000000 		.4byte	.LANCHOR1
ARM GAS  /tmp/ccNI8AFB.s 			page 47


 1871 0b8a 00       		.byte	0
 1872 0b8b 00       		.byte	0
 1873 0b8c 20       		.uleb128 0x20
 1874 0b8d 23060000 		.4byte	.LASF150
 1875 0b91 01       		.byte	0x1
 1876 0b92 23       		.byte	0x23
 1877 0b93 230A0000 		.4byte	0xa23
 1878 0b97 05       		.uleb128 0x5
 1879 0b98 03       		.byte	0x3
 1880 0b99 00000000 		.4byte	pwmcfg
 1881 0b9d 20       		.uleb128 0x20
 1882 0b9e A4000000 		.4byte	.LASF151
 1883 0ba2 01       		.byte	0x1
 1884 0ba3 32       		.byte	0x32
 1885 0ba4 230A0000 		.4byte	0xa23
 1886 0ba8 05       		.uleb128 0x5
 1887 0ba9 03       		.byte	0x3
 1888 0baa 00000000 		.4byte	pwmcfg2
 1889 0bae 21       		.uleb128 0x21
 1890 0baf DC000000 		.4byte	.LASF152
 1891 0bb3 11       		.byte	0x11
 1892 0bb4 A706     		.2byte	0x6a7
 1893 0bb6 E4000000 		.4byte	0xe4
 1894 0bba 22       		.uleb128 0x22
 1895 0bbb 636800   		.ascii	"ch\000"
 1896 0bbe 07       		.byte	0x7
 1897 0bbf 0902     		.2byte	0x209
 1898 0bc1 00040000 		.4byte	0x400
 1899 0bc5 21       		.uleb128 0x21
 1900 0bc6 47010000 		.4byte	.LASF153
 1901 0bca 10       		.byte	0x10
 1902 0bcb B801     		.2byte	0x1b8
 1903 0bcd B3080000 		.4byte	0x8b3
 1904 0bd1 21       		.uleb128 0x21
 1905 0bd2 B4010000 		.4byte	.LASF154
 1906 0bd6 10       		.byte	0x10
 1907 0bd7 C401     		.2byte	0x1c4
 1908 0bd9 B3080000 		.4byte	0x8b3
 1909 0bdd 23       		.uleb128 0x23
 1910 0bde EB050000 		.4byte	.LASF159
 1911 0be2 0E       		.byte	0xe
 1912 0be3 E001     		.2byte	0x1e0
 1913 0be5 F90B0000 		.4byte	0xbf9
 1914 0be9 0D       		.uleb128 0xd
 1915 0bea 7B080000 		.4byte	0x87b
 1916 0bee 0D       		.uleb128 0xd
 1917 0bef 63080000 		.4byte	0x863
 1918 0bf3 0D       		.uleb128 0xd
 1919 0bf4 6F080000 		.4byte	0x86f
 1920 0bf8 00       		.byte	0
 1921 0bf9 24       		.uleb128 0x24
 1922 0bfa 11010000 		.4byte	.LASF160
 1923 0bfe 0F       		.byte	0xf
 1924 0bff 2101     		.2byte	0x121
 1925 0c01 0D       		.uleb128 0xd
 1926 0c02 43090000 		.4byte	0x943
 1927 0c06 0D       		.uleb128 0xd
ARM GAS  /tmp/ccNI8AFB.s 			page 48


 1928 0c07 1D0A0000 		.4byte	0xa1d
 1929 0c0b 00       		.byte	0
 1930 0c0c 00       		.byte	0
 1931              		.section	.debug_abbrev,"",%progbits
 1932              	.Ldebug_abbrev0:
 1933 0000 01       		.uleb128 0x1
 1934 0001 11       		.uleb128 0x11
 1935 0002 01       		.byte	0x1
 1936 0003 25       		.uleb128 0x25
 1937 0004 0E       		.uleb128 0xe
 1938 0005 13       		.uleb128 0x13
 1939 0006 0B       		.uleb128 0xb
 1940 0007 03       		.uleb128 0x3
 1941 0008 0E       		.uleb128 0xe
 1942 0009 1B       		.uleb128 0x1b
 1943 000a 0E       		.uleb128 0xe
 1944 000b 55       		.uleb128 0x55
 1945 000c 17       		.uleb128 0x17
 1946 000d 11       		.uleb128 0x11
 1947 000e 01       		.uleb128 0x1
 1948 000f 10       		.uleb128 0x10
 1949 0010 17       		.uleb128 0x17
 1950 0011 00       		.byte	0
 1951 0012 00       		.byte	0
 1952 0013 02       		.uleb128 0x2
 1953 0014 24       		.uleb128 0x24
 1954 0015 00       		.byte	0
 1955 0016 0B       		.uleb128 0xb
 1956 0017 0B       		.uleb128 0xb
 1957 0018 3E       		.uleb128 0x3e
 1958 0019 0B       		.uleb128 0xb
 1959 001a 03       		.uleb128 0x3
 1960 001b 08       		.uleb128 0x8
 1961 001c 00       		.byte	0
 1962 001d 00       		.byte	0
 1963 001e 03       		.uleb128 0x3
 1964 001f 16       		.uleb128 0x16
 1965 0020 00       		.byte	0
 1966 0021 03       		.uleb128 0x3
 1967 0022 0E       		.uleb128 0xe
 1968 0023 3A       		.uleb128 0x3a
 1969 0024 0B       		.uleb128 0xb
 1970 0025 3B       		.uleb128 0x3b
 1971 0026 0B       		.uleb128 0xb
 1972 0027 49       		.uleb128 0x49
 1973 0028 13       		.uleb128 0x13
 1974 0029 00       		.byte	0
 1975 002a 00       		.byte	0
 1976 002b 04       		.uleb128 0x4
 1977 002c 24       		.uleb128 0x24
 1978 002d 00       		.byte	0
 1979 002e 0B       		.uleb128 0xb
 1980 002f 0B       		.uleb128 0xb
 1981 0030 3E       		.uleb128 0x3e
 1982 0031 0B       		.uleb128 0xb
 1983 0032 03       		.uleb128 0x3
 1984 0033 0E       		.uleb128 0xe
ARM GAS  /tmp/ccNI8AFB.s 			page 49


 1985 0034 00       		.byte	0
 1986 0035 00       		.byte	0
 1987 0036 05       		.uleb128 0x5
 1988 0037 35       		.uleb128 0x35
 1989 0038 00       		.byte	0
 1990 0039 49       		.uleb128 0x49
 1991 003a 13       		.uleb128 0x13
 1992 003b 00       		.byte	0
 1993 003c 00       		.byte	0
 1994 003d 06       		.uleb128 0x6
 1995 003e 13       		.uleb128 0x13
 1996 003f 01       		.byte	0x1
 1997 0040 03       		.uleb128 0x3
 1998 0041 0E       		.uleb128 0xe
 1999 0042 0B       		.uleb128 0xb
 2000 0043 0B       		.uleb128 0xb
 2001 0044 3A       		.uleb128 0x3a
 2002 0045 0B       		.uleb128 0xb
 2003 0046 3B       		.uleb128 0x3b
 2004 0047 0B       		.uleb128 0xb
 2005 0048 01       		.uleb128 0x1
 2006 0049 13       		.uleb128 0x13
 2007 004a 00       		.byte	0
 2008 004b 00       		.byte	0
 2009 004c 07       		.uleb128 0x7
 2010 004d 0D       		.uleb128 0xd
 2011 004e 00       		.byte	0
 2012 004f 03       		.uleb128 0x3
 2013 0050 0E       		.uleb128 0xe
 2014 0051 3A       		.uleb128 0x3a
 2015 0052 0B       		.uleb128 0xb
 2016 0053 3B       		.uleb128 0x3b
 2017 0054 0B       		.uleb128 0xb
 2018 0055 49       		.uleb128 0x49
 2019 0056 13       		.uleb128 0x13
 2020 0057 38       		.uleb128 0x38
 2021 0058 0B       		.uleb128 0xb
 2022 0059 00       		.byte	0
 2023 005a 00       		.byte	0
 2024 005b 08       		.uleb128 0x8
 2025 005c 0D       		.uleb128 0xd
 2026 005d 00       		.byte	0
 2027 005e 03       		.uleb128 0x3
 2028 005f 08       		.uleb128 0x8
 2029 0060 3A       		.uleb128 0x3a
 2030 0061 0B       		.uleb128 0xb
 2031 0062 3B       		.uleb128 0x3b
 2032 0063 05       		.uleb128 0x5
 2033 0064 49       		.uleb128 0x49
 2034 0065 13       		.uleb128 0x13
 2035 0066 38       		.uleb128 0x38
 2036 0067 0B       		.uleb128 0xb
 2037 0068 00       		.byte	0
 2038 0069 00       		.byte	0
 2039 006a 09       		.uleb128 0x9
 2040 006b 0D       		.uleb128 0xd
 2041 006c 00       		.byte	0
ARM GAS  /tmp/ccNI8AFB.s 			page 50


 2042 006d 03       		.uleb128 0x3
 2043 006e 0E       		.uleb128 0xe
 2044 006f 3A       		.uleb128 0x3a
 2045 0070 0B       		.uleb128 0xb
 2046 0071 3B       		.uleb128 0x3b
 2047 0072 05       		.uleb128 0x5
 2048 0073 49       		.uleb128 0x49
 2049 0074 13       		.uleb128 0x13
 2050 0075 38       		.uleb128 0x38
 2051 0076 0B       		.uleb128 0xb
 2052 0077 00       		.byte	0
 2053 0078 00       		.byte	0
 2054 0079 0A       		.uleb128 0xa
 2055 007a 0F       		.uleb128 0xf
 2056 007b 00       		.byte	0
 2057 007c 0B       		.uleb128 0xb
 2058 007d 0B       		.uleb128 0xb
 2059 007e 49       		.uleb128 0x49
 2060 007f 13       		.uleb128 0x13
 2061 0080 00       		.byte	0
 2062 0081 00       		.byte	0
 2063 0082 0B       		.uleb128 0xb
 2064 0083 13       		.uleb128 0x13
 2065 0084 01       		.byte	0x1
 2066 0085 03       		.uleb128 0x3
 2067 0086 0E       		.uleb128 0xe
 2068 0087 0B       		.uleb128 0xb
 2069 0088 0B       		.uleb128 0xb
 2070 0089 3A       		.uleb128 0x3a
 2071 008a 0B       		.uleb128 0xb
 2072 008b 3B       		.uleb128 0x3b
 2073 008c 05       		.uleb128 0x5
 2074 008d 01       		.uleb128 0x1
 2075 008e 13       		.uleb128 0x13
 2076 008f 00       		.byte	0
 2077 0090 00       		.byte	0
 2078 0091 0C       		.uleb128 0xc
 2079 0092 15       		.uleb128 0x15
 2080 0093 01       		.byte	0x1
 2081 0094 27       		.uleb128 0x27
 2082 0095 19       		.uleb128 0x19
 2083 0096 01       		.uleb128 0x1
 2084 0097 13       		.uleb128 0x13
 2085 0098 00       		.byte	0
 2086 0099 00       		.byte	0
 2087 009a 0D       		.uleb128 0xd
 2088 009b 05       		.uleb128 0x5
 2089 009c 00       		.byte	0
 2090 009d 49       		.uleb128 0x49
 2091 009e 13       		.uleb128 0x13
 2092 009f 00       		.byte	0
 2093 00a0 00       		.byte	0
 2094 00a1 0E       		.uleb128 0xe
 2095 00a2 0F       		.uleb128 0xf
 2096 00a3 00       		.byte	0
 2097 00a4 0B       		.uleb128 0xb
 2098 00a5 0B       		.uleb128 0xb
ARM GAS  /tmp/ccNI8AFB.s 			page 51


 2099 00a6 00       		.byte	0
 2100 00a7 00       		.byte	0
 2101 00a8 0F       		.uleb128 0xf
 2102 00a9 13       		.uleb128 0x13
 2103 00aa 01       		.byte	0x1
 2104 00ab 03       		.uleb128 0x3
 2105 00ac 0E       		.uleb128 0xe
 2106 00ad 0B       		.uleb128 0xb
 2107 00ae 05       		.uleb128 0x5
 2108 00af 3A       		.uleb128 0x3a
 2109 00b0 0B       		.uleb128 0xb
 2110 00b1 3B       		.uleb128 0x3b
 2111 00b2 05       		.uleb128 0x5
 2112 00b3 01       		.uleb128 0x1
 2113 00b4 13       		.uleb128 0x13
 2114 00b5 00       		.byte	0
 2115 00b6 00       		.byte	0
 2116 00b7 10       		.uleb128 0x10
 2117 00b8 01       		.uleb128 0x1
 2118 00b9 01       		.byte	0x1
 2119 00ba 49       		.uleb128 0x49
 2120 00bb 13       		.uleb128 0x13
 2121 00bc 01       		.uleb128 0x1
 2122 00bd 13       		.uleb128 0x13
 2123 00be 00       		.byte	0
 2124 00bf 00       		.byte	0
 2125 00c0 11       		.uleb128 0x11
 2126 00c1 21       		.uleb128 0x21
 2127 00c2 00       		.byte	0
 2128 00c3 49       		.uleb128 0x49
 2129 00c4 13       		.uleb128 0x13
 2130 00c5 2F       		.uleb128 0x2f
 2131 00c6 0B       		.uleb128 0xb
 2132 00c7 00       		.byte	0
 2133 00c8 00       		.byte	0
 2134 00c9 12       		.uleb128 0x12
 2135 00ca 0D       		.uleb128 0xd
 2136 00cb 00       		.byte	0
 2137 00cc 03       		.uleb128 0x3
 2138 00cd 08       		.uleb128 0x8
 2139 00ce 3A       		.uleb128 0x3a
 2140 00cf 0B       		.uleb128 0xb
 2141 00d0 3B       		.uleb128 0x3b
 2142 00d1 0B       		.uleb128 0xb
 2143 00d2 49       		.uleb128 0x49
 2144 00d3 13       		.uleb128 0x13
 2145 00d4 38       		.uleb128 0x38
 2146 00d5 0B       		.uleb128 0xb
 2147 00d6 00       		.byte	0
 2148 00d7 00       		.byte	0
 2149 00d8 13       		.uleb128 0x13
 2150 00d9 13       		.uleb128 0x13
 2151 00da 01       		.byte	0x1
 2152 00db 0B       		.uleb128 0xb
 2153 00dc 0B       		.uleb128 0xb
 2154 00dd 3A       		.uleb128 0x3a
 2155 00de 0B       		.uleb128 0xb
ARM GAS  /tmp/ccNI8AFB.s 			page 52


 2156 00df 3B       		.uleb128 0x3b
 2157 00e0 05       		.uleb128 0x5
 2158 00e1 01       		.uleb128 0x1
 2159 00e2 13       		.uleb128 0x13
 2160 00e3 00       		.byte	0
 2161 00e4 00       		.byte	0
 2162 00e5 14       		.uleb128 0x14
 2163 00e6 16       		.uleb128 0x16
 2164 00e7 00       		.byte	0
 2165 00e8 03       		.uleb128 0x3
 2166 00e9 0E       		.uleb128 0xe
 2167 00ea 3A       		.uleb128 0x3a
 2168 00eb 0B       		.uleb128 0xb
 2169 00ec 3B       		.uleb128 0x3b
 2170 00ed 05       		.uleb128 0x5
 2171 00ee 49       		.uleb128 0x49
 2172 00ef 13       		.uleb128 0x13
 2173 00f0 00       		.byte	0
 2174 00f1 00       		.byte	0
 2175 00f2 15       		.uleb128 0x15
 2176 00f3 13       		.uleb128 0x13
 2177 00f4 01       		.byte	0x1
 2178 00f5 0B       		.uleb128 0xb
 2179 00f6 0B       		.uleb128 0xb
 2180 00f7 3A       		.uleb128 0x3a
 2181 00f8 0B       		.uleb128 0xb
 2182 00f9 3B       		.uleb128 0x3b
 2183 00fa 0B       		.uleb128 0xb
 2184 00fb 01       		.uleb128 0x1
 2185 00fc 13       		.uleb128 0x13
 2186 00fd 00       		.byte	0
 2187 00fe 00       		.byte	0
 2188 00ff 16       		.uleb128 0x16
 2189 0100 17       		.uleb128 0x17
 2190 0101 01       		.byte	0x1
 2191 0102 0B       		.uleb128 0xb
 2192 0103 0B       		.uleb128 0xb
 2193 0104 3A       		.uleb128 0x3a
 2194 0105 0B       		.uleb128 0xb
 2195 0106 3B       		.uleb128 0x3b
 2196 0107 0B       		.uleb128 0xb
 2197 0108 01       		.uleb128 0x1
 2198 0109 13       		.uleb128 0x13
 2199 010a 00       		.byte	0
 2200 010b 00       		.byte	0
 2201 010c 17       		.uleb128 0x17
 2202 010d 0D       		.uleb128 0xd
 2203 010e 00       		.byte	0
 2204 010f 03       		.uleb128 0x3
 2205 0110 0E       		.uleb128 0xe
 2206 0111 3A       		.uleb128 0x3a
 2207 0112 0B       		.uleb128 0xb
 2208 0113 3B       		.uleb128 0x3b
 2209 0114 05       		.uleb128 0x5
 2210 0115 49       		.uleb128 0x49
 2211 0116 13       		.uleb128 0x13
 2212 0117 00       		.byte	0
ARM GAS  /tmp/ccNI8AFB.s 			page 53


 2213 0118 00       		.byte	0
 2214 0119 18       		.uleb128 0x18
 2215 011a 26       		.uleb128 0x26
 2216 011b 00       		.byte	0
 2217 011c 49       		.uleb128 0x49
 2218 011d 13       		.uleb128 0x13
 2219 011e 00       		.byte	0
 2220 011f 00       		.byte	0
 2221 0120 19       		.uleb128 0x19
 2222 0121 0D       		.uleb128 0xd
 2223 0122 00       		.byte	0
 2224 0123 03       		.uleb128 0x3
 2225 0124 08       		.uleb128 0x8
 2226 0125 3A       		.uleb128 0x3a
 2227 0126 0B       		.uleb128 0xb
 2228 0127 3B       		.uleb128 0x3b
 2229 0128 0B       		.uleb128 0xb
 2230 0129 49       		.uleb128 0x49
 2231 012a 13       		.uleb128 0x13
 2232 012b 00       		.byte	0
 2233 012c 00       		.byte	0
 2234 012d 1A       		.uleb128 0x1a
 2235 012e 04       		.uleb128 0x4
 2236 012f 01       		.byte	0x1
 2237 0130 0B       		.uleb128 0xb
 2238 0131 0B       		.uleb128 0xb
 2239 0132 3A       		.uleb128 0x3a
 2240 0133 0B       		.uleb128 0xb
 2241 0134 3B       		.uleb128 0x3b
 2242 0135 0B       		.uleb128 0xb
 2243 0136 01       		.uleb128 0x1
 2244 0137 13       		.uleb128 0x13
 2245 0138 00       		.byte	0
 2246 0139 00       		.byte	0
 2247 013a 1B       		.uleb128 0x1b
 2248 013b 28       		.uleb128 0x28
 2249 013c 00       		.byte	0
 2250 013d 03       		.uleb128 0x3
 2251 013e 0E       		.uleb128 0xe
 2252 013f 1C       		.uleb128 0x1c
 2253 0140 0D       		.uleb128 0xd
 2254 0141 00       		.byte	0
 2255 0142 00       		.byte	0
 2256 0143 1C       		.uleb128 0x1c
 2257 0144 2E       		.uleb128 0x2e
 2258 0145 01       		.byte	0x1
 2259 0146 3F       		.uleb128 0x3f
 2260 0147 19       		.uleb128 0x19
 2261 0148 03       		.uleb128 0x3
 2262 0149 0E       		.uleb128 0xe
 2263 014a 3A       		.uleb128 0x3a
 2264 014b 0B       		.uleb128 0xb
 2265 014c 3B       		.uleb128 0x3b
 2266 014d 0B       		.uleb128 0xb
 2267 014e 27       		.uleb128 0x27
 2268 014f 19       		.uleb128 0x19
 2269 0150 11       		.uleb128 0x11
ARM GAS  /tmp/ccNI8AFB.s 			page 54


 2270 0151 01       		.uleb128 0x1
 2271 0152 12       		.uleb128 0x12
 2272 0153 06       		.uleb128 0x6
 2273 0154 40       		.uleb128 0x40
 2274 0155 18       		.uleb128 0x18
 2275 0156 9742     		.uleb128 0x2117
 2276 0158 19       		.uleb128 0x19
 2277 0159 01       		.uleb128 0x1
 2278 015a 13       		.uleb128 0x13
 2279 015b 00       		.byte	0
 2280 015c 00       		.byte	0
 2281 015d 1D       		.uleb128 0x1d
 2282 015e 898201   		.uleb128 0x4109
 2283 0161 01       		.byte	0x1
 2284 0162 11       		.uleb128 0x11
 2285 0163 01       		.uleb128 0x1
 2286 0164 31       		.uleb128 0x31
 2287 0165 13       		.uleb128 0x13
 2288 0166 01       		.uleb128 0x1
 2289 0167 13       		.uleb128 0x13
 2290 0168 00       		.byte	0
 2291 0169 00       		.byte	0
 2292 016a 1E       		.uleb128 0x1e
 2293 016b 8A8201   		.uleb128 0x410a
 2294 016e 00       		.byte	0
 2295 016f 02       		.uleb128 0x2
 2296 0170 18       		.uleb128 0x18
 2297 0171 9142     		.uleb128 0x2111
 2298 0173 18       		.uleb128 0x18
 2299 0174 00       		.byte	0
 2300 0175 00       		.byte	0
 2301 0176 1F       		.uleb128 0x1f
 2302 0177 898201   		.uleb128 0x4109
 2303 017a 01       		.byte	0x1
 2304 017b 11       		.uleb128 0x11
 2305 017c 01       		.uleb128 0x1
 2306 017d 9542     		.uleb128 0x2115
 2307 017f 19       		.uleb128 0x19
 2308 0180 31       		.uleb128 0x31
 2309 0181 13       		.uleb128 0x13
 2310 0182 00       		.byte	0
 2311 0183 00       		.byte	0
 2312 0184 20       		.uleb128 0x20
 2313 0185 34       		.uleb128 0x34
 2314 0186 00       		.byte	0
 2315 0187 03       		.uleb128 0x3
 2316 0188 0E       		.uleb128 0xe
 2317 0189 3A       		.uleb128 0x3a
 2318 018a 0B       		.uleb128 0xb
 2319 018b 3B       		.uleb128 0x3b
 2320 018c 0B       		.uleb128 0xb
 2321 018d 49       		.uleb128 0x49
 2322 018e 13       		.uleb128 0x13
 2323 018f 02       		.uleb128 0x2
 2324 0190 18       		.uleb128 0x18
 2325 0191 00       		.byte	0
 2326 0192 00       		.byte	0
ARM GAS  /tmp/ccNI8AFB.s 			page 55


 2327 0193 21       		.uleb128 0x21
 2328 0194 34       		.uleb128 0x34
 2329 0195 00       		.byte	0
 2330 0196 03       		.uleb128 0x3
 2331 0197 0E       		.uleb128 0xe
 2332 0198 3A       		.uleb128 0x3a
 2333 0199 0B       		.uleb128 0xb
 2334 019a 3B       		.uleb128 0x3b
 2335 019b 05       		.uleb128 0x5
 2336 019c 49       		.uleb128 0x49
 2337 019d 13       		.uleb128 0x13
 2338 019e 3F       		.uleb128 0x3f
 2339 019f 19       		.uleb128 0x19
 2340 01a0 3C       		.uleb128 0x3c
 2341 01a1 19       		.uleb128 0x19
 2342 01a2 00       		.byte	0
 2343 01a3 00       		.byte	0
 2344 01a4 22       		.uleb128 0x22
 2345 01a5 34       		.uleb128 0x34
 2346 01a6 00       		.byte	0
 2347 01a7 03       		.uleb128 0x3
 2348 01a8 08       		.uleb128 0x8
 2349 01a9 3A       		.uleb128 0x3a
 2350 01aa 0B       		.uleb128 0xb
 2351 01ab 3B       		.uleb128 0x3b
 2352 01ac 05       		.uleb128 0x5
 2353 01ad 49       		.uleb128 0x49
 2354 01ae 13       		.uleb128 0x13
 2355 01af 3F       		.uleb128 0x3f
 2356 01b0 19       		.uleb128 0x19
 2357 01b1 3C       		.uleb128 0x3c
 2358 01b2 19       		.uleb128 0x19
 2359 01b3 00       		.byte	0
 2360 01b4 00       		.byte	0
 2361 01b5 23       		.uleb128 0x23
 2362 01b6 2E       		.uleb128 0x2e
 2363 01b7 01       		.byte	0x1
 2364 01b8 3F       		.uleb128 0x3f
 2365 01b9 19       		.uleb128 0x19
 2366 01ba 03       		.uleb128 0x3
 2367 01bb 0E       		.uleb128 0xe
 2368 01bc 3A       		.uleb128 0x3a
 2369 01bd 0B       		.uleb128 0xb
 2370 01be 3B       		.uleb128 0x3b
 2371 01bf 05       		.uleb128 0x5
 2372 01c0 27       		.uleb128 0x27
 2373 01c1 19       		.uleb128 0x19
 2374 01c2 3C       		.uleb128 0x3c
 2375 01c3 19       		.uleb128 0x19
 2376 01c4 01       		.uleb128 0x1
 2377 01c5 13       		.uleb128 0x13
 2378 01c6 00       		.byte	0
 2379 01c7 00       		.byte	0
 2380 01c8 24       		.uleb128 0x24
 2381 01c9 2E       		.uleb128 0x2e
 2382 01ca 01       		.byte	0x1
 2383 01cb 3F       		.uleb128 0x3f
ARM GAS  /tmp/ccNI8AFB.s 			page 56


 2384 01cc 19       		.uleb128 0x19
 2385 01cd 03       		.uleb128 0x3
 2386 01ce 0E       		.uleb128 0xe
 2387 01cf 3A       		.uleb128 0x3a
 2388 01d0 0B       		.uleb128 0xb
 2389 01d1 3B       		.uleb128 0x3b
 2390 01d2 05       		.uleb128 0x5
 2391 01d3 27       		.uleb128 0x27
 2392 01d4 19       		.uleb128 0x19
 2393 01d5 3C       		.uleb128 0x3c
 2394 01d6 19       		.uleb128 0x19
 2395 01d7 00       		.byte	0
 2396 01d8 00       		.byte	0
 2397 01d9 00       		.byte	0
 2398              		.section	.debug_aranges,"",%progbits
 2399 0000 1C000000 		.4byte	0x1c
 2400 0004 0200     		.2byte	0x2
 2401 0006 00000000 		.4byte	.Ldebug_info0
 2402 000a 04       		.byte	0x4
 2403 000b 00       		.byte	0
 2404 000c 0000     		.2byte	0
 2405 000e 0000     		.2byte	0
 2406 0010 00000000 		.4byte	.LFB261
 2407 0014 A0000000 		.4byte	.LFE261-.LFB261
 2408 0018 00000000 		.4byte	0
 2409 001c 00000000 		.4byte	0
 2410              		.section	.debug_ranges,"",%progbits
 2411              	.Ldebug_ranges0:
 2412 0000 00000000 		.4byte	.LFB261
 2413 0004 A0000000 		.4byte	.LFE261
 2414 0008 00000000 		.4byte	0
 2415 000c 00000000 		.4byte	0
 2416              		.section	.debug_line,"",%progbits
 2417              	.Ldebug_line0:
 2418 0000 96020000 		.section	.debug_str,"MS",%progbits,1
 2418      02006E02 
 2418      00000201 
 2418      FB0E0D00 
 2418      01010101 
 2419              	.LASF141:
 2420 0000 70776D63 		.ascii	"pwmchannel_t\000"
 2420      68616E6E 
 2420      656C5F74 
 2420      00
 2421              	.LASF53:
 2422 000d 72656164 		.ascii	"ready_list_t\000"
 2422      795F6C69 
 2422      73745F74 
 2422      00
 2423              	.LASF87:
 2424 001a 44494552 		.ascii	"DIER\000"
 2424      00
 2425              	.LASF2:
 2426 001f 73697A65 		.ascii	"size_t\000"
 2426      5F7400
 2427              	.LASF98:
 2428 0026 7264796D 		.ascii	"rdymsg\000"
ARM GAS  /tmp/ccNI8AFB.s 			page 57


 2428      736700
 2429              	.LASF19:
 2430 002d 75696E74 		.ascii	"uint64_t\000"
 2430      36345F74 
 2430      00
 2431              	.LASF3:
 2432 0036 5F5F7569 		.ascii	"__uint8_t\000"
 2432      6E74385F 
 2432      7400
 2433              	.LASF117:
 2434 0040 4F545950 		.ascii	"OTYPER\000"
 2434      455200
 2435              	.LASF85:
 2436 0047 706F7274 		.ascii	"port_intctx\000"
 2436      5F696E74 
 2436      63747800 
 2437              	.LASF52:
 2438 0053 63685F74 		.ascii	"ch_threads_queue\000"
 2438      68726561 
 2438      64735F71 
 2438      75657565 
 2438      00
 2439              	.LASF72:
 2440 0064 73797374 		.ascii	"system_debug_t\000"
 2440      656D5F64 
 2440      65627567 
 2440      5F7400
 2441              	.LASF125:
 2442 0073 696F706F 		.ascii	"ioportmask_t\000"
 2442      72746D61 
 2442      736B5F74 
 2442      00
 2443              	.LASF135:
 2444 0080 70657269 		.ascii	"period\000"
 2444      6F6400
 2445              	.LASF116:
 2446 0087 4D4F4445 		.ascii	"MODER\000"
 2446      5200
 2447              	.LASF14:
 2448 008d 6C6F6E67 		.ascii	"long long unsigned int\000"
 2448      206C6F6E 
 2448      6720756E 
 2448      7369676E 
 2448      65642069 
 2449              	.LASF151:
 2450 00a4 70776D63 		.ascii	"pwmcfg2\000"
 2450      66673200 
 2451              	.LASF119:
 2452 00ac 50555044 		.ascii	"PUPDR\000"
 2452      5200
 2453              	.LASF99:
 2454 00b2 65786974 		.ascii	"exitcode\000"
 2454      636F6465 
 2454      00
 2455              	.LASF79:
 2456 00bb 6D61696E 		.ascii	"mainthread\000"
 2456      74687265 
ARM GAS  /tmp/ccNI8AFB.s 			page 58


 2456      616400
 2457              	.LASF69:
 2458 00c6 76697274 		.ascii	"virtual_timers_list_t\000"
 2458      75616C5F 
 2458      74696D65 
 2458      72735F6C 
 2458      6973745F 
 2459              	.LASF152:
 2460 00dc 49544D5F 		.ascii	"ITM_RxBuffer\000"
 2460      52784275 
 2460      66666572 
 2460      00
 2461              	.LASF91:
 2462 00e9 42445452 		.ascii	"BDTR\000"
 2462      00
 2463              	.LASF147:
 2464 00ee 66726571 		.ascii	"frequency\000"
 2464      75656E63 
 2464      7900
 2465              	.LASF109:
 2466 00f8 6D5F7175 		.ascii	"m_queue\000"
 2466      65756500 
 2467              	.LASF32:
 2468 0100 705F7072 		.ascii	"p_prio\000"
 2468      696F00
 2469              	.LASF130:
 2470 0107 50574D5F 		.ascii	"PWM_READY\000"
 2470      52454144 
 2470      5900
 2471              	.LASF160:
 2472 0111 70776D53 		.ascii	"pwmStart\000"
 2472      74617274 
 2472      00
 2473              	.LASF88:
 2474 011a 43434D52 		.ascii	"CCMR1\000"
 2474      3100
 2475              	.LASF89:
 2476 0120 43434D52 		.ascii	"CCMR2\000"
 2476      3200
 2477              	.LASF93:
 2478 0126 43434D52 		.ascii	"CCMR3\000"
 2478      3300
 2479              	.LASF1:
 2480 012c 7369676E 		.ascii	"signed char\000"
 2480      65642063 
 2480      68617200 
 2481              	.LASF120:
 2482 0138 42535252 		.ascii	"BSRR\000"
 2482      00
 2483              	.LASF140:
 2484 013d 70776D6D 		.ascii	"pwmmode_t\000"
 2484      6F64655F 
 2484      7400
 2485              	.LASF153:
 2486 0147 50574D44 		.ascii	"PWMD1\000"
 2486      3100
 2487              	.LASF78:
ARM GAS  /tmp/ccNI8AFB.s 			page 59


 2488 014d 76746C69 		.ascii	"vtlist\000"
 2488      737400
 2489              	.LASF133:
 2490 0154 73746174 		.ascii	"state\000"
 2490      6500
 2491              	.LASF137:
 2492 015a 6368616E 		.ascii	"channels\000"
 2492      6E656C73 
 2492      00
 2493              	.LASF9:
 2494 0163 6C6F6E67 		.ascii	"long int\000"
 2494      20696E74 
 2494      00
 2495              	.LASF22:
 2496 016c 74737461 		.ascii	"tstate_t\000"
 2496      74655F74 
 2496      00
 2497              	.LASF90:
 2498 0175 43434552 		.ascii	"CCER\000"
 2498      00
 2499              	.LASF12:
 2500 017a 6C6F6E67 		.ascii	"long long int\000"
 2500      206C6F6E 
 2500      6720696E 
 2500      7400
 2501              	.LASF16:
 2502 0188 75696E74 		.ascii	"uint16_t\000"
 2502      31365F74 
 2502      00
 2503              	.LASF34:
 2504 0191 705F6E65 		.ascii	"p_newer\000"
 2504      77657200 
 2505              	.LASF106:
 2506 0199 735F7175 		.ascii	"s_queue\000"
 2506      65756500 
 2507              	.LASF7:
 2508 01a1 73686F72 		.ascii	"short unsigned int\000"
 2508      7420756E 
 2508      7369676E 
 2508      65642069 
 2508      6E7400
 2509              	.LASF154:
 2510 01b4 50574D44 		.ascii	"PWMD4\000"
 2510      3400
 2511              	.LASF118:
 2512 01ba 4F535045 		.ascii	"OSPEEDR\000"
 2512      45445200 
 2513              	.LASF58:
 2514 01c2 725F6E65 		.ascii	"r_newer\000"
 2514      77657200 
 2515              	.LASF46:
 2516 01ca 705F6D70 		.ascii	"p_mpool\000"
 2516      6F6F6C00 
 2517              	.LASF82:
 2518 01d2 72656761 		.ascii	"regarm_t\000"
 2518      726D5F74 
 2518      00
ARM GAS  /tmp/ccNI8AFB.s 			page 60


 2519              	.LASF65:
 2520 01db 76745F70 		.ascii	"vt_prev\000"
 2520      72657600 
 2521              	.LASF124:
 2522 01e3 73746D33 		.ascii	"stm32_gpio_t\000"
 2522      325F6770 
 2522      696F5F74 
 2522      00
 2523              	.LASF113:
 2524 01f0 6D757465 		.ascii	"mutex_t\000"
 2524      785F7400 
 2525              	.LASF80:
 2526 01f8 69646C65 		.ascii	"idle_thread_wa\000"
 2526      5F746872 
 2526      6561645F 
 2526      776100
 2527              	.LASF27:
 2528 0207 636E745F 		.ascii	"cnt_t\000"
 2528      7400
 2529              	.LASF0:
 2530 020d 756E7369 		.ascii	"unsigned int\000"
 2530      676E6564 
 2530      20696E74 
 2530      00
 2531              	.LASF64:
 2532 021a 76745F6E 		.ascii	"vt_next\000"
 2532      65787400 
 2533              	.LASF102:
 2534 0222 77747365 		.ascii	"wtsemp\000"
 2534      6D7000
 2535              	.LASF41:
 2536 0229 705F6D73 		.ascii	"p_msgqueue\000"
 2536      67717565 
 2536      756500
 2537              	.LASF49:
 2538 0234 63685F74 		.ascii	"ch_thread\000"
 2538      68726561 
 2538      6400
 2539              	.LASF121:
 2540 023e 4C434B52 		.ascii	"LCKR\000"
 2540      00
 2541              	.LASF157:
 2542 0243 2F686F6D 		.ascii	"/home/balint/stm32/ex/climate_master_V031\000"
 2542      652F6261 
 2542      6C696E74 
 2542      2F73746D 
 2542      33322F65 
 2543              	.LASF86:
 2544 026d 534D4352 		.ascii	"SMCR\000"
 2544      00
 2545              	.LASF25:
 2546 0272 6D73675F 		.ascii	"msg_t\000"
 2546      7400
 2547              	.LASF50:
 2548 0278 63685F74 		.ascii	"ch_threads_list\000"
 2548      68726561 
 2548      64735F6C 
ARM GAS  /tmp/ccNI8AFB.s 			page 61


 2548      69737400 
 2549              	.LASF75:
 2550 0288 63685F73 		.ascii	"ch_system_t\000"
 2550      79737465 
 2550      6D5F7400 
 2551              	.LASF145:
 2552 0294 63616C6C 		.ascii	"callback\000"
 2552      6261636B 
 2552      00
 2553              	.LASF156:
 2554 029d 7372632F 		.ascii	"src/climate_conf.c\000"
 2554      636C696D 
 2554      6174655F 
 2554      636F6E66 
 2554      2E6300
 2555              	.LASF95:
 2556 02b0 73746D33 		.ascii	"stm32_tim_t\000"
 2556      325F7469 
 2556      6D5F7400 
 2557              	.LASF54:
 2558 02bc 63685F72 		.ascii	"ch_ready_list\000"
 2558      65616479 
 2558      5F6C6973 
 2558      7400
 2559              	.LASF26:
 2560 02ca 6576656E 		.ascii	"eventmask_t\000"
 2560      746D6173 
 2560      6B5F7400 
 2561              	.LASF8:
 2562 02d6 5F5F696E 		.ascii	"__int32_t\000"
 2562      7433325F 
 2562      7400
 2563              	.LASF83:
 2564 02e0 73746B61 		.ascii	"stkalign_t\000"
 2564      6C69676E 
 2564      5F7400
 2565              	.LASF155:
 2566 02eb 474E5520 		.ascii	"GNU C 4.8.4 20141219 (release) -mcpu=cortex-m4 -mno"
 2566      4320342E 
 2566      382E3420 
 2566      32303134 
 2566      31323139 
 2567 031e 2D746875 		.ascii	"-thumb-interwork -mthumb -ggdb -O2 -fomit-frame-poi"
 2567      6D622D69 
 2567      6E746572 
 2567      776F726B 
 2567      202D6D74 
 2568 0351 6E746572 		.ascii	"nter -falign-functions=16 -ffunction-sections -fdat"
 2568      202D6661 
 2568      6C69676E 
 2568      2D66756E 
 2568      6374696F 
 2569 0384 612D7365 		.ascii	"a-sections -fno-common -flto\000"
 2569      6374696F 
 2569      6E73202D 
 2569      666E6F2D 
 2569      636F6D6D 
ARM GAS  /tmp/ccNI8AFB.s 			page 62


 2570              	.LASF40:
 2571 03a1 705F7761 		.ascii	"p_waiting\000"
 2571      6974696E 
 2571      6700
 2572              	.LASF81:
 2573 03ab 73697A65 		.ascii	"sizetype\000"
 2573      74797065 
 2573      00
 2574              	.LASF47:
 2575 03b4 74687265 		.ascii	"thread_reference_t\000"
 2575      61645F72 
 2575      65666572 
 2575      656E6365 
 2575      5F7400
 2576              	.LASF126:
 2577 03c7 696F6D6F 		.ascii	"iomode_t\000"
 2577      64655F74 
 2577      00
 2578              	.LASF70:
 2579 03d0 63685F76 		.ascii	"ch_virtual_timers_list\000"
 2579      69727475 
 2579      616C5F74 
 2579      696D6572 
 2579      735F6C69 
 2580              	.LASF115:
 2581 03e7 636C6561 		.ascii	"clear\000"
 2581      7200
 2582              	.LASF101:
 2583 03ed 77747472 		.ascii	"wttrp\000"
 2583      7000
 2584              	.LASF71:
 2585 03f3 76745F6C 		.ascii	"vt_lasttime\000"
 2585      61737474 
 2585      696D6500 
 2586              	.LASF35:
 2587 03ff 705F6F6C 		.ascii	"p_older\000"
 2587      64657200 
 2588              	.LASF57:
 2589 0407 725F6374 		.ascii	"r_ctx\000"
 2589      7800
 2590              	.LASF97:
 2591 040d 746D5F63 		.ascii	"tm_calibration_t\000"
 2591      616C6962 
 2591      72617469 
 2591      6F6E5F74 
 2591      00
 2592              	.LASF60:
 2593 041e 725F6375 		.ascii	"r_current\000"
 2593      7272656E 
 2593      7400
 2594              	.LASF59:
 2595 0428 725F6F6C 		.ascii	"r_older\000"
 2595      64657200 
 2596              	.LASF13:
 2597 0430 5F5F7569 		.ascii	"__uint64_t\000"
 2597      6E743634 
 2597      5F7400
ARM GAS  /tmp/ccNI8AFB.s 			page 63


 2598              	.LASF123:
 2599 043b 41465248 		.ascii	"AFRH\000"
 2599      00
 2600              	.LASF122:
 2601 0440 4146524C 		.ascii	"AFRL\000"
 2601      00
 2602              	.LASF139:
 2603 0445 70776D63 		.ascii	"pwmcallback_t\000"
 2603      616C6C62 
 2603      61636B5F 
 2603      7400
 2604              	.LASF23:
 2605 0453 74726566 		.ascii	"trefs_t\000"
 2605      735F7400 
 2606              	.LASF62:
 2607 045b 76697274 		.ascii	"virtual_timer_t\000"
 2607      75616C5F 
 2607      74696D65 
 2607      725F7400 
 2608              	.LASF31:
 2609 046b 705F7072 		.ascii	"p_prev\000"
 2609      657600
 2610              	.LASF24:
 2611 0472 74707269 		.ascii	"tprio_t\000"
 2611      6F5F7400 
 2612              	.LASF73:
 2613 047a 63685F73 		.ascii	"ch_system_debug\000"
 2613      79737465 
 2613      6D5F6465 
 2613      62756700 
 2614              	.LASF114:
 2615 048a 5F426F6F 		.ascii	"_Bool\000"
 2615      6C00
 2616              	.LASF17:
 2617 0490 696E7433 		.ascii	"int32_t\000"
 2617      325F7400 
 2618              	.LASF4:
 2619 0498 756E7369 		.ascii	"unsigned char\000"
 2619      676E6564 
 2619      20636861 
 2619      7200
 2620              	.LASF107:
 2621 04a6 735F636E 		.ascii	"s_cnt\000"
 2621      7400
 2622              	.LASF44:
 2623 04ac 705F6D74 		.ascii	"p_mtxlist\000"
 2623      786C6973 
 2623      7400
 2624              	.LASF5:
 2625 04b6 73686F72 		.ascii	"short int\000"
 2625      7420696E 
 2625      7400
 2626              	.LASF37:
 2627 04c0 705F7374 		.ascii	"p_state\000"
 2627      61746500 
 2628              	.LASF56:
 2629 04c8 725F7072 		.ascii	"r_prio\000"
ARM GAS  /tmp/ccNI8AFB.s 			page 64


 2629      696F00
 2630              	.LASF104:
 2631 04cf 65776D61 		.ascii	"ewmask\000"
 2631      736B00
 2632              	.LASF30:
 2633 04d6 705F6E65 		.ascii	"p_next\000"
 2633      787400
 2634              	.LASF142:
 2635 04dd 70776D63 		.ascii	"pwmchnmsk_t\000"
 2635      686E6D73 
 2635      6B5F7400 
 2636              	.LASF38:
 2637 04e9 705F666C 		.ascii	"p_flags\000"
 2637      61677300 
 2638              	.LASF76:
 2639 04f1 63685F73 		.ascii	"ch_system\000"
 2639      79737465 
 2639      6D00
 2640              	.LASF63:
 2641 04fb 63685F76 		.ascii	"ch_virtual_timer\000"
 2641      69727475 
 2641      616C5F74 
 2641      696D6572 
 2641      00
 2642              	.LASF105:
 2643 050c 63685F73 		.ascii	"ch_semaphore\000"
 2643      656D6170 
 2643      686F7265 
 2643      00
 2644              	.LASF94:
 2645 0519 43435852 		.ascii	"CCXR\000"
 2645      00
 2646              	.LASF43:
 2647 051e 705F6570 		.ascii	"p_epending\000"
 2647      656E6469 
 2647      6E6700
 2648              	.LASF18:
 2649 0529 75696E74 		.ascii	"uint32_t\000"
 2649      33325F74 
 2649      00
 2650              	.LASF103:
 2651 0532 77746D74 		.ascii	"wtmtxp\000"
 2651      787000
 2652              	.LASF55:
 2653 0539 725F7175 		.ascii	"r_queue\000"
 2653      65756500 
 2654              	.LASF66:
 2655 0541 76745F64 		.ascii	"vt_delta\000"
 2655      656C7461 
 2655      00
 2656              	.LASF136:
 2657 054a 656E6162 		.ascii	"enabled\000"
 2657      6C656400 
 2658              	.LASF11:
 2659 0552 6C6F6E67 		.ascii	"long unsigned int\000"
 2659      20756E73 
 2659      69676E65 
ARM GAS  /tmp/ccNI8AFB.s 			page 65


 2659      6420696E 
 2659      7400
 2660              	.LASF129:
 2661 0564 50574D5F 		.ascii	"PWM_STOP\000"
 2661      53544F50 
 2661      00
 2662              	.LASF112:
 2663 056d 63686172 		.ascii	"char\000"
 2663      00
 2664              	.LASF6:
 2665 0572 5F5F7569 		.ascii	"__uint16_t\000"
 2665      6E743136 
 2665      5F7400
 2666              	.LASF144:
 2667 057d 6D6F6465 		.ascii	"mode\000"
 2667      00
 2668              	.LASF134:
 2669 0582 636F6E66 		.ascii	"config\000"
 2669      696700
 2670              	.LASF92:
 2671 0589 444D4152 		.ascii	"DMAR\000"
 2671      00
 2672              	.LASF29:
 2673 058e 74687265 		.ascii	"thread_t\000"
 2673      61645F74 
 2673      00
 2674              	.LASF111:
 2675 0597 6D5F6E65 		.ascii	"m_next\000"
 2675      787400
 2676              	.LASF28:
 2677 059e 73797374 		.ascii	"systime_t\000"
 2677      696D655F 
 2677      7400
 2678              	.LASF45:
 2679 05a8 705F7265 		.ascii	"p_realprio\000"
 2679      616C7072 
 2679      696F00
 2680              	.LASF61:
 2681 05b3 76746675 		.ascii	"vtfunc_t\000"
 2681      6E635F74 
 2681      00
 2682              	.LASF10:
 2683 05bc 5F5F7569 		.ascii	"__uint32_t\000"
 2683      6E743332 
 2683      5F7400
 2684              	.LASF74:
 2685 05c7 70616E69 		.ascii	"panic_msg\000"
 2685      635F6D73 
 2685      6700
 2686              	.LASF96:
 2687 05d1 6F666673 		.ascii	"offset\000"
 2687      657400
 2688              	.LASF127:
 2689 05d8 696F706F 		.ascii	"ioportid_t\000"
 2689      72746964 
 2689      5F7400
 2690              	.LASF84:
ARM GAS  /tmp/ccNI8AFB.s 			page 66


 2691 05e3 636F6E74 		.ascii	"context\000"
 2691      65787400 
 2692              	.LASF159:
 2693 05eb 5F70616C 		.ascii	"_pal_lld_setgroupmode\000"
 2693      5F6C6C64 
 2693      5F736574 
 2693      67726F75 
 2693      706D6F64 
 2694              	.LASF146:
 2695 0601 50574D43 		.ascii	"PWMChannelConfig\000"
 2695      68616E6E 
 2695      656C436F 
 2695      6E666967 
 2695      00
 2696              	.LASF20:
 2697 0612 7274636E 		.ascii	"rtcnt_t\000"
 2697      745F7400 
 2698              	.LASF158:
 2699 061a 62617365 		.ascii	"baseInit\000"
 2699      496E6974 
 2699      00
 2700              	.LASF150:
 2701 0623 70776D63 		.ascii	"pwmcfg\000"
 2701      666700
 2702              	.LASF68:
 2703 062a 76745F70 		.ascii	"vt_par\000"
 2703      617200
 2704              	.LASF149:
 2705 0631 50574D43 		.ascii	"PWMConfig\000"
 2705      6F6E6669 
 2705      6700
 2706              	.LASF51:
 2707 063b 74687265 		.ascii	"threads_queue_t\000"
 2707      6164735F 
 2707      71756575 
 2707      655F7400 
 2708              	.LASF108:
 2709 064b 63685F6D 		.ascii	"ch_mutex\000"
 2709      75746578 
 2709      00
 2710              	.LASF39:
 2711 0654 705F7265 		.ascii	"p_refs\000"
 2711      667300
 2712              	.LASF77:
 2713 065b 726C6973 		.ascii	"rlist\000"
 2713      7400
 2714              	.LASF15:
 2715 0661 75696E74 		.ascii	"uint8_t\000"
 2715      385F7400 
 2716              	.LASF132:
 2717 0669 50574D44 		.ascii	"PWMDriver\000"
 2717      72697665 
 2717      7200
 2718              	.LASF131:
 2719 0673 70776D73 		.ascii	"pwmstate_t\000"
 2719      74617465 
 2719      5F7400
ARM GAS  /tmp/ccNI8AFB.s 			page 67


 2720              	.LASF143:
 2721 067e 70776D63 		.ascii	"pwmcnt_t\000"
 2721      6E745F74 
 2721      00
 2722              	.LASF100:
 2723 0687 77746F62 		.ascii	"wtobjp\000"
 2723      6A7000
 2724              	.LASF36:
 2725 068e 705F6E61 		.ascii	"p_name\000"
 2725      6D6500
 2726              	.LASF48:
 2727 0695 74687265 		.ascii	"threads_list_t\000"
 2727      6164735F 
 2727      6C697374 
 2727      5F7400
 2728              	.LASF21:
 2729 06a4 746D6F64 		.ascii	"tmode_t\000"
 2729      655F7400 
 2730              	.LASF138:
 2731 06ac 636C6F63 		.ascii	"clock\000"
 2731      6B00
 2732              	.LASF42:
 2733 06b2 705F6D73 		.ascii	"p_msg\000"
 2733      6700
 2734              	.LASF128:
 2735 06b8 50574D5F 		.ascii	"PWM_UNINIT\000"
 2735      554E494E 
 2735      495400
 2736              	.LASF110:
 2737 06c3 6D5F6F77 		.ascii	"m_owner\000"
 2737      6E657200 
 2738              	.LASF33:
 2739 06cb 705F6374 		.ascii	"p_ctx\000"
 2739      7800
 2740              	.LASF67:
 2741 06d1 76745F66 		.ascii	"vt_func\000"
 2741      756E6300 
 2742              	.LASF148:
 2743 06d9 64696572 		.ascii	"dier\000"
 2743      00
 2744              		.comm	__gnu_lto_v1,1,1
 2745              		.ident	"GCC: (4.8.4-1+11-1) 4.8.4 20141219 (release)"
ARM GAS  /tmp/ccNI8AFB.s 			page 68


DEFINED SYMBOLS
                            *ABS*:00000000 climate_conf.c
     /tmp/ccNI8AFB.s:238    .text.baseInit:00000000 $t
     /tmp/ccNI8AFB.s:244    .text.baseInit:00000000 baseInit
     /tmp/ccNI8AFB.s:333    .text.baseInit:00000084 $d
     /tmp/ccNI8AFB.s:344    .rodata.pwmcfg:00000000 $d
     /tmp/ccNI8AFB.s:348    .rodata.pwmcfg:00000000 pwmcfg
     /tmp/ccNI8AFB.s:363    .rodata.pwmcfg2:00000000 $d
     /tmp/ccNI8AFB.s:367    .rodata.pwmcfg2:00000000 pwmcfg2
                            *COM*:00000001 __gnu_lto_v1
                     .debug_frame:00000010 $d

UNDEFINED SYMBOLS
_pal_lld_setgroupmode
pwmStart
PWMD4
PWMD1
