ARM GAS  /tmp/ccNI8AFB.s 			page 1


   1              		.syntax unified
   2              		.cpu cortex-m4
   3              		.fpu softvfp
   4              		.eabi_attribute 20, 1
   5              		.eabi_attribute 21, 1
   6              		.eabi_attribute 23, 3
   7              		.eabi_attribute 24, 1
   8              		.eabi_attribute 25, 1
   9              		.eabi_attribute 26, 1
  10              		.eabi_attribute 30, 2
  11              		.eabi_attribute 34, 1
  12              		.eabi_attribute 18, 4
  13              		.thumb
  14              		.file	"climate_conf.c"
  15              		.text
  16              	.Ltext0:
  17              		.section	.gnu.lto_.jmpfuncs.28dc610e7c3cf1dc,"",%progbits
  18 0000 789C6362 		.ascii	"x\234cb`b\300\006*\030!4\220bb\252f\370\325\320\321"
  18      6062C006 
  18      2A182134 
  18      906262AA 
  18      66F8D5D0 
  19 0015 2090C9C8 		.ascii	" \220\311\310\220\013\021\006\213\314\000\2110\3462"
  19      900B1106 
  19      8BCC0089 
  19      30E632
  20 0024 82855015 		.ascii	"\202\205P\0251a(b\006\21103E0f225,\350h`\001\312\203"
  20      31612862 
  20      06893033 
  20      45306632 
  20      32352CE8 
  21 003d 38CC7016 		.ascii	"8\314p\026K\023#B\305\014d\025\015\214p%L8\2248\020"
  21      4B132342 
  21      C50C6415 
  21      0D8C7025 
  21      4C389438 
  22 0052 54A1804D 		.ascii	"T\241\200M\005\212C\340\266 \271c\002\222\002\016\230"
  22      058A43E0 
  22      B620B963 
  22      0292020E 
  22      98
  23 0063 3C037679 		.ascii	"<\003vy\026\002\362L\004\344\031\221\344\031\000Z,>"
  23      1602F24C 
  23      04E41991 
  23      E419005A 
  23      2C3E
  24 0075 33       		.ascii	"3"
  25              		.text
  26              		.section	.gnu.lto_.inline.28dc610e7c3cf1dc,"",%progbits
  27 0000 789C6362 		.ascii	"x\234cb`b\300\006\262\2414#\003\203n?##X\025\333\002"
  27      6062C006 
  27      B2A13423 
  27      03836E3F 
  27      23235815 
  28 0016 79B06266 		.ascii	"y\260bf\036\006\020\037J\261\360\002\231\014\224\323"
  28      1E06101F 
  28      4AB1F002 
ARM GAS  /tmp/ccNI8AFB.s 			page 2


  28      990C94D3 
  29 0026 0C00F068 		.ascii	"\014\000\360h\002\316"
  29      02CE
  30              		.text
  31              		.section	.gnu.lto_.pureconst.28dc610e7c3cf1dc,"",%progbits
  32 0000 789C6362 		.ascii	"x\234cb`b`f\200\000F\006\011\000\000\203\000!"
  32      60626066 
  32      80004606 
  32      09000083 
  32      0021
  33              		.text
  34              		.section	.gnu.lto_baseInit.28dc610e7c3cf1dc,"",%progbits
  35 0000 789C9592 		.ascii	"x\234\225\222\317J\0031\020\306\347\233\335\265{\021"
  35      CF4A0331 
  35      10C6E79B 
  35      DDB57B11 
  36 0010 0411F456 		.ascii	"\004\021\364V\350]_\301\207\250\240')A!\340*\2507\017"
  36      E85D5FC1 
  36      87A8A027 
  36      294121E0 
  36      2AA8370F 
  37 0024 4DAB961E 		.ascii	"M\253\226\036\367T\004W]\351\331\366\001\004\365\352"
  37      F7540457 
  37      5DE9D9F6 
  37      0104F5EA 
  38 0034 45F10DF6 		.ascii	"E\361\015\3669\274\324d\377t\027#\324\015$\023&\363"
  38      39BCD464 
  38      FF741723 
  38      D40D2413 
  38      26F3
  39 0046 FB92990C 		.ascii	"\373\222\231\014\023\323\357\261\241g\313!Z\323\026"
  39      13D3EFB1 
  39      A167CB21 
  39      5AD316
  40 0055 0E81C30F 		.ascii	"\016\201\303\017\242\236\317\200\331\020\250\313\350"
  40      A29ECF80 
  40      D910A8CB 
  40      E8
  41 0062 EE218D9D 		.ascii	"\356!\215\235\362[2\233MF\203Q\204\210\227\265\307\243"
  41      F25B329B 
  41      4D468351 
  41      848897B5 
  41      C7A3
  42 0074 2BA5C226 		.ascii	"+\245\302&\221H#\332z5\330\016\330X\347\223\006\311"
  42      914823DA 
  42      7A35D80E 
  42      D858E793 
  42      06C9
  43 0086 ED181D3C 		.ascii	"\355\030\035<\302\323\307\027\364\255\206jEB\207g\212"
  43      C2D3C717 
  43      F4AD866A 
  43      45428767 
  43      8A
  44 0097 BB90800A 		.ascii	"\273\220\200\012\207\312M\267\214\324\350\347H\270D"
  44      87CA4DB7 
  44      8CD4E8E7 
  44      48B844
ARM GAS  /tmp/ccNI8AFB.s 			page 3


  45 00a6 1A8F23E7 		.ascii	"\032\217#\347\3774[\364]\015\332\265\350\373\032\264"
  45      FF345BF4 
  45      5D0DDAB5 
  45      E8FB1AB4 
  46 00b6 6FD10F0B 		.ascii	"o\321\017\013\351xN\253<q\224\370\323B\374\246\304\233"
  46      E9784EAB 
  46      3C7194F8 
  46      D342FCA6 
  46      C49B
  47 00c8 19DEE792 		.ascii	"\031\336\347\222\237\324\341\267m~Z\207/\336_\021H\236"
  47      9FD4E1B7 
  47      6D7E5A87 
  47      2FDE5F11 
  47      489E
  48 00da 2F177E7C 		.ascii	"/\027~|\245\000y\365\373\363\012\\'/\343\206%\340\011"
  48      A50079F5 
  48      FBF30A5C 
  48      272FE386 
  48      25E009
  49 00ed 643D6C3C 		.ascii	"d=l<\276\304R\000\312\203\214g]\242\021\240\270W\302"
  49      BEC45200 
  49      CA838C67 
  49      5DA211A0 
  49      B857C2
  50 0100 4F95E257 		.ascii	"O\225\342W;\227?\204\330\022r\252B_\324K\336[\205P6"
  50      3B973F84 
  50      D81272AA 
  50      425FD44B 
  50      DE5B8550 
  51 0115 DA3A1DDD 		.ascii	"\332:\035\335\350Fi\365\354Tl\211#\031t\316\017\366"
  51      E84669F5 
  51      EC546C89 
  51      231974CE 
  51      0FF6
  52 0127 C5C9F1E1 		.ascii	"\305\311\361\341\246\240\037dH\267@"
  52      A6A01F64 
  52      48B740
  53              		.text
  54              		.section	.gnu.lto_.symbol_nodes.28dc610e7c3cf1dc,"",%progbits
  55 0000 789C3DCA 		.ascii	"x\234=\312K\012\203@\020\204\341\352\032'\327\360\250"
  55      4B0A8340 
  55      1084E1EA 
  55      1A27D7F0 
  55      A8
  56 0011 2D0C313E 		.ascii	"-\0141>6\236@\020\2172{\317\240\270\365\014!F\013{\363"
  56      369E4010 
  56      8F327BCF 
  56      A0B8F50C 
  56      21460B7B 
  57 0026 F1534D10 		.ascii	"\361SM\020\023t\374\320\201a\001\334\307\306bG\302\021"
  57      1374FCD0 
  57      816101DC 
  57      C7C66247 
  57      C211
  58 0038 DF0C8587 		.ascii	"\337\014\205\207\330\023\377\252igYK\267\373\265\252"
  58      D813FFAA 
  58      6967594B 
ARM GAS  /tmp/ccNI8AFB.s 			page 4


  58      B7FBB5AA 
  59 0048 CC1A3A9F 		.ascii	"\314\032:\237\012x!\255\337\313Yf\271\313\264i\227Y"
  59      0A7821AD 
  59      DFCB5966 
  59      B9CBB469 
  59      9759
  60 005a EE32D547 		.ascii	"\3562\325G\031\0201\313|\212\037O\346,\344"
  60      191031CB 
  60      7C8A1F4F 
  60      E62CE4
  61              		.text
  62              		.section	.gnu.lto_.refs.28dc610e7c3cf1dc,"",%progbits
  63 0000 789C6362 		.ascii	"x\234cb`b\340f\200\000\026\006&F&&&f&\026\006\000\001"
  63      6062E066 
  63      80001606 
  63      26462626 
  63      26662616 
  64 0017 C40026   		.ascii	"\304\000&"
  65              		.text
  66              		.section	.gnu.lto_.decls.28dc610e7c3cf1dc,"",%progbits
  67 0000 789CED9A 		.ascii	"x\234\355\232{l\024\307\031\300gv\317\217\003\227@("
  67      7B6C14C7 
  67      19C06776 
  67      CF8F0397 
  67      4028
  68 0012 D4AD2271 		.ascii	"\324\255\"q\211\024Di\312\025\203\"R)\0108\273`\005"
  68      89144469 
  68      CA158322 
  68      52290838 
  68      BB6005
  69 0025 636B6D14 		.ascii	"ckm\024\242\252:\226\363\001W\316g\367\356\014B\252"
  69      A2AA3A96 
  69      F30157CE 
  69      67F7EE0C 
  69      42AA
  70 0037 9AB5A10E 		.ascii	"\232\265\241\016\220>\214!\2248\216k\247\230B\313\243"
  70      903E8C21 
  70      94388E6B 
  70      A79842CB 
  70      A3
  71 0048 010C0430 		.ascii	"\001\014\0040\271R(\017\253\304\211\213\215AN\016*\010"
  71      B952280F 
  71      ABC4898B 
  71      8D414E0E 
  71      2A08
  72 005a 42698278 		.ascii	"Bi\202x5\224\220\353\314\267\273w\263\353]\337\356\211"
  72      359490EB 
  72      CCB7BB77 
  72      B3EB5DDF 
  72      EE89
  73 006c 3FBB62BF 		.ascii	"?\273b\277\233]\317\374\346\233\357\373\346\265\003"
  73      9B5DCFFC 
  73      E69BEFFB 
  73      E6B503
  74 007b 87387400 		.ascii	"\2078t\000!\224 \327\212\211\010EyD\336 4\223\334Y\344"
  74      219420D7 
  74      8A890845 
ARM GAS  /tmp/ccNI8AFB.s 			page 5


  74      7944DE20 
  74      3493DC59 
  75 0090 6E27F741 		.ascii	"n'\367ArO\301\010\345\220\337\237\220_z\221lh1IW\222"
  75      724FC108 
  75      E590DF9F 
  75      905F7A91 
  75      6C683149 
  76 00a6 3B406E07 		.ascii	";@n\007y\256%\277\253\310\375*\271\353\224|\352E\363"
  76      79AE25BF 
  76      ABC8FD2A 
  76      B9EB947C 
  76      EA45F3
  77 00b9 3AC9EF7A 		.ascii	":\311\357z\254e\375\224\334\033p\252\036\277\216\037"
  77      AC65FD94 
  77      DC1B70AA 
  77      1EBF8E1F 
  78 00c9 50EAA07C 		.ascii	"P\352\240|\225\253\326\303^#\321\006I\252\227\332\032"
  78      95ABD6C3 
  78      5E23D106 
  78      49AA97DA 
  78      1A
  79 00da A4796746 		.ascii	"\244ygF=\2116J\344r\235\031\205\320\",\342QN\024\307"
  79      3D89364A 
  79      E4729D19 
  79      85D0222C 
  79      E2514E14 
  80 00ef 90CA73A2 		.ascii	"\220\312s\242\247H\356g\3216Ij\214_\273\331\303KR\256"
  80      A748EE67 
  80      D136496A 
  80      8C5FBBD9 
  80      C34B52AE 
  81 0103 88DFC14F 		.ascii	"\210\337\301O\222V\177\027\243\311h')\330(IW\277\203"
  81      92567F17 
  81      A3C96827 
  81      29D82849 
  81      57BF83
  82 0116 865E69B9 		.ascii	"\206^i\271\"\336\2069\"\267\023\236\210;\360d\271&)"
  82      22DE8639 
  82      22B7139E 
  82      883BF064 
  82      B92629
  83 0129 7EEFDADE 		.ascii	"~\357\332\336|\250\211\376\005)\1773\270\236Fm\244\031"
  83      7CA889FE 
  83      05297F33 
  83      B89E466D 
  83      A419
  84 013b B187FDAD 		.ascii	"\261\207\375\255\337\222\3421\234\203\032h\253\342\277"
  84      DF92E231 
  84      9C831A68 
  84      ABE2BF
  85 014a ACCFDF9A 		.ascii	"\254\317\337\232\2523W\255\022\247\232r\352\323|\311"
  85      AA3357AD 
  85      12A79A72 
  85      EAD37CC9 
  86 015a 21E29DA4 		.ascii	"!\342\235\244\010\207\"XS\203\005\012Ui\027)\313*\035"
  86      08872258 
  86      5383050A 
ARM GAS  /tmp/ccNI8AFB.s 			page 6


  86      55691729 
  86      CB2A1D
  87 016d EB6C7882 		.ascii	"\353lx\2022\351\373aT\346i\274p\350\027\262!\034\316"
  87      32E9FB61 
  87      54E669BC 
  87      70E817B2 
  87      211CCE
  88 0180 D4ABF538 		.ascii	"\324\253\3658\371\01639\233R\2579\205A\037\2613\225"
  88      F90E3339 
  88      9B52AF39 
  88      85411FB1 
  88      3395
  89 0192 4868BDCB 		.ascii	"Hh\275\313\352&\342\335\370Y\"\367`\336\260\030\207"
  89      EA26E2DD 
  89      F85922F7 
  89      60DEB018 
  89      87
  90 01a3 5A30565C 		.ascii	"Z0V\\`\324R%\231\252w\224\372\240\030?~\257\343\300"
  90      60D45225 
  90      99AA7794 
  90      FAA0183F 
  90      7EAFE3C0 
  91 01b7 CC37A5D8 		.ascii	"\3147\245\330Z\336(\246H\016\314\270\277\215W\201\323"
  91      5ADE28A6 
  91      480ECCB8 
  91      BF8D5781 
  91      D3
  92 01c8 93BE880D 		.ascii	"\223\276\210\015\364c\227A\250h\363\212\3700iG\332l"
  92      F4639741 
  92      A868F38A 
  92      F8306947 
  92      DA6C
  93 01da 34E3115D 		.ascii	"4\343\021]4\305:\373\362\250c\216X\212\245\017\373Z"
  93      34C53AFB 
  93      F2A8638E 
  93      588AA50F 
  93      FB5A
  94 01ec BF2DB59D 		.ascii	"\277-\265\235 \346Y\227jM\2626\227Z\231#\025Ko\274\276"
  94      20E65997 
  94      6A4DB236 
  94      975A9923 
  94      154B6FBC 
  95 0201 ED3908D6 		.ascii	"\3559\010\326.L]t\012k\303\311:\250\353\374\311\215"
  95      2E4C5D74 
  95      0A6BC3C9 
  95      3AA8EBFC 
  95      C98D
  96 0213 780DB198 		.ascii	"x\015\261\230\210c\200\372J\207\022q\216\223U\031\236"
  96      886380FA 
  96      4A871271 
  96      8E935519 
  96      9E
  97 0224 D50C9497 		.ascii	"\325\014\224\227\343L%\350\020\365\004\262\233\235C"
  97      E34C25E8 
  97      10F504B2 
  97      9B9D43
  98 0233 AF715831 		.ascii	"\257qX1\242\221\252\026\342\341\275\335/B<Xnxl`\323"
ARM GAS  /tmp/ccNI8AFB.s 			page 7


  98      A291AA16 
  98      E2E1BDDD 
  98      2F423C58 
  98      6E786C60 
  99 0248 38EAA053 		.ascii	"8\352\240S\320\350\215\234\276\321]\330v\2539\324l\273"
  99      D0E88D9C 
  99      BED15DD8 
  99      76AB39D4 
  99      6CBB
 100 025a 192E4D1C 		.ascii	"\031.M\034<P\342@\023\325\343\321\033\020\325d\200\300"
 100      3C50E240 
 100      13D5E3D1 
 100      1B10D564 
 100      80C0
 101 026c 5111CF1C 		.ascii	"Q\021\317\034g\010\247*v\343\361\220\342\345N+\342v"
 101      6708A72A 
 101      76E3F190 
 101      E2E54E2B 
 101      E276
 102 027e 4212F142 		.ascii	"B\022\361B>\331\214a\002\341\324\3471\016\"\352\034"
 102      3ED98C61 
 102      02E1D4E7 
 102      310E22EA 
 102      1C
 103 028f 29C4A176 		.ascii	")\304\241v\235E4*\311U\231\251\361\001\324j\024\361"
 103      9D45342A 
 103      C95599A9 
 103      F101D46A 
 103      14F1
 104 02a1 43FEC6A1 		.ascii	"C\376\306\241\275VL\226k\346y2j\267\357y\261\216z~\014"
 104      BD564C96 
 104      6BE67932 
 104      6AB7EF79 
 104      B18E7A7E 
 105 02b6 6A54BAA9 		.ascii	"jT\272\251:\014\314b\"`\026\213R\"\340\255>\354\022"
 105      3A0CCC62 
 105      2260168B 
 105      5222E0AD 
 105      3EEC12
 106 02c9 712FCC2B 		.ascii	"q/\314+\207u\315M\313\240\215\351\323w\372;\275\320"
 106      8775CD4D 
 106      CBA08DE9 
 106      D377FA3B 
 106      BDD0
 107 02db E9FBAC4D 		.ascii	"\351\373\254M \2756;}\354-9d\007 d\317>\236\220\355"
 107      20BD363B 
 107      7DEC2D39 
 107      64072064 
 107      CF3E9E90 
 108 02f0 054C5FA6 		.ascii	"\005L_\246=/\366;%d\345\270\021q\017L\256vx.#\033\251"
 108      3D2FF63B 
 108      2564E5B8 
 108      11710F4C 
 108      AE76782E 
 109 0307 4D489958 		.ascii	"MH\231X\304\3750\251\\\304O\0239Hd\362R@\022\247\362"
 109      C4FD30A9 
 109      5CC44F13 
ARM GAS  /tmp/ccNI8AFB.s 			page 8


 109      394864F2 
 109      524012A7 
 110 031c 5D4AE98F 		.ascii	"]J\351\217\360\030H\201\211\245d\360\222\034f\261\373"
 110      F0184881 
 110      89A564F0 
 110      921C66B1 
 110      FB
 111 032d B162C3A4 		.ascii	"\261b\303\244\242JB\355B\034\272\250\017Xm\265F\021"
 111      A24A42ED 
 111      421CBAA8 
 111      0F586DB5 
 111      4611
 112 033f EBD258AC 		.ascii	"\353\322X\254\245?\257QT\007\356+V\302\177\2229\254"
 112      A53FAF51 
 112      5407EE2B 
 112      56C27F92 
 112      39AC
 113 0351 8F855DB3 		.ascii	"\217\205]\263\002\373\201\201/\031\203\313\246>\012"
 113      02FB8181 
 113      2F1983CB 
 113      A63E0A
 114 0360 A63E06A6 		.ascii	"\246>\006\246>\011\362,\310\017A\306A^e]\300\241\233"
 114      3E09F22C 
 114      C80F41C6 
 114      415E655D 
 114      C0A19B
 115 0373 43E2519E 		.ascii	"C\342Q\236\373\030vj\222D\366\350f\336:HB.\251\300]"
 115      FB18766A 
 115      9244F6E8 
 115      66DE3A48 
 115      422EA9C0 
 116 0388 4EB7A6B0 		.ascii	"N\267\246\2609\3706_\002S\322\011A\304g\222k\304L\206"
 116      39F8365F 
 116      0253D209 
 116      41C46792 
 116      6BC44C86 
 117 039c A5FAD83E 		.ascii	"\245\372\330>\012\263\336\263\337\227{\366\015p\343"
 117      0AB3DEB3 
 117      DF977BF6 
 117      0D70E3
 118 03ab C3C7D3B3 		.ascii	"\303\307\323\263_\343-\330c\2308=zI^\340*\255\210wH"
 118      5FE32DD8 
 118      6398383D 
 118      7A495EE0 
 118      2AAD8877 
 119 03c0 6916B8B1 		.ascii	"i\026\270\261\316\336o\322V\374\033Z\361[\336pI\222"
 119      CEDE6FD2 
 119      56FC1B5A 
 119      F15BDE70 
 119      4992
 120 03d2 1E43D636 		.ascii	"\036C\3266[\276\0073\321-\000\265d\014\352:\337:\003"
 120      5BBE0733 
 120      D12D00B5 
 120      640CEA3A 
 120      DF3A03
 121 03e5 407700B4 		.ascii	"@w\000\264\215\327\333UoV\2545\353\260\313\335\307\230"
 121      8DD7DB55 
ARM GAS  /tmp/ccNI8AFB.s 			page 9


 121      6F56AC35 
 121      EBB0CBDD 
 121      C798
 122 03f7 57C49FE8 		.ascii	"W\304\237\350\303\315h=<\3324\334\342\367:;\345\365"
 122      C3CD683D 
 122      3CDA34DC 
 122      E2F73A3B 
 122      E5F5
 123 0409 8F3A14EC 		.ascii	"\217:\024\354\261\342|\015P\353\374;\315\277\037\272"
 123      B1E27C0D 
 123      50EBFC3B 
 123      CDBF1FBA 
 124 0419 12315809 		.ascii	"\0221X\011K\331*lq\312\356\003\227\357=\017v\377/\314"
 124      4BD92A6C 
 124      71CAEE03 
 124      97EF3D0F 
 124      76FF2FCC 
 125 042d AD5FF086 		.ascii	"\255_\360\206s\2539\206Z\344\221~n}t\011\346\326G\351"
 125      73AB3986 
 125      5AE4917E 
 125      6E7D7409 
 125      E6D647E9 
 126 0441 E7D6B56B 		.ascii	"\347\326\265kb\211K-\251\271u\315\260=P\304\307a\260"
 126      62894B2D 
 126      A9B975CD 
 126      B03D50C4 
 126      C761B0
 127 0454 B3D2A51E 		.ascii	"\263\322\245\036BK\036e6Y\022\265\032/\303\020#q\324"
 127      424B1E65 
 127      365912B5 
 127      1A2FC310 
 127      2371D4
 128 0467 4509DB30 		.ascii	"E\011\3330\227\006\326\304\302\3268,\300\314\306+\002"
 128      9706D6C4 
 128      C2D6382C 
 128      C0CCC62B 
 128      02
 129 0478 DBCCC2D6 		.ascii	"\333\314\302\326\331\206i5\333\302\302~m\005f\026\332"
 129      D9866935 
 129      DBC2C27E 
 129      6D056616 
 129      DA
 130 0489 04B69585 		.ascii	"\004\266\225\2055\332\206i5kfa\233\255\300\362\3155"
 130      35DA8669 
 130      356B6661 
 130      9BADC0F2 
 130      CD35
 131 049b 6B6161CD 		.ascii	"kaa\315\266aZ\315ZYX\233\025\230\313\\\263\277\260\260"
 131      B6615ACD 
 131      5A59589B 
 131      1598CB5C 
 131      B3BFB0B0 
 132 04af 0EDB30AD 		.ascii	"\016\3330\255f\373X\330N+\260I\346\232\035`a\273m\303"
 132      66FB58D8 
 132      4E2BB049 
 132      E69A1D60 
 132      61BB6DC3 
ARM GAS  /tmp/ccNI8AFB.s 			page 10


 133 04c3 B49A1D64 		.ascii	"\264\232\035da\357Z\201\031-~\000V\027;\374\343F1\265"
 133      61EF5A81 
 133      192D7E00 
 133      56173BFC 
 133      E34631B5 
 134 04d7 8790A9EA 		.ascii	"\207\220\251\352\350\204\265\241\305f\243\303\255I6"
 134      E884B5A1 
 134      C566A3C3 
 134      AD4936
 135 04e6 11B77063 		.ascii	"\021\267pc\224\324\307\354T\303<r\250S\257\267\026c"
 135      94D4C7EC 
 135      54C33C72 
 135      A853AFB7 
 135      1663
 136 04f8 A4B8D60A 		.ascii	"\244\270\326\012GX+\274g\305\012\263\314a\307X\330q"
 136      47582BBC 
 136      67C50AB3 
 136      CC61C758 
 136      D871
 137 050a 2BB079E6 		.ascii	"+\260y\346\316>\316\302N\330\206i5\353aa\247\255\300"
 137      CE3ECEC2 
 137      4ED88669 
 137      35EB6161 
 137      A7ADC0
 138 051d CACC35FB 		.ascii	"\312\3145\373\210\205\235\263\015c5\253\213\3753\025"
 138      88859DB3 
 138      0D6335AB 
 138      8BFD3315 
 139 052d 3974BFA8 		.ascii	"9t\277\250\011\035\335\236Q\223\215\011\235![\313?q"
 139      091DDD9E 
 139      51938D09 
 139      9D215BCB 
 139      3F71
 140 053f 76772E7F 		.ascii	"vw.\177\346\214w.\354Z$\225\2134\273G\337l\215\022J"
 140      E68C772E 
 140      EC5A2495 
 140      8B34BB47 
 140      DF6C8D12 
 141 0554 7291810D 		.ascii	"r\221\201\015\215.v\302\026\361\3270\243&`!_\317Q\271"
 141      8D2E76C2 
 141      16F1D730 
 141      A3266021 
 141      5FCF51B9 
 142 0568 166403C8 		.ascii	"\026d\003\310u 7\200\374\025\310\337\200l\004\331\004"
 142      75203780 
 142      FC15C8DF 
 142      806C04D9 
 142      04
 143 0579 7233C82D 		.ascii	"r3\310- \267\202l\006\331\012\262\015\344; \267\201"
 143      20B7826C 
 143      06D90AB2 
 143      0DE43B20 
 143      B781
 144 058b DC0E7207 		.ascii	"\334\016r\007ga\323\360\200\3354\\pXX'\031\315\001\306"
 144      6761D3F0 
 144      80DD345C 
 144      70585827 
ARM GAS  /tmp/ccNI8AFB.s 			page 11


 144      19CD01C6 
 145 059f 46D8CE18 		.ascii	"F\330\316\030\341\217`\204\035`\204N\220\327A~\012\362"
 145      E18F6084 
 145      1D60844E 
 145      90D7417E 
 145      0AF2
 146 05b1 3390F741 		.ascii	"3\220\367A~ie\257\323\236R;\355\207\364\344\216\364"
 146      7E6965AF 
 146      D39E523B 
 146      ED87F4E4 
 146      8EF4
 147 05c3 39945C94 		.ascii	"9\224\\\224\335\271\036w\313\337\371\366rtU\266)+\355"
 147      DDB91E77 
 147      CBDFF9F6 
 147      727455B6 
 147      292BED
 148 05d6 AA4CCBA1 		.ascii	"\252L\313\241J\354\343t\253\262\375\335\260*\243\357"
 148      4AECE374 
 148      ABB2FDDD 
 148      B02AA3EF 
 149 05e6 D3AFCA0E 		.ascii	"\323\257\312\016u\267(\337\012\224i\016T\240e3[N\035"
 149      75B728DF 
 149      0A94690E 
 149      54A06533 
 149      5B4E1D
 150 05f9 EE667AF1 		.ascii	"\356fz\361v\3330\227\006v\204\205\355\266\002\033f9"
 150      76DB3097 
 150      06768485 
 150      EDB6021B 
 150      6639
 151 060b 758C8575 		.ascii	"u\214\205u\332\206i5;\316\302\216Z\201\015\263\234\352"
 151      DA866935 
 151      3BCEC28E 
 151      5A810DB3 
 151      9CEA
 152 061d 6161EFDB 		.ascii	"aa\357\333\206\261\232\325\305>\351>\207\245\246\274"
 152      86B19AD5 
 152      C53EE93E 
 152      87A5A6BC 
 153 062d B1A84992 		.ascii	"\261\250I\222\352\244\266l\26356B\220E\0326\213\210"
 153      EAA4B66C 
 153      B3353642 
 153      90451A36 
 153      8B88
 154 063f 4F7063B5 		.ascii	"Opc\265\321\325\373\372(\032]\364}\372\357i\027\222"
 154      D1D5FBFA 
 154      281A5DF4 
 154      7DFAEF69 
 154      1792
 155 0651 D1256F81 		.ascii	"\321%o\201\376\006\215\243e3\210.R\371`\367HiC^\362"
 155      FE068DA3 
 155      6533882E 
 155      52F960F7 
 155      4869435E 
 156 0666 43E08E61 		.ascii	"C\340\216a\024?\255\357\026\375\335\234K~\235^\357\201"
 156      143FADEF 
 156      16FDDD9C 
ARM GAS  /tmp/ccNI8AFB.s 			page 12


 156      4B7E9D5E 
 156      EF81
 157 0678 EE967CA9 		.ascii	"\356\226|\251\355\257\352>[j\220&1u\215V\353\242\237"
 157      EDAFEA3E 
 157      5B6A9026 
 157      31758D56 
 157      EBA29F
 158 068b 74931BE4 		.ascii	"t\223\033\344\267\345\217\377\347\300\213\247t=\331"
 158      B7E58FFF 
 158      E7C08BA7 
 158      743DD9
 159 069a 3AA8EBFC 		.ascii	":\250\353\374\356\027\000\364\017\000\235\327\201D\314"
 159      EE1700F4 
 159      0F009DD7 
 159      8144CC
 160 06a9 EB36C8BC 		.ascii	"\3536\310\274v\223\304;S\211D\202G\3662sh\000*<\235"
 160      7693C43B 
 160      53894482 
 160      47F63273 
 160      68002A3C 
 161 06be 8A3F8D92 		.ascii	"\212?\215\222\351\\T\037\277}\375\306\224\255R\254\236"
 161      E95C541F 
 161      BF7DFDC6 
 161      94AD52AC 
 161      9E
 162 06cf 574D3168 		.ascii	"WM1h\0338Z\347\024\016\375+\323\270a\232\256~\343:\011"
 162      1B385AE7 
 162      140EFD2B 
 162      D3B8619A 
 162      AE7EE33A 
 163 06e4 D3D2DFD9 		.ascii	"\323\322\337\331i\211C\327\254\364\272a\366\035\267"
 163      698943D7 
 163      ACF4BA61 
 163      F61DB7
 164 06f3 D82E7CD3 		.ascii	"\330.|\3236\314\245\201\335fa_X\201\271\3145\273\313"
 164      36CCA581 
 164      DD66615F 
 164      5881B9CC 
 164      35BBCB
 165 0706 C2EEDA86 		.ascii	"\302\356\332\206i5\273\317\302\036X\201\031\355;\214"
 165      6935BBCF 
 165      C21E5881 
 165      19ED3B8C 
 166 0716 2E761E13 		.ascii	".v\036\023\361~\216\316\323\007\300S\007A\036\006y\004"
 166      F17E8ECE 
 166      D307C053 
 166      07411E06 
 166      7904
 167 0728 E43190C7 		.ascii	"\3441\220\307A\306@^\000\331\017r\000\344e+\313\216"
 167      41C6405E 
 167      00D90F72 
 167      00E4652B 
 167      CB8E
 168 073a 3D9CE6E4 		.ascii	"=\234\346\344\303\372\267\301\376&\37068\010vx4\244"
 168      C3FAB7C1 
 168      FE26F836 
 168      38087678 
ARM GAS  /tmp/ccNI8AFB.s 			page 13


 168      34A4
 169 074c 8B66F06D 		.ascii	"\213f\360mp\002j\225\332\342\361\267o_\314\337\262F"
 169      70026A95 
 169      DAE2F1B7 
 169      6F5FCCDF 
 169      B246
 170 075e 3A23DDA2 		.ascii	":#\335\242o\255\0373]\341\306+)\365d\211l\177\263\265"
 170      6FAD1F33 
 170      5DE1C62B 
 170      29F56489 
 170      6C7FB3B5 
 171 0772 7A213411 		.ascii	"z!4\021uP\236\264C\342\201F\363\307\271\011Z]\257r\034"
 171      75509EB4 
 171      43E28146 
 171      F3C7B909 
 171      5A5DAF72 
 172 0787 FB822A16 		.ascii	"\373\202*\026o\214w\354;\201\337\224N\254\225\022\211"
 172      6F8C77EC 
 172      3B81DF94 
 172      4EAC9512 
 172      89
 173 0798 576DE875 		.ascii	"Wm\350u\21538\376J>(\337\2125\307a\034\372\303\020\275"
 173      8D3338FE 
 173      4A3E28DF 
 173      8A35C761 
 173      1CFAC310 
 174 07ad E54C370C 		.ascii	"\345L7\014\025\273}=\366\363\014\024\273\251ULw\224"
 174      15BB7D3D 
 174      F6F30C14 
 174      BBA9554C 
 174      7794
 175 07bf B6D724A8 		.ascii	"\266\327$\250\025\367\377\247\351)\352\376\3178z*\267"
 175      15F7FFA7 
 175      E929EAFE 
 175      CF387A2A 
 175      B7
 176 07d0 2B5BEF7E 		.ascii	"+[\357~\032V\032\315uq\246\324i=\334\272\344p\273\005"
 176      1A561ACD 
 176      7571A6D4 
 176      693DDCBA 
 176      E470BB05 
 177 07e4 E1766848 		.ascii	"\341vhH}\031\204\033\353\222Ay\377\241\363\302I\023"
 177      7D19841B 
 177      EB924179 
 177      FFA1F3C2 
 177      4913
 178 07f6 2FDCD57A 		.ascii	"/\334\325z\341\031\324N\275p\367\312!,\265\223\011\356"
 178      E119D44E 
 178      BD70F7CA 
 178      212CB593 
 178      09EE
 179 0808 EB4402AB 		.ascii	"\353D\002\253\3771\344R\022\241.^5\377\353\203\322\356"
 179      FF31E452 
 179      12A12E5E 
 179      35FFEB83 
 179      D2EE
 180 081a A76894D4 		.ascii	"\247h\224\324\323Cz@O\003\336$\221. \305\010k\202\210"
ARM GAS  /tmp/ccNI8AFB.s 			page 14


 180      D3437A40 
 180      4F03DE24 
 180      912E20C5 
 180      086B8288 
 181 082e 0F012CAE 		.ascii	"\017\001,\256\207\015=\360\377R\201MG\373\245u\261\305"
 181      870D3DF0 
 181      FF52814D 
 181      47FBA575 
 181      B1C5
 182 0840 7249F950 		.ascii	"rI\371PCi}\333\256R$\237o(/$\372\215\367\254\362\374"
 182      43697DDB 
 182      AE52249F 
 182      6F282F24 
 182      FA8DF7AC 
 183 0856 0184A37C 		.ascii	"\001\204\243|\346!3f\311\347U\311\341K~\353\222O(\345"
 183      E6213366 
 183      C9E755C9 
 183      E14B7EEB 
 183      924F28E5 
 184 086a 732F0544 		.ascii	"s/\005D\225\033\324p\324R8\243R\\F\245x{\245\220|\262"
 184      951BD470 
 184      D45238A3 
 184      525C46A5 
 184      787BA590 
 185 0880 938C11F9 		.ascii	"\223\214\021\371\210'\371\230\364\356\275w\217M\256"
 185      8827F998 
 185      F4EEBD77 
 185      8F4DAE
 186 088f A37D4CFA 		.ascii	"\243}L\372\212\270$\351\337\033\351\375+\361C\375{q"
 186      8AB824E9 
 186      DF1BE9FD 
 186      2BF143FD 
 186      7B71
 187 08a1 AD917F3F 		.ascii	"\255\221\177?O\357\337z\376\377\376}\274\376\325\015"
 187      4FEFDF7A 
 187      FEFFFE7D 
 187      BCFED50D 
 188 08b1 7B745034 		.ascii	"{tP4\0330\327\363\306{]y\2147+\265!U\012Mt\327F\302"
 188      1B30D7F3 
 188      C67B5D79 
 188      8C372BB5 
 188      21550A4D 
 189 08c9 EE48D8E7 		.ascii	"\356H\330\347\366-\017,\011TG\334\344\337r1\350\016"
 189      F62D0F2C 
 189      095447DC 
 189      E4DF7231 
 189      E80E
 190 08db 847CC1DA 		.ascii	"\204|\301\332J\277\273fU\325\224\345\310Y\366rIa8\260"
 190      4ABFBB66 
 190      55D594E5 
 190      C859F672 
 190      496138B0 
 191 08ef D21FCE9E 		.ascii	"\322\037\316\236\273`\241\313\203f\230\225\253\251\016"
 191      BB60A1CB 
 191      83669895 
 191      ABA90E
 192 08fe 4723EEF2 		.ascii	"G#\356\362\212\222i\005\356\371\363\013\335\025\305"
ARM GAS  /tmp/ccNI8AFB.s 			page 15


 192      8A926905 
 192      EEF9F30B 
 192      DD15C5
 193 090d 252BA752 		.ascii	"%+\247R\2127\030\254$\244\021$\031\211\212Q\2777:\202"
 193      8A3718AC 
 193      24A41124 
 193      19898A51 
 193      BF373A82 
 194 0921 40BD0B17 		.ascii	"@\275\013\027\024/(\256\310\245\311\362\212\3222Z\221"
 194      142F28AE 
 194      C8A5C9F2 
 194      8AD2325A 
 194      91
 195 0932 57289A5D 		.ascii	"W(\232]\370J\026\344z\006\352Q\225\011\371W\005\003"
 195      F84A16E4 
 195      7A06EA51 
 195      9509F957 
 195      0503
 196 0944 4BDC91D5 		.ascii	"K\334\221\325\021\2677\022\255\014\204\242\204\230["
 196      11B73712 
 196      AD0C84A2 
 196      84985B
 197 0953 4B7EA715 		.ascii	"K~\247\025x\243\3377\312[%\022\005C~\267\267\322\277"
 197      78A3DF37 
 197      CA5B2512 
 197      05437EB7 
 197      B7D2BF
 198 0966 54AC0D46 		.ascii	"T\254\015F\275\321\3255\376\010U\304\353U\013:\227\206"
 198      BDD1D535 
 198      FE0855C4 
 198      EB550B3A 
 198      9786
 199 0978 FD3FABF5 		.ascii	"\375?\253\365\207|\253s\211v\276\020\311\224]\343\017"
 199      877CAB73 
 199      8976BE10 
 199      C9945DE3 
 199      0F
 200 0989 07AA2BBF 		.ascii	"\007\252+\277A\237\305`p\211\350[\341\215\346\252\311"
 200      419FC560 
 200      7089E85B 
 200      E18DE6AA 
 200      C9
 201 099a D1444BCF 		.ascii	"\321DK\317r1\024\362\007=\325\241\245\201eN\222\257"
 201      723114F2 
 201      073DD5A1 
 201      A581654E 
 201      92AF
 202 09ac AABA9234 		.ascii	"\252\272\2224\312A\177r}\362\037#\274/\\\340\250\014"
 202      CA417F72 
 202      7DF21F23 
 202      BC2F5CE0 
 202      A80C
 203 09be F8C3B45D 		.ascii	"\370\303\264]r\326l\037\374\214\244\344\345\241\252"
 203      72D66C1F 
 203      FC8CA4E4 
 203      E5A1AA
 204 09cd 08E1E6F8 		.ascii	"\010\341\346\370C\342\222\240\2772\017\336AI\362\222"
ARM GAS  /tmp/ccNI8AFB.s 			page 16


 204      43E292A0 
 204      BF320FDE 
 204      4149F292 
 205 09dd 6A378328 		.ascii	"j7\203('\353IRY\276`\265o\305\017\355Y>\022\255\242"
 205      27EB4952 
 205      59BE60B5 
 205      6FC50FED 
 205      593E12AD 
 206 09f2 4D0C502F 		.ascii	"M\014P/\216L>x\243\274G\230J\356\002Gy\211Gp\024\026"
 206      8E4C3E78 
 206      A3BC4798 
 206      4AEE0247 
 206      79894770 
 207 0a08 17095CB9 		.ascii	"\027\011\\\271\300\027\315\025\262<\236\022a*\310\002"
 207      C017CD15 
 207      B23C9E12 
 207      612AC802 
 208 0a18 87C75324 		.ascii	"\207\307S$\360\236\005\025|Y\271\207\237-\010\274\340"
 208      F09E0515 
 208      7C59B987 
 208      9F2D08BC 
 208      E0
 209 0a29 21CFA4C0 		.ascii	"!\317\244\300\234\302\012\201/\244%Kf\013\\\251\\j\032"
 209      9CC20A81 
 209      2FA4254B 
 209      660B5CA9 
 209      5C6A1A
 210 0a3c C9BF48E0 		.ascii	"\311\277H\340\011\377\005\253J\316-+.]Y\340\256\021"
 210      09FF05AB 
 210      4ACE2D2B 
 210      2E5D59E0 
 210      AE11
 211 0a4e 834A7CE4 		.ascii	"\203J|\344\311:.\253\011T\223\026\227\224\026\026\011"
 211      C93A2EAB 
 211      09549316 
 211      97941616 
 211      09
 212 0a5f D9A515AF 		.ascii	"\331\245\025\257\224\025\0119\245\345eEE\205BV\331\302"
 212      94150939 
 212      A5E56545 
 212      45854256 
 212      D9C2
 213 0a71 B242812F 		.ascii	"\262B\201/&wi\241\200_\006\377O}\236\304\223l)\232\344"
 213      267769A1 
 213      805F06FF 
 213      4F7D9EC4 
 213      936C299A 
 214 0a86 237E6A2E 		.ascii	"#~j.\277\030\306\363\034s\312\005\3011\337\363\222\340"
 214      BF18C6F3 
 214      1C73CA05 
 214      C131DFF3 
 214      92E0
 215 0a98 98FD2361 		.ascii	"\230\375#a>\025\363\3709\202\220\033\250\226]6\026\364"
 215      3E15F3F8 
 215      3982901B 
 215      A8965D36 
 215      16F4
ARM GAS  /tmp/ccNI8AFB.s 			page 17


 216 0aaa 0C06AA68 		.ascii	"\014\006\252hTR\357L\361\241\334%b\304_\034\012DiD\224"
 216      5452EF4C 
 216      F1A1DC25 
 216      62C45F1C 
 216      0A446944 
 217 0abf 47C57074 		.ascii	"G\305ptD\240\232*\037\250\364F\363\344d\225H\2357\316"
 217      44A09A2A 
 217      1FA8F446 
 217      F3E46495 
 217      489D37CE 
 218 0ad3 AB28EF25 		.ascii	"\253(\357%u.\013W\327\326Pj\026\3550Ss\250C\227.+\200"
 218      752E0B57 
 218      D7D6506A 
 218      16ED3053 
 218      73A84397 
 219 0aea A7E9D9F2 		.ascii	"\247\351\331\362\323\377\000)\305\363\265"
 219      D3FF0029 
 219      C5F3B5
 220              		.text
 221              		.section	.gnu.lto_.symtab.28dc610e7c3cf1dc,"",%progbits
 222 0000 62617365 		.ascii	"baseInit\000\000\000\000\000\000\000\000\000\000\000"
 222      496E6974 
 222      00000000 
 222      00000000 
 222      000000
 223 0013 00600100 		.ascii	"\000`\001\000\000PWMD4\000\000\002\000\000\000\000\000"
 223      0050574D 
 223      44340000 
 223      02000000 
 223      0000
 224 0025 00000000 		.ascii	"\000\000\000\000\177\001\000\000PWMD1\000\000\002\000"
 224      7F010000 
 224      50574D44 
 224      31000002 
 224      00
 225 0036 00000000 		.ascii	"\000\000\000\000\000\000\000\000u\001\000\000pwmSta"
 225      00000000 
 225      75010000 
 225      70776D53 
 225      7461
 226 0048 72740000 		.ascii	"rt\000\000\002\000\000\000\000\000\000\000\000\000d"
 226      02000000 
 226      00000000 
 226      000064
 227 0057 0100005F 		.ascii	"\001\000\000_pal_lld_setgroupmode\000\000\002\000\000"
 227      70616C5F 
 227      6C6C645F 
 227      73657467 
 227      726F7570 
 228 0074 00000000 		.ascii	"\000\000\000\000\000\000\000i\001\000\000"
 228      00000069 
 228      010000
 229              		.text
 230              		.section	.gnu.lto_.opts,"",%progbits
 231 0000 272D6D63 		.ascii	"'-mcpu=cortex-m4' '-mno-thumb-interwork' '-mthumb' "
 231      70753D63 
 231      6F727465 
ARM GAS  /tmp/ccNI8AFB.s 			page 18


 231      782D6D34 
 231      2720272D 
 232 0033 272D6767 		.ascii	"'-ggdb' '-O2' '-fomit-frame-pointer' '-falign-funct"
 232      64622720 
 232      272D4F32 
 232      2720272D 
 232      666F6D69 
 233 0066 696F6E73 		.ascii	"ions=16' '-ffunction-sections' '-fdata-sections' '-"
 233      3D313627 
 233      20272D66 
 233      66756E63 
 233      74696F6E 
 234 0099 666E6F2D 		.ascii	"fno-common' '-flto'\000"
 234      636F6D6D 
 234      6F6E2720 
 234      272D666C 
 234      746F2700 
 235              		.text
 236              		.cfi_sections	.debug_frame
 237              		.section	.text.baseInit,"ax",%progbits
 238              		.align	2
 239              		.p2align 4,,15
 240              		.global	baseInit
 241              		.thumb
 242              		.thumb_func
 243              		.type	baseInit, %function
 244              	baseInit:
 245              	.LFB261:
 246              		.file 1 "src/climate_conf.c"
 247              		.loc 1 67 0
 248              		.cfi_startproc
 249              		@ args = 0, pretend = 0, frame = 0
 250              		@ frame_needed = 0, uses_anonymous_args = 0
 251 0000 70B5     		push	{r4, r5, r6, lr}
 252              		.cfi_def_cfa_offset 16
 253              		.cfi_offset 4, -16
 254              		.cfi_offset 5, -12
 255              		.cfi_offset 6, -8
 256              		.cfi_offset 14, -4
 257              		.loc 1 75 0
 258 0002 204C     		ldr	r4, .L2
 259              		.loc 1 79 0
 260 0004 204E     		ldr	r6, .L2+4
 261              		.loc 1 85 0
 262 0006 214D     		ldr	r5, .L2+8
 263              		.loc 1 75 0
 264 0008 2046     		mov	r0, r4
 265 000a 0121     		movs	r1, #1
 266 000c 0022     		movs	r2, #0
 267 000e FFF7FEFF 		bl	_pal_lld_setgroupmode
 268              	.LVL0:
 269              		.loc 1 76 0
 270 0012 2046     		mov	r0, r4
 271 0014 0221     		movs	r1, #2
 272 0016 0022     		movs	r2, #0
 273 0018 FFF7FEFF 		bl	_pal_lld_setgroupmode
 274              	.LVL1:
ARM GAS  /tmp/ccNI8AFB.s 			page 19


 275              		.loc 1 77 0
 276 001c 2046     		mov	r0, r4
 277 001e 0421     		movs	r1, #4
 278 0020 0022     		movs	r2, #0
 279 0022 FFF7FEFF 		bl	_pal_lld_setgroupmode
 280              	.LVL2:
 281              		.loc 1 78 0
 282 0026 2046     		mov	r0, r4
 283 0028 0821     		movs	r1, #8
 284 002a 0022     		movs	r2, #0
 285 002c FFF7FEFF 		bl	_pal_lld_setgroupmode
 286              	.LVL3:
 287              		.loc 1 79 0
 288 0030 3046     		mov	r0, r6
 289 0032 8021     		movs	r1, #128
 290 0034 0122     		movs	r2, #1
 291 0036 FFF7FEFF 		bl	_pal_lld_setgroupmode
 292              	.LVL4:
 293              		.loc 1 85 0
 294 003a 2846     		mov	r0, r5
 295 003c 4FF48051 		mov	r1, #4096
 296 0040 4FF48172 		mov	r2, #258
 297 0044 FFF7FEFF 		bl	_pal_lld_setgroupmode
 298              	.LVL5:
 299              		.loc 1 86 0
 300 0048 2846     		mov	r0, r5
 301 004a 4FF40051 		mov	r1, #8192
 302 004e 4FF48172 		mov	r2, #258
 303 0052 FFF7FEFF 		bl	_pal_lld_setgroupmode
 304              	.LVL6:
 305              		.loc 1 87 0
 306 0056 2846     		mov	r0, r5
 307 0058 4FF48041 		mov	r1, #16384
 308 005c 4FF48172 		mov	r2, #258
 309 0060 FFF7FEFF 		bl	_pal_lld_setgroupmode
 310              	.LVL7:
 311              		.loc 1 91 0
 312 0064 3046     		mov	r0, r6
 313 0066 4FF40071 		mov	r1, #512
 314 006a 8222     		movs	r2, #130
 315 006c FFF7FEFF 		bl	_pal_lld_setgroupmode
 316              	.LVL8:
 317              		.loc 1 94 0
 318 0070 0748     		ldr	r0, .L2+12
 319 0072 0849     		ldr	r1, .L2+16
 320 0074 FFF7FEFF 		bl	pwmStart
 321              	.LVL9:
 322              		.loc 1 95 0
 323 0078 0748     		ldr	r0, .L2+20
 324 007a 0849     		ldr	r1, .L2+24
 325              		.loc 1 97 0
 326 007c BDE87040 		pop	{r4, r5, r6, lr}
 327              		.loc 1 95 0
 328 0080 FFF7FEBF 		b	pwmStart
 329              	.LVL10:
 330              	.L3:
 331              		.align	2
ARM GAS  /tmp/ccNI8AFB.s 			page 20


 332              	.L2:
 333 0084 00080240 		.word	1073874944
 334 0088 00100240 		.word	1073876992
 335 008c 000C0240 		.word	1073875968
 336 0090 00000000 		.word	PWMD4
 337 0094 00000000 		.word	.LANCHOR0
 338 0098 00000000 		.word	PWMD1
 339 009c 00000000 		.word	.LANCHOR1
 340              		.cfi_endproc
 341              	.LFE261:
 342              		.size	baseInit, .-baseInit
 343              		.section	.rodata.pwmcfg,"a",%progbits
 344              		.align	2
 345              		.set	.LANCHOR0,. + 0
 346              		.type	pwmcfg, %object
 347              		.size	pwmcfg, 52
 348              	pwmcfg:
 349 0000 20D61300 		.word	1300000
 350 0004 00010000 		.word	256
 351 0008 00000000 		.word	0
 352 000c 01000000 		.word	1
 353 0010 00000000 		.word	0
 354 0014 01000000 		.word	1
 355 0018 00000000 		.word	0
 356 001c 01000000 		.word	1
 357 0020 00000000 		.word	0
 358 0024 01000000 		.word	1
 359 0028 00000000 		.word	0
 360 002c 00000000 		.word	0
 361 0030 00000000 		.word	0
 362              		.section	.rodata.pwmcfg2,"a",%progbits
 363              		.align	2
 364              		.set	.LANCHOR1,. + 0
 365              		.type	pwmcfg2, %object
 366              		.size	pwmcfg2, 52
 367              	pwmcfg2:
 368 0000 20D61300 		.word	1300000
 369 0004 00010000 		.word	256
 370 0008 00000000 		.word	0
 371 000c 01000000 		.word	1
 372 0010 00000000 		.word	0
 373 0014 01000000 		.word	1
 374 0018 00000000 		.word	0
 375 001c 01000000 		.word	1
 376 0020 00000000 		.word	0
 377 0024 01000000 		.word	1
 378 0028 00000000 		.word	0
 379 002c 00000000 		.word	0
 380 0030 00000000 		.word	0
 381              		.text
 382              	.Letext0:
 383              		.file 2 "/usr/lib/gcc/arm-none-eabi/4.8/include/stddef.h"
 384              		.file 3 "/usr/include/newlib/machine/_default_types.h"
 385              		.file 4 "/usr/include/newlib/sys/_stdint.h"
 386              		.file 5 "/usr/src/chibios/os/rt/ports/ARMCMx/compilers/GCC/chtypes.h"
 387              		.file 6 "/usr/src/chibios/os/rt/include/chsystypes.h"
 388              		.file 7 "/usr/src/chibios/os/rt/include/chschd.h"
ARM GAS  /tmp/ccNI8AFB.s 			page 21


 389              		.file 8 "/usr/src/chibios/os/rt/ports/ARMCMx/chcore.h"
 390              		.file 9 "/usr/src/chibios/os/rt/ports/ARMCMx/chcore_v7m.h"
 391              		.file 10 "/usr/src/chibios/os/hal/ports/STM32/LLD/TIMv1/stm32_tim.h"
 392              		.file 11 "/usr/src/chibios/os/rt/include/chtm.h"
 393              		.file 12 "/usr/src/chibios/os/rt/include/chsem.h"
 394              		.file 13 "/usr/src/chibios/os/rt/include/chmtx.h"
 395              		.file 14 "/usr/src/chibios/os/hal/ports/STM32/LLD/GPIOv2/pal_lld.h"
 396              		.file 15 "/usr/src/chibios/os/hal/include/pwm.h"
 397              		.file 16 "/usr/src/chibios/os/hal/ports/STM32/LLD/TIMv1/pwm_lld.h"
 398              		.file 17 "/usr/src/chibios/os/ext/CMSIS/include/core_cm4.h"