ARM GAS  /tmp/ccQtb5rF.s 			page 1


   1              		.syntax unified
   2              		.cpu cortex-m4
   3              		.fpu softvfp
   4              		.eabi_attribute 20, 1
   5              		.eabi_attribute 21, 1
   6              		.eabi_attribute 23, 3
   7              		.eabi_attribute 24, 1
   8              		.eabi_attribute 25, 1
   9              		.eabi_attribute 26, 1
  10              		.eabi_attribute 30, 2
  11              		.eabi_attribute 34, 1
  12              		.eabi_attribute 18, 4
  13              		.thumb
  14              		.file	"ext.c"
  15              		.text
  16              	.Ltext0:
  17              		.section	.gnu.lto_.jmpfuncs.ab8817f3d6ee372c,"",%progbits
  18 0000 789C6362 		.ascii	"x\234cb`b\300\006L\2414;\020322132003\002\011\026f\240"
  18      6062C006 
  18      4CA1343B 
  18      10333232 
  18      31333230 
  19 001b 7A66A058 		.ascii	"zf\240X\031\003\003+\022\233\215\035\301f\000\000+\366"
  19      1903032B 
  19      129B8D1D 
  19      C1660000 
  19      2BF6
  20 002d 01DE     		.ascii	"\001\336"
  21              		.text
  22              		.section	.gnu.lto_.inline.ab8817f3d6ee372c,"",%progbits
  23 0000 789C6362 		.ascii	"x\234cb`b\300\006\216Biv\006\006\026\036F\260\"\266"
  23      6062C006 
  23      8E426976 
  23      0606161E 
  23      46B022B6 
  24 0014 05F260B5 		.ascii	"\005\362`\265\214\\ \202\201\225\005(\314t\201\237\201"
  24      8C5C2082 
  24      81950528 
  24      CC74819F 
  24      81
  25 0025 E3831E58 		.ascii	"\343\203\036X\234\211\201S\020(\304\366A\017!\304\015"
  25      9C898153 
  25      1028C4F6 
  25      410F21C4 
  25      0D
  26 0036 5439C18F 		.ascii	"T9\301\217\231\201C\000(\303\332\241\316\300\336\241"
  26      99814300 
  26      28C3DAA1 
  26      CEC0DEA1 
  27 0046 8E2CC302 		.ascii	"\216,\303\002\221aY \0177\236\231\007(;\301o\202\037"
  27      91615920 
  27      0F379E99 
  27      07283BC1 
  27      6F821F
  28 0059 2B1E3936 		.ascii	"+\03696\006naFF\240+\030\230\025X8\016\330AT0\276`g"
  28      066E6146 
  28      46A02B18 
ARM GAS  /tmp/ccQtb5rF.s 			page 2


  28      98155838 
  28      0ED84154 
  29 0071 8190288A 		.ascii	"\201\220(\212\031\000\341\306\026X"
  29      1900E1C6 
  29      1658
  30              		.text
  31              		.section	.gnu.lto_.pureconst.ab8817f3d6ee372c,"",%progbits
  32 0000 789C6362 		.ascii	"x\234cb`b\340g\200\000v\006\011F)&+f+\026+V+6)\000\012"
  32      6062E067 
  32      80007606 
  32      09462926 
  32      2B662B16 
  33 001b 950164   		.ascii	"\225\001d"
  34              		.text
  35              		.section	.gnu.lto_extInit.ab8817f3d6ee372c,"",%progbits
  36 0000 789C6362 		.ascii	"x\234cb`b@\007\222@\\\011\304*@\314\310\314\300\310"
  36      60624007 
  36      92405C09 
  36      C42A40CC 
  36      C8CCC0C8 
  37 0014 34E11C03 		.ascii	"4\341\034\003C#\007\023##\210\301\300\310P\317\304X"
  37      43230713 
  37      232388C1 
  37      C0C850CF 
  37      C458
  38 0026 1FC90856 		.ascii	"\037\311\010V\273\236\351\300\203\377\377\327}\330\370"
  38      BB9EE9C0 
  38      83FFFFD7 
  38      7DD8F8
  39 0035 B01AA894 		.ascii	"\260\032\250\224\201\201\225\241\245\241a\202\002\003"
  39      818195A1 
  39      A5A16182 
  39      0203
  40 0043 4332583E 		.ascii	"C2X>\004H\2024\20522\201h\346\363\014\315\017~\331%"
  40      04488234 
  40      85323281 
  40      68E6F30C 
  40      CD0F7ED9 
  41 0058 322E6464 		.ascii	"2.dd\005\312V3\374j\350h\020\310d\004\252\206\030\227"
  41      05CA5633 
  41      FC6AE868 
  41      10C86404 
  41      AA861897 
  42 006c 09A22F32 		.ascii	"\011\242/24>\370\315\004S\004\001!@\011\240\001 \307"
  42      343EF8CD 
  42      04530401 
  42      214009A0 
  42      0120C7
  43 007f 2AE99716 		.ascii	"*\351\227\026\027\351\027\027%\353'gd&e\346\027\353"
  43      17E91717 
  43      25EB2767 
  43      642665E6 
  43      17EB
  44 0091 03514662 		.ascii	"\003QFb\016X(\265\242D/\231\001\000@\023.E"
  44      0E5828B5 
  44      A2442F99 
  44      01004013 
ARM GAS  /tmp/ccQtb5rF.s 			page 3


  44      2E45
  45              		.text
  46              		.section	.gnu.lto_extObjectInit.ab8817f3d6ee372c,"",%progbits
  47 0000 789C6362 		.ascii	"x\234cb`b@\007\222@|\035\210U\200\230\221\231\201\221"
  47      60624007 
  47      92407C1D 
  47      88558098 
  47      91998191 
  48 0014 69C23906 		.ascii	"i\3029\006\206F\016&FF\020\203\201\221\241\236\211\261"
  48      86460E26 
  48      46461083 
  48      8191A19E 
  48      89B1
  49 0026 3E9211AC 		.ascii	">\222\021\254v=\323\201\007\377\377\257\233qlY\017\343"
  49      763DD381 
  49      07FFFFAF 
  49      9B716C59 
  49      0FE3
  50 0038 4C265626 		.ascii	"L&V&\306\\\2608+CKC\303\004\005\006\206d07\004H\202"
  50      C65CB038 
  50      2B434B43 
  50      C3040506 
  50      86643037 
  51 004f F4863232 		.ascii	"\364\20622\201h\346\263\014M;n<>\300\224\310\270\220"
  51      8168E6B3 
  51      0C4D3B6E 
  51      3C3EC094 
  51      C8B890
  52 0062 9195419B 		.ascii	"\221\225A\233aU\003\020\360g22\314f\230\305\230\311"
  52      61550310 
  52      F0673232 
  52      CC6698C5 
  52      98C9
  53 0074 C898CEC8 		.ascii	"\310\230\316\310\024\001\244!NK\202\330\304\000\022"
  53      1401A421 
  53      4E4B82D8 
  53      C40012
  54 0083 6100B141 		.ascii	"a\000\261A\272\177`\321\315\214]7#\\73\210q\221\241"
  54      BA7F60D1 
  54      CD8C5D37 
  54      235C3733 
  54      887191A1 
  55 0097 F1C10C65 		.ascii	"\361\301\014e\210^\030\010\001*\002\272\013\244CI\277"
  55      885E1808 
  55      012A02BA 
  55      0BA44349 
  55      BF
  56 00a8 B4B848BF 		.ascii	"\264\270H\277\270(Y?9#3)3\277X\037\2102\022s\300B\251"
  56      B828593F 
  56      39233329 
  56      33BF581F 
  56      88321273 
  57 00bf 15257AC9 		.ascii	"\025%z\311\014\0003\333@\022"
  57      0C0033DB 
  57      4012
  58              		.text
  59              		.section	.gnu.lto_extStart.ab8817f3d6ee372c,"",%progbits
ARM GAS  /tmp/ccQtb5rF.s 			page 4


  60 0000 789C8552 		.ascii	"x\234\205RMh\023A\024~o\266\333\306\344\320\\\005\011"
  60      4D681341 
  60      147E6FB6 
  60      DBC6E4D0 
  60      5C0509
  61 0013 4B443C58 		.ascii	"KD<X\272\012\202W\245 \364\220KSQO\262Y\227f!\333\224"
  61      BA0A8257 
  61      A520F490 
  61      4B53514F 
  61      B2599766 
  62 002a DDA4B478 		.ascii	"\335\244\264x\350$\346P\320C\021\304\237 X\275UT\320"
  62      E824E650 
  62      D04311C4 
  62      9F2058BD 
  62      5554D0
  63 003d 437B88B8 		.ascii	"C{\210\270 \010\"V\274yP\214\202\207*X\212 \261T\342"
  63      20082256 
  63      BC79508C 
  63      82872A58 
  63      8A20B154 
  64 0052 9BD9649B 		.ascii	"\233\331d\233\204Tgw~\336\233\357\315\367\346}\303\200"
  64      84546777 
  64      7EDE9BEF 
  64      CDF7E67D 
  64      C380
  65 0064 416FDB4F 		.ascii	"Ao\333O\375+\271\377\320\214\012 [Z\007(E\030\242X\000"
  65      FD2BB9FF 
  65      D08C0A20 
  65      5B5A0728 
  65      4518A258 
  66 0079 C202C385 		.ascii	"\302\002\303\205\363(\261\217\231_o6\037\275\177Y\333"
  66      F328B18F 
  66      995F6F36 
  66      1FBD7F59 
  66      DB
  67 008a C12A8B29 		.ascii	"\301*\213)\350 \014\320 vU\250p\276\2449Hg\231\022>"
  67      E8200CD0 
  67      207655A8 
  67      70BEA439 
  67      48679912 
  68 009f 49A338E3 		.ascii	"I\2438\343\014\271hV^A9\002\220\204e\316\257\325\253"
  68      0CB96856 
  68      5E413902 
  68      908465CE 
  68      AFD5AB
  69 00b2 5BAB23B7 		.ascii	"[\253#\267\270_\271\313w\232MD\033)\265\263(\"\317\221"
  69      B85FB9CB 
  69      779A4D44 
  69      1B29B5B3 
  69      2822CF91 
  70 00c6 819A9CD8 		.ascii	"\201\232\234\330@w\256\302\007\032-\326\241\274\365"
  70      4077AEC2 
  70      071A2DD6 
  70      A1BCF5
  71 00d5 ECC593AB 		.ascii	"\354\305\223\253J\213\265M\357\257no\306\231\201\367"
  71      4A8BB54D 
  71      EFAF6E6F 
ARM GAS  /tmp/ccQtb5rF.s 			page 5


  71      C69981F7 
  72 00e5 3019A6E4 		.ascii	"0\031\246\344?\270^\213\035\010\255\215\033\037\207"
  72      3FB85E8B 
  72      1D08AD8D 
  72      1B1F87
  73 00f4 43E3CA87 		.ascii	"C\343\312\207\317\012\200\201\313\250\022\265\240g\324"
  73      CF0A8081 
  73      CBA812B5 
  73      A067D4
  74 0103 15EA9219 		.ascii	"\025\352\222\031\351\373B&]I\011J\227\200\237x\207\337"
  74      E9FB4226 
  74      5D49094A 
  74      97809F78 
  74      87DF
  75 0115 3C6993B7 		.ascii	"<i\223\2673\241\335\375_\255\375V\352o\240\374\272\361"
  75      33A1DDFD 
  75      5FADFD56 
  75      EA6FA0FC 
  75      BAF1
  76 0127 C36701C7 		.ascii	"\303g\001\307\021X\341\324\206mT\253p\233\202\007\247"
  76      1158E1D4 
  76      866D54AB 
  76      709B8207 
  76      A7
  77 0138 5011870C 		.ascii	"P\021\207\014Ip&(3L\211\350\267P\251\327.G\203@\200"
  77      49702628 
  77      334C89E8 
  77      B750A9D7 
  77      2E478340 
  78 014d 4BB0CD17 		.ascii	"K\260\315\027y\334\306\210)m\201Rl\334')\326\3266\033"
  78      79DCC688 
  78      296D8152 
  78      6CDC2729 
  78      D6D6361B 
  79 0161 D84B11ED 		.ascii	"\330K\021\355O\201a)\243\"\345nU6j=\252\030x_\326\344"
  79      4F816129 
  79      A322E56E 
  79      55366A3D 
  79      AA18785F 
  80 0177 BFB2C03F 		.ascii	"\277\262\300?e\371\366[\310\362\264[\226\357\261D\370"
  80      65F9F65B 
  80      C8F2B45B 
  80      96EFB144 
  80      F8
  81 0188 6E3AF469 		.ascii	"n:\364it\350\363\251\244\356\3523H]\336\302\304H\037"
  81      74E8F3A9 
  81      A4EEEA33 
  81      485DDEC2 
  81      C4481F
  82 019b 890C5CA1 		.ascii	"\211\014\\\241E\230L[\022\003\037b\"\360\274\203R\375"
  82      45984C5B 
  82      12031F62 
  82      22F0BC83 
  82      52FD
  83 01ad F9C17645 		.ascii	"\371\301vE\2036I\005\241\327)\240I\275\350\271\272\347"
  83      83364905 
  83      A1D729A0 
ARM GAS  /tmp/ccQtb5rF.s 			page 6


  83      49BDE8B9 
  83      BAE7
  84 01bf 9ABA99B5 		.ascii	"\232\272\231\2653v\336\323\351\317\0329\351\262\346"
  84      3376DED3 
  84      E9CF1A39 
  84      E9B2E6
  85 01ce 0AA3261C 		.ascii	"\012\243&\034\353\007q\013\372L\336-x\372\251\211\324"
  85      EB07710B 
  85      FA4CDE2D 
  85      78FAA989 
  85      D4
  86 01df 586A8EB6 		.ascii	"Xj\216\266\314\274k]\230=\341\214fA\2355rE\353x\277"
  86      CCBC6B5D 
  86      983DE18C 
  86      66419D35 
  86      7245EB78 
  87 01f4 383A521F 		.ascii	"8:R\037K\245\307\323\272=m\346\212\027-]\306\231\316"
  87      4BA5C7D3 
  87      BA3D6DE6 
  87      8A172D5D 
  87      C699CE
  88 0207 E9E2B449 		.ascii	"\351\342\264I\241\207\367 \013\321Yo\336\333\013'\362"
  88      A187F720 
  88      0BD1596F 
  88      DEDB0B27 
  88      F2
  89 0218 CE7B3450 		.ascii	"\316{4P\200\230\011\027O\245'\264\214\341Y3\256=\242"
  89      80980917 
  89      4FA527B4 
  89      8CE15933 
  89      AE3DA2
  90 022b 1D3A0ACC 		.ascii	"\035:\012\314\205!\307r\362\356<\374\0054\000\010\246"
  90      8521C772 
  90      F2EE3CFC 
  90      05340008 
  90      A6
  91              		.text
  92              		.section	.gnu.lto_extStop.ab8817f3d6ee372c,"",%progbits
  93 0000 789C8552 		.ascii	"x\234\205RKk\023Q\024>\347\216\323I\351\242\331\012"
  93      4B6B1351 
  93      143EE78E 
  93      D349E9A2 
  93      D90A
  94 0012 128688B8 		.ascii	"\022\206\210\270\260t\024\004\267JAp\221MSQW2\271\016"
  94      B0741404 
  94      B74A4170 
  94      914D5351 
  94      5732B90E 
  95 0026 6620D329 		.ascii	"f \323)3Iiu\321\233\220E\241.\212 >\212\217\252\253"
  95      33496975 
  95      D19B9045 
  95      A12E8A20 
  95      3E8A8FAA 
  96 003b FA765317 		.ascii	"\372vS\027\025\002.D\304\212?@\214\272j\005\245(\242"
  96      15022E44 
  96      C48A3F40 
  96      8CBA6A05 
ARM GAS  /tmp/ccQtb5rF.s 			page 7


  96      A528A2
  97 004e 4589E7DE 		.ascii	"E\211\347\336I&MI\353\2359s\036\367;\363\235\371\356"
  97      49264D49 
  97      EB9D3973 
  97      1EF73BF3 
  97      9DF9EE
  98 0061 3060B079 		.ascii	"0`\260y\355$\273K\345\277\344Q\003d\263\313\000\345"
  98      ED24BB4B 
  98      E5BFE451 
  98      0364B3CB 
  98      00E5
  99 0073 04439401 		.ascii	"\004C\224\001 L1\234:\205\012\373\210\325\352\215\306"
  99      204C319C 
  99      3A850AFB 
  99      88D5EA8D 
  99      C6
 100 0084 C3C72F6F 		.ascii	"\303\307/o\336\307\033\254WCO\325u\250\0121kzH\031W"
 100      DEC71BAC 
 100      57434FD5 
 100      75A80A31 
 100      6B7A4819 
 101 0099 95117ACA 		.ascii	"\225\021z\312\366\343\310\244\327^A%\001\220\206y!."
 101      F6E3C8A4 
 101      D75E4125 
 101      01908679 
 101      212E
 102 00ab D6E7D616 		.ascii	"\326\347\326\026\007\256\212Z\365\226\370\323h \272"
 102      07AE8A5A 
 102      F596F8D3 
 102      6820BA
 103 00ba 48539D40 		.ascii	"HS\235@\331y\222\0224\225c;:\307\22450)X\206\312\332"
 103      D9799212 
 103      3495633B 
 103      3AC79435 
 103      30295886 
 104 00d0 F3174F2F 		.ascii	"\363\027O/hM\326\026}mq\375[\222\331x\033\323\361H\265"
 104      684DD616 
 104      7D6D71FD 
 104      5B92D978 
 104      1BD3F148 
 105 00e5 7B9796FA 		.ascii	"{\227\226\372v\305\331\312\345\367\375q2\363\365\243"
 105      76C5D9CA 
 105      E5F7FD71 
 105      32F3F5A3 
 106 00f5 0660E33C 		.ascii	"\006`\343<\352D-\351\031\231F\246\230\221\256O\224\222"
 106      EA442DE9 
 106      199946A6 
 106      9891AE4F 
 106      9492
 107 0107 325AA45A 		.ascii	"2Z\244Z\012\276\343uq\345\260K\325\215\003\265\367\177"
 107      0ABEE375 
 107      71E5B04B 
 107      D58D03B5 
 107      F77F
 108 0119 36F79BA3 		.ascii	"6\367\233\243\277\205j\375\303g#\242\0008\017\353bZ"
 108      BF856AFD 
 108      C36723A2 
ARM GAS  /tmp/ccQtb5rF.s 			page 8


 108      00380FEB 
 108      625A
 109 012b 245DD4B9 		.ascii	"$]\324\271\312\001\316\242\346b\017\300\033\250<\233"
 109      CA01CEA2 
 109      E6620FC0 
 109      1BA83C9B 
 110 013b 3E17E1F6 		.ascii	">\027\341\366\301\202\240\325\357\2421\007\327\210#"
 110      C182A0D5 
 110      EFA23107 
 110      D78823
 111 014a 4128C9D5 		.ascii	"A(\311\325\253Zr\330\226\303\220q\247\262+K\233\224"
 111      AB5A72D8 
 111      96C39071 
 111      A7B22B4B 
 111      9B94
 112 015c B5F18EFA 		.ascii	"\265\361\216\372\256\377J\013\333J\273\372[J\373\244"
 112      AEFF4A0B 
 112      DB4ABBFA 
 112      5B4AFBA4 
 113 016c 53DA2F7D 		.ascii	"S\332/}\251\370\3547h\374\253\255\361\353\037e\275\255"
 113      A9F8EC37 
 113      68FCABAD 
 113      F1EB1F65 
 113      BDAD
 114 017e 710F9921 		.ascii	"q\017\231!y8&\272\310l\343\002\005\3610-Ym|\200\251"
 114      793826BA 
 114      C86CE302 
 114      05F1302D 
 114      596D7C80 
 115 0193 A8F20ECA 		.ascii	"\250\362\016\312\365\325\335-=\2435BGG\177\230\204\246"
 115      F5D5DD2D 
 115      3DA33542 
 115      47477F98 
 115      84A6
 116 01a5 AD521858 		.ascii	"\255R\030Xa\300-\236ws\256\037Zt\347\355\202*9\023\305"
 116      61C02D9E 
 116      7773AE1F 
 116      5A74E7ED 
 116      822A3913 
 117 01ba 410E07BA 		.ascii	"A\016\007\272A\202\2425\346\007\305\320:2\234\031\312"
 117      4182A235 
 117      E607C5D0 
 117      3A329C19 
 117      CA
 118 01cb 4CD016F7 		.ascii	"L\320\026\367\003\347\364\370!o0\017\372\270](9\007"
 118      03E7F4F8 
 118      216F300F 
 118      FAB85D28 
 118      3907
 119 01dd BBF5D12B 		.ascii	"\273\365\321+\255\241L\366X\326rGy\241t\306\261T\037"
 119      ADA14CF6 
 119      58D67247 
 119      79A174C6 
 119      B1541F
 120 01f0 F78E9646 		.ascii	"\367\216\226F9\265\356\335\202,F\347\303\311p+\234\234"
 120      39B5EEDD 
 120      822C46E7 
ARM GAS  /tmp/ccQtb5rF.s 			page 9


 120      C3C9702B 
 120      9C9C
 121 0202 DB0FE941 		.ascii	"\333\017\351A\015\322\023.\231\311\016\2339;t\306\002"
 121      0DD2132E 
 121      99C90E9B 
 121      393B74C6 
 121      02
 122 0213 77C0DCB3 		.ascii	"w\300\334\263\037X\000\206\347x~0\011\377\000eS\371"
 122      1F580086 
 122      E7787E30 
 122      09FF0065 
 122      53F9
 123 0225 EE       		.ascii	"\356"
 124              		.text
 125              		.section	.gnu.lto_extChannelEnable.ab8817f3d6ee372c,"",%progbits
 126 0000 789C8552 		.ascii	"x\234\205R\317K\033A\024~o6\253\021\017\346Z(a\011H"
 126      CF4B1B41 
 126      147E6F36 
 126      AB110FE6 
 126      5A286109 
 127 0015 2FE22814 		.ascii	"/\342(\024zm\021\012\036r1\026\353\251\254\343b\026"
 127      7A6D110A 
 127      1E723116 
 127      EBA9ACE3 
 127      6216
 128 0027 B2AEEC26 		.ascii	"\262\256\354&\242\364\340\030\024{\220\"\205R\245\024"
 128      A2F4E018 
 128      147B9022 
 128      8552A514 
 129 0037 AA3DB545 		.ascii	"\252=\265E\005/^\024\003\026\212\010J\377\200B\360f"
 129      052F5E14 
 129      03168A08 
 129      4AFF8042 
 129      F066
 130 0049 3D88144A 		.ascii	"=\210\024J\033Z\3227\233dM$\352\354\276\231y\277\346"
 130      1B5AD237 
 130      9B644D24 
 130      EAECBE99 
 130      79BFE6
 131 005c FBF69B65 		.ascii	"\373\366\233e\300\340\352\270C\346R\370\037\255\250"
 131      C0E0EAB8 
 131      43E652F8 
 131      1FADA8
 132 006b 01B2A523 		.ascii	"\001\262\245#\200\331(CT\033@\230a83\214A\355&+\024"
 132      80D92843 
 132      541B4098 
 132      6138338C 
 132      41ED262B 
 133 0080 CBE58DD2 		.ascii	"\313\345\215\322\302\336\"~dm\032:\010\021\232TV\207"
 133      C2DE227E 
 133      646D1A3A 
 133      08119A54 
 133      5687
 134 0092 3929970C 		.ascii	"9)\227\014\007\351,\021\224\017\322\254\316xB!Z\265"
 134      07E92C11 
 134      940FD2AC 
 134      CE784221 
ARM GAS  /tmp/ccQtb5rF.s 			page 10


 134      5AB5
 135 00a4 03C84701 		.ascii	"\003\310G\001\022\260*\345\253\342\333\213\355\256\025"
 135      12B02AE5 
 135      ABE2DB8B 
 135      EDAE15
 136 00b3 59987B2F 		.ascii	"Y\230{/\377\226\313\2106\022\265!T\235O\311A#XX\244"
 136      FF96CB88 
 136      3612B521 
 136      549D4FC9 
 136      41235858 
 137 00c8 91AB8A81 		.ascii	"\221\253\212\201A\233#\310_\354\356o-jU\324\032|a\273"
 137      419B23C8 
 137      5FECEE6F 
 137      2D6A55D4 
 137      1A7C61BB 
 138 00dc 741E6326 		.ascii	"t\036c&\256a\"\244T\370\374z\247\375n\350\235\276\371"
 138      AE6122A4 
 138      54F8FC7A 
 138      A7FD6EE8 
 138      9DBEF9
 139 00ef DE113A87 		.ascii	"\336\021:\207_N4\000\023WQ'h\005\317\3104\262\000\031"
 139      5F4E3400 
 139      13575127 
 139      6805CFC8 
 139      34B20019 
 140 0103 E9392197 		.ascii	"\3519!\227>I\253H\027\207\237\370N.?\264)ZO\3502\377"
 140      3E49AB48 
 140      17879FF8 
 140      4E2E3FB4 
 140      295A4FE8 
 141 0119 AB9AAF52 		.ascii	"\253\232\257R?\206\371\342K\253\202\000\360\034J\362"
 141      3F86F9E2 
 141      4BAB8200 
 141      F01C4AF2 
 142 0129 858CD9A8 		.ascii	"\205\214\331\250\213\300\007\030Cm\014#6\266\0004\352"
 142      8BC00718 
 142      436D0C23 
 142      36B60034 
 142      EA
 143 013a 73BA7345 		.ascii	"s\272sE\037\023?\004\354n\025\010n\024\350\307\037%"
 143      1F133F04 
 143      EC6E1508 
 143      6E14E8C7 
 143      1F25
 144 014c D066A340 		.ascii	"\320f\243@g\355\361\360\006\353\224\372]\247\324\327"
 144      67EDF1F0 
 144      06EB94FA 
 144      5DA7D4D7 
 145 015c BC7EA954 		.ascii	"\274~\251T\013Y\253\302\021\030m\"\226\211\237h\023"
 145      0B59ABC2 
 145      11186D22 
 145      96899F68 
 145      13
 146 016d 92A98963 		.ascii	"\222\251\211c\342:\306+\221o0[\\\356\254\311R\031\203"
 146      E23AC62B 
 146      916F305B 
 146      5CEEACC9 
ARM GAS  /tmp/ccQtb5rF.s 			page 11


 146      521983
 147 0180 7401F49F 		.ascii	"t\001\364\237\250\322\004\317\371\036\367=\301E\332"
 147      A8D204CF 
 147      F91EF73D 
 147      C145DA
 148 018f 1EB15D9F 		.ascii	"\036\261]\237\323\23363A\310\232\312v\013\350mV\342"
 148      D39B3633 
 148      41C89ACA 
 148      760BE86D 
 148      56E2
 149 01a1 65F984EB 		.ascii	"e\371\204\353e}\376h \331\227\234\242\224p=\353\331"
 149      657DFE68 
 149      20D9979C 
 149      A294703D 
 149      EBD9
 150 01b3 E403A73B 		.ascii	"\344\003\247;\015\372\244\231\311Y\367\233\365\321\221"
 150      0DFAA499 
 150      C959F79B 
 150      F5D191
 151 01c2 BC2F99EA 		.ascii	"\274/\231\352Oq{\\dr\243\026\017\372\204\36387.\250"
 151      4F717B5C 
 151      6472A316 
 151      0FFA84F3 
 151      38372EA8 
 152 01d6 F5DE3560 		.ascii	"\365\3365`au\332\237\366\257\253S\274]\237&jP+\325\305"
 152      6175DA9F 
 152      F6AFAB53 
 152      BC5D9F26 
 152      6A502BD5 
 153 01eb 92A90163 		.ascii	"\222\251\001c\304\364\255\011\317\3562:{\200y\320\352"
 153      C4F4AD09 
 153      CFEE323A 
 153      7B8079D0 
 153      EA
 154 01fc 588EEB4D 		.ascii	"X\216\353M\303\177\027(\355\377"
 154      C37F1728 
 154      EDFF
 155              		.text
 156              		.section	.gnu.lto_extChannelDisable.ab8817f3d6ee372c,"",%progbits
 157 0000 789C8552 		.ascii	"x\234\205RMH\033A\024~o6\253)\036\314U\220\260\004\244"
 157      4D481B41 
 157      147E6F36 
 157      AB291ECC 
 157      5590B004 
 158 0015 17711404 		.ascii	"\027q\024\004\257\212 x\310\305X\332\236\312:]\314B"
 158      AF8A2078 
 158      C8C558DA 
 158      9ECA3A5D 
 158      CC42
 159 0027 D695DD44 		.ascii	"\326\225\335D\224\036\034\203\205\036z\220BiK)\324\366"
 159      941E1C83 
 159      851E7A90 
 159      42694B29 
 159      D4F6
 160 0039 5669855E 		.ascii	"Vi\205^\274\244m\240\247V\260\364\322\236Z\2027\177"
 160      BCA46DA0 
 160      A756B0F4 
ARM GAS  /tmp/ccQtb5rF.s 			page 12


 160      D29E5A82 
 160      377F
 161 004b 40441015 		.ascii	"@D\020\025%\276\331$\233Db;\273of\336\337|\337~\263"
 161      25BED924 
 161      9B44623B 
 161      BB6F66DE 
 161      DF7CDF7E 
 162 0060 0C185C1D 		.ascii	"\014\030\\\035]d.\205/hE\015\220\255l\001,E\031\242"
 162      5D642E85 
 162      2F68450D 
 162      90AD6C01 
 162      2C4519A2 
 163 0074 DA00C222 		.ascii	"\332\000\302\"\303\305\273\030\324\256\263b\251\\\376"
 163      C3C5BB18 
 163      D4AEB362 
 163      A95CFE
 164 0083 F0EBFB97 		.ascii	"\360\353\373\227}\\c74t\020\"4\251\254\016\313R\256"
 164      7D5C6337 
 164      34741022 
 164      34A9AC0E 
 164      CB52AE
 165 0096 180ED259 		.ascii	"\030\016\322Y\"(\237\244Y\235q\213B\264j\337 \037\005"
 165      22289FA4 
 165      599D718B 
 165      42B46ADF 
 165      201F05
 166 00a9 48C0AA94 		.ascii	"H\300\252\224OJ/\0177z_\310\342\362ky^.#\332H\324n\243"
 166      4F4A2F0F 
 166      377A5FC8 
 166      E2F26B79 
 166      5E2E23DA 
 167 00c1 EABC430E 		.ascii	"\352\274C\016\032\301\302\"\315\\U\014\014\332lA\376"
 167      1AC1C222 
 167      CD5C550C 
 167      0CDA6C41 
 167      FE
 168 00d2 F0D3D78F 		.ascii	"\360\323\327\217\217\265*j\015\276\270qv\020c&\276\301"
 168      8FB52A6A 
 168      0DBEB871 
 168      76106326 
 168      BEC1
 169 00e4 4448A9B8 		.ascii	"DH\251\270\366\264\320\321\035z;\317\376t\206\316\346"
 169      F6B4D0D1 
 169      1D7A3BCF 
 169      FE7486CE 
 169      E6
 170 00f5 EF6D0DC0 		.ascii	"\357m\015\300\304U\324\011Z\30132\215,@Fz\266\311\245"
 170      C455D409 
 170      5AC13332 
 170      8D2C4046 
 170      7AB6C9A5 
 171 0109 4FD22AD2 		.ascii	"O\322*\322\305\341\010_\311\347\3036E\033\011\325\363"
 171      C5E1085F 
 171      C9E7C336 
 171      451B09D5 
 171      F3
 172 011a C7D57C95 		.ascii	"\307\325|\225\372\017xX*X\025\004\200\007p&\037\311"
ARM GAS  /tmp/ccQtb5rF.s 			page 13


 172      FA0F7858 
 172      2A581504 
 172      80077026 
 172      1FC9
 173 012c 988DBA08 		.ascii	"\230\215\272\010|\200i\324\2461bc\033@\263>;\205+\372"
 173      7C8069D4 
 173      A6316263 
 173      1B40B33E 
 173      3B852BFA 
 174 0140 98F83660 		.ascii	"\230\3706`\367_\201\340\237\002\355\236*\201\326\233"
 174      F75F81E0 
 174      9F02ED9E 
 174      2A81D69B 
 175 0150 05DAEB88 		.ascii	"\005\332\353\210\2077\330\240\324I\203R\177\363z]\251"
 175      8737D8A0 
 175      D4498352 
 175      7FF37A5D 
 175      A9
 176 0161 36B27685 		.ascii	"6\262v\205#0\332B,\023\337\321&$S\023\307\304\367\030"
 176      2330DA42 
 176      2C13DFD1 
 176      26245313 
 176      C7C4F718 
 177 0175 AF447EC2 		.ascii	"\257D~\302R\351sOM\226\312\230\244\013\240\377D\225"
 177      52E9734F 
 177      4D96CA98 
 177      A40BA0FF 
 177      4495
 178 0187 2678CEF7 		.ascii	"&x\316\367\270\357\011.\322\366\224\355\372\234\336"
 178      B8EF092E 
 178      D2F694ED 
 178      FA9CDE
 179 0196 B4990942 		.ascii	"\264\231\011B\326|\266O\300@\253\022/\313g]/\353\363"
 179      D67CB64F 
 179      C040AB12 
 179      2FCB675D 
 179      2FEBF3
 180 01a9 9189E468 		.ascii	"\221\211\344hr\236R\302\365\254{sCN_\032\36493\223\263"
 180      729E52C2 
 180      F5AC7B73 
 180      434E5F1A 
 180      F4393393 
 181 01be 065BF5D1 		.ascii	"\006[\365\321\221|4\231\032Oq{Fdr\367-\036\364\011g"
 181      917C3499 
 181      1A4F717B 
 181      466472F7 
 181      2D1EF409 
 182 01d3 2C3723A8 		.ascii	",7#\250\365\3465`au\332_\360\257\253S\274]\237&jP+\325"
 182      F5E63560 
 182      6175DA5F 
 182      F0AFAB53 
 182      BC5D9F26 
 183 01eb C592A909 		.ascii	"\305\222\251\011c\312\364\255Y\317\3565z\372\201y\320"
 183      63CAF4AD 
 183      59CFEE35 
 183      7AFA8179 
 183      D0
ARM GAS  /tmp/ccQtb5rF.s 			page 14


 184 01fc EE588EEB 		.ascii	"\356X\216\353-\300%\247=\356\376"
 184      2DC025A7 
 184      3DEEFE
 185              		.text
 186              		.section	.gnu.lto_extSetChannelModeI.ab8817f3d6ee372c,"",%progbits
 187 0000 789C7591 		.ascii	"x\234u\221?K\303P\024\305\317}IjU(\256u*\005\021Z4\243"
 187      3F4BC350 
 187      14C5CF7D 
 187      496A5528 
 187      AE752A05 
 188 0018 5F4441C7 		.ascii	"_DA\3076J\032h\251\264\012\202C_\213\005\241X\212\203"
 188      364A1A68 
 188      A9B40A82 
 188      435F8B05 
 188      A1588A83 
 189 002c E09FC1BA 		.ascii	"\340\237\301\272\010\":\270\250\010f\025Qq\021\024\204"
 189      08223AB8 
 189      A8086615 
 189      51711114 
 189      84
 190 003d 3AB9F801 		.ascii	":\271\370\001\304\301x_\322\024\252\370H\336\273\311"
 190      C4C1785F 
 190      D214AAF8 
 190      48DEBBC9 
 191 004d 3BF7774E 		.ascii	";\367wN^\004\004~\2178\337\357\004\244x%\015$Z\367@"
 191      5E04047E 
 191      8F38DFEF 
 191      04A47825 
 191      0D245AF7 
 192 0062 352A8854 		.ascii	"5*\210T\001BEPe\216|\355\251p;\236w\362\324\270\372"
 192      01424550 
 192      658E7CED 
 192      A9703B9E 
 192      77F2D4B8 
 193 0077 A073C19A 		.ascii	"\240s\301\232\002A\203C\320\271\"\203'\3057\260&e+\221"
 193      02418343 
 193      D0B92283 
 193      27C537B0 
 193      26652B91 
 194 008b 445BCA4D 		.ascii	"D[\312M\367\371v+.\367k-\371\355y\344\020+\306\010\026"
 194      F7F9762B 
 194      2EF76B2D 
 194      F9ED79E4 
 194      102BC608 
 195 00a0 61961F44 		.ascii	"a\226\037D\302_4\275?R\201s(\011\217i\236U\216\031\356"
 195      C25F34BD 
 195      3F528173 
 195      28098F69 
 195      9E558E19 
 196 00b5 E355BB43 		.ascii	"\343U\273C\355\345\363\372M\317P\233\014\330\244\245"
 196      EDE5F3FA 
 196      4DCF509B 
 196      0CD8A4A5 
 197 00c5 9162FF5D 		.ascii	"\221b\377]\3540G\267I(\236\341S\262\024\362nPs\343A"
 197      EC3047B7 
 197      49289EE1 
 197      53B214F2 
ARM GAS  /tmp/ccQtb5rF.s 			page 15


 197      6E5073E3 
 198 00da 4781F455 		.ascii	"G\201\364U|\311\021\207\"\0238\226-)_\271a \215#U_p"
 198      7CC91187 
 198      22133896 
 198      2D295FB9 
 198      61208D23 
 199 00f1 1D0D5883 		.ascii	"\035\015X\203\314V,tYAaS\0305\300\365\3033t@Ie\001p"
 199      CC562C74 
 199      59416153 
 199      1835C0F5 
 199      C3337440 
 200 0109 CECBFAD9 		.ascii	"\316\313\372\331\336h\260\021X\271^c\352\257WU\2524"
 200      DE68B011 
 200      58B95E63 
 200      EAAF5755 
 200      AA34
 201 011b A11DFD63 		.ascii	"\241\035\375c\027\010\335\355f\214\0116\031J\033\351"
 201      1708DDED 
 201      668C0936 
 201      194A1BE9 
 202 012b EE3DA0DE 		.ascii	"\356=\240\336\3318\214\205\211\324\367\255+\346\220"
 202      D9388C85 
 202      89D4F7AD 
 202      2BE690
 203 013a D5C30826 		.ascii	"\325\303\010&94\014<\242\332i\216\367\302#8cRg\253~"
 203      39340C3C 
 203      A2DA698E 
 203      F7C22338 
 203      635267AB 
 204 014f 5DD25C2E 		.ascii	"]\322\\.\227\314r\3112\255\234\223u\212e\223\257\\&"
 204      97CC72C9 
 204      32AD9C93 
 204      758A6593 
 204      AF5C26
 205 0162 EFBF5A58 		.ascii	"\357\277ZXY\232\264`\024\363\363\326\342\017\252\311"
 205      599AB460 
 205      14F3F3D6 
 205      E20FAAC9 
 206 0172 7E3A     		.ascii	"~:"
 207              		.text
 208              		.section	.gnu.lto_.symbol_nodes.ab8817f3d6ee372c,"",%progbits
 209 0000 789C4DC7 		.ascii	"x\234M\307K\012\302@\024D\321z\325\371v\026]\201\030"
 209      4B0AC240 
 209      1444D17A 
 209      D5F97616 
 209      5D8118
 210 0013 8D1F5071 		.ascii	"\215\037Pq\356f\234\273\006C\366\021$\264\330\357N."
 210      EE669CBB 
 210      0643F611 
 210      24B4D8EF 
 210      4E2E
 211 0025 872066FC 		.ascii	"\207 f\374\342\216\002no@zN\306\2212\307=E\307\003\025"
 211      E28E026E 
 211      6F407A4E 
 211      C69132C7 
 211      3D45C703 
 212 003a 1C27AA70 		.ascii	"\034'\252p<R\245\343\211\2522\355L\325\211}ov\241\232"
ARM GAS  /tmp/ccQtb5rF.s 			page 16


 212      3C52A5E3 
 212      89AA32ED 
 212      4CD5897D 
 212      6F76A19A 
 213 004e AC2BD566 		.ascii	"\254+\325f\335\251\230\365\240\272\277\002j\014\237"
 213      DDA998F5 
 213      A0BABF02 
 213      6A0C9F
 214 005d D5021B2C 		.ascii	"\325\002\033,\333C\213\327\366\"\246\227]z\0251\314"
 214      DB438BD7 
 214      F622A697 
 214      5D7A1531 
 214      CC
 215 006e ABE10B25 		.ascii	"\253\341\013%\217Dw"
 215      8F4477
 216              		.text
 217              		.section	.gnu.lto_.refs.ab8817f3d6ee372c,"",%progbits
 218 0000 789C6362 		.ascii	"x\234cb`b`d\200\002\000\000F\000\006"
 218      60626064 
 218      80020000 
 218      460006
 219              		.text
 220              		.section	.gnu.lto_.decls.ab8817f3d6ee372c,"",%progbits
 221 0000 789CA559 		.ascii	"x\234\245Y}l\024\307\025\237\331;\373\374]\343\206\217"
 221      7D6C14C7 
 221      159FD93B 
 221      FBFC5DE3 
 221      868F
 222 0012 7E09D316 		.ascii	"~\011\323\026\"Em.8M!\375#\205\032Z,a@\261]EJ\245\325"
 222      22456D2E 
 222      384D21FD 
 222      23851A5A 
 222      2C6140B1 
 223 002b FA7CD46E 		.ascii	"\372|\324n\216;\313w\006\374G\313\032\203K\012I\355"
 223      8E3BCB77 
 223      06FC47CB 
 223      1A834B0A 
 223      49ED
 224 003d 10C07C04 		.ascii	"\020\300|\004\016\343\230:\202`\361\321R\012\344\002"
 224      0EE3983A 
 224      8260F1D1 
 224      520AE402 
 225 004d C1BEDA11 		.ascii	"\301\276\332\021r\201\206\244!\351QW \205\212\270|T"
 225      728186A4 
 225      21E95157 
 225      20858AB8 
 225      7C54
 226 005f 6E02BEBE 		.ascii	"n\002\276\276\231\235\275\335\235\233=\337\245+\277"
 226      999DBDDD 
 226      9D9B3DDF 
 226      A52BBF
 227 006e DBD9DDF7 		.ascii	"\333\331\335\367\336\357\375\336\233\231\235YKHB\005"
 227      DEEFFDDE 
 227      9B999D59 
 227      4B484205 
 228 007e 0E84E270 		.ascii	"\016\204\342p\254\371\032B\207\240\235\203\020z\006"
 228      ACF91A42 
ARM GAS  /tmp/ccQtb5rF.s 			page 17


 228      87A09D83 
 228      107A06
 229 008d 194701C8 		.ascii	"\031G\001\310~\220^\220\033 \267A\356\200\214\203<\004"
 229      7E905E90 
 229      1B20B741 
 229      EE808C83 
 229      3C04
 230 009f C9C3A003 		.ascii	"\311\303\240\003R\004R\014R\202Q\322A\354%\220G\340"
 230      5204520C 
 230      528251D2 
 230      41EC2590 
 230      47E0
 231 00b1 5937BB27 		.ascii	"Y7\273'\261\373y\002}\202\345\004\351\007y\003\244\017"
 231      B1FB7902 
 231      7D82E504 
 231      E9077903 
 231      A40F
 232 00c3 E40CB339 		.ascii	"\344\014\2639\002r\032\0043=r\036\345\354I\234\371 "
 232      02721A04 
 232      333D721E 
 232      E5EC499C 
 232      F920
 233 00d5 C320458C 		.ascii	"\303 E\214\303TP\374*\326\374\350>\277\016\327\007\031"
 233      C35450FC 
 233      2AD6FCE8 
 233      3EBF0ED7 
 233      0719
 234 00e7 8EC4FC12 		.ascii	"\216\304\374\022\377\271\314\3077\340y)\310\267@\346"
 234      FFB9CCC7 
 234      37E07929 
 234      C8B740E6 
 235 00f7 309E6E90 		.ascii	"0\236n\2202\220\247@ ]\350\026\310\277@\346s<H\236\362"
 235      3290A740 
 235      205DE816 
 235      C8BF40E6 
 235      733C489E 
 236 010c 6C6230E3 		.ascii	"lb0\343\352\261`\023\366m\001v\021\207M\342\035\003"
 236      EAB16013 
 236      F66D0176 
 236      11874DE2 
 236      1D03
 237 011e F921874B 		.ascii	"\371!\207Kj\343\262\301\275\006\355+L/\227\351\3628"
 237      6AE3B2C1 
 237      BD06ED2B 
 237      4C2F97E9 
 237      F238
 238 0130 C5028EF7 		.ascii	"\305\002\216\367@\356\203,\342\260\3063\300\032\027"
 238      40EE832C 
 238      E2B0C633 
 238      C01A17
 239 013f 609508B0 		.ascii	"`\225\010\260>\003\371\034\244\202\303z\310\374\223"
 239      3E03F91C 
 239      A482C37A 
 239      C8FC93
 240 014e FA2DC306 		.ascii	"\372-\303\006\236\236?\211\330\203,\0079\213\014|\275"
 240      9E9E3F89 
 240      D8832C07 
ARM GAS  /tmp/ccQtb5rF.s 			page 18


 240      398B0C7C 
 240      BD
 241 015f AEE7599B 		.ascii	"\256\347Y\233\370!\034\263\340\234\005\347l\020\027"
 241      F8211CB3 
 241      E09C05E7 
 241      6C1017
 242 016e C80A901A 		.ascii	"\310\012\220\032\016s&\332\253\206c\261\215{\207\261"
 242      0E7326DA 
 242      AB8663B1 
 242      8D7B87B1 
 243 017e FA8AFA20 		.ascii	"\372\212\372 \036w\240ih\233\012G\270]UqH\301\317LE"
 243      1E77A069 
 243      689B0A47 
 243      B85D5571 
 243      48C1CF4C 
 244 0193 CF610517 		.ascii	"\317a\005\027\345\242R\332(\310\245\035\027!\005w\343"
 244      E5A252DA 
 244      28C8A51D 
 244      17210577 
 244      E3
 245 01a4 69AC55E3 		.ascii	"i\254U\343\320\334Ih6F\217\241>\260\357P\325\356\351"
 245      D0DC4968 
 245      36468FA1 
 245      3EB0EF50 
 245      D5EEE9
 246 01b7 4874CC41 		.ascii	"Ht\314A\257\023\000\365w\252\203\272'\016\366\343\231"
 246      AF1300F5 
 246      77AA83BA 
 246      270EF6E3 
 246      99
 247 01c8 6615051F 		.ascii	"f\025\005\037\300Rr\234\221\256\201\202\216\326X<>3"
 247      C052729C 
 247      91AE8182 
 247      8ED6583C 
 247      3E33
 248 01da FD200FB2 		.ascii	"\375 \017\262 \035470h~\243\252\353\211\341\222hQ\011"
 248      201D3437 
 248      30687EA3 
 248      AAEB89E1 
 248      92685109 
 249 01ee EA245E4A 		.ascii	"\352$^J\243\220jf\277@\267'\263\304l\324\003Db\037\\"
 249      A3906A66 
 249      BF40B727 
 249      B3C46CD4 
 249      0344621F 
 250 0203 DFF20355 		.ascii	"\337\362\003U\315Q\360\033\270\004\274<\217\301m\017"
 250      CD51F01B 
 250      B804BC3C 
 250      8FC16D0F 
 251 0213 7E8C85C6 		.ascii	"~\214\205\306\234\204\027\330yQ\360! \243\340\303`\255"
 251      9C8417D8 
 251      7951F021 
 251      20A3E0C3 
 251      60AD
 252 0225 1952BF6A 		.ascii	"\031R\277jl\367\340\275V\334\012\014\264g\310\342\326"
 252      6CF7E0BD 
 252      56DC0A0C 
ARM GAS  /tmp/ccQtb5rF.s 			page 19


 252      B467C8E2 
 252      D6
 253 0236 72CC4261 		.ascii	"r\314Ba\210:\362\341\340\336\351j,\202]\250\235\220"
 253      883AF2E1 
 253      E0DEE96A 
 253      2C825DA8 
 253      9D90
 254 0248 886D5C3F 		.ascii	"\210m\\?\243\313\000\315\321A\261)\364\303[\0344\364"
 254      A3CB00CD 
 254      D141B129 
 254      F4C35B1C 
 254      34F4
 255 025a 7E309250 		.ascii	"~0\222P\027\266\306\236\206#\022\325106G\036\211\267"
 255      17B6C69E 
 255      862312D5 
 255      31303647 
 255      1E89B7
 256 026d 946A7753 		.ascii	"\224jwS\304L\023.\241\003\000I\3349s\215{o\032\367\260"
 256      C44C132E 
 256      A1030049 
 256      DC39738D 
 256      7B6F1AF7 
 257 0282 49F50FC6 		.ascii	"I\365\017\306m\275\370\344\022\347\032\215\270\265\377"
 257      6DBDF8E4 
 257      12E71A8D 
 257      B8B5FF
 258 0291 9A4353F0 		.ascii	"\232CS\360q<\033~O`\207\320LB\347({\222j\021Q\3264p"
 258      713C1B7E 
 258      4F6087D0 
 258      4C42E728 
 258      7B926A11 
 259 02a9 8BF40B96 		.ascii	"\213\364\013\226~\250\327\203\353xk\233\032}B\324\213"
 259      7EA8D783 
 259      EB786B9B 
 259      1A7D42D4 
 259      8B
 260 02ba 40059BBA 		.ascii	"@\005\233\272@$_\367x\322\250G\344\217\203\270T\320"
 260      40245FF7 
 260      78D2A847 
 260      E48F83B8 
 260      54D0
 261 02cc EB386505 		.ascii	"\3538e\005\277\005T&\327#\232os\275*\362\332`\201\352"
 261      BF055426 
 261      D7239A6F 
 261      73BD2AF2 
 261      DA6081EA 
 262 02e0 D4EE4FD6 		.ascii	"\324\356O\326\243\324\310\211\301=X\015\237\303SP\007"
 262      A3D4C889 
 262      C13D580D 
 262      9FC35350 
 262      07
 263 02f1 C39AB43B 		.ascii	"\303\232\264;3&\235\300D\301\027\350\210\210\342\014"
 263      33269DC0 
 263      44C117E8 
 263      8888E20C 
 264 0301 8704092C 		.ascii	"\207\004\011,\312\007\376\301\000\015<\232\326P\370"
 264      CA07FEC1 
ARM GAS  /tmp/ccQtb5rF.s 			page 20


 264      000D3C9A 
 264      D650F8
 265 0310 F7C09EAF 		.ascii	"\367\300\236\257\220\300s\321&\243\022H8\013\260\241"
 265      90C073D1 
 265      26A31248 
 265      380BB0A1 
 266 0320 70F7E59E 		.ascii	"p\367\345\236\357\320\2410\214I\377z\300\305\234\276"
 266      EFD0A130 
 266      8C49FF7A 
 266      C0C59CBE 
 267 0330 A3DD97DE 		.ascii	"\243\335\227\336\351\304mt\330^\244\256\216IVW\012v"
 267      E9C46D74 
 267      D85EA4AE 
 267      8E495657 
 267      0A76
 268 0342 E59A43A6 		.ascii	"\345\232C\246\327\272\002\361\347\3125\032de\362%\224"
 268      D7BA02F1 
 268      E7CA351A 
 268      6465F225 
 268      94
 269 0353 A9BA84CE 		.ascii	"\251\272\204\316R\320\250\321\231-\241N\336\231w\015"
 269      52D0A8D1 
 269      992DA14E 
 269      DE99770D 
 270 0363 FE1DEF54 		.ascii	"\376\035\357T#\033\034\226\276\234\376\274z\305:\257"
 270      231B1C96 
 270      BE9CFEBC 
 270      7AC53AAF 
 271 0373 2AB80FE7 		.ascii	"*\270\017\347\353\027i\3472\262\257}*\251\371U\232\307"
 271      EB1769E7 
 271      32B2AF7D 
 271      2AA9F955 
 271      9AC7
 272 0385 F349791C 		.ascii	"\363Iy\034\306_$\221\306\373\010\245\004\177\253\375"
 272      C65F2491 
 272      C6FB08A5 
 272      047FABFD 
 273 0395 11027E19 		.ascii	"\021\002~\031\002\227\320\010\007nI\213F\327.\025\327"
 273      0297D008 
 273      076E498B 
 273      46D72E15 
 273      D7
 274 03a6 C081B8BF 		.ascii	"\300\201\270\277&=\223\320\307\031\327\2554\311\255"
 274      263D93D0 
 274      C719D7AD 
 274      34C9AD
 275 03b5 C9BF318A 		.ascii	"\311\2771\212\024\374g:\377\015\341Y\360{\011~\371\034"
 275      14FC673A 
 275      FF0DE159 
 275      F07B097E 
 275      F91C
 276 03c7 08668F77 		.ascii	"\010f\217w`\344'*\246&\330\202\212\035\331\217YI\022"
 276      60E4272A 
 276      A626D882 
 276      8A1DD98F 
 276      594912
 277 03da 91B2C634 		.ascii	"\221\262\3064\2443\274N\031\276m0\344pS\364M\0231\215"
ARM GAS  /tmp/ccQtb5rF.s 			page 21


 277      A433BC4E 
 277      19BE6D30 
 277      E47053F4 
 277      4D13318D 
 278 03ee D2394AE9 		.ascii	"\3229J\351\274\231\214\204>I\352'\332dg\2626fE\304\333"
 278      BC998C84 
 278      3E49EA27 
 278      DA6467B2 
 278      366645C4 
 279 0403 DB113B83 		.ascii	"\333\021;\203\363\015\210{\022\367\252\370\377\252t"
 279      F30D887B 
 279      12F7AAF8 
 279      FFAA74
 280 0412 D854A537 		.ascii	"\330T\2457)\245#\264J\247\323\011\254\317\010\314\322"
 280      29A523B4 
 280      4AA7D309 
 280      ACCF08CC 
 280      D2
 281 0423 B325F439 		.ascii	"\263%\3649\227\210o\243\003\252\372Jl\343\350\270\003"
 281      97886FA3 
 281      03AAFA4A 
 281      6CE3E8B8 
 281      03
 282 0434 86B65333 		.ascii	"\206\266S3\225\320\213\016\242\326\013K,\021D\002\200"
 282      95D08B0E 
 282      A2D60B4B 
 282      2C114402 
 282      80
 283 0445 ADCB5E52 		.ascii	"\255\313^R7\026\343\304\302\254\227_\230\375C\2700{"
 283      3716E3C4 
 283      C2AC975F 
 283      98FD43B8 
 283      307B
 284 0457 3FF385D9 		.ascii	"?\363\205\331\315\024\023H\242\032\034\341\227\035\""
 284      CD141348 
 284      A21A1CE1 
 284      971D22
 285 0466 C2EAFDBA 		.ascii	"\302\352\375\272%\232\271\202\377I\227Z7Rsef\227\275"
 285      259AB982 
 285      FF49975A 
 285      37527365 
 285      6697BD
 286 0479 4B342005 		.ascii	"K4 \005_\237\304\354L\212\024\335\340S\364\2110E\375"
 286      5F9FC4EC 
 286      4C8A14DD 
 286      E053F489 
 286      3045FD
 287 048c 832C45DA 		.ascii	"\203,E\332\232TB;\304d\356\362dn\177\241\302\335\346"
 287      9A54423B 
 287      C464EEF2 
 287      646E7FA1 
 287      C2DDE6
 288 049f A3FA5418 		.ascii	"\243\372T\030\325gFTWhT\373\304Qm\363rQ\335I+\305\037"
 288      D5674654 
 288      576854FB 
 288      C4516DF3 
 288      7251DD49 
ARM GAS  /tmp/ccQtb5rF.s 			page 22


 289 04b6 12336D76 		.ascii	"\0223mv\357\247\216\355\315\256j\023\213\220\314\035"
 289      EFA78EED 
 289      CDAE6A13 
 289      8B90CC1D 
 290 04c6 9ECC5D21 		.ascii	"\236\314]!\231\367\20682'\305dv\360d\306\323\"\363\221"
 290      99F78638 
 290      3227C564 
 290      76F064C6 
 290      D322F391 
 291 04da 4E46C1FF 		.ascii	"NF\301\377\231\304,\025\231q\236\314\177\205d.\015g"
 291      99C42C15 
 291      99719ECC 
 291      7F85642E 
 291      0D67
 292 04ec 3CA42652 		.ascii	"<\244&R\016)\026S\212\215P8bY\302r\273\230\001:qE-3"
 292      0E291653 
 292      8A8D5038 
 292      6259C272 
 292      BB98013A 
 293 0504 ABFDCB26 		.ascii	"\253\375\313&)\270\365R\276\241\304\017\354!q\241v\362"
 293      29B8F552 
 293      BEA1C40F 
 293      EC2171A1 
 293      76F2
 294 0516 857A984E 		.ascii	"\205z\230N\241\"\177\335|\020\026\207\222\265X\366\246"
 294      A1227FDD 
 294      7C101687 
 294      92B558F6 
 294      A6
 295 0527 3431CCF4 		.ascii	"41\314\364\352\360q\315\224\204+\241\217h\\\366\246"
 295      EAF071CD 
 295      94842BA1 
 295      8F685CF6 
 295      A6
 296 0538 8C9456E7 		.ascii	"\214\224V\347\310\345\315ma\254f'*\375\220\257\364\006"
 296      C8E5CD6D 
 296      61AC6627 
 296      2AFD90AF 
 296      F406
 297 054a 29A9D231 		.ascii	")\251\3221XP\376\372\342z\334\331\026\216\252cd\011"
 297      5850FEFA 
 297      E27ADCD9 
 297      168EAA63 
 297      6409
 298 055c A36DAC25 		.ascii	"\243m\254%4\312\345Dw\262Y\344$rjh\213\212\255\023\314"
 298      34CAE544 
 298      77B259E4 
 298      24726A68 
 298      8B8AAD13 
 299 0571 988D8397 		.ascii	"\230\215\203\227\204\016N';\230\260q\360[\241\203\263"
 299      840E4E27 
 299      3B98B071 
 299      F05BA183 
 299      B3
 300 0582 6607DAF8 		.ascii	"f\007\332\370\333\354\024;\350\024:\030Iv\320m\343`"
 300      DBEC143B 
 300      E8143A18 
ARM GAS  /tmp/ccQtb5rF.s 			page 23


 300      4976D06D 
 300      E360
 301 0594 ABD501B7 		.ascii	"\253\325\001\267X\353N\261X{\325\350\206l\323\023^\320"
 301      58EB4EB1 
 301      587BD5E8 
 301      866CD313 
 301      5ED0
 302 05a6 55C456AC 		.ascii	"U\304V\254\261\327\325\0313Rl\250\311W\015\350\033\333"
 302      B1D7D519 
 302      33526CA8 
 302      C9570DE8 
 302      1BDB
 303 05b8 2532A19D 		.ascii	"%2\241\235r\012>\354i D\201\034\304^k\353-\262\023e"
 303      720A3EEC 
 303      69204481 
 303      1CC45E6B 
 303      EB2DB213 
 304 05cd EE8B75F7 		.ascii	"\356\213u\367\022\263\332&e\272\030\333)\211\027cz`"
 304      12B3DA26 
 304      65BA18DB 
 304      29891763 
 304      7A60
 305 05df FAB6AEAB 		.ascii	"\372\266\256\253HCg~\346\353z.\346gW\306\310\273m\220"
 305      4843677E 
 305      E6EB7A2E 
 305      E66757C6 
 305      C8BB6D90 
 306 05f3 B3C51539 		.ascii	"\263\305\0259\230\242\"{\214\212\220\216\020\031\213"
 306      98A2227B 
 306      8C8A908E 
 306      10198B
 307 0602 C547DFFF 		.ascii	"\305G\337\377\345\241\243\252\372\242:\021_\327\272"
 307      E5A1A3AA 
 307      FAA23A11 
 307      5FD7BA
 308 0611 01EB23E2 		.ascii	"\001\353#\342fRo\020}KzM\342F\335\336\344\336\006 \357"
 308      66526F10 
 308      7D4B7A4D 
 308      E246DDDE 
 308      E4DE0620 
 309 0626 DD1C799E 		.ascii	"\335\034y\236l\200\324x|\335,\035awV:\010a\036a\277"
 309      6C80D478 
 309      7CDD2C1D 
 309      6177563A 
 309      08611E61 
 310 063b 1061D7AD 		.ascii	"\020a\327\255X \011\341jZ\010\007x\204\036!\302\326"
 310      582009E1 
 310      6A5A0807 
 310      78841E21 
 310      C2D6
 311 064d 4F235B70 		.ascii	"O#[p\347\221v\225\214\232u\373\"\035\316\014>\214I\334"
 311      E7917695 
 311      8C9A75FB 
 311      221DCE0C 
 311      3E8C49DC 
 312 0661 CB62984E 		.ascii	"\313b\230N\226\226iy{\2669X\366\231\246'\233u/6I\377"
 312      96966979 
ARM GAS  /tmp/ccQtb5rF.s 			page 24


 312      7BB63958 
 312      F699A627 
 312      9B752F36 
 313 0677 05D67E58 		.ascii	"\005\326~X\337V\037\245\026\275\222\335\2049ly1\336"
 313      DF561FA5 
 313      16BD92DD 
 313      84396C79 
 313      31DE
 314 0689 6D5D31C3 		.ascii	"m]1\303Xj\362\234\373\204\234\343\243c\277\022u\216"
 314      586AF29C 
 314      FB849CE3 
 314      A363BF12 
 314      758E
 315 069b 93D9E924 		.ascii	"\223\331\351$\366\010\017\322o\3239\306~\226T\272\201"
 315      F6080FD2 
 315      6FD339C6 
 315      7E9654BA 
 315      81
 316 06ac B4108EF2 		.ascii	"\264\020\216\362\010\307l:\307HK\022\302\245\264\020"
 316      08C76C3A 
 316      C7484B12 
 316      C2A5B410 
 317 06bc 4EF008BF 		.ascii	"N\360\010\277\267\"|\023\355WGFb\027nu\341M1\230\262"
 317      B7227C13 
 317      ED574746 
 317      62176E75 
 317      E14D3198 
 318 06d1 26E2716C 		.ascii	"&\342ql\314\004\211\251.b\373\315O\301;\244\331\351"
 318      CC0489A9 
 318      2E62FBCD 
 318      4FC13BA4 
 318      D9E9
 319 06e3 4E634B74 		.ascii	"NcKtKM\327f\312\341\264\024\374\247\214\247\234\323"
 319      4B4DD766 
 319      CAE1B414 
 319      FCA78CA7 
 319      9CD3
 320 06f5 36534E8E 		.ascii	"6SN\216%\027\272\026\331j\323l\232\026\365\\\0200\241"
 320      2517BA16 
 320      D96AD36C 
 320      9A16F55C 
 320      1030A1
 321 0708 64EB1B61 		.ascii	"d\353\033a\362O\032-o\221\343\203jN\277\272\211\024"
 321      F24F1A2D 
 321      6F91E383 
 321      6A4EBFBA 
 321      8914
 322 071a C6F48650 		.ascii	"\306\364\206P\360)\203\015\3671\313\242\266\335V\015"
 322      F029830D 
 322      F731CBA2 
 322      B6DD560D 
 323 072a B6A51993 		.ascii	"\266\245\031\223>gC\332e!\255k\221\235\212\304\355\031"
 323      3E6743DA 
 323      6521AD6B 
 323      919D8AC4 
 323      ED19
 324 073c B8202474 		.ascii	"\270 $t_Dz\"\211t)\307y\023\326\035MIUh^\015\326\215"
ARM GAS  /tmp/ccQtb5rF.s 			page 25


 324      5F447A22 
 324      897429C7 
 324      7913D61D 
 324      4D495568 
 325 0754 19931EB4 		.ascii	"\031\223\036\264!]l!=\310\2236\355-\370($\324\346\022"
 325      215D6C21 
 325      3DC89336 
 325      ED2DF828 
 325      24D4E612 
 326 0768 B0FEDBD0 		.ascii	"\260\376\333\320d\254;\022\216JR\261\346\325`\242\313"
 326      64AC3B12 
 326      8E4A52B1 
 326      E6D560A2 
 326      CB
 327 0779 98F5BB36 		.ascii	"\230\365\2736\254\247XX\277\313\2636mB\370($\324ia\315"
 327      ACA75858 
 327      BFCBB336 
 327      6D42F828 
 327      24D46961 
 328 078e BD942FD8 		.ascii	"\275\224/\330|\336 \352\027\223\226I\245\304\244M\262"
 328      7CDE20EA 
 328      17939649 
 328      A5C4A44D 
 328      B2
 329 079f FBAA63FE 		.ascii	"\373\252c\376\232d|%\322\023}mx\262Dw%b\377r\252D\363"
 329      9A647C25 
 329      D2137D6D 
 329      78B24477 
 329      2562FF72 
 330 07b6 6AB0F9C8 		.ascii	"j\260\371\3108\321\227m\022m\376\206dh%\022m\332\005"
 330      38D1976D 
 330      126DFE86 
 330      64682512 
 330      6DDA05
 331 07c9 F051C0B6 		.ascii	"\360Q\300\266\331\222\350"
 331      D992E8
 332 07d0 47512FFD 		.ascii	"GQ/\375\024\1771\332J\276\222[\267>4-\356\346`\223;"
 332      147F31DA 
 332      4ABE925B 
 332      B73E342D 
 332      EEE66093 
 333 07e5 D8E4717B 		.ascii	"\330\344q{\352\033j\033\002A7\374\325+>z\313\2736\364"
 333      EA1B6A1B 
 333      024137FC 
 333      D52B3E7A 
 333      CBBB36F4 
 334 07f9 B807B9E0 		.ascii	"\270\007\271\340T\341o\010e\377dYMi9\232cg\321\340\367"
 334      54E16F08 
 334      65FF6459 
 334      4D69399A 
 334      6367D1E0 
 335 080e F89AEBBC 		.ascii	"\370\232\353\274\324\252\036\345.~\256zQS\303joS\231"
 335      D4AA1EE5 
 335      2E7EAE7A 
 335      5153C36A 
 335      6F5399
 336 0821 9D4163A0 		.ascii	"\235Ac\240)\024tWUW>Y\346^\272t\0211\224}\276:0\316"
ARM GAS  /tmp/ccQtb5rF.s 			page 26


 336      29147457 
 336      55573E59 
 336      E65EBA74 
 336      1131947D 
 337 0839 836630A4 		.ascii	"\203f0\244\204\274r(\017\374\3105\313*\226UT\347\220"
 337      84BC7228 
 337      0FFCC835 
 337      CB2A9655 
 337      54E790
 338 084c 6655F5F2 		.ascii	"fU\365\362\025\364\336\302\362\352\212\237.\316\242"
 338      15F4DEC2 
 338      F2EA8A9F 
 338      2ECEA2
 339 085b 6AC570A3 		.ascii	"j\305p\243\274^\361\373\275\276\362\200\177e\303\317"
 339      BC5EF1FB 
 339      BDBEF280 
 339      7F65C3CF 
 340 086b 355A7A44 		.ascii	"5ZzD~\357\032_C\255;\330\022t\313\301P]\203\237\004"
 340      7EEF1A5F 
 340      43AD3BD8 
 340      1274CBC1 
 340      505D839F 
 341 0880 98D30CE7 		.ascii	"\230\323\014\347'\313\344\320wE\272\253\024\010\326"
 341      27CBE4D0 
 341      7745BAAB 
 341      1408D6
 342 088f EF75CB75 		.ascii	"\357u\313u\336\225J\263/$\207Z\032\275A\022\232,\353"
 342      DE954AB3 
 342      2F24875A 
 342      1ABD4112 
 342      9A2CEB
 343 08a2 86CE5581 		.ascii	"\206\316U\201:o\201wm\243G\203\226C\205\020\267G\361"
 343      3A6F8177 
 343      6DA34783 
 343      96438510 
 343      B747F1
 344 08b5 F96A15CF 		.ascii	"\371j\025\317\013rH\362\324\346\260GA\222\016-\264l"
 344      0B7248F2 
 344      D4E6B047 
 344      41920E2D 
 344      B46C
 345 08c7 0F3D11D5 		.ascii	"\017=\021\325\345\265\277\360zhn\235p\325\230\003?U"
 345      E5B5BFF0 
 345      7A686E9D 
 345      70D59803 
 345      3F55
 346 08d9 21A529E4 		.ascii	"!\245)\344\242\215@c1\234\031\255\305~\245\326\347u"
 346      A28D4063 
 346      319C19AD 
 346      C57EA5D6 
 346      E775
 347 08eb 3177538C 		.ascii	"1wS\214\007\213\032\202\344I\0111\361\3527+!\260\212"
 347      078B1A82 
 347      E4490931 
 347      F1EA372B 
 347      21B08A
 348 08fe 2C124C63 		.ascii	",\022Lc\001\313\252\334\0000\205\372E\220\300\024\030"
ARM GAS  /tmp/ccQtb5rF.s 			page 27


 348      01CBAADC 
 348      003085FA 
 348      4590C014 
 348      18
 349 090f 5781C669 		.ascii	"W\201\306i\372\205N\306K\021\247\363\267\3534<'\\7="
 349      FA854EC6 
 349      4B11A7F3 
 349      B7EB343C 
 349      275C373D 
 350 0923 6A57D940 		.ascii	"jW\331@\020~\232B\364\0149\313'\347\252\226\340\322"
 350      107E9A42 
 350      F40C39CB 
 350      27E7AA96 
 350      E0D2
 351 0935 80E705A1 		.ascii	"\200\347\005\241\015\250\352\371\367\324C\231H\377\361"
 351      0DA8EAF9 
 351      F7D44399 
 351      48FFF1
 352 0944 D4338BB9 		.ascii	"\3243\213\2716\026Z\367Y\370ley\345Zx\344\0114y\345"
 352      36165AF7 
 352      59F86C65 
 352      79E55A78 
 352      E4093479 
 353 0959 D5F35611 		.ascii	"\325\363V\021[\362H\366\201\355\367D\266@\311]^YUQe"
 353      5BF248F6 
 353      81EDF744 
 353      B640C95D 
 353      5E595551 
 354 096e 80125BCF 		.ascii	"\200\022[\317\252\0377\373=`^(\313AoH\376\321\302\252"
 354      AA1F37FB 
 354      3D605E28 
 354      CB416F48 
 354      FED1C2AA 
 355 0982 C52B9EAD 		.ascii	"\305+\236\255(T|k\224\226 \344\317\007\035\"k\265\342"
 355      28547C6B 
 355      949620E4 
 355      CF071D22 
 355      6BB5E2
 356 0995 6BF61632 		.ascii	"k\366\0262B5~\002\222OCem\012\335L\3339\262\274\022"
 356      42357E02 
 356      924F4365 
 356      6D0ADD4C 
 356      DB39B2BC 
 357 09aa 3CCA72A1 		.ascii	"<\312r\241\336x|\336SO\3177]}\377\2112\313\325<\363"
 357      DE787CDE 
 357      534FCF37 
 357      5D7DFF89 
 357      32CBD53C 
 358 09bf D55CCBB3 		.ascii	"\325\\\313\263\271O\377\017Y\024\250s"
 358      B94FFF0F 
 358      5914A873 
 359              		.text
 360              		.section	.gnu.lto_.symtab.ab8817f3d6ee372c,"",%progbits
 361 0000 65787449 		.ascii	"extInit\000\000\000\000\000\000\000\000\000\000\000"
 361      6E697400 
 361      00000000 
 361      00000000 
ARM GAS  /tmp/ccQtb5rF.s 			page 28


 361      0000
 362 0012 00A10000 		.ascii	"\000\241\000\000\000extObjectInit\000\000\000\000\000"
 362      00657874 
 362      4F626A65 
 362      6374496E 
 362      69740000 
 363 0029 00000000 		.ascii	"\000\000\000\000\000\000\000\246\000\000\000extStar"
 363      000000A6 
 363      00000065 
 363      78745374 
 363      6172
 364 003b 74000000 		.ascii	"t\000\000\000\000\000\000\000\000\000\000\000\000\346"
 364      00000000 
 364      00000000 
 364      00E6
 365 0049 00000065 		.ascii	"\000\000\000extStop\000\000\000\000\000\000\000\000"
 365      78745374 
 365      6F700000 
 365      00000000 
 365      0000
 366 005b 00000000 		.ascii	"\000\000\000\000\356\000\000\000extChannelEnable\000"
 366      EE000000 
 366      65787443 
 366      68616E6E 
 366      656C456E 
 367 0074 00000000 		.ascii	"\000\000\000\000\000\000\000\000\000\000\000\362\000"
 367      00000000 
 367      000000F2 
 367      00
 368 0081 00006578 		.ascii	"\000\000extChannelDisable\000\000\000\000\000\000\000"
 368      74436861 
 368      6E6E656C 
 368      44697361 
 368      626C6500 
 369 009b 00000000 		.ascii	"\000\000\000\000\000\370\000\000\000extSetChannelMo"
 369      00F80000 
 369      00657874 
 369      53657443 
 369      68616E6E 
 370 00b3 64654900 		.ascii	"deI\000\000\000\000\000\000\000\000\000\000\000\000"
 370      00000000 
 370      00000000 
 370      000000
 371 00c2 FD000000 		.ascii	"\375\000\000\000ext_lld_init\000\000\002\000\000\000"
 371      6578745F 
 371      6C6C645F 
 371      696E6974 
 371      00000200 
 372 00d8 00000000 		.ascii	"\000\000\000\000\000\000\012\001\000\000ext_lld_sta"
 372      00000A01 
 372      00006578 
 372      745F6C6C 
 372      645F7374 
 373 00ed 72740000 		.ascii	"rt\000\000\002\000\000\000\000\000\000\000\000\000\014"
 373      02000000 
 373      00000000 
 373      00000C
ARM GAS  /tmp/ccQtb5rF.s 			page 29


 374 00fc 01000065 		.ascii	"\001\000\000ext_lld_stop\000\000\002\000\000\000\000"
 374      78745F6C 
 374      6C645F73 
 374      746F7000 
 374      00020000 
 375 0112 00000000 		.ascii	"\000\000\000\000\000\016\001\000\000ext_lld_channel"
 375      000E0100 
 375      00657874 
 375      5F6C6C64 
 375      5F636861 
 376 012a 5F656E61 		.ascii	"_enable\000\000\002\000\000\000\000\000\000\000\000"
 376      626C6500 
 376      00020000 
 376      00000000 
 376      0000
 377 013c 00100100 		.ascii	"\000\020\001\000\000ext_lld_channel_disable\000\000"
 377      00657874 
 377      5F6C6C64 
 377      5F636861 
 377      6E6E656C 
 378 015a 02000000 		.ascii	"\002\000\000\000\000\000\000\000\000\000\022\001\000"
 378      00000000 
 378      00001201 
 378      00
 379 0167 00       		.ascii	"\000"
 380              		.text
 381              		.section	.gnu.lto_.opts,"",%progbits
 382 0000 272D6D63 		.ascii	"'-mcpu=cortex-m4' '-mno-thumb-interwork' '-mthumb' "
 382      70753D63 
 382      6F727465 
 382      782D6D34 
 382      2720272D 
 383 0033 272D6767 		.ascii	"'-ggdb' '-O2' '-fomit-frame-pointer' '-falign-funct"
 383      64622720 
 383      272D4F32 
 383      2720272D 
 383      666F6D69 
 384 0066 696F6E73 		.ascii	"ions=16' '-ffunction-sections' '-fdata-sections' '-"
 384      3D313627 
 384      20272D66 
 384      66756E63 
 384      74696F6E 
 385 0099 666E6F2D 		.ascii	"fno-common' '-flto'\000"
 385      636F6D6D 
 385      6F6E2720 
 385      272D666C 
 385      746F2700 
 386              		.text
 387              		.cfi_sections	.debug_frame
 388              		.section	.text.extInit,"ax",%progbits
 389              		.align	2
 390              		.p2align 4,,15
 391              		.global	extInit
 392              		.thumb
 393              		.thumb_func
 394              		.type	extInit, %function
 395              	extInit:
ARM GAS  /tmp/ccQtb5rF.s 			page 30


 396              	.LFB260:
 397              		.file 1 "/usr/src/chibios/os/hal/src/ext.c"
 398              		.loc 1 56 0
 399              		.cfi_startproc
 400              		@ args = 0, pretend = 0, frame = 0
 401              		@ frame_needed = 0, uses_anonymous_args = 0
 402              		@ link register save eliminated.
 403              		.loc 1 58 0
 404 0000 FFF7FEBF 		b	ext_lld_init
 405              	.LVL0:
 406              		.cfi_endproc
 407              	.LFE260:
 408              		.size	extInit, .-extInit
 409              		.section	.text.extObjectInit,"ax",%progbits
 410              		.align	2
 411              		.p2align 4,,15
 412              		.global	extObjectInit
 413              		.thumb
 414              		.thumb_func
 415              		.type	extObjectInit, %function
 416              	extObjectInit:
 417              	.LFB261:
 418              		.loc 1 68 0
 419              		.cfi_startproc
 420              		@ args = 0, pretend = 0, frame = 0
 421              		@ frame_needed = 0, uses_anonymous_args = 0
 422              		@ link register save eliminated.
 423              	.LVL1:
 424              		.loc 1 70 0
 425 0000 0122     		movs	r2, #1
 426              		.loc 1 71 0
 427 0002 0023     		movs	r3, #0
 428              		.loc 1 70 0
 429 0004 0270     		strb	r2, [r0]
 430              		.loc 1 71 0
 431 0006 4360     		str	r3, [r0, #4]
 432 0008 7047     		bx	lr
 433              		.cfi_endproc
 434              	.LFE261:
 435              		.size	extObjectInit, .-extObjectInit
 436 000a 00BF     		.section	.text.extStart,"ax",%progbits
 437              		.align	2
 438              		.p2align 4,,15
 439              		.global	extStart
 440              		.thumb
 441              		.thumb_func
 442              		.type	extStart, %function
 443              	extStart:
 444              	.LFB262:
 445              		.loc 1 84 0
 446              		.cfi_startproc
 447              		@ args = 0, pretend = 0, frame = 0
 448              		@ frame_needed = 0, uses_anonymous_args = 0
 449              	.LVL2:
 450 0000 10B5     		push	{r4, lr}
 451              		.cfi_def_cfa_offset 8
 452              		.cfi_offset 4, -8
ARM GAS  /tmp/ccQtb5rF.s 			page 31


 453              		.cfi_offset 14, -4
 454              	.LBB76:
 455              	.LBB77:
 456              	.LBB78:
 457              	.LBB79:
 458              	.LBB80:
 459              		.file 2 "/usr/src/chibios/os/ext/CMSIS/include/core_cmFunc.h"
 460              		.loc 2 546 0
 461 0002 2023     		movs	r3, #32
 462              	.LBE80:
 463              	.LBE79:
 464              	.LBE78:
 465              	.LBE77:
 466              	.LBE76:
 467              		.loc 1 84 0
 468 0004 0446     		mov	r4, r0
 469              	.LBB85:
 470              	.LBB84:
 471              	.LBB83:
 472              	.LBB82:
 473              	.LBB81:
 474              		.loc 2 546 0
 475              	@ 546 "/usr/src/chibios/os/ext/CMSIS/include/core_cmFunc.h" 1
 476 0006 83F31188 		MSR basepri, r3
 477              	@ 0 "" 2
 478              		.thumb
 479              	.LBE81:
 480              	.LBE82:
 481              	.LBE83:
 482              	.LBE84:
 483              	.LBE85:
 484              		.loc 1 91 0
 485 000a 4160     		str	r1, [r0, #4]
 486              		.loc 1 92 0
 487 000c FFF7FEFF 		bl	ext_lld_start
 488              	.LVL3:
 489              		.loc 1 93 0
 490 0010 0223     		movs	r3, #2
 491 0012 2370     		strb	r3, [r4]
 492              	.LVL4:
 493              	.LBB86:
 494              	.LBB87:
 495              	.LBB88:
 496              	.LBB89:
 497              	.LBB90:
 498              	.LBB91:
 499              		.loc 2 546 0
 500 0014 0023     		movs	r3, #0
 501              	@ 546 "/usr/src/chibios/os/ext/CMSIS/include/core_cmFunc.h" 1
 502 0016 83F31188 		MSR basepri, r3
 503              	@ 0 "" 2
 504              		.thumb
 505 001a 10BD     		pop	{r4, pc}
 506              	.LBE91:
 507              	.LBE90:
 508              	.LBE89:
 509              	.LBE88:
ARM GAS  /tmp/ccQtb5rF.s 			page 32


 510              	.LBE87:
 511              	.LBE86:
 512              		.cfi_endproc
 513              	.LFE262:
 514              		.size	extStart, .-extStart
 515              		.section	.text.extStop,"ax",%progbits
 516              		.align	2
 517              		.p2align 4,,15
 518              		.global	extStop
 519              		.thumb
 520              		.thumb_func
 521              		.type	extStop, %function
 522              	extStop:
 523              	.LFB263:
 524              		.loc 1 104 0
 525              		.cfi_startproc
 526              		@ args = 0, pretend = 0, frame = 0
 527              		@ frame_needed = 0, uses_anonymous_args = 0
 528              	.LVL5:
 529 0000 10B5     		push	{r4, lr}
 530              		.cfi_def_cfa_offset 8
 531              		.cfi_offset 4, -8
 532              		.cfi_offset 14, -4
 533              	.LBB92:
 534              	.LBB93:
 535              	.LBB94:
 536              	.LBB95:
 537              	.LBB96:
 538              		.loc 2 546 0
 539 0002 2023     		movs	r3, #32
 540              	.LBE96:
 541              	.LBE95:
 542              	.LBE94:
 543              	.LBE93:
 544              	.LBE92:
 545              		.loc 1 104 0
 546 0004 0446     		mov	r4, r0
 547              	.LBB101:
 548              	.LBB100:
 549              	.LBB99:
 550              	.LBB98:
 551              	.LBB97:
 552              		.loc 2 546 0
 553              	@ 546 "/usr/src/chibios/os/ext/CMSIS/include/core_cmFunc.h" 1
 554 0006 83F31188 		MSR basepri, r3
 555              	@ 0 "" 2
 556              		.thumb
 557              	.LBE97:
 558              	.LBE98:
 559              	.LBE99:
 560              	.LBE100:
 561              	.LBE101:
 562              		.loc 1 111 0
 563 000a FFF7FEFF 		bl	ext_lld_stop
 564              	.LVL6:
 565              		.loc 1 112 0
 566 000e 0123     		movs	r3, #1
ARM GAS  /tmp/ccQtb5rF.s 			page 33


 567 0010 2370     		strb	r3, [r4]
 568              	.LVL7:
 569              	.LBB102:
 570              	.LBB103:
 571              	.LBB104:
 572              	.LBB105:
 573              	.LBB106:
 574              	.LBB107:
 575              		.loc 2 546 0
 576 0012 0023     		movs	r3, #0
 577              	@ 546 "/usr/src/chibios/os/ext/CMSIS/include/core_cmFunc.h" 1
 578 0014 83F31188 		MSR basepri, r3
 579              	@ 0 "" 2
 580              		.thumb
 581 0018 10BD     		pop	{r4, pc}
 582              	.LBE107:
 583              	.LBE106:
 584              	.LBE105:
 585              	.LBE104:
 586              	.LBE103:
 587              	.LBE102:
 588              		.cfi_endproc
 589              	.LFE263:
 590              		.size	extStop, .-extStop
 591 001a 00BF     		.section	.text.extChannelEnable,"ax",%progbits
 592              		.align	2
 593              		.p2align 4,,15
 594              		.global	extChannelEnable
 595              		.thumb
 596              		.thumb_func
 597              		.type	extChannelEnable, %function
 598              	extChannelEnable:
 599              	.LFB264:
 600              		.loc 1 125 0
 601              		.cfi_startproc
 602              		@ args = 0, pretend = 0, frame = 0
 603              		@ frame_needed = 0, uses_anonymous_args = 0
 604              	.LVL8:
 605 0000 08B5     		push	{r3, lr}
 606              		.cfi_def_cfa_offset 8
 607              		.cfi_offset 3, -8
 608              		.cfi_offset 14, -4
 609              	.LBB108:
 610              	.LBB109:
 611              	.LBB110:
 612              	.LBB111:
 613              	.LBB112:
 614              		.loc 2 546 0
 615 0002 2023     		movs	r3, #32
 616              	@ 546 "/usr/src/chibios/os/ext/CMSIS/include/core_cmFunc.h" 1
 617 0004 83F31188 		MSR basepri, r3
 618              	@ 0 "" 2
 619              		.thumb
 620              	.LBE112:
 621              	.LBE111:
 622              	.LBE110:
 623              	.LBE109:
ARM GAS  /tmp/ccQtb5rF.s 			page 34


 624              	.LBE108:
 625              		.loc 1 134 0
 626 0008 FFF7FEFF 		bl	ext_lld_channel_enable
 627              	.LVL9:
 628              	.LBB113:
 629              	.LBB114:
 630              	.LBB115:
 631              	.LBB116:
 632              	.LBB117:
 633              	.LBB118:
 634              		.loc 2 546 0
 635 000c 0023     		movs	r3, #0
 636              	@ 546 "/usr/src/chibios/os/ext/CMSIS/include/core_cmFunc.h" 1
 637 000e 83F31188 		MSR basepri, r3
 638              	@ 0 "" 2
 639              		.thumb
 640 0012 08BD     		pop	{r3, pc}
 641              	.LBE118:
 642              	.LBE117:
 643              	.LBE116:
 644              	.LBE115:
 645              	.LBE114:
 646              	.LBE113:
 647              		.cfi_endproc
 648              	.LFE264:
 649              		.size	extChannelEnable, .-extChannelEnable
 650              		.section	.text.extChannelDisable,"ax",%progbits
 651              		.align	2
 652              		.p2align 4,,15
 653              		.global	extChannelDisable
 654              		.thumb
 655              		.thumb_func
 656              		.type	extChannelDisable, %function
 657              	extChannelDisable:
 658              	.LFB265:
 659              		.loc 1 147 0
 660              		.cfi_startproc
 661              		@ args = 0, pretend = 0, frame = 0
 662              		@ frame_needed = 0, uses_anonymous_args = 0
 663              	.LVL10:
 664 0000 08B5     		push	{r3, lr}
 665              		.cfi_def_cfa_offset 8
 666              		.cfi_offset 3, -8
 667              		.cfi_offset 14, -4
 668              	.LBB119:
 669              	.LBB120:
 670              	.LBB121:
 671              	.LBB122:
 672              	.LBB123:
 673              		.loc 2 546 0
 674 0002 2023     		movs	r3, #32
 675              	@ 546 "/usr/src/chibios/os/ext/CMSIS/include/core_cmFunc.h" 1
 676 0004 83F31188 		MSR basepri, r3
 677              	@ 0 "" 2
 678              		.thumb
 679              	.LBE123:
 680              	.LBE122:
ARM GAS  /tmp/ccQtb5rF.s 			page 35


 681              	.LBE121:
 682              	.LBE120:
 683              	.LBE119:
 684              		.loc 1 156 0
 685 0008 FFF7FEFF 		bl	ext_lld_channel_disable
 686              	.LVL11:
 687              	.LBB124:
 688              	.LBB125:
 689              	.LBB126:
 690              	.LBB127:
 691              	.LBB128:
 692              	.LBB129:
 693              		.loc 2 546 0
 694 000c 0023     		movs	r3, #0
 695              	@ 546 "/usr/src/chibios/os/ext/CMSIS/include/core_cmFunc.h" 1
 696 000e 83F31188 		MSR basepri, r3
 697              	@ 0 "" 2
 698              		.thumb
 699 0012 08BD     		pop	{r3, pc}
 700              	.LBE129:
 701              	.LBE128:
 702              	.LBE127:
 703              	.LBE126:
 704              	.LBE125:
 705              	.LBE124:
 706              		.cfi_endproc
 707              	.LFE265:
 708              		.size	extChannelDisable, .-extChannelDisable
 709              		.section	.text.extSetChannelModeI,"ax",%progbits
 710              		.align	2
 711              		.p2align 4,,15
 712              		.global	extSetChannelModeI
 713              		.thumb
 714              		.thumb_func
 715              		.type	extSetChannelModeI, %function
 716              	extSetChannelModeI:
 717              	.LFB266:
 718              		.loc 1 179 0
 719              		.cfi_startproc
 720              		@ args = 0, pretend = 0, frame = 0
 721              		@ frame_needed = 0, uses_anonymous_args = 0
 722              		@ link register save eliminated.
 723              	.LVL12:
 724 0000 30B4     		push	{r4, r5}
 725              		.cfi_def_cfa_offset 8
 726              		.cfi_offset 4, -8
 727              		.cfi_offset 5, -4
 728              		.loc 1 179 0
 729 0002 0B46     		mov	r3, r1
 730              	.LVL13:
 731              		.loc 1 196 0
 732 0004 4568     		ldr	r5, [r0, #4]
 733              		.loc 1 179 0
 734 0006 0446     		mov	r4, r0
 735              		.loc 1 196 0
 736 0008 92E80300 		ldmia	r2, {r0, r1}
 737              	.LVL14:
ARM GAS  /tmp/ccQtb5rF.s 			page 36


 738 000c 05EBC302 		add	r2, r5, r3, lsl #3
 739              	.LVL15:
 740 0010 82E80300 		stmia	r2, {r0, r1}
 741              		.loc 1 197 0
 742 0014 2046     		mov	r0, r4
 743 0016 1946     		mov	r1, r3
 744              		.loc 1 198 0
 745 0018 30BC     		pop	{r4, r5}
 746              	.LVL16:
 747              		.loc 1 197 0
 748 001a FFF7FEBF 		b	ext_lld_channel_enable
 749              	.LVL17:
 750              		.cfi_endproc
 751              	.LFE266:
 752              		.size	extSetChannelModeI, .-extSetChannelModeI
 753 001e 00BF     		.text
 754              	.Letext0:
 755              		.file 3 "/usr/include/newlib/machine/_default_types.h"
 756              		.file 4 "/usr/include/newlib/sys/_stdint.h"
 757              		.file 5 "/usr/src/chibios/os/rt/ports/ARMCMx/compilers/GCC/chtypes.h"
 758              		.file 6 "/usr/src/chibios/os/rt/include/chsystypes.h"
 759              		.file 7 "/usr/src/chibios/os/rt/include/chschd.h"
 760              		.file 8 "/usr/src/chibios/os/rt/ports/ARMCMx/chcore.h"
 761              		.file 9 "/usr/src/chibios/os/rt/ports/ARMCMx/chcore_v7m.h"
 762              		.file 10 "/usr/src/chibios/os/rt/include/chtm.h"
 763              		.file 11 "/usr/src/chibios/os/rt/include/chsem.h"
 764              		.file 12 "/usr/src/chibios/os/rt/include/chmtx.h"
 765              		.file 13 "/usr/src/chibios/os/hal/include/ext.h"
 766              		.file 14 "/usr/src/chibios/os/hal/ports/STM32/LLD/ext_lld.h"
 767              		.file 15 "/usr/src/chibios/os/rt/include/chsys.h"
 768              		.file 16 "/usr/src/chibios/os/hal/osal/rt/osal.h"
 769              		.file 17 "/usr/src/chibios/os/ext/CMSIS/include/core_cm4.h"