ARM GAS  /tmp/ccQtb5rF.s 			page 1


   1              		.syntax unified
   2              		.cpu cortex-m4
   3              		.fpu softvfp
   4              		.eabi_attribute 20, 1
   5              		.eabi_attribute 21, 1
   6              		.eabi_attribute 23, 3
   7              		.eabi_attribute 24, 1
   8              		.eabi_attribute 25, 1
   9              		.eabi_attribute 26, 1
  10              		.eabi_attribute 30, 2
  11              		.eabi_attribute 34, 1
  12              		.eabi_attribute 18, 4
  13              		.thumb
  14              		.file	"ext.c"
  15              		.text
  16              	.Ltext0:
  17              		.section	.gnu.lto_.jmpfuncs.ab8817f3d6ee372c,"",%progbits
  18 0000 789C6362 		.ascii	"x\234cb`b\300\006L\2414;\020322132003\002\011\026f\240"
  18      6062C006 
  18      4CA1343B 
  18      10333232 
  18      31333230 
  19 001b 7A66A058 		.ascii	"zf\240X\031\003\003+\022\233\215\035\301f\000\000+\366"
  19      1903032B 
  19      129B8D1D 
  19      C1660000 
  19      2BF6
  20 002d 01DE     		.ascii	"\001\336"
  21              		.text
  22              		.section	.gnu.lto_.inline.ab8817f3d6ee372c,"",%progbits
  23 0000 789C6362 		.ascii	"x\234cb`b\300\006\216Biv\006\006\026\036F\260\"\266"
  23      6062C006 
  23      8E426976 
  23      0606161E 
  23      46B022B6 
  24 0014 05F260B5 		.ascii	"\005\362`\265\214\\ \202\201\225\005(\314t\201\237\201"
  24      8C5C2082 
  24      81950528 
  24      CC74819F 
  24      81
  25 0025 E3831E58 		.ascii	"\343\203\036X\234\211\201S\020(\304\366A\017!\304\015"
  25      9C898153 
  25      1028C4F6 
  25      410F21C4 
  25      0D
  26 0036 5439C18F 		.ascii	"T9\301\217\231\201C\000(\303\332\241\316\300\336\241"
  26      99814300 
  26      28C3DAA1 
  26      CEC0DEA1 
  27 0046 8E2CC302 		.ascii	"\216,\303\002\221aY \0177\236\231\007(;\301o\202\037"
  27      91615920 
  27      0F379E99 
  27      07283BC1 
  27      6F821F
  28 0059 2B1E3936 		.ascii	"+\03696\006naFF\240+\030\230\025X8\016\330AT0\276`g"
  28      066E6146 
  28      46A02B18 
ARM GAS  /tmp/ccQtb5rF.s 			page 2


  28      98155838 
  28      0ED84154 
  29 0071 8190288A 		.ascii	"\201\220(\212\031\000\341\306\026X"
  29      1900E1C6 
  29      1658
  30              		.text
  31              		.section	.gnu.lto_.pureconst.ab8817f3d6ee372c,"",%progbits
  32 0000 789C6362 		.ascii	"x\234cb`b\340g\200\000v\006\011F)&+f+\026+V+6)\000\012"
  32      6062E067 
  32      80007606 
  32      09462926 
  32      2B662B16 
  33 001b 950164   		.ascii	"\225\001d"
  34              		.text
  35              		.section	.gnu.lto_extInit.ab8817f3d6ee372c,"",%progbits
  36 0000 789C6362 		.ascii	"x\234cb`b@\007\222@\\\011\304*@\314\310\314\300\310"
  36      60624007 
  36      92405C09 
  36      C42A40CC 
  36      C8CCC0C8 
  37 0014 34E11C03 		.ascii	"4\341\034\003C#\007\023##\210\301\300\310P\317\304X"
  37      43230713 
  37      232388C1 
  37      C0C850CF 
  37      C458
  38 0026 1FC90856 		.ascii	"\037\311\010V\273\236\351\300\203\377\377\327}\330\370"
  38      BB9EE9C0 
  38      83FFFFD7 
  38      7DD8F8
  39 0035 B01AA894 		.ascii	"\260\032\250\224\201\201\225\241\245\241a\202\002\003"
  39      818195A1 
  39      A5A16182 
  39      0203
  40 0043 4332583E 		.ascii	"C2X>\004H\2024\20522\201h\346\363\014\315\017~\331%"
  40      04488234 
  40      85323281 
  40      68E6F30C 
  40      CD0F7ED9 
  41 0058 322E6464 		.ascii	"2.dd\005\312V3\374j\350h\020\310d\004\252\206\030\227"
  41      05CA5633 
  41      FC6AE868 
  41      10C86404 
  41      AA861897 
  42 006c 09A22F32 		.ascii	"\011\242/24>\370\315\004S\004\001!@\011\240\001 \307"
  42      343EF8CD 
  42      04530401 
  42      214009A0 
  42      0120C7
  43 007f 2AE99716 		.ascii	"*\351\227\026\027\351\027\027%\353'gd&e\346\027\353"
  43      17E91717 
  43      25EB2767 
  43      642665E6 
  43      17EB
  44 0091 03514662 		.ascii	"\003QFb\016X(\265\242D/\231\001\000@\023.E"
  44      0E5828B5 
  44      A2442F99 
  44      01004013 
ARM GAS  /tmp/ccQtb5rF.s 			page 3


  44      2E45
  45              		.text
  46              		.section	.gnu.lto_extObjectInit.ab8817f3d6ee372c,"",%progbits
  47 0000 789C6362 		.ascii	"x\234cb`b@\007\222@|\035\210U\200\230\221\231\201\221"
  47      60624007 
  47      92407C1D 
  47      88558098 
  47      91998191 
  48 0014 69C23906 		.ascii	"i\3029\006\206F\016&FF\020\203\201\221\241\236\211\261"
  48      86460E26 
  48      46461083 
  48      8191A19E 
  48      89B1
  49 0026 3E9211AC 		.ascii	">\222\021\254v=\323\201\007\377\377\257\233qlY\017\343"
  49      763DD381 
  49      07FFFFAF 
  49      9B716C59 
  49      0FE3
  50 0038 4C265626 		.ascii	"L&V&\306\\\2608+CKC\303\004\005\006\206d07\004H\202"
  50      C65CB038 
  50      2B434B43 
  50      C3040506 
  50      86643037 
  51 004f F4863232 		.ascii	"\364\20622\201h\346\263\014M;n<>\300\224\310\270\220"
  51      8168E6B3 
  51      0C4D3B6E 
  51      3C3EC094 
  51      C8B890
  52 0062 9195419B 		.ascii	"\221\225A\233aU\003\020\360g22\314f\230\305\230\311"
  52      61550310 
  52      F0673232 
  52      CC6698C5 
  52      98C9
  53 0074 C898CEC8 		.ascii	"\310\230\316\310\024\001\244!NK\202\330\304\000\022"
  53      1401A421 
  53      4E4B82D8 
  53      C40012
  54 0083 6100B141 		.ascii	"a\000\261A\272\177`\321\315\214]7#\\73\210q\221\241"
  54      BA7F60D1 
  54      CD8C5D37 
  54      235C3733 
  54      887191A1 
  55 0097 F1C10C65 		.ascii	"\361\301\014e\210^\030\010\001*\002\272\013\244CI\277"
  55      885E1808 
  55      012A02BA 
  55      0BA44349 
  55      BF
  56 00a8 B4B848BF 		.ascii	"\264\270H\277\270(Y?9#3)3\277X\037\2102\022s\300B\251"
  56      B828593F 
  56      39233329 
  56      33BF581F 
  56      88321273 
  57 00bf 15257AC9 		.ascii	"\025%z\311\014\0003\333@\022"
  57      0C0033DB 
  57      4012
  58              		.text
  59              		.section	.gnu.lto_extStart.ab8817f3d6ee372c,"",%progbits
ARM GAS  /tmp/ccQtb5rF.s 			page 4


  60 0000 789C8552 		.ascii	"x\234\205RMh\023A\024~o\266\333\306\344\320\\\005\011"
  60      4D681341 
  60      147E6FB6 
  60      DBC6E4D0 
  60      5C0509
  61 0013 4B443C58 		.ascii	"KD<X\272\012\202W\245 \364\220KSQO\262Y\227f!\333\224"
  61      BA0A8257 
  61      A520F490 
  61      4B53514F 
  61      B2599766 
  62 002a DDA4B478 		.ascii	"\335\244\264x\350$\346P\320C\021\304\237 X\275UT\320"
  62      E824E650 
  62      D04311C4 
  62      9F2058BD 
  62      5554D0
  63 003d 437B88B8 		.ascii	"C{\210\270 \010\"V\274yP\214\202\207*X\212 \261T\342"
  63      20082256 
  63      BC79508C 
  63      82872A58 
  63      8A20B154 
  64 0052 9BD9649B 		.ascii	"\233\331d\233\204Tgw~\336\233\357\315\367\346}\303\200"
  64      84546777 
  64      7EDE9BEF 
  64      CDF7E67D 
  64      C380
  65 0064 416FDB4F 		.ascii	"Ao\333O\375+\271\377\320\214\012 [Z\007(E\030\242X\000"
  65      FD2BB9FF 
  65      D08C0A20 
  65      5B5A0728 
  65      4518A258 
  66 0079 C202C385 		.ascii	"\302\002\303\205\363(\261\217\231_o6\037\275\177Y\333"
  66      F328B18F 
  66      995F6F36 
  66      1FBD7F59 
  66      DB
  67 008a C12A8B29 		.ascii	"\301*\213)\350 \014\320 vU\250p\276\2449Hg\231\022>"
  67      E8200CD0 
  67      207655A8 
  67      70BEA439 
  67      48679912 
  68 009f 49A338E3 		.ascii	"I\2438\343\014\271hV^A9\002\220\204e\316\257\325\253"
  68      0CB96856 
  68      5E413902 
  68      908465CE 
  68      AFD5AB
  69 00b2 5BAB23B7 		.ascii	"[\253#\267\270_\271\313w\232MD\033)\265\263(\"\317\221"
  69      B85FB9CB 
  69      779A4D44 
  69      1B29B5B3 
  69      2822CF91 
  70 00c6 819A9CD8 		.ascii	"\201\232\234\330@w\256\302\007\032-\326\241\274\365"
  70      4077AEC2 
  70      071A2DD6 
  70      A1BCF5
  71 00d5 ECC593AB 		.ascii	"\354\305\223\253J\213\265M\357\257no\306\231\201\367"
  71      4A8BB54D 
  71      EFAF6E6F 
ARM GAS  /tmp/ccQtb5rF.s 			page 5


  71      C69981F7 
  72 00e5 3019A6E4 		.ascii	"0\031\246\344?\270^\213\035\010\255\215\033\037\207"
  72      3FB85E8B 
  72      1D08AD8D 
  72      1B1F87
  73 00f4 43E3CA87 		.ascii	"C\343\312\207\317\012\200\201\313\250\022\265\240g\324"
  73      CF0A8081 
  73      CBA812B5 
  73      A067D4
  74 0103 15EA9219 		.ascii	"\025\352\222\031\351\373B&]I\011J\227\200\237x\207\337"
  74      E9FB4226 
  74      5D49094A 
  74      97809F78 
  74      87DF
  75 0115 3C6993B7 		.ascii	"<i\223\2673\241\335\375_\255\375V\352o\240\374\272\361"
  75      33A1DDFD 
  75      5FADFD56 
  75      EA6FA0FC 
  75      BAF1
  76 0127 C36701C7 		.ascii	"\303g\001\307\021X\341\324\206mT\253p\233\202\007\247"
  76      1158E1D4 
  76      866D54AB 
  76      709B8207 
  76      A7
  77 0138 5011870C 		.ascii	"P\021\207\014Ip&(3L\211\350\267P\251\327.G\203@\200"
  77      49702628 
  77      334C89E8 
  77      B750A9D7 
  77      2E478340 
  78 014d 4BB0CD17 		.ascii	"K\260\315\027y\334\306\210)m\201Rl\334')\326\3266\033"
  78      79DCC688 
  78      296D8152 
  78      6CDC2729 
  78      D6D6361B 
  79 0161 D84B11ED 		.ascii	"\330K\021\355O\201a)\243\"\345nU6j=\252\030x_\326\344"
  79      4F816129 
  79      A322E56E 
  79      55366A3D 
  79      AA18785F 
  80 0177 BFB2C03F 		.ascii	"\277\262\300?e\371\366[\310\362\264[\226\357\261D\370"
  80      65F9F65B 
  80      C8F2B45B 
  80      96EFB144 
  80      F8
  81 0188 6E3AF469 		.ascii	"n:\364it\350\363\251\244\356\3523H]\336\302\304H\037"
  81      74E8F3A9 
  81      A4EEEA33 
  81      485DDEC2 
  81      C4481F
  82 019b 890C5CA1 		.ascii	"\211\014\\\241E\230L[\022\003\037b\"\360\274\203R\375"
  82      45984C5B 
  82      12031F62 
  82      22F0BC83 
  82      52FD
  83 01ad F9C17645 		.ascii	"\371\301vE\2036I\005\241\327)\240I\275\350\271\272\347"
  83      83364905 
  83      A1D729A0 
ARM GAS  /tmp/ccQtb5rF.s 			page 6


  83      49BDE8B9 
  83      BAE7
  84 01bf 9ABA99B5 		.ascii	"\232\272\231\2653v\336\323\351\317\0329\351\262\346"
  84      3376DED3 
  84      E9CF1A39 
  84      E9B2E6
  85 01ce 0AA3261C 		.ascii	"\012\243&\034\353\007q\013\372L\336-x\372\251\211\324"
  85      EB07710B 
  85      FA4CDE2D 
  85      78FAA989 
  85      D4
  86 01df 586A8EB6 		.ascii	"Xj\216\266\314\274k]\230=\341\214fA\2355rE\353x\277"
  86      CCBC6B5D 
  86      983DE18C 
  86      66419D35 
  86      7245EB78 
  87 01f4 383A521F 		.ascii	"8:R\037K\245\307\323\272=m\346\212\027-]\306\231\316"
  87      4BA5C7D3 
  87      BA3D6DE6 
  87      8A172D5D 
  87      C699CE
  88 0207 E9E2B449 		.ascii	"\351\342\264I\241\207\367 \013\321Yo\336\333\013'\362"
  88      A187F720 
  88      0BD1596F 
  88      DEDB0B27 
  88      F2
  89 0218 CE7B3450 		.ascii	"\316{4P\200\230\011\027O\245'\264\214\341Y3\256=\242"
  89      80980917 
  89      4FA527B4 
  89      8CE15933 
  89      AE3DA2
  90 022b 1D3A0ACC 		.ascii	"\035:\012\314\205!\307r\362\356<\374\0054\000\010\246"
  90      8521C772 
  90      F2EE3CFC 
  90      05340008 
  90      A6
  91              		.text
  92              		.section	.gnu.lto_extStop.ab8817f3d6ee372c,"",%progbits
  93 0000 789C8552 		.ascii	"x\234\205RKk\023Q\024>\347\216\323I\351\242\331\012"
  93      4B6B1351 
  93      143EE78E 
  93      D349E9A2 
  93      D90A
  94 0012 128688B8 		.ascii	"\022\206\210\270\260t\024\004\267JAp\221MSQW2\271\016"
  94      B0741404 
  94      B74A4170 
  94      914D5351 
  94      5732B90E 
  95 0026 6620D329 		.ascii	"f \323)3Iiu\321\233\220E\241.\212 >\212\217\252\253"
  95      33496975 
  95      D19B9045 
  95      A12E8A20 
  95      3E8A8FAA 
  96 003b FA765317 		.ascii	"\372vS\027\025\002.D\304\212?@\214\272j\005\245(\242"
  96      15022E44 
  96      C48A3F40 
  96      8CBA6A05 
ARM GAS  /tmp/ccQtb5rF.s 			page 7


  96      A528A2
  97 004e 4589E7DE 		.ascii	"E\211\347\336I&MI\353\2359s\036\367;\363\235\371\356"
  97      49264D49 
  97      EB9D3973 
  97      1EF73BF3 
  97      9DF9EE
  98 0061 3060B079 		.ascii	"0`\260y\355$\273K\345\277\344Q\003d\263\313\000\345"
  98      ED24BB4B 
  98      E5BFE451 
  98      0364B3CB 
  98      00E5
  99 0073 04439401 		.ascii	"\004C\224\001 L1\234:\205\012\373\210\325\352\215\306"
  99      204C319C 
  99      3A850AFB 
  99      88D5EA8D 
  99      C6
 100 0084 C3C72F6F 		.ascii	"\303\307/o\336\307\033\254WCO\325u\250\0121kzH\031W"
 100      DEC71BAC 
 100      57434FD5 
 100      75A80A31 
 100      6B7A4819 
 101 0099 95117ACA 		.ascii	"\225\021z\312\366\343\310\244\327^A%\001\220\206y!."
 101      F6E3C8A4 
 101      D75E4125 
 101      01908679 
 101      212E
 102 00ab D6E7D616 		.ascii	"\326\347\326\026\007\256\212Z\365\226\370\323h \272"
 102      07AE8A5A 
 102      F596F8D3 
 102      6820BA
 103 00ba 48539D40 		.ascii	"HS\235@\331y\222\0224\225c;:\307\22450)X\206\312\332"
 103      D9799212 
 103      3495633B 
 103      3AC79435 
 103      30295886 
 104 00d0 F3174F2F 		.ascii	"\363\027O/hM\326\026}mq\375[\222\331x\033\323\361H\265"
 104      684DD616 
 104      7D6D71FD 
 104      5B92D978 
 104      1BD3F148 
 105 00e5 7B9796FA 		.ascii	"{\227\226\372v\305\331\312\345\367\375q2\363\365\243"
 105      76C5D9CA 
 105      E5F7FD71 
 105      32F3F5A3 
 106 00f5 0660E33C 		.ascii	"\006`\343<\352D-\351\031\231F\246\230\221\256O\224\222"
 106      EA442DE9 
 106      199946A6 
 106      9891AE4F 
 106      9492
 107 0107 325AA45A 		.ascii	"2Z\244Z\012\276\343uq\345\260K\325\215\003\265\367\177"
 107      0ABEE375 
 107      71E5B04B 
 107      D58D03B5 
 107      F77F
 108 0119 36F79BA3 		.ascii	"6\367\233\243\277\205j\375\303g#\242\0008\017\353bZ"
 108      BF856AFD 
 108      C36723A2 
ARM GAS  /tmp/ccQtb5rF.s 			page 8


 108      00380FEB 
 108      625A
 109 012b 245DD4B9 		.ascii	"$]\324\271\312\001\316\242\346b\017\300\033\250<\233"
 109      CA01CEA2 
 109      E6620FC0 
 109      1BA83C9B 
 110 013b 3E17E1F6 		.ascii	">\027\341\366\301\202\240\325\357\2421\007\327\210#"
 110      C182A0D5 
 110      EFA23107 
 110      D78823
 111 014a 4128C9D5 		.ascii	"A(\311\325\253Zr\330\226\303\220q\247\262+K\233\224"
 111      AB5A72D8 
 111      96C39071 
 111      A7B22B4B 
 111      9B94
 112 015c B5F18EFA 		.ascii	"\265\361\216\372\256\377J\013\333J\273\372[J\373\244"
 112      AEFF4A0B 
 112      DB4ABBFA 
 112      5B4AFBA4 
 113 016c 53DA2F7D 		.ascii	"S\332/}\251\370\3547h\374\253\255\361\353\037e\275\255"
 113      A9F8EC37 
 113      68FCABAD 
 113      F1EB1F65 
 113      BDAD
 114 017e 710F9921 		.ascii	"q\017\231!y8&\272\310l\343\002\005\3610-Ym|\200\251"
 114      793826BA 
 114      C86CE302 
 114      05F1302D 
 114      596D7C80 
 115 0193 A8F20ECA 		.ascii	"\250\362\016\312\365\325\335-=\2435BGG\177\230\204\246"
 115      F5D5DD2D 
 115      3DA33542 
 115      47477F98 
 115      84A6
 116 01a5 AD521858 		.ascii	"\255R\030Xa\300-\236ws\256\037Zt\347\355\202*9\023\305"
 116      61C02D9E 
 116      7773AE1F 
 116      5A74E7ED 
 116      822A3913 
 117 01ba 410E07BA 		.ascii	"A\016\007\272A\202\2425\346\007\305\320:2\234\031\312"
 117      4182A235 
 117      E607C5D0 
 117      3A329C19 
 117      CA
 118 01cb 4CD016F7 		.ascii	"L\320\026\367\003\347\364\370!o0\017\372\270](9\007"
 118      03E7F4F8 
 118      216F300F 
 118      FAB85D28 
 118      3907
 119 01dd BBF5D12B 		.ascii	"\273\365\321+\255\241L\366X\326rGy\241t\306\261T\037"
 119      ADA14CF6 
 119      58D67247 
 119      79A174C6 
 119      B1541F
 120 01f0 F78E9646 		.ascii	"\367\216\226F9\265\356\335\202,F\347\303\311p+\234\234"
 120      39B5EEDD 
 120      822C46E7 
ARM GAS  /tmp/ccQtb5rF.s 			page 9


 120      C3C9702B 
 120      9C9C
 121 0202 DB0FE941 		.ascii	"\333\017\351A\015\322\023.\231\311\016\2339;t\306\002"
 121      0DD2132E 
 121      99C90E9B 
 121      393B74C6 
 121      02
 122 0213 77C0DCB3 		.ascii	"w\300\334\263\037X\000\206\347x~0\011\377\000eS\371"
 122      1F580086 
 122      E7787E30 
 122      09FF0065 
 122      53F9
 123 0225 EE       		.ascii	"\356"
 124              		.text
 125              		.section	.gnu.lto_extChannelEnable.ab8817f3d6ee372c,"",%progbits
 126 0000 789C8552 		.ascii	"x\234\205R\317K\033A\024~o6\253\021\017\346Z(a\011H"
 126      CF4B1B41 
 126      147E6F36 
 126      AB110FE6 
 126      5A286109 
 127 0015 2FE22814 		.ascii	"/\342(\024zm\021\012\036r1\026\353\251\254\343b\026"
 127      7A6D110A 
 127      1E723116 
 127      EBA9ACE3 
 127      6216
 128 0027 B2AEEC26 		.ascii	"\262\256\354&\242\364\340\030\024{\220\"\205R\245\024"
 128      A2F4E018 
 128      147B9022 
 128      8552A514 
 129 0037 AA3DB545 		.ascii	"\252=\265E\005/^\024\003\026\212\010J\377\200B\360f"
 129      052F5E14 
 129      03168A08 
 129      4AFF8042 
 129      F066
 130 0049 3D88144A 		.ascii	"=\210\024J\033Z\3227\233dM$\352\354\276\231y\277\346"
 130      1B5AD237 
 130      9B644D24 
 130      EAECBE99 
 130      79BFE6
 131 005c FBF69B65 		.ascii	"\373\366\233e\300\340\352\270C\346R\370\037\255\250"
 131      C0E0EAB8 
 131      43E652F8 
 131      1FADA8
 132 006b 01B2A523 		.ascii	"\001\262\245#\200\331(CT\033@\230a83\214A\355&+\024"
 132      80D92843 
 132      541B4098 
 132      6138338C 
 132      41ED262B 
 133 0080 CBE58DD2 		.ascii	"\313\345\215\322\302\336\"~dm\032:\010\021\232TV\207"
 133      C2DE227E 
 133      646D1A3A 
 133      08119A54 
 133      5687
 134 0092 3929970C 		.ascii	"9)\227\014\007\351,\021\224\017\322\254\316xB!Z\265"
 134      07E92C11 
 134      940FD2AC 
 134      CE784221 
ARM GAS  /tmp/ccQtb5rF.s 			page 10


 134      5AB5
 135 00a4 03C84701 		.ascii	"\003\310G\001\022\260*\345\253\342\333\213\355\256\025"
 135      12B02AE5 
 135      ABE2DB8B 
 135      EDAE15
 136 00b3 59987B2F 		.ascii	"Y\230{/\377\226\313\2106\022\265!T\235O\311A#XX\244"
 136      FF96CB88 
 136      3612B521 
 136      549D4FC9 
 136      41235858 
 137 00c8 91AB8A81 		.ascii	"\221\253\212\201A\233#\310_\354\356o-jU\324\032|a\273"
 137      419B23C8 
 137      5FECEE6F 
 137      2D6A55D4 
 137      1A7C61BB 
 138 00dc 741E6326 		.ascii	"t\036c&\256a\"\244T\370\374z\247\375n\350\235\276\371"
 138      AE6122A4 
 138      54F8FC7A 
 138      A7FD6EE8 
 138      9DBEF9
 139 00ef DE113A87 		.ascii	"\336\021:\207_N4\000\023WQ'h\005\317\3104\262\000\031"
 139      5F4E3400 
 139      13575127 
 139      6805CFC8 
 139      34B20019 
 140 0103 E9392197 		.ascii	"\3519!\227>I\253H\027\207\237\370N.?\264)ZO\3502\377"
 140      3E49AB48 
 140      17879FF8 
 140      4E2E3FB4 
 140      295A4FE8 
 141 0119 AB9AAF52 		.ascii	"\253\232\257R?\206\371\342K\253\202\000\360\034J\362"
 141      3F86F9E2 
 141      4BAB8200 
 141      F01C4AF2 
 142 0129 858CD9A8 		.ascii	"\205\214\331\250\213\300\007\030Cm\014#6\266\0004\352"
 142      8BC00718 
 142      436D0C23 
 142      36B60034 
 142      EA
 143 013a 73BA7345 		.ascii	"s\272sE\037\023?\004\354n\025\010n\024\350\307\037%"
 143      1F133F04 
 143      EC6E1508 
 143      6E14E8C7 
 143      1F25
 144 014c D066A340 		.ascii	"\320f\243@g\355\361\360\006\353\224\372]\247\324\327"
 144      67EDF1F0 
 144      06EB94FA 
 144      5DA7D4D7 
 145 015c BC7EA954 		.ascii	"\274~\251T\013Y\253\302\021\030m\"\226\211\237h\023"
 145      0B59ABC2 
 145      11186D22 
 145      96899F68 
 145      13
 146 016d 92A98963 		.ascii	"\222\251\211c\342:\306+\221o0[\\\356\254\311R\031\203"
 146      E23AC62B 
 146      916F305B 
 146      5CEEACC9 
ARM GAS  /tmp/ccQtb5rF.s 			page 11


 146      521983
 147 0180 7401F49F 		.ascii	"t\001\364\237\250\322\004\317\371\036\367=\301E\332"
 147      A8D204CF 
 147      F91EF73D 
 147      C145DA
 148 018f 1EB15D9F 		.ascii	"\036\261]\237\323\23363A\310\232\312v\013\350mV\342"
 148      D39B3633 
 148      41C89ACA 
 148      760BE86D 
 148      56E2
 149 01a1 65F984EB 		.ascii	"e\371\204\353e}\376h \331\227\234\242\224p=\353\331"
 149      657DFE68 
 149      20D9979C 
 149      A294703D 
 149      EBD9
 150 01b3 E403A73B 		.ascii	"\344\003\247;\015\372\244\231\311Y\367\233\365\321\221"
 150      0DFAA499 
 150      C959F79B 
 150      F5D191
 151 01c2 BC2F99EA 		.ascii	"\274/\231\352Oq{\\dr\243\026\017\372\204\36387.\250"
 151      4F717B5C 
 151      6472A316 
 151      0FFA84F3 
 151      38372EA8 
 152 01d6 F5DE3560 		.ascii	"\365\3365`au\332\237\366\257\253S\274]\237&jP+\325\305"
 152      6175DA9F 
 152      F6AFAB53 
 152      BC5D9F26 
 152      6A502BD5 
 153 01eb 92A90163 		.ascii	"\222\251\001c\304\364\255\011\317\3562:{\200y\320\352"
 153      C4F4AD09 
 153      CFEE323A 
 153      7B8079D0 
 153      EA
 154 01fc 588EEB4D 		.ascii	"X\216\353M\303\177\027(\355\377"
 154      C37F1728 
 154      EDFF
 155              		.text
 156              		.section	.gnu.lto_extChannelDisable.ab8817f3d6ee372c,"",%progbits
 157 0000 789C8552 		.ascii	"x\234\205RMH\033A\024~o6\253)\036\314U\220\260\004\244"
 157      4D481B41 
 157      147E6F36 
 157      AB291ECC 
 157      5590B004 
 158 0015 17711404 		.ascii	"\027q\024\004\257\212 x\310\305X\332\236\312:]\314B"
 158      AF8A2078 
 158      C8C558DA 
 158      9ECA3A5D 
 158      CC42
 159 0027 D695DD44 		.ascii	"\326\225\335D\224\036\034\203\205\036z\220BiK)\324\366"
 159      941E1C83 
 159      851E7A90 
 159      42694B29 
 159      D4F6
 160 0039 5669855E 		.ascii	"Vi\205^\274\244m\240\247V\260\364\322\236Z\2027\177"
 160      BCA46DA0 
 160      A756B0F4 
ARM GAS  /tmp/ccQtb5rF.s 			page 12


 160      D29E5A82 
 160      377F
 161 004b 40441015 		.ascii	"@D\020\025%\276\331$\233Db;\273of\336\337|\337~\263"
 161      25BED924 
 161      9B44623B 
 161      BB6F66DE 
 161      DF7CDF7E 
 162 0060 0C185C1D 		.ascii	"\014\030\\\035]d.\205/hE\015\220\255l\001,E\031\242"
 162      5D642E85 
 162      2F68450D 
 162      90AD6C01 
 162      2C4519A2 
 163 0074 DA00C222 		.ascii	"\332\000\302\"\303\305\273\030\324\256\263b\251\\\376"
 163      C3C5BB18 
 163      D4AEB362 
 163      A95CFE
 164 0083 F0EBFB97 		.ascii	"\360\353\373\227}\\c74t\020\"4\251\254\016\313R\256"
 164      7D5C6337 
 164      34741022 
 164      34A9AC0E 
 164      CB52AE
 165 0096 180ED259 		.ascii	"\030\016\322Y\"(\237\244Y\235q\213B\264j\337 \037\005"
 165      22289FA4 
 165      599D718B 
 165      42B46ADF 
 165      201F05
 166 00a9 48C0AA94 		.ascii	"H\300\252\224OJ/\0177z_\310\342\362ky^.#\332H\324n\243"
 166      4F4A2F0F 
 166      377A5FC8 
 166      E2F26B79 
 166      5E2E23DA 
 167 00c1 EABC430E 		.ascii	"\352\274C\016\032\301\302\"\315\\U\014\014\332lA\376"
 167      1AC1C222 
 167      CD5C550C 
 167      0CDA6C41 
 167      FE
 168 00d2 F0D3D78F 		.ascii	"\360\323\327\217\217\265*j\015\276\270qv\020c&\276\301"
 168      8FB52A6A 
 168      0DBEB871 
 168      76106326 
 168      BEC1
 169 00e4 4448A9B8 		.ascii	"DH\251\270\366\264\320\321\035z;\317\376t\206\316\346"
 169      F6B4D0D1 
 169      1D7A3BCF 
 169      FE7486CE 
 169      E6
 170 00f5 EF6D0DC0 		.ascii	"\357m\015\300\304U\324\011Z\30132\215,@Fz\266\311\245"
 170      C455D409 
 170      5AC13332 
 170      8D2C4046 
 170      7AB6C9A5 
 171 0109 4FD22AD2 		.ascii	"O\322*\322\305\341\010_\311\347\3036E\033\011\325\363"
 171      C5E1085F 
 171      C9E7C336 
 171      451B09D5 
 171      F3
 172 011a C7D57C95 		.ascii	"\307\325|\225\372\017xX*X\025\004\200\007p&\037\311"
ARM GAS  /tmp/ccQtb5rF.s 			page 13


 172      FA0F7858 
 172      2A581504 
 172      80077026 
 172      1FC9
 173 012c 988DBA08 		.ascii	"\230\215\272\010|\200i\324\2461bc\033@\263>;\205+\372"
 173      7C8069D4 
 173      A6316263 
 173      1B40B33E 
 173      3B852BFA 
 174 0140 98F83660 		.ascii	"\230\3706`\367_\201\340\237\002\355\236*\201\326\233"
 174      F75F81E0 
 174      9F02ED9E 
 174      2A81D69B 
 175 0150 05DAEB88 		.ascii	"\005\332\353\210\2077\330\240\324I\203R\177\363z]\251"
 175      8737D8A0 
 175      D4498352 
 175      7FF37A5D 
 175      A9
 176 0161 36B27685 		.ascii	"6\262v\205#0\332B,\023\337\321&$S\023\307\304\367\030"
 176      2330DA42 
 176      2C13DFD1 
 176      26245313 
 176      C7C4F718 
 177 0175 AF447EC2 		.ascii	"\257D~\302R\351sOM\226\312\230\244\013\240\377D\225"
 177      52E9734F 
 177      4D96CA98 
 177      A40BA0FF 
 177      4495
 178 0187 2678CEF7 		.ascii	"&x\316\367\270\357\011.\322\366\224\355\372\234\336"
 178      B8EF092E 
 178      D2F694ED 
 178      FA9CDE
 179 0196 B4990942 		.ascii	"\264\231\011B\326|\266O\300@\253\022/\313g]/\353\363"
 179      D67CB64F 
 179      C040AB12 
 179      2FCB675D 
 179      2FEBF3
 180 01a9 9189E468 		.ascii	"\221\211\344hr\236R\302\365\254{sCN_\032\36493\223\263"
 180      729E52C2 
 180      F5AC7B73 
 180      434E5F1A 
 180      F4393393 
 181 01be 065BF5D1 		.ascii	"\006[\365\321\221|4\231\032Oq{Fdr\367-\036\364\011g"
 181      917C3499 
 181      1A4F717B 
 181      466472F7 
 181      2D1EF409 
 182 01d3 2C3723A8 		.ascii	",7#\250\365\3465`au\332_\360\257\253S\274]\237&jP+\325"
 182      F5E63560 
 182      6175DA5F 
 182      F0AFAB53 
 182      BC5D9F26 
 183 01eb C592A909 		.ascii	"\305\222\251\011c\312\364\255Y\317\3565z\372\201y\320"
 183      63CAF4AD 
 183      59CFEE35 
 183      7AFA8179 
 183      D0
ARM GAS  /tmp/ccQtb5rF.s 			page 14


 184 01fc EE588EEB 		.ascii	"\356X\216\353-\300%\247=\356\376"
 184      2DC025A7 
 184      3DEEFE
 185              		.text
 186              		.section	.gnu.lto_extSetChannelModeI.ab8817f3d6ee372c,"",%progbits
 187 0000 789C7591 		.ascii	"x\234u\221?K\303P\024\305\317}IjU(\256u*\005\021Z4\243"
 187      3F4BC350 
 187      14C5CF7D 
 187      496A5528 
 187      AE752A05 
 188 0018 5F4441C7 		.ascii	"_DA\3076J\032h\251\264\012\202C_\213\005\241X\212\203"
 188      364A1A68 
 188      A9B40A82 
 188      435F8B05 
 188      A1588A83 
 189 002c E09FC1BA 		.ascii	"\340\237\301\272\010\":\270\250\010f\025Qq\021\024\204"
 189      08223AB8 
 189      A8086615 
 189      51711114 
 189      84
 190 003d 3AB9F801 		.ascii	":\271\370\001\304\301x_\322\024\252\370H\336\273\311"
 190      C4C1785F 
 190      D214AAF8 
 190      48DEBBC9 
 191 004d 3BF7774E 		.ascii	";\367wN^\004\004~\2178\337\357\004\244x%\015$Z\367@"
 191      5E04047E 
 191      8F38DFEF 
 191      04A47825 
 191      0D245AF7 
 192 0062 352A8854 		.ascii	"5*\210T\001BEPe\216|\355\251p;\236w\362\324\270\372"
 192      01424550 
 192      658E7CED 
 192      A9703B9E 
 192      77F2D4B8 
 193 0077 A073C19A 		.ascii	"\240s\301\232\002A\203C\320\271\"\203'\3057\260&e+\221"
 193      02418343 
 193      D0B92283 
 193      27C537B0 
 193      26652B91 
 194 008b 445BCA4D 		.ascii	"D[\312M\367\371v+.\367k-\371\355y\344\020+\306\010\026"
 194      F7F9762B 
 194      2EF76B2D 
 194      F9ED79E4 
 194      102BC608 
 195 00a0 61961F44 		.ascii	"a\226\037D\302_4\275?R\201s(\011\217i\236U\216\031\356"
 195      C25F34BD 
 195      3F528173 
 195      28098F69 
 195      9E558E19 
 196 00b5 E355BB43 		.ascii	"\343U\273C\355\345\363\372M\317P\233\014\330\244\245"
 196      EDE5F3FA 
 196      4DCF509B 
 196      0CD8A4A5 
 197 00c5 9162FF5D 		.ascii	"\221b\377]\3540G\267I(\236\341S\262\024\362nPs\343A"
 197      EC3047B7 
 197      49289EE1 
 197      53B214F2 
ARM GAS  /tmp/ccQtb5rF.s 			page 15


 197      6E5073E3 
 198 00da 4781F455 		.ascii	"G\201\364U|\311\021\207\"\0238\226-)_\271a \215#U_p"
 198      7CC91187 
 198      22133896 
 198      2D295FB9 
 198      61208D23 
 199 00f1 1D0D5883 		.ascii	"\035\015X\203\314V,tYAaS\0305\300\365\3033t@Ie\001p"
 199      CC562C74 
 199      59416153 
 199      1835C0F5 
 199      C3337440 
 200 0109 CECBFAD9 		.ascii	"\316\313\372\331\336h\260\021X\271^c\352\257WU\2524"
 200      DE68B011 
 200      58B95E63 
 200      EAAF5755 
 200      AA34
 201 011b A11DFD63 		.ascii	"\241\035\375c\027\010\335\355f\214\0116\031J\033\351"
 201      1708DDED 
 201      668C0936 
 201      194A1BE9 
 202 012b EE3DA0DE 		.ascii	"\356=\240\336\3318\214\205\211\324\367\255+\346\220"
 202      D9388C85 
 202      89D4F7AD 
 202      2BE690
 203 013a D5C30826 		.ascii	"\325\303\010&94\014<\242\332i\216\367\302#8cRg\253~"
 203      39340C3C 
 203      A2DA698E 
 203      F7C22338 
 203      635267AB 
 204 014f 5DD25C2E 		.ascii	"]\322\\.\227\314r\3112\255\234\223u\212e\223\257\\&"
 204      97CC72C9 
 204      32AD9C93 
 204      758A6593 
 204      AF5C26
 205 0162 EFBF5A58 		.ascii	"\357\277ZXY\232\264`\024\363\363\326\342\017\252\311"
 205      599AB460 
 205      14F3F3D6 
 205      E20FAAC9 
 206 0172 7E3A     		.ascii	"~:"
 207              		.text
 208              		.section	.gnu.lto_.symbol_nodes.ab8817f3d6ee372c,"",%progbits
 209 0000 789C4DC7 		.ascii	"x\234M\307K\012\302@\024D\321z\325\371v\026]\201\030"
 209      4B0AC240 
 209      1444D17A 
 209      D5F97616 
 209      5D8118
 210 0013 8D1F5071 		.ascii	"\215\037Pq\356f\234\273\006C\366\021$\264\330\357N."
 210      EE669CBB 
 210      0643F611 
 210      24B4D8EF 
 210      4E2E
 211 0025 872066FC 		.ascii	"\207 f\374\342\216\002no@zN\306\2212\307=E\307\003\025"
 211      E28E026E 
 211      6F407A4E 
 211      C69132C7 
 211      3D45C703 
 212 003a 1C27AA70 		.ascii	"\034'\252p<R\245\343\211\2522\355L\325\211}ov\241\232"
ARM GAS  /tmp/ccQtb5rF.s 			page 16


 212      3C52A5E3 
 212      89AA32ED 
 212      4CD5897D 
 212      6F76A19A 
 213 004e AC2BD566 		.ascii	"\254+\325f\335\251\230\365\240\272\277\002j\014\237"
 213      DDA998F5 
 213      A0BABF02 
 213      6A0C9F
 214 005d D5021B2C 		.ascii	"\325\002\033,\333C\213\327\366\"\246\227]z\0251\314"
 214      DB438BD7 
 214      F622A697 
 214      5D7A1531 
 214      CC
 215 006e ABE10B25 		.ascii	"\253\341\013%\217Dw"
 215      8F4477
 216              		.text
 217              		.section	.gnu.lto_.refs.ab8817f3d6ee372c,"",%progbits
 218 0000 789C6362 		.ascii	"x\234cb`b`d\200\002\000\000F\000\006"
 218      60626064 
 218      80020000 
 218      460006
 219              		.text
 220              		.section	.gnu.lto_.decls.ab8817f3d6ee372c,"",%progbits
 221 0000 789CA559 		.ascii	"x\234\245Y}l\024\307\025\237\331;\373\374]\343\206\217"
 221      7D6C14C7 
 221      159FD93B 
 221      FBFC5DE3 
 221      868F
 222 0012 7E09D316 		.ascii	"~\011\323\026\"Em.8M!\375#\205\032Z,a@\261]EJ\245\325"
 222      22456D2E 
 222      384D21FD 
 222      23851A5A 
 222      2C6140B1 
 223 002b FA7CD46E 		.ascii	"\372|\324n\216;\313w\006\374G\313\032\203K\012I\355"
 223      8E3BCB77 
 223      06FC47CB 
 223      1A834B0A 
 223      49ED
 224 003d 10C07C04 		.ascii	"\020\300|\004\016\343\230:\202`\361\321R\012\344\002"
 224      0EE3983A 
 224      8260F1D1 
 224      520AE402 
 225 004d C1BEDA11 		.ascii	"\301\276\332\021r\201\206\244!\351QW \205\212\270|T"
 225      728186A4 
 225      21E95157 
 225      20858AB8 
 225      7C54
 226 005f 6E02BEBE 		.ascii	"n\002\276\276\231\235\275\335\235\233=\337\245+\277"
 226      999DBDDD 
 226      9D9B3DDF 
 226      A52BBF
 227 006e DBD9DDF7 		.ascii	"\333\331\335\367\336\357\375\336\233\231\235YKHB\005"
 227      DEEFFDDE 
 227      9B999D59 
 227      4B484205 
 228 007e 0E84E270 		.ascii	"\016\204\342p\254\371\032B\207\240\235\203\020z\006"
 228      ACF91A42 
ARM GAS  /tmp/ccQtb5rF.s 			page 17


 228      87A09D83 
 228      107A06
 229 008d 194701C8 		.ascii	"\031G\001\310~\220^\220\033 \267A\356\200\214\203<\004"
 229      7E905E90 
 229      1B20B741 
 229      EE808C83 
 229      3C04
 230 009f C9C3A003 		.ascii	"\311\303\240\003R\004R\014R\202Q\322A\354%\220G\340"
 230      5204520C 
 230      528251D2 
 230      41EC2590 
 230      47E0
 231 00b1 5937BB27 		.ascii	"Y7\273'\261\373y\002}\202\345\004\351\007y\003\244\017"
 231      B1FB7902 
 231      7D82E504 
 231      E9077903 
 231      A40F
 232 00c3 E40CB339 		.ascii	"\344\014\2639\002r\032\0043=r\036\345\354I\234\371 "
 232      02721A04 
 232      333D721E 
 232      E5EC499C 
 232      F920
 233 00d5 C320458C 		.ascii	"\303 E\214\303TP\374*\326\374\350>\277\016\327\007\031"
 233      C35450FC 
 233      2AD6FCE8 
 233      3EBF0ED7 
 233      0719
 234 00e7 8EC4FC12 		.ascii	"\216\304\374\022\377\271\314\3077\340y)\310\267@\346"
 234      FFB9CCC7 
 234      37E07929 
 234      C8B740E6 
 235 00f7 309E6E90 		.ascii	"0\236n\2202\220\247@ ]\350\026\310\277@\346s<H\236\362"
 235      3290A740 
 235      205DE816 
 235      C8BF40E6 
 235      733C489E 
 236 010c 6C6230E3 		.ascii	"lb0\343\352\261`\023\366m\001v\021\207M\342\035\003"
 236      EAB16013 
 236      F66D0176 
 236      11874DE2 
 236      1D03
 237 011e F921874B 		.ascii	"\371!\207Kj\343\262\301\275\006\355+L/\227\351\3628"
 237      6AE3B2C1 
 237      BD06ED2B 
 237      4C2F97E9 
 237      F238
 238 0130 C5028EF7 		.ascii	"\305\002\216\367@\356\203,\342\260\3063\300\032\027"
 238      40EE832C 
 238      E2B0C633 
 238      C01A17
 239 013f 609508B0 		.ascii	"`\225\010\260>\003\371\034\244\202\303z\310\374\223"
 239      3E03F91C 
 239      A482C37A 
 239      C8FC93
 240 014e FA2DC306 		.ascii	"\372-\303\006\236\236?\211\330\203,\0079\213\014|\275"
 240      9E9E3F89 
 240      D8832C07 
ARM GAS  /tmp/ccQtb5rF.s 			page 18


 240      398B0C7C 
 240      BD
 241 015f AEE7599B 		.ascii	"\256\347Y\233\370!\034\263\340\234\005\347l\020\027"
 241      F8211CB3 
 241      E09C05E7 
 241      6C1017
 242 016e C80A901A 		.ascii	"\310\012\220\032\016s&\332\253\206c\261\215{\207\261"
 242      0E7326DA 
 242      AB8663B1 
 242      8D7B87B1 
 243 017e FA8AFA20 		.ascii	"\372\212\372 \036w\240ih\233\012G\270]UqH\301\317LE"
 243      1E77A069 
 243      689B0A47 
 243      B85D5571 
 243      48C1CF4C 
 244 0193 CF610517 		.ascii	"\317a\005\027\345\242R\332(\310\245\035\027!\005w\343"
 244      E5A252DA 
 244      28C8A51D 
 244      17210577 
 244      E3
 245 01a4 69AC55E3 		.ascii	"i\254U\343\320\334Ih6F\217\241>\260\357P\325\356\351"
 245      D0DC4968 
 245      36468FA1 
 245      3EB0EF50 
 245      D5EEE9
 246 01b7 4874CC41 		.ascii	"Ht\314A\257\023\000\365w\252\203\272'\016\366\343\231"
 246      AF1300F5 
 246      77AA83BA 
 246      270EF6E3 
 246      99
 247 01c8 6615051F 		.ascii	"f\025\005\037\300Rr\234\221\256\201\202\216\326X<>3"
 247      C052729C 
 247      91AE8182 
 247      8ED6583C 
 247      3E33
 248 01da FD200FB2 		.ascii	"\375 \017\262 \035470h~\243\252\353\211\341\222hQ\011"
 248      201D3437 
 248      30687EA3 
 248      AAEB89E1 
 248      92685109 
 249 01ee EA245E4A 		.ascii	"\352$^J\243\220jf\277@\267'\263\304l\324\003Db\037\\"
 249      A3906A66 
 249      BF40B727 
 249      B3C46CD4 
 249      0344621F 
 250 0203 DFF20355 		.ascii	"\337\362\003U\315Q\360\033\270\004\274<\217\301m\017"
 250      CD51F01B 
 250      B804BC3C 
 250      8FC16D0F 
 251 0213 7E8C85C6 		.ascii	"~\214\205\306\234\204\027\330yQ\360! \243\340\303`\255"
 251      9C8417D8 
 251      7951F021 
 251      20A3E0C3 
 251      60AD
 252 0225 1952BF6A 		.ascii	"\031R\277jl\367\340\275V\334\012\014\264g\310\342\326"
 252      6CF7E0BD 
 252      56DC0A0C 
ARM GAS  /tmp/ccQtb5rF.s 			page 19


 252      B467C8E2 
 252      D6
 253 0236 72CC4261 		.ascii	"r\314Ba\210:\362\341\340\336\351j,\202]\250\235\220"
 253      883AF2E1 
 253      E0DEE96A 
 253      2C825DA8 
 253      9D90
 254 0248 886D5C3F 		.ascii	"\210m\\?\243\313\000\315\321A\261)\364\303[\0344\364"
 254      A3CB00CD 
 254      D141B129 
 254      F4C35B1C 
 254      34F4
 255 025a 7E309250 		.ascii	"~0\222P\027\266\306\236\206#\022\325106G\036\211\267"
 255      17B6C69E 
 255      862312D5 
 255      31303647 
 255      1E89B7
 256 026d 946A7753 		.ascii	"\224jwS\304L\023.\241\003\000I\3349s\215{o\032\367\260"
 256      C44C132E 
 256      A1030049 
 256      DC39738D 
 256      7B6F1AF7 
 257 0282 49F50FC6 		.ascii	"I\365\017\306m\275\370\344\022\347\032\215\270\265\377"
 257      6DBDF8E4 
 257      12E71A8D 
 257      B8B5FF
 258 0291 9A4353F0 		.ascii	"\232CS\360q<\033~O`\207\320LB\347({\222j\021Q\3264p"
 258      713C1B7E 
 258      4F6087D0 
 258      4C42E728 
 258      7B926A11 
 259 02a9 8BF40B96 		.ascii	"\213\364\013\226~\250\327\203\353xk\233\032}B\324\213"
 259      7EA8D783 
 259      EB786B9B 
 259      1A7D42D4 
 259      8B
 260 02ba 40059BBA 		.ascii	"@\005\233\272@$_\367x\322\250G\344\217\203\270T\320"
 260      40245FF7 
 260      78D2A847 
 260      E48F83B8 
 260      54D0
 261 02cc EB386505 		.ascii	"\3538e\005\277\005T&\327#\232os\275*\362\332`\201\352"
 261      BF055426 
 261      D7239A6F 
 261      73BD2AF2 
 261      DA6081EA 
 262 02e0 D4EE4FD6 		.ascii	"\324\356O\326\243\324\310\211\301=X\015\237\303SP\007"
 262      A3D4C889 
 262      C13D580D 
 262      9FC35350 
 262      07
 263 02f1 C39AB43B 		.ascii	"\303\232\264;3&\235\300D\301\027\350\210\210\342\014"
 263      33269DC0 
 263      44C117E8 
 263      8888E20C 
 264 0301 8704092C 		.ascii	"\207\004\011,\312\007\376\301\000\015<\232\326P\370"
 264      CA07FEC1 
ARM GAS  /tmp/ccQtb5rF.s 			page 20


 264      000D3C9A 
 264      D650F8
 265 0310 F7C09EAF 		.ascii	"\367\300\236\257\220\300s\321&\243\022H8\013\260\241"
 265      90C073D1 
 265      26A31248 
 265      380BB0A1 
 266 0320 70F7E59E 		.ascii	"p\367\345\236\357\320\2410\214I\377z\300\305\234\276"
 266      EFD0A130 
 266      8C49FF7A 
 266      C0C59CBE 
 267 0330 A3DD97DE 		.ascii	"\243\335\227\336\351\304mt\330^\244\256\216IVW\012v"
 267      E9C46D74 
 267      D85EA4AE 
 267      8E495657 
 267      0A76
 268 0342 E59A43A6 		.ascii	"\345\232C\246\327\272\002\361\347\3125\032de\362%\224"
 268      D7BA02F1 
 268      E7CA351A 
 268      6465F225 
 268      94
 269 0353 A9BA84CE 		.ascii	"\251\272\204\316R\320\250\321\231-\241N\336\231w\015"
 269      52D0A8D1 
 269      992DA14E 
 269      DE99770D 
 270 0363 FE1DEF54 		.ascii	"\376\035\357T#\033\034\226\276\234\376\274z\305:\257"
 270      231B1C96 
 270      BE9CFEBC 
 270      7AC53AAF 
 271 0373 2AB80FE7 		.ascii	"*\270\017\347\353\027i\3472\262\257}*\251\371U\232\307"
 271      EB1769E7 
 271      32B2AF7D 
 271      2AA9F955 
 271      9AC7
 272 0385 F349791C 		.ascii	"\363Iy\034\306_$\221\306\373\010\245\004\177\253\375"
 272      C65F2491 
 272      C6FB08A5 
 272      047FABFD 
 273 0395 11027E19 		.ascii	"\021\002~\031\002\227\320\010\007nI\213F\327.\025\327"
 273      0297D008 
 273      076E498B 
 273      46D72E15 
 273      D7
 274 03a6 C081B8BF 		.ascii	"\300\201\270\277&=\223\320\307\031\327\2554\311\255"
 274      263D93D0 
 274      C719D7AD 
 274      34C9AD
 275 03b5 C9BF318A 		.ascii	"\311\2771\212\024\374g:\377\015\341Y\360{\011~\371\034"
 275      14FC673A 
 275      FF0DE159 
 275      F07B097E 
 275      F91C
 276 03c7 08668F77 		.ascii	"\010f\217w`\344'*\246&\330\202\212\035\331\217YI\022"
 276      60E4272A 
 276      A626D882 
 276      8A1DD98F 
 276      594912
 277 03da 91B2C634 		.ascii	"\221\262\3064\2443\274N\031\276m0\344pS\364M\0231\215"
ARM GAS  /tmp/ccQtb5rF.s 			page 21


 277      A433BC4E 
 277      19BE6D30 
 277      E47053F4 
 277      4D13318D 
 278 03ee D2394AE9 		.ascii	"\3229J\351\274\231\214\204>I\352'\332dg\2626fE\304\333"
 278      BC998C84 
 278      3E49EA27 
 278      DA6467B2 
 278      366645C4 
 279 0403 DB113B83 		.ascii	"\333\021;\203\363\015\210{\022\367\252\370\377\252t"
 279      F30D887B 
 279      12F7AAF8 
 279      FFAA74
 280 0412 D854A537 		.ascii	"\330T\2457)\245#\264J\247\323\011\254\317\010\314\322"
 280      29A523B4 
 280      4AA7D309 
 280      ACCF08CC 
 280      D2
 281 0423 B325F439 		.ascii	"\263%\3649\227\210o\243\003\252\372Jl\343\350\270\003"
 281      97886FA3 
 281      03AAFA4A 
 281      6CE3E8B8 
 281      03
 282 0434 86B65333 		.ascii	"\206\266S3\225\320\213\016\242\326\013K,\021D\002\200"
 282      95D08B0E 
 282      A2D60B4B 
 282      2C114402 
 282      80
 283 0445 ADCB5E52 		.ascii	"\255\313^R7\026\343\304\302\254\227_\230\375C\2700{"
 283      3716E3C4 
 283      C2AC975F 
 283      98FD43B8 
 283      307B
 284 0457 3FF385D9 		.ascii	"?\363\205\331\315\024\023H\242\032\034\341\227\035\""
 284      CD141348 
 284      A21A1CE1 
 284      971D22
 285 0466 C2EAFDBA 		.ascii	"\302\352\375\272%\232\271\202\377I\227Z7Rsef\227\275"
 285      259AB982 
 285      FF49975A 
 285      37527365 
 285      6697BD
 286 0479 4B342005 		.ascii	"K4 \005_\237\304\354L\212\024\335\340S\364\2110E\375"
 286      5F9FC4EC 
 286      4C8A14DD 
 286      E053F489 
 286      3045FD
 287 048c 832C45DA 		.ascii	"\203,E\332\232TB;\304d\356\362dn\177\241\302\335\346"
 287      9A54423B 
 287      C464EEF2 
 287      646E7FA1 
 287      C2DDE6
 288 049f A3FA5418 		.ascii	"\243\372T\030\325gFTWhT\373\304Qm\363rQ\335I+\305\037"
 288      D5674654 
 288      576854FB 
 288      C4516DF3 
 288      7251DD49 
ARM GAS  /tmp/ccQtb5rF.s 			page 22


 289 04b6 12336D76 		.ascii	"\0223mv\357\247\216\355\315\256j\023\213\220\314\035"
 289      EFA78EED 
 289      CDAE6A13 
 289      8B90CC1D 
 290 04c6 9ECC5D21 		.ascii	"\236\314]!\231\367\20682'\305dv\360d\306\323\"\363\221"
 290      99F78638 
 290      3227C564 
 290      76F064C6 
 290      D322F391 
 291 04da 4E46C1FF 		.ascii	"NF\301\377\231\304,\025\231q\236\314\177\205d.\015g"
 291      99C42C15 
 291      99719ECC 
 291      7F85642E 
 291      0D67
 292 04ec 3CA42652 		.ascii	"<\244&R\016)\026S\212\215P8bY\302r\273\230\001:qE-3"
 292      0E291653 
 292      8A8D5038 
 292      6259C272 
 292      BB98013A 
 293 0504 ABFDCB26 		.ascii	"\253\375\313&)\270\365R\276\241\304\017\354!q\241v\362"
 293      29B8F552 
 293      BEA1C40F 
 293      EC2171A1 
 293      76F2
 294 0516 857A984E 		.ascii	"\205z\230N\241\"\177\335|\020\026\207\222\265X\366\246"
 294      A1227FDD 
 294      7C101687 
 294      92B558F6 
 294      A6
 295 0527 3431CCF4 		.ascii	"41\314\364\352\360q\315\224\204+\241\217h\\\366\246"
 295      EAF071CD 
 295      94842BA1 
 295      8F685CF6 
 295      A6
 296 0538 8C9456E7 		.ascii	"\214\224V\347\310\345\315ma\254f'*\375\220\257\364\006"
 296      C8E5CD6D 
 296      61AC6627 
 296      2AFD90AF 
 296      F406
 297 054a 29A9D231 		.ascii	")\251\3221XP\376\372\342z\334\331\026\216\252cd\011"
 297      5850FEFA 
 297      E27ADCD9 
 297      168EAA63 
 297      6409
 298 055c A36DAC25 		.ascii	"\243m\254%4\312\345Dw\262Y\344$rjh\213\212\255\023\314"
 298      34CAE544 
 298      77B259E4 
 298      24726A68 
 298      8B8AAD13 
 299 0571 988D8397 		.ascii	"\230\215\203\227\204\016N';\230\260q\360[\241\203\263"
 299      840E4E27 
 299      3B98B071 
 299      F05BA183 
 299      B3
 300 0582 6607DAF8 		.ascii	"f\007\332\370\333\354\024;\350\024:\030Iv\320m\343`"
 300      DBEC143B 
 300      E8143A18 
ARM GAS  /tmp/ccQtb5rF.s 			page 23


 300      4976D06D 
 300      E360
 301 0594 ABD501B7 		.ascii	"\253\325\001\267X\353N\261X{\325\350\206l\323\023^\320"
 301      58EB4EB1 
 301      587BD5E8 
 301      866CD313 
 301      5ED0
 302 05a6 55C456AC 		.ascii	"U\304V\254\261\327\325\0313Rl\250\311W\015\350\033\333"
 302      B1D7D519 
 302      33526CA8 
 302      C9570DE8 
 302      1BDB
 303 05b8 2532A19D 		.ascii	"%2\241\235r\012>\354i D\201\034\304^k\353-\262\023e"
 303      720A3EEC 
 303      69204481 
 303      1CC45E6B 
 303      EB2DB213 
 304 05cd EE8B75F7 		.ascii	"\356\213u\367\022\263\332&e\272\030\333)\211\027cz`"
 304      12B3DA26 
 304      65BA18DB 
 304      29891763 
 304      7A60
 305 05df FAB6AEAB 		.ascii	"\372\266\256\253HCg~\346\353z.\346gW\306\310\273m\220"
 305      4843677E 
 305      E6EB7A2E 
 305      E66757C6 
 305      C8BB6D90 
 306 05f3 B3C51539 		.ascii	"\263\305\0259\230\242\"{\214\212\220\216\020\031\213"
 306      98A2227B 
 306      8C8A908E 
 306      10198B
 307 0602 C547DFFF 		.ascii	"\305G\337\377\345\241\243\252\372\242:\021_\327\272"
 307      E5A1A3AA 
 307      FAA23A11 
 307      5FD7BA
 308 0611 01EB23E2 		.ascii	"\001\353#\342fRo\020}KzM\342F\335\336\344\336\006 \357"
 308      66526F10 
 308      7D4B7A4D 
 308      E246DDDE 
 308      E4DE0620 
 309 0626 DD1C799E 		.ascii	"\335\034y\236l\200\324x|\335,\035awV:\010a\036a\277"
 309      6C80D478 
 309      7CDD2C1D 
 309      6177563A 
 309      08611E61 
 310 063b 1061D7AD 		.ascii	"\020a\327\255X \011\341jZ\010\007x\204\036!\302\326"
 310      582009E1 
 310      6A5A0807 
 310      78841E21 
 310      C2D6
 311 064d 4F235B70 		.ascii	"O#[p\347\221v\225\214\232u\373\"\035\316\014>\214I\334"
 311      E7917695 
 311      8C9A75FB 
 311      221DCE0C 
 311      3E8C49DC 
 312 0661 CB62984E 		.ascii	"\313b\230N\226\226iy{\2669X\366\231\246'\233u/6I\377"
 312      96966979 
ARM GAS  /tmp/ccQtb5rF.s 			page 24


 312      7BB63958 
 312      F699A627 
 312      9B752F36 
 313 0677 05D67E58 		.ascii	"\005\326~X\337V\037\245\026\275\222\335\2049ly1\336"
 313      DF561FA5 
 313      16BD92DD 
 313      84396C79 
 313      31DE
 314 0689 6D5D31C3 		.ascii	"m]1\303Xj\362\234\373\204\234\343\243c\277\022u\216"
 314      586AF29C 
 314      FB849CE3 
 314      A363BF12 
 314      758E
 315 069b 93D9E924 		.ascii	"\223\331\351$\366\010\017\322o\3239\306~\226T\272\201"
 315      F6080FD2 
 315      6FD339C6 
 315      7E9654BA 
 315      81
 316 06ac B4108EF2 		.ascii	"\264\020\216\362\010\307l:\307HK\022\302\245\264\020"
 316      08C76C3A 
 316      C7484B12 
 316      C2A5B410 
 317 06bc 4EF008BF 		.ascii	"N\360\010\277\267\"|\023\355WGFb\027nu\341M1\230\262"
 317      B7227C13 
 317      ED574746 
 317      62176E75 
 317      E14D3198 
 318 06d1 26E2716C 		.ascii	"&\342ql\314\004\211\251.b\373\315O\301;\244\331\351"
 318      CC0489A9 
 318      2E62FBCD 
 318      4FC13BA4 
 318      D9E9
 319 06e3 4E634B74 		.ascii	"NcKtKM\327f\312\341\264\024\374\247\214\247\234\323"
 319      4B4DD766 
 319      CAE1B414 
 319      FCA78CA7 
 319      9CD3
 320 06f5 36534E8E 		.ascii	"6SN\216%\027\272\026\331j\323l\232\026\365\\\0200\241"
 320      2517BA16 
 320      D96AD36C 
 320      9A16F55C 
 320      1030A1
 321 0708 64EB1B61 		.ascii	"d\353\033a\362O\032-o\221\343\203jN\277\272\211\024"
 321      F24F1A2D 
 321      6F91E383 
 321      6A4EBFBA 
 321      8914
 322 071a C6F48650 		.ascii	"\306\364\206P\360)\203\015\3671\313\242\266\335V\015"
 322      F029830D 
 322      F731CBA2 
 322      B6DD560D 
 323 072a B6A51993 		.ascii	"\266\245\031\223>gC\332e!\255k\221\235\212\304\355\031"
 323      3E6743DA 
 323      6521AD6B 
 323      919D8AC4 
 323      ED19
 324 073c B8202474 		.ascii	"\270 $t_Dz\"\211t)\307y\023\326\035MIUh^\015\326\215"
ARM GAS  /tmp/ccQtb5rF.s 			page 25


 324      5F447A22 
 324      897429C7 
 324      7913D61D 
 324      4D495568 
 325 0754 19931EB4 		.ascii	"\031\223\036\264!]l!=\310\2236\355-\370($\324\346\022"
 325      215D6C21 
 325      3DC89336 
 325      ED2DF828 
 325      24D4E612 
 326 0768 B0FEDBD0 		.ascii	"\260\376\333\320d\254;\022\216JR\261\346\325`\242\313"
 326      64AC3B12 
 326      8E4A52B1 
 326      E6D560A2 
 326      CB
 327 0779 98F5BB36 		.ascii	"\230\365\2736\254\247XX\277\313\2636mB\370($\324ia\315"
 327      ACA75858 
 327      BFCBB336 
 327      6D42F828 
 327      24D46961 
 328 078e BD942FD8 		.ascii	"\275\224/\330|\336 \352\027\223\226I\245\304\244M\262"
 328      7CDE20EA 
 328      17939649 
 328      A5C4A44D 
 328      B2
 329 079f FBAA63FE 		.ascii	"\373\252c\376\232d|%\322\023}mx\262Dw%b\377r\252D\363"
 329      9A647C25 
 329      D2137D6D 
 329      78B24477 
 329      2562FF72 
 330 07b6 6AB0F9C8 		.ascii	"j\260\371\3108\321\227m\022m\376\206dh%\022m\332\005"
 330      38D1976D 
 330      126DFE86 
 330      64682512 
 330      6DDA05
 331 07c9 F051C0B6 		.ascii	"\360Q\300\266\331\222\350"
 331      D992E8
 332 07d0 47512FFD 		.ascii	"GQ/\375\024\1771\332J\276\222[\267>4-\356\346`\223;"
 332      147F31DA 
 332      4ABE925B 
 332      B73E342D 
 332      EEE66093 
 333 07e5 D8E4717B 		.ascii	"\330\344q{\352\033j\033\002A7\374\325+>z\313\2736\364"
 333      EA1B6A1B 
 333      024137FC 
 333      D52B3E7A 
 333      CBBB36F4 
 334 07f9 B807B9E0 		.ascii	"\270\007\271\340T\341o\010e\377dYMi9\232cg\321\340\367"
 334      54E16F08 
 334      65FF6459 
 334      4D69399A 
 334      6367D1E0 
 335 080e F89AEBBC 		.ascii	"\370\232\353\274\324\252\036\345.~\256zQS\303joS\231"
 335      D4AA1EE5 
 335      2E7EAE7A 
 335      5153C36A 
 335      6F5399
 336 0821 9D4163A0 		.ascii	"\235Ac\240)\024tWUW>Y\346^\272t\0211\224}\276:0\316"
ARM GAS  /tmp/ccQtb5rF.s 			page 26


 336      29147457 
 336      55573E59 
 336      E65EBA74 
 336      1131947D 
 337 0839 836630A4 		.ascii	"\203f0\244\204\274r(\017\374\3105\313*\226UT\347\220"
 337      84BC7228 
 337      0FFCC835 
 337      CB2A9655 
 337      54E790
 338 084c 6655F5F2 		.ascii	"fU\365\362\025\364\336\302\362\352\212\237.\316\242"
 338      15F4DEC2 
 338      F2EA8A9F 
 338      2ECEA2
 339 085b 6AC570A3 		.ascii	"j\305p\243\274^\361\373\275\276\362\200\177e\303\317"
 339      BC5EF1FB 
 339      BDBEF280 
 339      7F65C3CF 
 340 086b 355A7A44 		.ascii	"5ZzD~\357\032_C\255;\330\022t\313\301P]\203\237\004"
 340      7EEF1A5F 
 340      43AD3BD8 
 340      1274CBC1 
 340      505D839F 
 341 0880 98D30CE7 		.ascii	"\230\323\014\347'\313\344\320wE\272\253\024\010\326"
 341      27CBE4D0 
 341      7745BAAB 
 341      1408D6
 342 088f EF75CB75 		.ascii	"\357u\313u\336\225J\263/$\207Z\032\275A\022\232,\353"
 342      DE954AB3 
 342      2F24875A 
 342      1ABD4112 
 342      9A2CEB
 343 08a2 86CE5581 		.ascii	"\206\316U\201:o\201wm\243G\203\226C\205\020\267G\361"
 343      3A6F8177 
 343      6DA34783 
 343      96438510 
 343      B747F1
 344 08b5 F96A15CF 		.ascii	"\371j\025\317\013rH\362\324\346\260GA\222\016-\264l"
 344      0B7248F2 
 344      D4E6B047 
 344      41920E2D 
 344      B46C
 345 08c7 0F3D11D5 		.ascii	"\017=\021\325\345\265\277\360zhn\235p\325\230\003?U"
 345      E5B5BFF0 
 345      7A686E9D 
 345      70D59803 
 345      3F55
 346 08d9 21A529E4 		.ascii	"!\245)\344\242\215@c1\234\031\255\305~\245\326\347u"
 346      A28D4063 
 346      319C19AD 
 346      C57EA5D6 
 346      E775
 347 08eb 3177538C 		.ascii	"1wS\214\007\213\032\202\344I\0111\361\3527+!\260\212"
 347      078B1A82 
 347      E4490931 
 347      F1EA372B 
 347      21B08A
 348 08fe 2C124C63 		.ascii	",\022Lc\001\313\252\334\0000\205\372E\220\300\024\030"
ARM GAS  /tmp/ccQtb5rF.s 			page 27


 348      01CBAADC 
 348      003085FA 
 348      4590C014 
 348      18
 349 090f 5781C669 		.ascii	"W\201\306i\372\205N\306K\021\247\363\267\3534<'\\7="
 349      FA854EC6 
 349      4B11A7F3 
 349      B7EB343C 
 349      275C373D 
 350 0923 6A57D940 		.ascii	"jW\331@\020~\232B\364\0149\313'\347\252\226\340\322"
 350      107E9A42 
 350      F40C39CB 
 350      27E7AA96 
 350      E0D2
 351 0935 80E705A1 		.ascii	"\200\347\005\241\015\250\352\371\367\324C\231H\377\361"
 351      0DA8EAF9 
 351      F7D44399 
 351      48FFF1
 352 0944 D4338BB9 		.ascii	"\3243\213\2716\026Z\367Y\370ley\345Zx\344\0114y\345"
 352      36165AF7 
 352      59F86C65 
 352      79E55A78 
 352      E4093479 
 353 0959 D5F35611 		.ascii	"\325\363V\021[\362H\366\201\355\367D\266@\311]^YUQe"
 353      5BF248F6 
 353      81EDF744 
 353      B640C95D 
 353      5E595551 
 354 096e 80125BCF 		.ascii	"\200\022[\317\252\0377\373=`^(\313AoH\376\321\302\252"
 354      AA1F37FB 
 354      3D605E28 
 354      CB416F48 
 354      FED1C2AA 
 355 0982 C52B9EAD 		.ascii	"\305+\236\255(T|k\224\226 \344\317\007\035\"k\265\342"
 355      28547C6B 
 355      949620E4 
 355      CF071D22 
 355      6BB5E2
 356 0995 6BF61632 		.ascii	"k\366\0262B5~\002\222OCem\012\335L\3339\262\274\022"
 356      42357E02 
 356      924F4365 
 356      6D0ADD4C 
 356      DB39B2BC 
 357 09aa 3CCA72A1 		.ascii	"<\312r\241\336x|\336SO\3177]}\377\2112\313\325<\363"
 357      DE787CDE 
 357      534FCF37 
 357      5D7DFF89 
 357      32CBD53C 
 358 09bf D55CCBB3 		.ascii	"\325\\\313\263\271O\377\017Y\024\250s"
 358      B94FFF0F 
 358      5914A873 
 359              		.text
 360              		.section	.gnu.lto_.symtab.ab8817f3d6ee372c,"",%progbits
 361 0000 65787449 		.ascii	"extInit\000\000\000\000\000\000\000\000\000\000\000"
 361      6E697400 
 361      00000000 
 361      00000000 
ARM GAS  /tmp/ccQtb5rF.s 			page 28


 361      0000
 362 0012 00A10000 		.ascii	"\000\241\000\000\000extObjectInit\000\000\000\000\000"
 362      00657874 
 362      4F626A65 
 362      6374496E 
 362      69740000 
 363 0029 00000000 		.ascii	"\000\000\000\000\000\000\000\246\000\000\000extStar"
 363      000000A6 
 363      00000065 
 363      78745374 
 363      6172
 364 003b 74000000 		.ascii	"t\000\000\000\000\000\000\000\000\000\000\000\000\346"
 364      00000000 
 364      00000000 
 364      00E6
 365 0049 00000065 		.ascii	"\000\000\000extStop\000\000\000\000\000\000\000\000"
 365      78745374 
 365      6F700000 
 365      00000000 
 365      0000
 366 005b 00000000 		.ascii	"\000\000\000\000\356\000\000\000extChannelEnable\000"
 366      EE000000 
 366      65787443 
 366      68616E6E 
 366      656C456E 
 367 0074 00000000 		.ascii	"\000\000\000\000\000\000\000\000\000\000\000\362\000"
 367      00000000 
 367      000000F2 
 367      00
 368 0081 00006578 		.ascii	"\000\000extChannelDisable\000\000\000\000\000\000\000"
 368      74436861 
 368      6E6E656C 
 368      44697361 
 368      626C6500 
 369 009b 00000000 		.ascii	"\000\000\000\000\000\370\000\000\000extSetChannelMo"
 369      00F80000 
 369      00657874 
 369      53657443 
 369      68616E6E 
 370 00b3 64654900 		.ascii	"deI\000\000\000\000\000\000\000\000\000\000\000\000"
 370      00000000 
 370      00000000 
 370      000000
 371 00c2 FD000000 		.ascii	"\375\000\000\000ext_lld_init\000\000\002\000\000\000"
 371      6578745F 
 371      6C6C645F 
 371      696E6974 
 371      00000200 
 372 00d8 00000000 		.ascii	"\000\000\000\000\000\000\012\001\000\000ext_lld_sta"
 372      00000A01 
 372      00006578 
 372      745F6C6C 
 372      645F7374 
 373 00ed 72740000 		.ascii	"rt\000\000\002\000\000\000\000\000\000\000\000\000\014"
 373      02000000 
 373      00000000 
 373      00000C
ARM GAS  /tmp/ccQtb5rF.s 			page 29


 374 00fc 01000065 		.ascii	"\001\000\000ext_lld_stop\000\000\002\000\000\000\000"
 374      78745F6C 
 374      6C645F73 
 374      746F7000 
 374      00020000 
 375 0112 00000000 		.ascii	"\000\000\000\000\000\016\001\000\000ext_lld_channel"
 375      000E0100 
 375      00657874 
 375      5F6C6C64 
 375      5F636861 
 376 012a 5F656E61 		.ascii	"_enable\000\000\002\000\000\000\000\000\000\000\000"
 376      626C6500 
 376      00020000 
 376      00000000 
 376      0000
 377 013c 00100100 		.ascii	"\000\020\001\000\000ext_lld_channel_disable\000\000"
 377      00657874 
 377      5F6C6C64 
 377      5F636861 
 377      6E6E656C 
 378 015a 02000000 		.ascii	"\002\000\000\000\000\000\000\000\000\000\022\001\000"
 378      00000000 
 378      00001201 
 378      00
 379 0167 00       		.ascii	"\000"
 380              		.text
 381              		.section	.gnu.lto_.opts,"",%progbits
 382 0000 272D6D63 		.ascii	"'-mcpu=cortex-m4' '-mno-thumb-interwork' '-mthumb' "
 382      70753D63 
 382      6F727465 
 382      782D6D34 
 382      2720272D 
 383 0033 272D6767 		.ascii	"'-ggdb' '-O2' '-fomit-frame-pointer' '-falign-funct"
 383      64622720 
 383      272D4F32 
 383      2720272D 
 383      666F6D69 
 384 0066 696F6E73 		.ascii	"ions=16' '-ffunction-sections' '-fdata-sections' '-"
 384      3D313627 
 384      20272D66 
 384      66756E63 
 384      74696F6E 
 385 0099 666E6F2D 		.ascii	"fno-common' '-flto'\000"
 385      636F6D6D 
 385      6F6E2720 
 385      272D666C 
 385      746F2700 
 386              		.text
 387              		.cfi_sections	.debug_frame
 388              		.section	.text.extInit,"ax",%progbits
 389              		.align	2
 390              		.p2align 4,,15
 391              		.global	extInit
 392              		.thumb
 393              		.thumb_func
 394              		.type	extInit, %function
 395              	extInit:
ARM GAS  /tmp/ccQtb5rF.s 			page 30


 396              	.LFB260:
 397              		.file 1 "/usr/src/chibios/os/hal/src/ext.c"
 398              		.loc 1 56 0
 399              		.cfi_startproc
 400              		@ args = 0, pretend = 0, frame = 0
 401              		@ frame_needed = 0, uses_anonymous_args = 0
 402              		@ link register save eliminated.
 403              		.loc 1 58 0
 404 0000 FFF7FEBF 		b	ext_lld_init
 405              	.LVL0:
 406              		.cfi_endproc
 407              	.LFE260:
 408              		.size	extInit, .-extInit
 409              		.section	.text.extObjectInit,"ax",%progbits
 410              		.align	2
 411              		.p2align 4,,15
 412              		.global	extObjectInit
 413              		.thumb
 414              		.thumb_func
 415              		.type	extObjectInit, %function
 416              	extObjectInit:
 417              	.LFB261:
 418              		.loc 1 68 0
 419              		.cfi_startproc
 420              		@ args = 0, pretend = 0, frame = 0
 421              		@ frame_needed = 0, uses_anonymous_args = 0
 422              		@ link register save eliminated.
 423              	.LVL1:
 424              		.loc 1 70 0
 425 0000 0122     		movs	r2, #1
 426              		.loc 1 71 0
 427 0002 0023     		movs	r3, #0
 428              		.loc 1 70 0
 429 0004 0270     		strb	r2, [r0]
 430              		.loc 1 71 0
 431 0006 4360     		str	r3, [r0, #4]
 432 0008 7047     		bx	lr
 433              		.cfi_endproc
 434              	.LFE261:
 435              		.size	extObjectInit, .-extObjectInit
 436 000a 00BF     		.section	.text.extStart,"ax",%progbits
 437              		.align	2
 438              		.p2align 4,,15
 439              		.global	extStart
 440              		.thumb
 441              		.thumb_func
 442              		.type	extStart, %function
 443              	extStart:
 444              	.LFB262:
 445              		.loc 1 84 0
 446              		.cfi_startproc
 447              		@ args = 0, pretend = 0, frame = 0
 448              		@ frame_needed = 0, uses_anonymous_args = 0
 449              	.LVL2:
 450 0000 10B5     		push	{r4, lr}
 451              		.cfi_def_cfa_offset 8
 452              		.cfi_offset 4, -8
ARM GAS  /tmp/ccQtb5rF.s 			page 31


 453              		.cfi_offset 14, -4
 454              	.LBB76:
 455              	.LBB77:
 456              	.LBB78:
 457              	.LBB79:
 458              	.LBB80:
 459              		.file 2 "/usr/src/chibios/os/ext/CMSIS/include/core_cmFunc.h"
 460              		.loc 2 546 0
 461 0002 2023     		movs	r3, #32
 462              	.LBE80:
 463              	.LBE79:
 464              	.LBE78:
 465              	.LBE77:
 466              	.LBE76:
 467              		.loc 1 84 0
 468 0004 0446     		mov	r4, r0
 469              	.LBB85:
 470              	.LBB84:
 471              	.LBB83:
 472              	.LBB82:
 473              	.LBB81:
 474              		.loc 2 546 0
 475              	@ 546 "/usr/src/chibios/os/ext/CMSIS/include/core_cmFunc.h" 1
 476 0006 83F31188 		MSR basepri, r3
 477              	@ 0 "" 2
 478              		.thumb
 479              	.LBE81:
 480              	.LBE82:
 481              	.LBE83:
 482              	.LBE84:
 483              	.LBE85:
 484              		.loc 1 91 0
 485 000a 4160     		str	r1, [r0, #4]
 486              		.loc 1 92 0
 487 000c FFF7FEFF 		bl	ext_lld_start
 488              	.LVL3:
 489              		.loc 1 93 0
 490 0010 0223     		movs	r3, #2
 491 0012 2370     		strb	r3, [r4]
 492              	.LVL4:
 493              	.LBB86:
 494              	.LBB87:
 495              	.LBB88:
 496              	.LBB89:
 497              	.LBB90:
 498              	.LBB91:
 499              		.loc 2 546 0
 500 0014 0023     		movs	r3, #0
 501              	@ 546 "/usr/src/chibios/os/ext/CMSIS/include/core_cmFunc.h" 1
 502 0016 83F31188 		MSR basepri, r3
 503              	@ 0 "" 2
 504              		.thumb
 505 001a 10BD     		pop	{r4, pc}
 506              	.LBE91:
 507              	.LBE90:
 508              	.LBE89:
 509              	.LBE88:
ARM GAS  /tmp/ccQtb5rF.s 			page 32


 510              	.LBE87:
 511              	.LBE86:
 512              		.cfi_endproc
 513              	.LFE262:
 514              		.size	extStart, .-extStart
 515              		.section	.text.extStop,"ax",%progbits
 516              		.align	2
 517              		.p2align 4,,15
 518              		.global	extStop
 519              		.thumb
 520              		.thumb_func
 521              		.type	extStop, %function
 522              	extStop:
 523              	.LFB263:
 524              		.loc 1 104 0
 525              		.cfi_startproc
 526              		@ args = 0, pretend = 0, frame = 0
 527              		@ frame_needed = 0, uses_anonymous_args = 0
 528              	.LVL5:
 529 0000 10B5     		push	{r4, lr}
 530              		.cfi_def_cfa_offset 8
 531              		.cfi_offset 4, -8
 532              		.cfi_offset 14, -4
 533              	.LBB92:
 534              	.LBB93:
 535              	.LBB94:
 536              	.LBB95:
 537              	.LBB96:
 538              		.loc 2 546 0
 539 0002 2023     		movs	r3, #32
 540              	.LBE96:
 541              	.LBE95:
 542              	.LBE94:
 543              	.LBE93:
 544              	.LBE92:
 545              		.loc 1 104 0
 546 0004 0446     		mov	r4, r0
 547              	.LBB101:
 548              	.LBB100:
 549              	.LBB99:
 550              	.LBB98:
 551              	.LBB97:
 552              		.loc 2 546 0
 553              	@ 546 "/usr/src/chibios/os/ext/CMSIS/include/core_cmFunc.h" 1
 554 0006 83F31188 		MSR basepri, r3
 555              	@ 0 "" 2
 556              		.thumb
 557              	.LBE97:
 558              	.LBE98:
 559              	.LBE99:
 560              	.LBE100:
 561              	.LBE101:
 562              		.loc 1 111 0
 563 000a FFF7FEFF 		bl	ext_lld_stop
 564              	.LVL6:
 565              		.loc 1 112 0
 566 000e 0123     		movs	r3, #1
ARM GAS  /tmp/ccQtb5rF.s 			page 33


 567 0010 2370     		strb	r3, [r4]
 568              	.LVL7:
 569              	.LBB102:
 570              	.LBB103:
 571              	.LBB104:
 572              	.LBB105:
 573              	.LBB106:
 574              	.LBB107:
 575              		.loc 2 546 0
 576 0012 0023     		movs	r3, #0
 577              	@ 546 "/usr/src/chibios/os/ext/CMSIS/include/core_cmFunc.h" 1
 578 0014 83F31188 		MSR basepri, r3
 579              	@ 0 "" 2
 580              		.thumb
 581 0018 10BD     		pop	{r4, pc}
 582              	.LBE107:
 583              	.LBE106:
 584              	.LBE105:
 585              	.LBE104:
 586              	.LBE103:
 587              	.LBE102:
 588              		.cfi_endproc
 589              	.LFE263:
 590              		.size	extStop, .-extStop
 591 001a 00BF     		.section	.text.extChannelEnable,"ax",%progbits
 592              		.align	2
 593              		.p2align 4,,15
 594              		.global	extChannelEnable
 595              		.thumb
 596              		.thumb_func
 597              		.type	extChannelEnable, %function
 598              	extChannelEnable:
 599              	.LFB264:
 600              		.loc 1 125 0
 601              		.cfi_startproc
 602              		@ args = 0, pretend = 0, frame = 0
 603              		@ frame_needed = 0, uses_anonymous_args = 0
 604              	.LVL8:
 605 0000 08B5     		push	{r3, lr}
 606              		.cfi_def_cfa_offset 8
 607              		.cfi_offset 3, -8
 608              		.cfi_offset 14, -4
 609              	.LBB108:
 610              	.LBB109:
 611              	.LBB110:
 612              	.LBB111:
 613              	.LBB112:
 614              		.loc 2 546 0
 615 0002 2023     		movs	r3, #32
 616              	@ 546 "/usr/src/chibios/os/ext/CMSIS/include/core_cmFunc.h" 1
 617 0004 83F31188 		MSR basepri, r3
 618              	@ 0 "" 2
 619              		.thumb
 620              	.LBE112:
 621              	.LBE111:
 622              	.LBE110:
 623              	.LBE109:
ARM GAS  /tmp/ccQtb5rF.s 			page 34


 624              	.LBE108:
 625              		.loc 1 134 0
 626 0008 FFF7FEFF 		bl	ext_lld_channel_enable
 627              	.LVL9:
 628              	.LBB113:
 629              	.LBB114:
 630              	.LBB115:
 631              	.LBB116:
 632              	.LBB117:
 633              	.LBB118:
 634              		.loc 2 546 0
 635 000c 0023     		movs	r3, #0
 636              	@ 546 "/usr/src/chibios/os/ext/CMSIS/include/core_cmFunc.h" 1
 637 000e 83F31188 		MSR basepri, r3
 638              	@ 0 "" 2
 639              		.thumb
 640 0012 08BD     		pop	{r3, pc}
 641              	.LBE118:
 642              	.LBE117:
 643              	.LBE116:
 644              	.LBE115:
 645              	.LBE114:
 646              	.LBE113:
 647              		.cfi_endproc
 648              	.LFE264:
 649              		.size	extChannelEnable, .-extChannelEnable
 650              		.section	.text.extChannelDisable,"ax",%progbits
 651              		.align	2
 652              		.p2align 4,,15
 653              		.global	extChannelDisable
 654              		.thumb
 655              		.thumb_func
 656              		.type	extChannelDisable, %function
 657              	extChannelDisable:
 658              	.LFB265:
 659              		.loc 1 147 0
 660              		.cfi_startproc
 661              		@ args = 0, pretend = 0, frame = 0
 662              		@ frame_needed = 0, uses_anonymous_args = 0
 663              	.LVL10:
 664 0000 08B5     		push	{r3, lr}
 665              		.cfi_def_cfa_offset 8
 666              		.cfi_offset 3, -8
 667              		.cfi_offset 14, -4
 668              	.LBB119:
 669              	.LBB120:
 670              	.LBB121:
 671              	.LBB122:
 672              	.LBB123:
 673              		.loc 2 546 0
 674 0002 2023     		movs	r3, #32
 675              	@ 546 "/usr/src/chibios/os/ext/CMSIS/include/core_cmFunc.h" 1
 676 0004 83F31188 		MSR basepri, r3
 677              	@ 0 "" 2
 678              		.thumb
 679              	.LBE123:
 680              	.LBE122:
ARM GAS  /tmp/ccQtb5rF.s 			page 35


 681              	.LBE121:
 682              	.LBE120:
 683              	.LBE119:
 684              		.loc 1 156 0
 685 0008 FFF7FEFF 		bl	ext_lld_channel_disable
 686              	.LVL11:
 687              	.LBB124:
 688              	.LBB125:
 689              	.LBB126:
 690              	.LBB127:
 691              	.LBB128:
 692              	.LBB129:
 693              		.loc 2 546 0
 694 000c 0023     		movs	r3, #0
 695              	@ 546 "/usr/src/chibios/os/ext/CMSIS/include/core_cmFunc.h" 1
 696 000e 83F31188 		MSR basepri, r3
 697              	@ 0 "" 2
 698              		.thumb
 699 0012 08BD     		pop	{r3, pc}
 700              	.LBE129:
 701              	.LBE128:
 702              	.LBE127:
 703              	.LBE126:
 704              	.LBE125:
 705              	.LBE124:
 706              		.cfi_endproc
 707              	.LFE265:
 708              		.size	extChannelDisable, .-extChannelDisable
 709              		.section	.text.extSetChannelModeI,"ax",%progbits
 710              		.align	2
 711              		.p2align 4,,15
 712              		.global	extSetChannelModeI
 713              		.thumb
 714              		.thumb_func
 715              		.type	extSetChannelModeI, %function
 716              	extSetChannelModeI:
 717              	.LFB266:
 718              		.loc 1 179 0
 719              		.cfi_startproc
 720              		@ args = 0, pretend = 0, frame = 0
 721              		@ frame_needed = 0, uses_anonymous_args = 0
 722              		@ link register save eliminated.
 723              	.LVL12:
 724 0000 30B4     		push	{r4, r5}
 725              		.cfi_def_cfa_offset 8
 726              		.cfi_offset 4, -8
 727              		.cfi_offset 5, -4
 728              		.loc 1 179 0
 729 0002 0B46     		mov	r3, r1
 730              	.LVL13:
 731              		.loc 1 196 0
 732 0004 4568     		ldr	r5, [r0, #4]
 733              		.loc 1 179 0
 734 0006 0446     		mov	r4, r0
 735              		.loc 1 196 0
 736 0008 92E80300 		ldmia	r2, {r0, r1}
 737              	.LVL14:
ARM GAS  /tmp/ccQtb5rF.s 			page 36


 738 000c 05EBC302 		add	r2, r5, r3, lsl #3
 739              	.LVL15:
 740 0010 82E80300 		stmia	r2, {r0, r1}
 741              		.loc 1 197 0
 742 0014 2046     		mov	r0, r4
 743 0016 1946     		mov	r1, r3
 744              		.loc 1 198 0
 745 0018 30BC     		pop	{r4, r5}
 746              	.LVL16:
 747              		.loc 1 197 0
 748 001a FFF7FEBF 		b	ext_lld_channel_enable
 749              	.LVL17:
 750              		.cfi_endproc
 751              	.LFE266:
 752              		.size	extSetChannelModeI, .-extSetChannelModeI
 753 001e 00BF     		.text
 754              	.Letext0:
 755              		.file 3 "/usr/include/newlib/machine/_default_types.h"
 756              		.file 4 "/usr/include/newlib/sys/_stdint.h"
 757              		.file 5 "/usr/src/chibios/os/rt/ports/ARMCMx/compilers/GCC/chtypes.h"
 758              		.file 6 "/usr/src/chibios/os/rt/include/chsystypes.h"
 759              		.file 7 "/usr/src/chibios/os/rt/include/chschd.h"
 760              		.file 8 "/usr/src/chibios/os/rt/ports/ARMCMx/chcore.h"
 761              		.file 9 "/usr/src/chibios/os/rt/ports/ARMCMx/chcore_v7m.h"
 762              		.file 10 "/usr/src/chibios/os/rt/include/chtm.h"
 763              		.file 11 "/usr/src/chibios/os/rt/include/chsem.h"
 764              		.file 12 "/usr/src/chibios/os/rt/include/chmtx.h"
 765              		.file 13 "/usr/src/chibios/os/hal/include/ext.h"
 766              		.file 14 "/usr/src/chibios/os/hal/ports/STM32/LLD/ext_lld.h"
 767              		.file 15 "/usr/src/chibios/os/rt/include/chsys.h"
 768              		.file 16 "/usr/src/chibios/os/hal/osal/rt/osal.h"
 769              		.file 17 "/usr/src/chibios/os/ext/CMSIS/include/core_cm4.h"
 770              		.section	.debug_info,"",%progbits
 771              	.Ldebug_info0:
 772 0000 F00C0000 		.4byte	0xcf0
 773 0004 0400     		.2byte	0x4
 774 0006 00000000 		.4byte	.Ldebug_abbrev0
 775 000a 04       		.byte	0x4
 776 000b 01       		.uleb128 0x1
 777 000c D8020000 		.4byte	.LASF141
 778 0010 01       		.byte	0x1
 779 0011 8E030000 		.4byte	.LASF142
 780 0015 30000000 		.4byte	.Ldebug_ranges0+0x30
 781 0019 00000000 		.4byte	0
 782 001d 00000000 		.4byte	.Ldebug_line0
 783 0021 02       		.uleb128 0x2
 784 0022 04       		.byte	0x4
 785 0023 05       		.byte	0x5
 786 0024 696E7400 		.ascii	"int\000"
 787 0028 03       		.uleb128 0x3
 788 0029 04       		.byte	0x4
 789 002a 07       		.byte	0x7
 790 002b ED010000 		.4byte	.LASF0
 791 002f 03       		.uleb128 0x3
 792 0030 01       		.byte	0x1
 793 0031 06       		.byte	0x6
 794 0032 23000000 		.4byte	.LASF1
ARM GAS  /tmp/ccQtb5rF.s 			page 37


 795 0036 04       		.uleb128 0x4
 796 0037 2F000000 		.4byte	.LASF5
 797 003b 03       		.byte	0x3
 798 003c 1D       		.byte	0x1d
 799 003d 41000000 		.4byte	0x41
 800 0041 03       		.uleb128 0x3
 801 0042 01       		.byte	0x1
 802 0043 08       		.byte	0x8
 803 0044 B6040000 		.4byte	.LASF2
 804 0048 03       		.uleb128 0x3
 805 0049 02       		.byte	0x2
 806 004a 05       		.byte	0x5
 807 004b D6040000 		.4byte	.LASF3
 808 004f 03       		.uleb128 0x3
 809 0050 02       		.byte	0x2
 810 0051 07       		.byte	0x7
 811 0052 46020000 		.4byte	.LASF4
 812 0056 04       		.uleb128 0x4
 813 0057 A1020000 		.4byte	.LASF6
 814 005b 03       		.byte	0x3
 815 005c 3F       		.byte	0x3f
 816 005d 61000000 		.4byte	0x61
 817 0061 03       		.uleb128 0x3
 818 0062 04       		.byte	0x4
 819 0063 05       		.byte	0x5
 820 0064 72010000 		.4byte	.LASF7
 821 0068 04       		.uleb128 0x4
 822 0069 FF050000 		.4byte	.LASF8
 823 006d 03       		.byte	0x3
 824 006e 41       		.byte	0x41
 825 006f 73000000 		.4byte	0x73
 826 0073 03       		.uleb128 0x3
 827 0074 04       		.byte	0x4
 828 0075 07       		.byte	0x7
 829 0076 89050000 		.4byte	.LASF9
 830 007a 03       		.uleb128 0x3
 831 007b 08       		.byte	0x8
 832 007c 05       		.byte	0x5
 833 007d 12010000 		.4byte	.LASF10
 834 0081 04       		.uleb128 0x4
 835 0082 66040000 		.4byte	.LASF11
 836 0086 03       		.byte	0x3
 837 0087 5B       		.byte	0x5b
 838 0088 8C000000 		.4byte	0x8c
 839 008c 03       		.uleb128 0x3
 840 008d 08       		.byte	0x8
 841 008e 07       		.byte	0x7
 842 008f 7E000000 		.4byte	.LASF12
 843 0093 04       		.uleb128 0x4
 844 0094 87060000 		.4byte	.LASF13
 845 0098 04       		.byte	0x4
 846 0099 14       		.byte	0x14
 847 009a 36000000 		.4byte	0x36
 848 009e 04       		.uleb128 0x4
 849 009f AE040000 		.4byte	.LASF14
 850 00a3 04       		.byte	0x4
 851 00a4 1F       		.byte	0x1f
ARM GAS  /tmp/ccQtb5rF.s 			page 38


 852 00a5 56000000 		.4byte	0x56
 853 00a9 04       		.uleb128 0x4
 854 00aa 58050000 		.4byte	.LASF15
 855 00ae 04       		.byte	0x4
 856 00af 20       		.byte	0x20
 857 00b0 68000000 		.4byte	0x68
 858 00b4 04       		.uleb128 0x4
 859 00b5 1A000000 		.4byte	.LASF16
 860 00b9 04       		.byte	0x4
 861 00ba 26       		.byte	0x26
 862 00bb 81000000 		.4byte	0x81
 863 00bf 05       		.uleb128 0x5
 864 00c0 9E000000 		.4byte	0x9e
 865 00c4 04       		.uleb128 0x4
 866 00c5 29060000 		.4byte	.LASF17
 867 00c9 05       		.byte	0x5
 868 00ca 45       		.byte	0x45
 869 00cb A9000000 		.4byte	0xa9
 870 00cf 04       		.uleb128 0x4
 871 00d0 7F020000 		.4byte	.LASF18
 872 00d4 05       		.byte	0x5
 873 00d5 48       		.byte	0x48
 874 00d6 93000000 		.4byte	0x93
 875 00da 04       		.uleb128 0x4
 876 00db 7B010000 		.4byte	.LASF19
 877 00df 05       		.byte	0x5
 878 00e0 49       		.byte	0x49
 879 00e1 93000000 		.4byte	0x93
 880 00e5 04       		.uleb128 0x4
 881 00e6 71040000 		.4byte	.LASF20
 882 00ea 05       		.byte	0x5
 883 00eb 4A       		.byte	0x4a
 884 00ec 93000000 		.4byte	0x93
 885 00f0 04       		.uleb128 0x4
 886 00f1 90040000 		.4byte	.LASF21
 887 00f5 05       		.byte	0x5
 888 00f6 4C       		.byte	0x4c
 889 00f7 A9000000 		.4byte	0xa9
 890 00fb 04       		.uleb128 0x4
 891 00fc 6D020000 		.4byte	.LASF22
 892 0100 05       		.byte	0x5
 893 0101 4D       		.byte	0x4d
 894 0102 9E000000 		.4byte	0x9e
 895 0106 04       		.uleb128 0x4
 896 0107 95020000 		.4byte	.LASF23
 897 010b 05       		.byte	0x5
 898 010c 4F       		.byte	0x4f
 899 010d A9000000 		.4byte	0xa9
 900 0111 04       		.uleb128 0x4
 901 0112 E7010000 		.4byte	.LASF24
 902 0116 05       		.byte	0x5
 903 0117 51       		.byte	0x51
 904 0118 9E000000 		.4byte	0x9e
 905 011c 04       		.uleb128 0x4
 906 011d E1050000 		.4byte	.LASF25
 907 0121 06       		.byte	0x6
 908 0122 33       		.byte	0x33
ARM GAS  /tmp/ccQtb5rF.s 			page 39


 909 0123 A9000000 		.4byte	0xa9
 910 0127 04       		.uleb128 0x4
 911 0128 C3050000 		.4byte	.LASF26
 912 012c 06       		.byte	0x6
 913 012d 3F       		.byte	0x3f
 914 012e 32010000 		.4byte	0x132
 915 0132 06       		.uleb128 0x6
 916 0133 59020000 		.4byte	.LASF46
 917 0137 44       		.byte	0x44
 918 0138 07       		.byte	0x7
 919 0139 C2       		.byte	0xc2
 920 013a 1F020000 		.4byte	0x21f
 921 013e 07       		.uleb128 0x7
 922 013f F6040000 		.4byte	.LASF27
 923 0143 07       		.byte	0x7
 924 0144 C3       		.byte	0xc3
 925 0145 2A020000 		.4byte	0x22a
 926 0149 00       		.byte	0
 927 014a 07       		.uleb128 0x7
 928 014b 89040000 		.4byte	.LASF28
 929 014f 07       		.byte	0x7
 930 0150 C5       		.byte	0xc5
 931 0151 2A020000 		.4byte	0x22a
 932 0155 04       		.byte	0x4
 933 0156 07       		.uleb128 0x7
 934 0157 02010000 		.4byte	.LASF29
 935 015b 07       		.byte	0x7
 936 015c C7       		.byte	0xc7
 937 015d F0000000 		.4byte	0xf0
 938 0161 08       		.byte	0x8
 939 0162 07       		.uleb128 0x7
 940 0163 E2060000 		.4byte	.LASF30
 941 0167 07       		.byte	0x7
 942 0168 C8       		.byte	0xc8
 943 0169 5A040000 		.4byte	0x45a
 944 016d 0C       		.byte	0xc
 945 016e 07       		.uleb128 0x7
 946 016f 84010000 		.4byte	.LASF31
 947 0173 07       		.byte	0x7
 948 0174 CA       		.byte	0xca
 949 0175 2A020000 		.4byte	0x22a
 950 0179 10       		.byte	0x10
 951 017a 07       		.uleb128 0x7
 952 017b 1C040000 		.4byte	.LASF32
 953 017f 07       		.byte	0x7
 954 0180 CB       		.byte	0xcb
 955 0181 2A020000 		.4byte	0x22a
 956 0185 14       		.byte	0x14
 957 0186 07       		.uleb128 0x7
 958 0187 A4060000 		.4byte	.LASF33
 959 018b 07       		.byte	0x7
 960 018c D2       		.byte	0xd2
 961 018d D9050000 		.4byte	0x5d9
 962 0191 18       		.byte	0x18
 963 0192 07       		.uleb128 0x7
 964 0193 E0040000 		.4byte	.LASF34
 965 0197 07       		.byte	0x7
ARM GAS  /tmp/ccQtb5rF.s 			page 40


 966 0198 DD       		.byte	0xdd
 967 0199 DA000000 		.4byte	0xda
 968 019d 1C       		.byte	0x1c
 969 019e 07       		.uleb128 0x7
 970 019f FD040000 		.4byte	.LASF35
 971 01a3 07       		.byte	0x7
 972 01a4 E1       		.byte	0xe1
 973 01a5 CF000000 		.4byte	0xcf
 974 01a9 1D       		.byte	0x1d
 975 01aa 07       		.uleb128 0x7
 976 01ab 7A060000 		.4byte	.LASF36
 977 01af 07       		.byte	0x7
 978 01b0 E6       		.byte	0xe6
 979 01b1 E5000000 		.4byte	0xe5
 980 01b5 1E       		.byte	0x1e
 981 01b6 08       		.uleb128 0x8
 982 01b7 705F7500 		.ascii	"p_u\000"
 983 01bb 07       		.byte	0x7
 984 01bc 3101     		.2byte	0x131
 985 01be 14050000 		.4byte	0x514
 986 01c2 20       		.byte	0x20
 987 01c3 09       		.uleb128 0x9
 988 01c4 B6030000 		.4byte	.LASF37
 989 01c8 07       		.byte	0x7
 990 01c9 3601     		.2byte	0x136
 991 01cb 30020000 		.4byte	0x230
 992 01cf 24       		.byte	0x24
 993 01d0 09       		.uleb128 0x9
 994 01d1 17020000 		.4byte	.LASF38
 995 01d5 07       		.byte	0x7
 996 01d6 3C01     		.2byte	0x13c
 997 01d8 54020000 		.4byte	0x254
 998 01dc 28       		.byte	0x28
 999 01dd 09       		.uleb128 0x9
 1000 01de D4060000 		.4byte	.LASF39
 1001 01e2 07       		.byte	0x7
 1002 01e3 4001     		.2byte	0x140
 1003 01e5 FB000000 		.4byte	0xfb
 1004 01e9 30       		.byte	0x30
 1005 01ea 09       		.uleb128 0x9
 1006 01eb 4D050000 		.4byte	.LASF40
 1007 01ef 07       		.byte	0x7
 1008 01f0 4601     		.2byte	0x146
 1009 01f2 06010000 		.4byte	0x106
 1010 01f6 34       		.byte	0x34
 1011 01f7 09       		.uleb128 0x9
 1012 01f8 CC040000 		.4byte	.LASF41
 1013 01fc 07       		.byte	0x7
 1014 01fd 4D01     		.2byte	0x14d
 1015 01ff D3050000 		.4byte	0x5d3
 1016 0203 38       		.byte	0x38
 1017 0204 09       		.uleb128 0x9
 1018 0205 EB050000 		.4byte	.LASF42
 1019 0209 07       		.byte	0x7
 1020 020a 5101     		.2byte	0x151
 1021 020c F0000000 		.4byte	0xf0
 1022 0210 3C       		.byte	0x3c
ARM GAS  /tmp/ccQtb5rF.s 			page 41


 1023 0211 09       		.uleb128 0x9
 1024 0212 33010000 		.4byte	.LASF43
 1025 0216 07       		.byte	0x7
 1026 0217 5801     		.2byte	0x158
 1027 0219 07030000 		.4byte	0x307
 1028 021d 40       		.byte	0x40
 1029 021e 00       		.byte	0
 1030 021f 04       		.uleb128 0x4
 1031 0220 C9030000 		.4byte	.LASF44
 1032 0224 06       		.byte	0x6
 1033 0225 44       		.byte	0x44
 1034 0226 2A020000 		.4byte	0x22a
 1035 022a 0A       		.uleb128 0xa
 1036 022b 04       		.byte	0x4
 1037 022c 27010000 		.4byte	0x127
 1038 0230 04       		.uleb128 0x4
 1039 0231 B9060000 		.4byte	.LASF45
 1040 0235 06       		.byte	0x6
 1041 0236 49       		.byte	0x49
 1042 0237 3B020000 		.4byte	0x23b
 1043 023b 06       		.uleb128 0x6
 1044 023c 79050000 		.4byte	.LASF47
 1045 0240 04       		.byte	0x4
 1046 0241 07       		.byte	0x7
 1047 0242 B0       		.byte	0xb0
 1048 0243 54020000 		.4byte	0x254
 1049 0247 07       		.uleb128 0x7
 1050 0248 F6040000 		.4byte	.LASF27
 1051 024c 07       		.byte	0x7
 1052 024d B1       		.byte	0xb1
 1053 024e 2A020000 		.4byte	0x22a
 1054 0252 00       		.byte	0
 1055 0253 00       		.byte	0
 1056 0254 04       		.uleb128 0x4
 1057 0255 61060000 		.4byte	.LASF48
 1058 0259 06       		.byte	0x6
 1059 025a 50       		.byte	0x50
 1060 025b 5F020000 		.4byte	0x25f
 1061 025f 06       		.uleb128 0x6
 1062 0260 D9000000 		.4byte	.LASF49
 1063 0264 08       		.byte	0x8
 1064 0265 07       		.byte	0x7
 1065 0266 B7       		.byte	0xb7
 1066 0267 84020000 		.4byte	0x284
 1067 026b 07       		.uleb128 0x7
 1068 026c F6040000 		.4byte	.LASF27
 1069 0270 07       		.byte	0x7
 1070 0271 B8       		.byte	0xb8
 1071 0272 2A020000 		.4byte	0x22a
 1072 0276 00       		.byte	0
 1073 0277 07       		.uleb128 0x7
 1074 0278 89040000 		.4byte	.LASF28
 1075 027c 07       		.byte	0x7
 1076 027d B9       		.byte	0xb9
 1077 027e 2A020000 		.4byte	0x22a
 1078 0282 04       		.byte	0x4
 1079 0283 00       		.byte	0
ARM GAS  /tmp/ccQtb5rF.s 			page 42


 1080 0284 04       		.uleb128 0x4
 1081 0285 00000000 		.4byte	.LASF50
 1082 0289 06       		.byte	0x6
 1083 028a 57       		.byte	0x57
 1084 028b 8F020000 		.4byte	0x28f
 1085 028f 0B       		.uleb128 0xb
 1086 0290 87020000 		.4byte	.LASF51
 1087 0294 1C       		.byte	0x1c
 1088 0295 07       		.byte	0x7
 1089 0296 9001     		.2byte	0x190
 1090 0298 EB020000 		.4byte	0x2eb
 1091 029c 09       		.uleb128 0x9
 1092 029d 68050000 		.4byte	.LASF52
 1093 02a1 07       		.byte	0x7
 1094 02a2 9101     		.2byte	0x191
 1095 02a4 54020000 		.4byte	0x254
 1096 02a8 00       		.byte	0
 1097 02a9 09       		.uleb128 0x9
 1098 02aa E8040000 		.4byte	.LASF53
 1099 02ae 07       		.byte	0x7
 1100 02af 9201     		.2byte	0x192
 1101 02b1 F0000000 		.4byte	0xf0
 1102 02b5 08       		.byte	0x8
 1103 02b6 09       		.uleb128 0x9
 1104 02b7 24040000 		.4byte	.LASF54
 1105 02bb 07       		.byte	0x7
 1106 02bc 9401     		.2byte	0x194
 1107 02be 5A040000 		.4byte	0x45a
 1108 02c2 0C       		.byte	0xc
 1109 02c3 09       		.uleb128 0x9
 1110 02c4 A5010000 		.4byte	.LASF55
 1111 02c8 07       		.byte	0x7
 1112 02c9 9701     		.2byte	0x197
 1113 02cb 2A020000 		.4byte	0x22a
 1114 02cf 10       		.byte	0x10
 1115 02d0 09       		.uleb128 0x9
 1116 02d1 5E040000 		.4byte	.LASF56
 1117 02d5 07       		.byte	0x7
 1118 02d6 9801     		.2byte	0x198
 1119 02d8 2A020000 		.4byte	0x22a
 1120 02dc 14       		.byte	0x14
 1121 02dd 09       		.uleb128 0x9
 1122 02de 54040000 		.4byte	.LASF57
 1123 02e2 07       		.byte	0x7
 1124 02e3 9B01     		.2byte	0x19b
 1125 02e5 2A020000 		.4byte	0x22a
 1126 02e9 18       		.byte	0x18
 1127 02ea 00       		.byte	0
 1128 02eb 04       		.uleb128 0x4
 1129 02ec F6050000 		.4byte	.LASF58
 1130 02f0 06       		.byte	0x6
 1131 02f1 5C       		.byte	0x5c
 1132 02f2 F6020000 		.4byte	0x2f6
 1133 02f6 0A       		.uleb128 0xa
 1134 02f7 04       		.byte	0x4
 1135 02f8 FC020000 		.4byte	0x2fc
 1136 02fc 0C       		.uleb128 0xc
ARM GAS  /tmp/ccQtb5rF.s 			page 43


 1137 02fd 07030000 		.4byte	0x307
 1138 0301 0D       		.uleb128 0xd
 1139 0302 07030000 		.4byte	0x307
 1140 0306 00       		.byte	0
 1141 0307 0E       		.uleb128 0xe
 1142 0308 04       		.byte	0x4
 1143 0309 04       		.uleb128 0x4
 1144 030a 79040000 		.4byte	.LASF59
 1145 030e 06       		.byte	0x6
 1146 030f 61       		.byte	0x61
 1147 0310 14030000 		.4byte	0x314
 1148 0314 0B       		.uleb128 0xb
 1149 0315 2F050000 		.4byte	.LASF60
 1150 0319 14       		.byte	0x14
 1151 031a 07       		.byte	0x7
 1152 031b 6B01     		.2byte	0x16b
 1153 031d 63030000 		.4byte	0x363
 1154 0321 09       		.uleb128 0x9
 1155 0322 FA010000 		.4byte	.LASF61
 1156 0326 07       		.byte	0x7
 1157 0327 6C01     		.2byte	0x16c
 1158 0329 EB050000 		.4byte	0x5eb
 1159 032d 00       		.byte	0
 1160 032e 09       		.uleb128 0x9
 1161 032f B6010000 		.4byte	.LASF62
 1162 0333 07       		.byte	0x7
 1163 0334 6D01     		.2byte	0x16d
 1164 0336 EB050000 		.4byte	0x5eb
 1165 033a 04       		.byte	0x4
 1166 033b 09       		.uleb128 0x9
 1167 033c 70050000 		.4byte	.LASF63
 1168 0340 07       		.byte	0x7
 1169 0341 6E01     		.2byte	0x16e
 1170 0343 1C010000 		.4byte	0x11c
 1171 0347 08       		.byte	0x8
 1172 0348 09       		.uleb128 0x9
 1173 0349 E8060000 		.4byte	.LASF64
 1174 034d 07       		.byte	0x7
 1175 034e 6F01     		.2byte	0x16f
 1176 0350 EB020000 		.4byte	0x2eb
 1177 0354 0C       		.byte	0xc
 1178 0355 09       		.uleb128 0x9
 1179 0356 3F060000 		.4byte	.LASF65
 1180 035a 07       		.byte	0x7
 1181 035b 7101     		.2byte	0x171
 1182 035d 07030000 		.4byte	0x307
 1183 0361 10       		.byte	0x10
 1184 0362 00       		.byte	0
 1185 0363 04       		.uleb128 0x4
 1186 0364 B6000000 		.4byte	.LASF66
 1187 0368 06       		.byte	0x6
 1188 0369 66       		.byte	0x66
 1189 036a 6E030000 		.4byte	0x36e
 1190 036e 0B       		.uleb128 0xb
 1191 036f E7030000 		.4byte	.LASF67
 1192 0373 10       		.byte	0x10
 1193 0374 07       		.byte	0x7
ARM GAS  /tmp/ccQtb5rF.s 			page 44


 1194 0375 7B01     		.2byte	0x17b
 1195 0377 B0030000 		.4byte	0x3b0
 1196 037b 09       		.uleb128 0x9
 1197 037c FA010000 		.4byte	.LASF61
 1198 0380 07       		.byte	0x7
 1199 0381 7C01     		.2byte	0x17c
 1200 0383 EB050000 		.4byte	0x5eb
 1201 0387 00       		.byte	0
 1202 0388 09       		.uleb128 0x9
 1203 0389 B6010000 		.4byte	.LASF62
 1204 038d 07       		.byte	0x7
 1205 038e 7E01     		.2byte	0x17e
 1206 0390 EB050000 		.4byte	0x5eb
 1207 0394 04       		.byte	0x4
 1208 0395 09       		.uleb128 0x9
 1209 0396 70050000 		.4byte	.LASF63
 1210 039a 07       		.byte	0x7
 1211 039b 8001     		.2byte	0x180
 1212 039d 1C010000 		.4byte	0x11c
 1213 03a1 08       		.byte	0x8
 1214 03a2 09       		.uleb128 0x9
 1215 03a3 10040000 		.4byte	.LASF68
 1216 03a7 07       		.byte	0x7
 1217 03a8 8801     		.2byte	0x188
 1218 03aa 1C010000 		.4byte	0x11c
 1219 03ae 0C       		.byte	0xc
 1220 03af 00       		.byte	0
 1221 03b0 04       		.uleb128 0x4
 1222 03b1 52000000 		.4byte	.LASF69
 1223 03b5 06       		.byte	0x6
 1224 03b6 6B       		.byte	0x6b
 1225 03b7 BB030000 		.4byte	0x3bb
 1226 03bb 0B       		.uleb128 0xb
 1227 03bc 98040000 		.4byte	.LASF70
 1228 03c0 04       		.byte	0x4
 1229 03c1 07       		.byte	0x7
 1230 03c2 A201     		.2byte	0x1a2
 1231 03c4 D6030000 		.4byte	0x3d6
 1232 03c8 09       		.uleb128 0x9
 1233 03c9 18060000 		.4byte	.LASF71
 1234 03cd 07       		.byte	0x7
 1235 03ce AA01     		.2byte	0x1aa
 1236 03d0 F1050000 		.4byte	0x5f1
 1237 03d4 00       		.byte	0
 1238 03d5 00       		.byte	0
 1239 03d6 04       		.uleb128 0x4
 1240 03d7 73020000 		.4byte	.LASF72
 1241 03db 06       		.byte	0x6
 1242 03dc 70       		.byte	0x70
 1243 03dd E1030000 		.4byte	0x3e1
 1244 03e1 0F       		.uleb128 0xf
 1245 03e2 0F050000 		.4byte	.LASF73
 1246 03e6 5001     		.2byte	0x150
 1247 03e8 07       		.byte	0x7
 1248 03e9 C201     		.2byte	0x1c2
 1249 03eb 3D040000 		.4byte	0x43d
 1250 03ef 09       		.uleb128 0x9
ARM GAS  /tmp/ccQtb5rF.s 			page 45


 1251 03f0 81060000 		.4byte	.LASF74
 1252 03f4 07       		.byte	0x7
 1253 03f5 C601     		.2byte	0x1c6
 1254 03f7 84020000 		.4byte	0x284
 1255 03fb 00       		.byte	0
 1256 03fc 09       		.uleb128 0x9
 1257 03fd 43010000 		.4byte	.LASF75
 1258 0401 07       		.byte	0x7
 1259 0402 CA01     		.2byte	0x1ca
 1260 0404 63030000 		.4byte	0x363
 1261 0408 1C       		.byte	0x1c
 1262 0409 08       		.uleb128 0x8
 1263 040a 64626700 		.ascii	"dbg\000"
 1264 040e 07       		.byte	0x7
 1265 040f CE01     		.2byte	0x1ce
 1266 0411 B0030000 		.4byte	0x3b0
 1267 0415 2C       		.byte	0x2c
 1268 0416 09       		.uleb128 0x9
 1269 0417 AB000000 		.4byte	.LASF76
 1270 041b 07       		.byte	0x7
 1271 041c D201     		.2byte	0x1d2
 1272 041e 27010000 		.4byte	0x127
 1273 0422 30       		.byte	0x30
 1274 0423 08       		.uleb128 0x8
 1275 0424 746D00   		.ascii	"tm\000"
 1276 0427 07       		.byte	0x7
 1277 0428 D701     		.2byte	0x1d7
 1278 042a 09050000 		.4byte	0x509
 1279 042e 74       		.byte	0x74
 1280 042f 09       		.uleb128 0x9
 1281 0430 D8010000 		.4byte	.LASF77
 1282 0434 07       		.byte	0x7
 1283 0435 E301     		.2byte	0x1e3
 1284 0437 F6050000 		.4byte	0x5f6
 1285 043b 78       		.byte	0x78
 1286 043c 00       		.byte	0
 1287 043d 03       		.uleb128 0x3
 1288 043e 04       		.byte	0x4
 1289 043f 07       		.byte	0x7
 1290 0440 C0030000 		.4byte	.LASF78
 1291 0444 04       		.uleb128 0x4
 1292 0445 AD010000 		.4byte	.LASF79
 1293 0449 08       		.byte	0x8
 1294 044a 65       		.byte	0x65
 1295 044b 07030000 		.4byte	0x307
 1296 044f 04       		.uleb128 0x4
 1297 0450 AB020000 		.4byte	.LASF80
 1298 0454 08       		.byte	0x8
 1299 0455 6D       		.byte	0x6d
 1300 0456 B4000000 		.4byte	0xb4
 1301 045a 06       		.uleb128 0x6
 1302 045b 3E020000 		.4byte	.LASF81
 1303 045f 04       		.byte	0x4
 1304 0460 08       		.byte	0x8
 1305 0461 89       		.byte	0x89
 1306 0462 73040000 		.4byte	0x473
 1307 0466 10       		.uleb128 0x10
ARM GAS  /tmp/ccQtb5rF.s 			page 46


 1308 0467 72313300 		.ascii	"r13\000"
 1309 046b 08       		.byte	0x8
 1310 046c 8A       		.byte	0x8a
 1311 046d EE040000 		.4byte	0x4ee
 1312 0471 00       		.byte	0
 1313 0472 00       		.byte	0
 1314 0473 06       		.uleb128 0x6
 1315 0474 46000000 		.4byte	.LASF82
 1316 0478 24       		.byte	0x24
 1317 0479 09       		.byte	0x9
 1318 047a F4       		.byte	0xf4
 1319 047b EE040000 		.4byte	0x4ee
 1320 047f 08       		.uleb128 0x8
 1321 0480 723400   		.ascii	"r4\000"
 1322 0483 09       		.byte	0x9
 1323 0484 0701     		.2byte	0x107
 1324 0486 44040000 		.4byte	0x444
 1325 048a 00       		.byte	0
 1326 048b 08       		.uleb128 0x8
 1327 048c 723500   		.ascii	"r5\000"
 1328 048f 09       		.byte	0x9
 1329 0490 0801     		.2byte	0x108
 1330 0492 44040000 		.4byte	0x444
 1331 0496 04       		.byte	0x4
 1332 0497 08       		.uleb128 0x8
 1333 0498 723600   		.ascii	"r6\000"
 1334 049b 09       		.byte	0x9
 1335 049c 0901     		.2byte	0x109
 1336 049e 44040000 		.4byte	0x444
 1337 04a2 08       		.byte	0x8
 1338 04a3 08       		.uleb128 0x8
 1339 04a4 723700   		.ascii	"r7\000"
 1340 04a7 09       		.byte	0x9
 1341 04a8 0A01     		.2byte	0x10a
 1342 04aa 44040000 		.4byte	0x444
 1343 04ae 0C       		.byte	0xc
 1344 04af 08       		.uleb128 0x8
 1345 04b0 723800   		.ascii	"r8\000"
 1346 04b3 09       		.byte	0x9
 1347 04b4 0B01     		.2byte	0x10b
 1348 04b6 44040000 		.4byte	0x444
 1349 04ba 10       		.byte	0x10
 1350 04bb 08       		.uleb128 0x8
 1351 04bc 723900   		.ascii	"r9\000"
 1352 04bf 09       		.byte	0x9
 1353 04c0 0C01     		.2byte	0x10c
 1354 04c2 44040000 		.4byte	0x444
 1355 04c6 14       		.byte	0x14
 1356 04c7 08       		.uleb128 0x8
 1357 04c8 72313000 		.ascii	"r10\000"
 1358 04cc 09       		.byte	0x9
 1359 04cd 0D01     		.2byte	0x10d
 1360 04cf 44040000 		.4byte	0x444
 1361 04d3 18       		.byte	0x18
 1362 04d4 08       		.uleb128 0x8
 1363 04d5 72313100 		.ascii	"r11\000"
 1364 04d9 09       		.byte	0x9
ARM GAS  /tmp/ccQtb5rF.s 			page 47


 1365 04da 0E01     		.2byte	0x10e
 1366 04dc 44040000 		.4byte	0x444
 1367 04e0 1C       		.byte	0x1c
 1368 04e1 08       		.uleb128 0x8
 1369 04e2 6C7200   		.ascii	"lr\000"
 1370 04e5 09       		.byte	0x9
 1371 04e6 0F01     		.2byte	0x10f
 1372 04e8 44040000 		.4byte	0x444
 1373 04ec 20       		.byte	0x20
 1374 04ed 00       		.byte	0
 1375 04ee 0A       		.uleb128 0xa
 1376 04ef 04       		.byte	0x4
 1377 04f0 73040000 		.4byte	0x473
 1378 04f4 11       		.uleb128 0x11
 1379 04f5 04       		.byte	0x4
 1380 04f6 0A       		.byte	0xa
 1381 04f7 38       		.byte	0x38
 1382 04f8 09050000 		.4byte	0x509
 1383 04fc 07       		.uleb128 0x7
 1384 04fd 22060000 		.4byte	.LASF83
 1385 0501 0A       		.byte	0xa
 1386 0502 3C       		.byte	0x3c
 1387 0503 C4000000 		.4byte	0xc4
 1388 0507 00       		.byte	0
 1389 0508 00       		.byte	0
 1390 0509 04       		.uleb128 0x4
 1391 050a 38040000 		.4byte	.LASF84
 1392 050e 0A       		.byte	0xa
 1393 050f 3D       		.byte	0x3d
 1394 0510 F4040000 		.4byte	0x4f4
 1395 0514 12       		.uleb128 0x12
 1396 0515 04       		.byte	0x4
 1397 0516 07       		.byte	0x7
 1398 0517 FA       		.byte	0xfa
 1399 0518 71050000 		.4byte	0x571
 1400 051c 13       		.uleb128 0x13
 1401 051d 13000000 		.4byte	.LASF85
 1402 0521 07       		.byte	0x7
 1403 0522 0101     		.2byte	0x101
 1404 0524 FB000000 		.4byte	0xfb
 1405 0528 13       		.uleb128 0x13
 1406 0529 A2000000 		.4byte	.LASF86
 1407 052d 07       		.byte	0x7
 1408 052e 0801     		.2byte	0x108
 1409 0530 FB000000 		.4byte	0xfb
 1410 0534 13       		.uleb128 0x13
 1411 0535 9D060000 		.4byte	.LASF87
 1412 0539 07       		.byte	0x7
 1413 053a 0F01     		.2byte	0x10f
 1414 053c 07030000 		.4byte	0x307
 1415 0540 13       		.uleb128 0x13
 1416 0541 0D000000 		.4byte	.LASF88
 1417 0545 07       		.byte	0x7
 1418 0546 1601     		.2byte	0x116
 1419 0548 71050000 		.4byte	0x571
 1420 054c 13       		.uleb128 0x13
 1421 054d 10020000 		.4byte	.LASF89
ARM GAS  /tmp/ccQtb5rF.s 			page 48


 1422 0551 07       		.byte	0x7
 1423 0552 1E01     		.2byte	0x11e
 1424 0554 9C050000 		.4byte	0x59c
 1425 0558 13       		.uleb128 0x13
 1426 0559 61050000 		.4byte	.LASF90
 1427 055d 07       		.byte	0x7
 1428 055e 2701     		.2byte	0x127
 1429 0560 D3050000 		.4byte	0x5d3
 1430 0564 13       		.uleb128 0x13
 1431 0565 EF040000 		.4byte	.LASF91
 1432 0569 07       		.byte	0x7
 1433 056a 2F01     		.2byte	0x12f
 1434 056c 06010000 		.4byte	0x106
 1435 0570 00       		.byte	0
 1436 0571 0A       		.uleb128 0xa
 1437 0572 04       		.byte	0x4
 1438 0573 1F020000 		.4byte	0x21f
 1439 0577 06       		.uleb128 0x6
 1440 0578 40050000 		.4byte	.LASF92
 1441 057c 0C       		.byte	0xc
 1442 057d 0B       		.byte	0xb
 1443 057e 34       		.byte	0x34
 1444 057f 9C050000 		.4byte	0x59c
 1445 0583 07       		.uleb128 0x7
 1446 0584 8C010000 		.4byte	.LASF93
 1447 0588 0B       		.byte	0xb
 1448 0589 35       		.byte	0x35
 1449 058a 54020000 		.4byte	0x254
 1450 058e 00       		.byte	0
 1451 058f 07       		.uleb128 0x7
 1452 0590 38020000 		.4byte	.LASF94
 1453 0594 0B       		.byte	0xb
 1454 0595 37       		.byte	0x37
 1455 0596 11010000 		.4byte	0x111
 1456 059a 08       		.byte	0x8
 1457 059b 00       		.byte	0
 1458 059c 0A       		.uleb128 0xa
 1459 059d 04       		.byte	0x4
 1460 059e 77050000 		.4byte	0x577
 1461 05a2 06       		.uleb128 0x6
 1462 05a3 71060000 		.4byte	.LASF95
 1463 05a7 10       		.byte	0x10
 1464 05a8 0C       		.byte	0xc
 1465 05a9 39       		.byte	0x39
 1466 05aa D3050000 		.4byte	0x5d3
 1467 05ae 07       		.uleb128 0x7
 1468 05af 3B010000 		.4byte	.LASF96
 1469 05b3 0C       		.byte	0xc
 1470 05b4 3A       		.byte	0x3a
 1471 05b5 54020000 		.4byte	0x254
 1472 05b9 00       		.byte	0
 1473 05ba 07       		.uleb128 0x7
 1474 05bb DA060000 		.4byte	.LASF97
 1475 05bf 0C       		.byte	0xc
 1476 05c0 3C       		.byte	0x3c
 1477 05c1 2A020000 		.4byte	0x22a
 1478 05c5 08       		.byte	0x8
ARM GAS  /tmp/ccQtb5rF.s 			page 49


 1479 05c6 07       		.uleb128 0x7
 1480 05c7 DA050000 		.4byte	.LASF98
 1481 05cb 0C       		.byte	0xc
 1482 05cc 3E       		.byte	0x3e
 1483 05cd 11060000 		.4byte	0x611
 1484 05d1 0C       		.byte	0xc
 1485 05d2 00       		.byte	0
 1486 05d3 0A       		.uleb128 0xa
 1487 05d4 04       		.byte	0x4
 1488 05d5 A2050000 		.4byte	0x5a2
 1489 05d9 0A       		.uleb128 0xa
 1490 05da 04       		.byte	0x4
 1491 05db DF050000 		.4byte	0x5df
 1492 05df 14       		.uleb128 0x14
 1493 05e0 E4050000 		.4byte	0x5e4
 1494 05e4 03       		.uleb128 0x3
 1495 05e5 01       		.byte	0x1
 1496 05e6 08       		.byte	0x8
 1497 05e7 A4050000 		.4byte	.LASF99
 1498 05eb 0A       		.uleb128 0xa
 1499 05ec 04       		.byte	0x4
 1500 05ed 09030000 		.4byte	0x309
 1501 05f1 05       		.uleb128 0x5
 1502 05f2 D9050000 		.4byte	0x5d9
 1503 05f6 15       		.uleb128 0x15
 1504 05f7 4F040000 		.4byte	0x44f
 1505 05fb 06060000 		.4byte	0x606
 1506 05ff 16       		.uleb128 0x16
 1507 0600 3D040000 		.4byte	0x43d
 1508 0604 1A       		.byte	0x1a
 1509 0605 00       		.byte	0
 1510 0606 04       		.uleb128 0x4
 1511 0607 CA010000 		.4byte	.LASF100
 1512 060b 0C       		.byte	0xc
 1513 060c 34       		.byte	0x34
 1514 060d A2050000 		.4byte	0x5a2
 1515 0611 0A       		.uleb128 0xa
 1516 0612 04       		.byte	0x4
 1517 0613 06060000 		.4byte	0x606
 1518 0617 03       		.uleb128 0x3
 1519 0618 01       		.byte	0x1
 1520 0619 02       		.byte	0x2
 1521 061a A8040000 		.4byte	.LASF101
 1522 061e 17       		.uleb128 0x17
 1523 061f 01       		.byte	0x1
 1524 0620 0D       		.byte	0xd
 1525 0621 3F       		.byte	0x3f
 1526 0622 39060000 		.4byte	0x639
 1527 0626 18       		.uleb128 0x18
 1528 0627 49040000 		.4byte	.LASF102
 1529 062b 00       		.sleb128 0
 1530 062c 18       		.uleb128 0x18
 1531 062d 9B050000 		.4byte	.LASF103
 1532 0631 01       		.sleb128 1
 1533 0632 18       		.uleb128 0x18
 1534 0633 CD020000 		.4byte	.LASF104
 1535 0637 02       		.sleb128 2
ARM GAS  /tmp/ccQtb5rF.s 			page 50


 1536 0638 00       		.byte	0
 1537 0639 04       		.uleb128 0x4
 1538 063a DC030000 		.4byte	.LASF105
 1539 063e 0D       		.byte	0xd
 1540 063f 43       		.byte	0x43
 1541 0640 1E060000 		.4byte	0x61e
 1542 0644 04       		.uleb128 0x4
 1543 0645 57060000 		.4byte	.LASF106
 1544 0649 0D       		.byte	0xd
 1545 064a 48       		.byte	0x48
 1546 064b 4F060000 		.4byte	0x64f
 1547 064f 06       		.uleb128 0x6
 1548 0650 57060000 		.4byte	.LASF106
 1549 0654 08       		.byte	0x8
 1550 0655 0E       		.byte	0xe
 1551 0656 71       		.byte	0x71
 1552 0657 74060000 		.4byte	0x674
 1553 065b 07       		.uleb128 0x7
 1554 065c 63010000 		.4byte	.LASF107
 1555 0660 0E       		.byte	0xe
 1556 0661 75       		.byte	0x75
 1557 0662 39060000 		.4byte	0x639
 1558 0666 00       		.byte	0
 1559 0667 07       		.uleb128 0x7
 1560 0668 AE050000 		.4byte	.LASF108
 1561 066c 0E       		.byte	0xe
 1562 066d 79       		.byte	0x79
 1563 066e 01070000 		.4byte	0x701
 1564 0672 04       		.byte	0x4
 1565 0673 00       		.byte	0
 1566 0674 04       		.uleb128 0x4
 1567 0675 39000000 		.4byte	.LASF109
 1568 0679 0E       		.byte	0xe
 1569 067a 47       		.byte	0x47
 1570 067b A9000000 		.4byte	0xa9
 1571 067f 04       		.uleb128 0x4
 1572 0680 B5050000 		.4byte	.LASF110
 1573 0684 0E       		.byte	0xe
 1574 0685 4F       		.byte	0x4f
 1575 0686 8A060000 		.4byte	0x68a
 1576 068a 0A       		.uleb128 0xa
 1577 068b 04       		.byte	0x4
 1578 068c 90060000 		.4byte	0x690
 1579 0690 0C       		.uleb128 0xc
 1580 0691 A0060000 		.4byte	0x6a0
 1581 0695 0D       		.uleb128 0xd
 1582 0696 A0060000 		.4byte	0x6a0
 1583 069a 0D       		.uleb128 0xd
 1584 069b 74060000 		.4byte	0x674
 1585 069f 00       		.byte	0
 1586 06a0 0A       		.uleb128 0xa
 1587 06a1 04       		.byte	0x4
 1588 06a2 44060000 		.4byte	0x644
 1589 06a6 11       		.uleb128 0x11
 1590 06a7 08       		.byte	0x8
 1591 06a8 0E       		.byte	0xe
 1592 06a9 54       		.byte	0x54
ARM GAS  /tmp/ccQtb5rF.s 			page 51


 1593 06aa C6060000 		.4byte	0x6c6
 1594 06ae 07       		.uleb128 0x7
 1595 06af A9050000 		.4byte	.LASF111
 1596 06b3 0E       		.byte	0xe
 1597 06b4 58       		.byte	0x58
 1598 06b5 A9000000 		.4byte	0xa9
 1599 06b9 00       		.byte	0
 1600 06ba 10       		.uleb128 0x10
 1601 06bb 636200   		.ascii	"cb\000"
 1602 06be 0E       		.byte	0xe
 1603 06bf 5F       		.byte	0x5f
 1604 06c0 7F060000 		.4byte	0x67f
 1605 06c4 04       		.byte	0x4
 1606 06c5 00       		.byte	0
 1607 06c6 04       		.uleb128 0x4
 1608 06c7 94010000 		.4byte	.LASF112
 1609 06cb 0E       		.byte	0xe
 1610 06cc 60       		.byte	0x60
 1611 06cd A6060000 		.4byte	0x6a6
 1612 06d1 11       		.uleb128 0x11
 1613 06d2 B8       		.byte	0xb8
 1614 06d3 0E       		.byte	0xe
 1615 06d4 66       		.byte	0x66
 1616 06d5 E6060000 		.4byte	0x6e6
 1617 06d9 07       		.uleb128 0x7
 1618 06da 69010000 		.4byte	.LASF113
 1619 06de 0E       		.byte	0xe
 1620 06df 6A       		.byte	0x6a
 1621 06e0 E6060000 		.4byte	0x6e6
 1622 06e4 00       		.byte	0
 1623 06e5 00       		.byte	0
 1624 06e6 15       		.uleb128 0x15
 1625 06e7 C6060000 		.4byte	0x6c6
 1626 06eb F6060000 		.4byte	0x6f6
 1627 06ef 16       		.uleb128 0x16
 1628 06f0 3D040000 		.4byte	0x43d
 1629 06f4 16       		.byte	0x16
 1630 06f5 00       		.byte	0
 1631 06f6 04       		.uleb128 0x4
 1632 06f7 63020000 		.4byte	.LASF114
 1633 06fb 0E       		.byte	0xe
 1634 06fc 6C       		.byte	0x6c
 1635 06fd D1060000 		.4byte	0x6d1
 1636 0701 0A       		.uleb128 0xa
 1637 0702 04       		.byte	0x4
 1638 0703 07070000 		.4byte	0x707
 1639 0707 14       		.uleb128 0x14
 1640 0708 F6060000 		.4byte	0x6f6
 1641 070c 19       		.uleb128 0x19
 1642 070d 0A060000 		.4byte	.LASF118
 1643 0711 02       		.byte	0x2
 1644 0712 2002     		.2byte	0x220
 1645 0714 03       		.byte	0x3
 1646 0715 26070000 		.4byte	0x726
 1647 0719 1A       		.uleb128 0x1a
 1648 071a D2010000 		.4byte	.LASF143
 1649 071e 02       		.byte	0x2
ARM GAS  /tmp/ccQtb5rF.s 			page 52


 1650 071f 2002     		.2byte	0x220
 1651 0721 A9000000 		.4byte	0xa9
 1652 0725 00       		.byte	0
 1653 0726 1B       		.uleb128 0x1b
 1654 0727 61000000 		.4byte	.LASF115
 1655 072b 09       		.byte	0x9
 1656 072c BC01     		.2byte	0x1bc
 1657 072e 03       		.byte	0x3
 1658 072f 1B       		.uleb128 0x1b
 1659 0730 4A010000 		.4byte	.LASF116
 1660 0734 09       		.byte	0x9
 1661 0735 CA01     		.2byte	0x1ca
 1662 0737 03       		.byte	0x3
 1663 0738 1B       		.uleb128 0x1b
 1664 0739 05050000 		.4byte	.LASF117
 1665 073d 0F       		.byte	0xf
 1666 073e 5A01     		.2byte	0x15a
 1667 0740 03       		.byte	0x3
 1668 0741 19       		.uleb128 0x19
 1669 0742 C8060000 		.4byte	.LASF119
 1670 0746 0F       		.byte	0xf
 1671 0747 6601     		.2byte	0x166
 1672 0749 03       		.byte	0x3
 1673 074a 5C070000 		.4byte	0x75c
 1674 074e 1C       		.uleb128 0x1c
 1675 074f 02020000 		.4byte	.LASF144
 1676 0753 6C070000 		.4byte	0x76c
 1677 0757 C8060000 		.4byte	.LASF119
 1678 075b 00       		.byte	0
 1679 075c 15       		.uleb128 0x15
 1680 075d E4050000 		.4byte	0x5e4
 1681 0761 6C070000 		.4byte	0x76c
 1682 0765 16       		.uleb128 0x16
 1683 0766 3D040000 		.4byte	0x43d
 1684 076a 0B       		.byte	0xb
 1685 076b 00       		.byte	0
 1686 076c 14       		.uleb128 0x14
 1687 076d 5C070000 		.4byte	0x75c
 1688 0771 1B       		.uleb128 0x1b
 1689 0772 BE010000 		.4byte	.LASF120
 1690 0776 10       		.byte	0x10
 1691 0777 EB01     		.2byte	0x1eb
 1692 0779 03       		.byte	0x3
 1693 077a 1B       		.uleb128 0x1b
 1694 077b 19050000 		.4byte	.LASF121
 1695 077f 10       		.byte	0x10
 1696 0780 F601     		.2byte	0x1f6
 1697 0782 03       		.byte	0x3
 1698 0783 1D       		.uleb128 0x1d
 1699 0784 C4040000 		.4byte	.LASF122
 1700 0788 01       		.byte	0x1
 1701 0789 38       		.byte	0x38
 1702 078a 00000000 		.4byte	.LFB260
 1703 078e 04000000 		.4byte	.LFE260-.LFB260
 1704 0792 01       		.uleb128 0x1
 1705 0793 9C       		.byte	0x9c
 1706 0794 A2070000 		.4byte	0x7a2
ARM GAS  /tmp/ccQtb5rF.s 			page 53


 1707 0798 1E       		.uleb128 0x1e
 1708 0799 04000000 		.4byte	.LVL0
 1709 079d A20C0000 		.4byte	0xca2
 1710 07a1 00       		.byte	0
 1711 07a2 1D       		.uleb128 0x1d
 1712 07a3 25010000 		.4byte	.LASF123
 1713 07a7 01       		.byte	0x1
 1714 07a8 44       		.byte	0x44
 1715 07a9 00000000 		.4byte	.LFB261
 1716 07ad 0A000000 		.4byte	.LFE261-.LFB261
 1717 07b1 01       		.uleb128 0x1
 1718 07b2 9C       		.byte	0x9c
 1719 07b3 C5070000 		.4byte	0x7c5
 1720 07b7 1F       		.uleb128 0x1f
 1721 07b8 20010000 		.4byte	.LASF125
 1722 07bc 01       		.byte	0x1
 1723 07bd 44       		.byte	0x44
 1724 07be A0060000 		.4byte	0x6a0
 1725 07c2 01       		.uleb128 0x1
 1726 07c3 50       		.byte	0x50
 1727 07c4 00       		.byte	0
 1728 07c5 1D       		.uleb128 0x1d
 1729 07c6 09010000 		.4byte	.LASF124
 1730 07ca 01       		.byte	0x1
 1731 07cb 54       		.byte	0x54
 1732 07cc 00000000 		.4byte	.LFB262
 1733 07d0 1C000000 		.4byte	.LFE262-.LFB262
 1734 07d4 01       		.uleb128 0x1
 1735 07d5 9C       		.byte	0x9c
 1736 07d6 BB080000 		.4byte	0x8bb
 1737 07da 20       		.uleb128 0x20
 1738 07db 20010000 		.4byte	.LASF125
 1739 07df 01       		.byte	0x1
 1740 07e0 54       		.byte	0x54
 1741 07e1 A0060000 		.4byte	0x6a0
 1742 07e5 00000000 		.4byte	.LLST0
 1743 07e9 20       		.uleb128 0x20
 1744 07ea AE050000 		.4byte	.LASF108
 1745 07ee 01       		.byte	0x1
 1746 07ef 54       		.byte	0x54
 1747 07f0 01070000 		.4byte	0x701
 1748 07f4 1E000000 		.4byte	.LLST1
 1749 07f8 21       		.uleb128 0x21
 1750 07f9 2A040000 		.4byte	.LASF127
 1751 07fd CB080000 		.4byte	0x8cb
 1752 0801 22       		.uleb128 0x22
 1753 0802 71070000 		.4byte	0x771
 1754 0806 02000000 		.4byte	.LBB76
 1755 080a 00000000 		.4byte	.Ldebug_ranges0+0
 1756 080e 01       		.byte	0x1
 1757 080f 58       		.byte	0x58
 1758 0810 4E080000 		.4byte	0x84e
 1759 0814 23       		.uleb128 0x23
 1760 0815 38070000 		.4byte	0x738
 1761 0819 02000000 		.4byte	.LBB77
 1762 081d 00000000 		.4byte	.Ldebug_ranges0+0
 1763 0821 10       		.byte	0x10
ARM GAS  /tmp/ccQtb5rF.s 			page 54


 1764 0822 ED01     		.2byte	0x1ed
 1765 0824 23       		.uleb128 0x23
 1766 0825 26070000 		.4byte	0x726
 1767 0829 02000000 		.4byte	.LBB78
 1768 082d 00000000 		.4byte	.Ldebug_ranges0+0
 1769 0831 0F       		.byte	0xf
 1770 0832 5C01     		.2byte	0x15c
 1771 0834 23       		.uleb128 0x23
 1772 0835 0C070000 		.4byte	0x70c
 1773 0839 02000000 		.4byte	.LBB79
 1774 083d 00000000 		.4byte	.Ldebug_ranges0+0
 1775 0841 09       		.byte	0x9
 1776 0842 BF01     		.2byte	0x1bf
 1777 0844 24       		.uleb128 0x24
 1778 0845 19070000 		.4byte	0x719
 1779 0849 20       		.byte	0x20
 1780 084a 00       		.byte	0
 1781 084b 00       		.byte	0
 1782 084c 00       		.byte	0
 1783 084d 00       		.byte	0
 1784 084e 25       		.uleb128 0x25
 1785 084f 7A070000 		.4byte	0x77a
 1786 0853 14000000 		.4byte	.LBB86
 1787 0857 08000000 		.4byte	.LBE86-.LBB86
 1788 085b 01       		.byte	0x1
 1789 085c 5E       		.byte	0x5e
 1790 085d AA080000 		.4byte	0x8aa
 1791 0861 26       		.uleb128 0x26
 1792 0862 41070000 		.4byte	0x741
 1793 0866 14000000 		.4byte	.LBB87
 1794 086a 08000000 		.4byte	.LBE87-.LBB87
 1795 086e 10       		.byte	0x10
 1796 086f F801     		.2byte	0x1f8
 1797 0871 27       		.uleb128 0x27
 1798 0872 14000000 		.4byte	.LBB88
 1799 0876 08000000 		.4byte	.LBE88-.LBB88
 1800 087a 28       		.uleb128 0x28
 1801 087b 4E070000 		.4byte	0x74e
 1802 087f 26       		.uleb128 0x26
 1803 0880 2F070000 		.4byte	0x72f
 1804 0884 14000000 		.4byte	.LBB89
 1805 0888 08000000 		.4byte	.LBE89-.LBB89
 1806 088c 0F       		.byte	0xf
 1807 088d 7301     		.2byte	0x173
 1808 088f 26       		.uleb128 0x26
 1809 0890 0C070000 		.4byte	0x70c
 1810 0894 14000000 		.4byte	.LBB90
 1811 0898 08000000 		.4byte	.LBE90-.LBB90
 1812 089c 09       		.byte	0x9
 1813 089d CD01     		.2byte	0x1cd
 1814 089f 24       		.uleb128 0x24
 1815 08a0 19070000 		.4byte	0x719
 1816 08a4 00       		.byte	0
 1817 08a5 00       		.byte	0
 1818 08a6 00       		.byte	0
 1819 08a7 00       		.byte	0
 1820 08a8 00       		.byte	0
ARM GAS  /tmp/ccQtb5rF.s 			page 55


 1821 08a9 00       		.byte	0
 1822 08aa 29       		.uleb128 0x29
 1823 08ab 10000000 		.4byte	.LVL3
 1824 08af A90C0000 		.4byte	0xca9
 1825 08b3 2A       		.uleb128 0x2a
 1826 08b4 01       		.uleb128 0x1
 1827 08b5 50       		.byte	0x50
 1828 08b6 02       		.uleb128 0x2
 1829 08b7 74       		.byte	0x74
 1830 08b8 00       		.sleb128 0
 1831 08b9 00       		.byte	0
 1832 08ba 00       		.byte	0
 1833 08bb 15       		.uleb128 0x15
 1834 08bc E4050000 		.4byte	0x5e4
 1835 08c0 CB080000 		.4byte	0x8cb
 1836 08c4 16       		.uleb128 0x16
 1837 08c5 3D040000 		.4byte	0x43d
 1838 08c9 08       		.byte	0x8
 1839 08ca 00       		.byte	0
 1840 08cb 14       		.uleb128 0x14
 1841 08cc BB080000 		.4byte	0x8bb
 1842 08d0 1D       		.uleb128 0x1d
 1843 08d1 22020000 		.4byte	.LASF126
 1844 08d5 01       		.byte	0x1
 1845 08d6 68       		.byte	0x68
 1846 08d7 00000000 		.4byte	.LFB263
 1847 08db 1A000000 		.4byte	.LFE263-.LFB263
 1848 08df 01       		.uleb128 0x1
 1849 08e0 9C       		.byte	0x9c
 1850 08e1 B7090000 		.4byte	0x9b7
 1851 08e5 20       		.uleb128 0x20
 1852 08e6 20010000 		.4byte	.LASF125
 1853 08ea 01       		.byte	0x1
 1854 08eb 68       		.byte	0x68
 1855 08ec A0060000 		.4byte	0x6a0
 1856 08f0 3F000000 		.4byte	.LLST2
 1857 08f4 21       		.uleb128 0x21
 1858 08f5 CC050000 		.4byte	.LASF128
 1859 08f9 C7090000 		.4byte	0x9c7
 1860 08fd 22       		.uleb128 0x22
 1861 08fe 71070000 		.4byte	0x771
 1862 0902 02000000 		.4byte	.LBB92
 1863 0906 18000000 		.4byte	.Ldebug_ranges0+0x18
 1864 090a 01       		.byte	0x1
 1865 090b 6C       		.byte	0x6c
 1866 090c 4A090000 		.4byte	0x94a
 1867 0910 23       		.uleb128 0x23
 1868 0911 38070000 		.4byte	0x738
 1869 0915 02000000 		.4byte	.LBB93
 1870 0919 18000000 		.4byte	.Ldebug_ranges0+0x18
 1871 091d 10       		.byte	0x10
 1872 091e ED01     		.2byte	0x1ed
 1873 0920 23       		.uleb128 0x23
 1874 0921 26070000 		.4byte	0x726
 1875 0925 02000000 		.4byte	.LBB94
 1876 0929 18000000 		.4byte	.Ldebug_ranges0+0x18
 1877 092d 0F       		.byte	0xf
ARM GAS  /tmp/ccQtb5rF.s 			page 56


 1878 092e 5C01     		.2byte	0x15c
 1879 0930 23       		.uleb128 0x23
 1880 0931 0C070000 		.4byte	0x70c
 1881 0935 02000000 		.4byte	.LBB95
 1882 0939 18000000 		.4byte	.Ldebug_ranges0+0x18
 1883 093d 09       		.byte	0x9
 1884 093e BF01     		.2byte	0x1bf
 1885 0940 24       		.uleb128 0x24
 1886 0941 19070000 		.4byte	0x719
 1887 0945 20       		.byte	0x20
 1888 0946 00       		.byte	0
 1889 0947 00       		.byte	0
 1890 0948 00       		.byte	0
 1891 0949 00       		.byte	0
 1892 094a 25       		.uleb128 0x25
 1893 094b 7A070000 		.4byte	0x77a
 1894 094f 12000000 		.4byte	.LBB102
 1895 0953 08000000 		.4byte	.LBE102-.LBB102
 1896 0957 01       		.byte	0x1
 1897 0958 71       		.byte	0x71
 1898 0959 A6090000 		.4byte	0x9a6
 1899 095d 26       		.uleb128 0x26
 1900 095e 41070000 		.4byte	0x741
 1901 0962 12000000 		.4byte	.LBB103
 1902 0966 08000000 		.4byte	.LBE103-.LBB103
 1903 096a 10       		.byte	0x10
 1904 096b F801     		.2byte	0x1f8
 1905 096d 27       		.uleb128 0x27
 1906 096e 12000000 		.4byte	.LBB104
 1907 0972 08000000 		.4byte	.LBE104-.LBB104
 1908 0976 28       		.uleb128 0x28
 1909 0977 4E070000 		.4byte	0x74e
 1910 097b 26       		.uleb128 0x26
 1911 097c 2F070000 		.4byte	0x72f
 1912 0980 12000000 		.4byte	.LBB105
 1913 0984 08000000 		.4byte	.LBE105-.LBB105
 1914 0988 0F       		.byte	0xf
 1915 0989 7301     		.2byte	0x173
 1916 098b 26       		.uleb128 0x26
 1917 098c 0C070000 		.4byte	0x70c
 1918 0990 12000000 		.4byte	.LBB106
 1919 0994 08000000 		.4byte	.LBE106-.LBB106
 1920 0998 09       		.byte	0x9
 1921 0999 CD01     		.2byte	0x1cd
 1922 099b 24       		.uleb128 0x24
 1923 099c 19070000 		.4byte	0x719
 1924 09a0 00       		.byte	0
 1925 09a1 00       		.byte	0
 1926 09a2 00       		.byte	0
 1927 09a3 00       		.byte	0
 1928 09a4 00       		.byte	0
 1929 09a5 00       		.byte	0
 1930 09a6 29       		.uleb128 0x29
 1931 09a7 0E000000 		.4byte	.LVL6
 1932 09ab BA0C0000 		.4byte	0xcba
 1933 09af 2A       		.uleb128 0x2a
 1934 09b0 01       		.uleb128 0x1
ARM GAS  /tmp/ccQtb5rF.s 			page 57


 1935 09b1 50       		.byte	0x50
 1936 09b2 02       		.uleb128 0x2
 1937 09b3 74       		.byte	0x74
 1938 09b4 00       		.sleb128 0
 1939 09b5 00       		.byte	0
 1940 09b6 00       		.byte	0
 1941 09b7 15       		.uleb128 0x15
 1942 09b8 E4050000 		.4byte	0x5e4
 1943 09bc C7090000 		.4byte	0x9c7
 1944 09c0 16       		.uleb128 0x16
 1945 09c1 3D040000 		.4byte	0x43d
 1946 09c5 07       		.byte	0x7
 1947 09c6 00       		.byte	0
 1948 09c7 14       		.uleb128 0x14
 1949 09c8 B7090000 		.4byte	0x9b7
 1950 09cc 1D       		.uleb128 0x1d
 1951 09cd 46060000 		.4byte	.LASF129
 1952 09d1 01       		.byte	0x1
 1953 09d2 7D       		.byte	0x7d
 1954 09d3 00000000 		.4byte	.LFB264
 1955 09d7 14000000 		.4byte	.LFE264-.LFB264
 1956 09db 01       		.uleb128 0x1
 1957 09dc 9C       		.byte	0x9c
 1958 09dd CA0A0000 		.4byte	0xaca
 1959 09e1 20       		.uleb128 0x20
 1960 09e2 20010000 		.4byte	.LASF125
 1961 09e6 01       		.byte	0x1
 1962 09e7 7D       		.byte	0x7d
 1963 09e8 A0060000 		.4byte	0x6a0
 1964 09ec 5D000000 		.4byte	.LLST3
 1965 09f0 20       		.uleb128 0x20
 1966 09f1 27050000 		.4byte	.LASF130
 1967 09f5 01       		.byte	0x1
 1968 09f6 7D       		.byte	0x7d
 1969 09f7 74060000 		.4byte	0x674
 1970 09fb 7E000000 		.4byte	.LLST4
 1971 09ff 21       		.uleb128 0x21
 1972 0a00 31060000 		.4byte	.LASF131
 1973 0a04 DA0A0000 		.4byte	0xada
 1974 0a08 25       		.uleb128 0x25
 1975 0a09 71070000 		.4byte	0x771
 1976 0a0d 02000000 		.4byte	.LBB108
 1977 0a11 06000000 		.4byte	.LBE108-.LBB108
 1978 0a15 01       		.byte	0x1
 1979 0a16 81       		.byte	0x81
 1980 0a17 550A0000 		.4byte	0xa55
 1981 0a1b 26       		.uleb128 0x26
 1982 0a1c 38070000 		.4byte	0x738
 1983 0a20 02000000 		.4byte	.LBB109
 1984 0a24 06000000 		.4byte	.LBE109-.LBB109
 1985 0a28 10       		.byte	0x10
 1986 0a29 ED01     		.2byte	0x1ed
 1987 0a2b 26       		.uleb128 0x26
 1988 0a2c 26070000 		.4byte	0x726
 1989 0a30 02000000 		.4byte	.LBB110
 1990 0a34 06000000 		.4byte	.LBE110-.LBB110
 1991 0a38 0F       		.byte	0xf
ARM GAS  /tmp/ccQtb5rF.s 			page 58


 1992 0a39 5C01     		.2byte	0x15c
 1993 0a3b 26       		.uleb128 0x26
 1994 0a3c 0C070000 		.4byte	0x70c
 1995 0a40 02000000 		.4byte	.LBB111
 1996 0a44 06000000 		.4byte	.LBE111-.LBB111
 1997 0a48 09       		.byte	0x9
 1998 0a49 BF01     		.2byte	0x1bf
 1999 0a4b 24       		.uleb128 0x24
 2000 0a4c 19070000 		.4byte	0x719
 2001 0a50 20       		.byte	0x20
 2002 0a51 00       		.byte	0
 2003 0a52 00       		.byte	0
 2004 0a53 00       		.byte	0
 2005 0a54 00       		.byte	0
 2006 0a55 25       		.uleb128 0x25
 2007 0a56 7A070000 		.4byte	0x77a
 2008 0a5a 0C000000 		.4byte	.LBB113
 2009 0a5e 08000000 		.4byte	.LBE113-.LBB113
 2010 0a62 01       		.byte	0x1
 2011 0a63 87       		.byte	0x87
 2012 0a64 B10A0000 		.4byte	0xab1
 2013 0a68 26       		.uleb128 0x26
 2014 0a69 41070000 		.4byte	0x741
 2015 0a6d 0C000000 		.4byte	.LBB114
 2016 0a71 08000000 		.4byte	.LBE114-.LBB114
 2017 0a75 10       		.byte	0x10
 2018 0a76 F801     		.2byte	0x1f8
 2019 0a78 27       		.uleb128 0x27
 2020 0a79 0C000000 		.4byte	.LBB115
 2021 0a7d 08000000 		.4byte	.LBE115-.LBB115
 2022 0a81 28       		.uleb128 0x28
 2023 0a82 4E070000 		.4byte	0x74e
 2024 0a86 26       		.uleb128 0x26
 2025 0a87 2F070000 		.4byte	0x72f
 2026 0a8b 0C000000 		.4byte	.LBB116
 2027 0a8f 08000000 		.4byte	.LBE116-.LBB116
 2028 0a93 0F       		.byte	0xf
 2029 0a94 7301     		.2byte	0x173
 2030 0a96 26       		.uleb128 0x26
 2031 0a97 0C070000 		.4byte	0x70c
 2032 0a9b 0C000000 		.4byte	.LBB117
 2033 0a9f 08000000 		.4byte	.LBE117-.LBB117
 2034 0aa3 09       		.byte	0x9
 2035 0aa4 CD01     		.2byte	0x1cd
 2036 0aa6 24       		.uleb128 0x24
 2037 0aa7 19070000 		.4byte	0x719
 2038 0aab 00       		.byte	0
 2039 0aac 00       		.byte	0
 2040 0aad 00       		.byte	0
 2041 0aae 00       		.byte	0
 2042 0aaf 00       		.byte	0
 2043 0ab0 00       		.byte	0
 2044 0ab1 29       		.uleb128 0x29
 2045 0ab2 0C000000 		.4byte	.LVL9
 2046 0ab6 CB0C0000 		.4byte	0xccb
 2047 0aba 2A       		.uleb128 0x2a
 2048 0abb 01       		.uleb128 0x1
ARM GAS  /tmp/ccQtb5rF.s 			page 59


 2049 0abc 51       		.byte	0x51
 2050 0abd 03       		.uleb128 0x3
 2051 0abe F3       		.byte	0xf3
 2052 0abf 01       		.uleb128 0x1
 2053 0ac0 51       		.byte	0x51
 2054 0ac1 2A       		.uleb128 0x2a
 2055 0ac2 01       		.uleb128 0x1
 2056 0ac3 50       		.byte	0x50
 2057 0ac4 03       		.uleb128 0x3
 2058 0ac5 F3       		.byte	0xf3
 2059 0ac6 01       		.uleb128 0x1
 2060 0ac7 50       		.byte	0x50
 2061 0ac8 00       		.byte	0
 2062 0ac9 00       		.byte	0
 2063 0aca 15       		.uleb128 0x15
 2064 0acb E4050000 		.4byte	0x5e4
 2065 0acf DA0A0000 		.4byte	0xada
 2066 0ad3 16       		.uleb128 0x16
 2067 0ad4 3D040000 		.4byte	0x43d
 2068 0ad8 10       		.byte	0x10
 2069 0ad9 00       		.byte	0
 2070 0ada 14       		.uleb128 0x14
 2071 0adb CA0A0000 		.4byte	0xaca
 2072 0adf 1D       		.uleb128 0x1d
 2073 0ae0 FE030000 		.4byte	.LASF132
 2074 0ae4 01       		.byte	0x1
 2075 0ae5 93       		.byte	0x93
 2076 0ae6 00000000 		.4byte	.LFB265
 2077 0aea 14000000 		.4byte	.LFE265-.LFB265
 2078 0aee 01       		.uleb128 0x1
 2079 0aef 9C       		.byte	0x9c
 2080 0af0 DD0B0000 		.4byte	0xbdd
 2081 0af4 20       		.uleb128 0x20
 2082 0af5 20010000 		.4byte	.LASF125
 2083 0af9 01       		.byte	0x1
 2084 0afa 93       		.byte	0x93
 2085 0afb A0060000 		.4byte	0x6a0
 2086 0aff 9F000000 		.4byte	.LLST5
 2087 0b03 20       		.uleb128 0x20
 2088 0b04 27050000 		.4byte	.LASF130
 2089 0b08 01       		.byte	0x1
 2090 0b09 93       		.byte	0x93
 2091 0b0a 74060000 		.4byte	0x674
 2092 0b0e C0000000 		.4byte	.LLST6
 2093 0b12 21       		.uleb128 0x21
 2094 0b13 8F060000 		.4byte	.LASF133
 2095 0b17 ED0B0000 		.4byte	0xbed
 2096 0b1b 25       		.uleb128 0x25
 2097 0b1c 71070000 		.4byte	0x771
 2098 0b20 02000000 		.4byte	.LBB119
 2099 0b24 06000000 		.4byte	.LBE119-.LBB119
 2100 0b28 01       		.byte	0x1
 2101 0b29 97       		.byte	0x97
 2102 0b2a 680B0000 		.4byte	0xb68
 2103 0b2e 26       		.uleb128 0x26
 2104 0b2f 38070000 		.4byte	0x738
 2105 0b33 02000000 		.4byte	.LBB120
ARM GAS  /tmp/ccQtb5rF.s 			page 60


 2106 0b37 06000000 		.4byte	.LBE120-.LBB120
 2107 0b3b 10       		.byte	0x10
 2108 0b3c ED01     		.2byte	0x1ed
 2109 0b3e 26       		.uleb128 0x26
 2110 0b3f 26070000 		.4byte	0x726
 2111 0b43 02000000 		.4byte	.LBB121
 2112 0b47 06000000 		.4byte	.LBE121-.LBB121
 2113 0b4b 0F       		.byte	0xf
 2114 0b4c 5C01     		.2byte	0x15c
 2115 0b4e 26       		.uleb128 0x26
 2116 0b4f 0C070000 		.4byte	0x70c
 2117 0b53 02000000 		.4byte	.LBB122
 2118 0b57 06000000 		.4byte	.LBE122-.LBB122
 2119 0b5b 09       		.byte	0x9
 2120 0b5c BF01     		.2byte	0x1bf
 2121 0b5e 24       		.uleb128 0x24
 2122 0b5f 19070000 		.4byte	0x719
 2123 0b63 20       		.byte	0x20
 2124 0b64 00       		.byte	0
 2125 0b65 00       		.byte	0
 2126 0b66 00       		.byte	0
 2127 0b67 00       		.byte	0
 2128 0b68 25       		.uleb128 0x25
 2129 0b69 7A070000 		.4byte	0x77a
 2130 0b6d 0C000000 		.4byte	.LBB124
 2131 0b71 08000000 		.4byte	.LBE124-.LBB124
 2132 0b75 01       		.byte	0x1
 2133 0b76 9D       		.byte	0x9d
 2134 0b77 C40B0000 		.4byte	0xbc4
 2135 0b7b 26       		.uleb128 0x26
 2136 0b7c 41070000 		.4byte	0x741
 2137 0b80 0C000000 		.4byte	.LBB125
 2138 0b84 08000000 		.4byte	.LBE125-.LBB125
 2139 0b88 10       		.byte	0x10
 2140 0b89 F801     		.2byte	0x1f8
 2141 0b8b 27       		.uleb128 0x27
 2142 0b8c 0C000000 		.4byte	.LBB126
 2143 0b90 08000000 		.4byte	.LBE126-.LBB126
 2144 0b94 28       		.uleb128 0x28
 2145 0b95 4E070000 		.4byte	0x74e
 2146 0b99 26       		.uleb128 0x26
 2147 0b9a 2F070000 		.4byte	0x72f
 2148 0b9e 0C000000 		.4byte	.LBB127
 2149 0ba2 08000000 		.4byte	.LBE127-.LBB127
 2150 0ba6 0F       		.byte	0xf
 2151 0ba7 7301     		.2byte	0x173
 2152 0ba9 26       		.uleb128 0x26
 2153 0baa 0C070000 		.4byte	0x70c
 2154 0bae 0C000000 		.4byte	.LBB128
 2155 0bb2 08000000 		.4byte	.LBE128-.LBB128
 2156 0bb6 09       		.byte	0x9
 2157 0bb7 CD01     		.2byte	0x1cd
 2158 0bb9 24       		.uleb128 0x24
 2159 0bba 19070000 		.4byte	0x719
 2160 0bbe 00       		.byte	0
 2161 0bbf 00       		.byte	0
 2162 0bc0 00       		.byte	0
ARM GAS  /tmp/ccQtb5rF.s 			page 61


 2163 0bc1 00       		.byte	0
 2164 0bc2 00       		.byte	0
 2165 0bc3 00       		.byte	0
 2166 0bc4 29       		.uleb128 0x29
 2167 0bc5 0C000000 		.4byte	.LVL11
 2168 0bc9 E10C0000 		.4byte	0xce1
 2169 0bcd 2A       		.uleb128 0x2a
 2170 0bce 01       		.uleb128 0x1
 2171 0bcf 51       		.byte	0x51
 2172 0bd0 03       		.uleb128 0x3
 2173 0bd1 F3       		.byte	0xf3
 2174 0bd2 01       		.uleb128 0x1
 2175 0bd3 51       		.byte	0x51
 2176 0bd4 2A       		.uleb128 0x2a
 2177 0bd5 01       		.uleb128 0x1
 2178 0bd6 50       		.byte	0x50
 2179 0bd7 03       		.uleb128 0x3
 2180 0bd8 F3       		.byte	0xf3
 2181 0bd9 01       		.uleb128 0x1
 2182 0bda 50       		.byte	0x50
 2183 0bdb 00       		.byte	0
 2184 0bdc 00       		.byte	0
 2185 0bdd 15       		.uleb128 0x15
 2186 0bde E4050000 		.4byte	0x5e4
 2187 0be2 ED0B0000 		.4byte	0xbed
 2188 0be6 16       		.uleb128 0x16
 2189 0be7 3D040000 		.4byte	0x43d
 2190 0beb 11       		.byte	0x11
 2191 0bec 00       		.byte	0
 2192 0bed 14       		.uleb128 0x14
 2193 0bee DD0B0000 		.4byte	0xbdd
 2194 0bf2 1D       		.uleb128 0x1d
 2195 0bf3 6B000000 		.4byte	.LASF134
 2196 0bf7 01       		.byte	0x1
 2197 0bf8 B1       		.byte	0xb1
 2198 0bf9 00000000 		.4byte	.LFB266
 2199 0bfd 1E000000 		.4byte	.LFE266-.LFB266
 2200 0c01 01       		.uleb128 0x1
 2201 0c02 9C       		.byte	0x9c
 2202 0c03 650C0000 		.4byte	0xc65
 2203 0c07 20       		.uleb128 0x20
 2204 0c08 20010000 		.4byte	.LASF125
 2205 0c0c 01       		.byte	0x1
 2206 0c0d B1       		.byte	0xb1
 2207 0c0e A0060000 		.4byte	0x6a0
 2208 0c12 E1000000 		.4byte	.LLST7
 2209 0c16 20       		.uleb128 0x20
 2210 0c17 27050000 		.4byte	.LASF130
 2211 0c1b 01       		.byte	0x1
 2212 0c1c B2       		.byte	0xb2
 2213 0c1d 74060000 		.4byte	0x674
 2214 0c21 18010000 		.4byte	.LLST8
 2215 0c25 20       		.uleb128 0x20
 2216 0c26 F0060000 		.4byte	.LASF135
 2217 0c2a 01       		.byte	0x1
 2218 0c2b B3       		.byte	0xb3
 2219 0c2c 650C0000 		.4byte	0xc65
ARM GAS  /tmp/ccQtb5rF.s 			page 62


 2220 0c30 44010000 		.4byte	.LLST9
 2221 0c34 2B       		.uleb128 0x2b
 2222 0c35 B0030000 		.4byte	.LASF145
 2223 0c39 01       		.byte	0x1
 2224 0c3a B4       		.byte	0xb4
 2225 0c3b 700C0000 		.4byte	0xc70
 2226 0c3f 65010000 		.4byte	.LLST10
 2227 0c43 21       		.uleb128 0x21
 2228 0c44 AB060000 		.4byte	.LASF136
 2229 0c48 860C0000 		.4byte	0xc86
 2230 0c4c 2C       		.uleb128 0x2c
 2231 0c4d 1E000000 		.4byte	.LVL17
 2232 0c51 CB0C0000 		.4byte	0xccb
 2233 0c55 2A       		.uleb128 0x2a
 2234 0c56 01       		.uleb128 0x1
 2235 0c57 51       		.byte	0x51
 2236 0c58 03       		.uleb128 0x3
 2237 0c59 F3       		.byte	0xf3
 2238 0c5a 01       		.uleb128 0x1
 2239 0c5b 51       		.byte	0x51
 2240 0c5c 2A       		.uleb128 0x2a
 2241 0c5d 01       		.uleb128 0x1
 2242 0c5e 50       		.byte	0x50
 2243 0c5f 03       		.uleb128 0x3
 2244 0c60 F3       		.byte	0xf3
 2245 0c61 01       		.uleb128 0x1
 2246 0c62 50       		.byte	0x50
 2247 0c63 00       		.byte	0
 2248 0c64 00       		.byte	0
 2249 0c65 0A       		.uleb128 0xa
 2250 0c66 04       		.byte	0x4
 2251 0c67 6B0C0000 		.4byte	0xc6b
 2252 0c6b 14       		.uleb128 0x14
 2253 0c6c C6060000 		.4byte	0x6c6
 2254 0c70 0A       		.uleb128 0xa
 2255 0c71 04       		.byte	0x4
 2256 0c72 C6060000 		.4byte	0x6c6
 2257 0c76 15       		.uleb128 0x15
 2258 0c77 E4050000 		.4byte	0x5e4
 2259 0c7b 860C0000 		.4byte	0xc86
 2260 0c7f 16       		.uleb128 0x16
 2261 0c80 3D040000 		.4byte	0x43d
 2262 0c84 12       		.byte	0x12
 2263 0c85 00       		.byte	0
 2264 0c86 14       		.uleb128 0x14
 2265 0c87 760C0000 		.4byte	0xc76
 2266 0c8b 2D       		.uleb128 0x2d
 2267 0c8c CC000000 		.4byte	.LASF137
 2268 0c90 11       		.byte	0x11
 2269 0c91 A706     		.2byte	0x6a7
 2270 0c93 BF000000 		.4byte	0xbf
 2271 0c97 2E       		.uleb128 0x2e
 2272 0c98 636800   		.ascii	"ch\000"
 2273 0c9b 07       		.byte	0x7
 2274 0c9c 0902     		.2byte	0x209
 2275 0c9e D6030000 		.4byte	0x3d6
 2276 0ca2 2F       		.uleb128 0x2f
ARM GAS  /tmp/ccQtb5rF.s 			page 63


 2277 0ca3 56010000 		.4byte	.LASF146
 2278 0ca7 0E       		.byte	0xe
 2279 0ca8 8C       		.byte	0x8c
 2280 0ca9 30       		.uleb128 0x30
 2281 0caa 2A020000 		.4byte	.LASF138
 2282 0cae 0E       		.byte	0xe
 2283 0caf 8D       		.byte	0x8d
 2284 0cb0 BA0C0000 		.4byte	0xcba
 2285 0cb4 0D       		.uleb128 0xd
 2286 0cb5 A0060000 		.4byte	0x6a0
 2287 0cb9 00       		.byte	0
 2288 0cba 30       		.uleb128 0x30
 2289 0cbb 95000000 		.4byte	.LASF139
 2290 0cbf 0E       		.byte	0xe
 2291 0cc0 8E       		.byte	0x8e
 2292 0cc1 CB0C0000 		.4byte	0xccb
 2293 0cc5 0D       		.uleb128 0xd
 2294 0cc6 A0060000 		.4byte	0x6a0
 2295 0cca 00       		.byte	0
 2296 0ccb 30       		.uleb128 0x30
 2297 0ccc B6020000 		.4byte	.LASF140
 2298 0cd0 0E       		.byte	0xe
 2299 0cd1 8F       		.byte	0x8f
 2300 0cd2 E10C0000 		.4byte	0xce1
 2301 0cd6 0D       		.uleb128 0xd
 2302 0cd7 A0060000 		.4byte	0x6a0
 2303 0cdb 0D       		.uleb128 0xd
 2304 0cdc 74060000 		.4byte	0x674
 2305 0ce0 00       		.byte	0
 2306 0ce1 31       		.uleb128 0x31
 2307 0ce2 EA000000 		.4byte	.LASF147
 2308 0ce6 0E       		.byte	0xe
 2309 0ce7 90       		.byte	0x90
 2310 0ce8 0D       		.uleb128 0xd
 2311 0ce9 A0060000 		.4byte	0x6a0
 2312 0ced 0D       		.uleb128 0xd
 2313 0cee 74060000 		.4byte	0x674
 2314 0cf2 00       		.byte	0
 2315 0cf3 00       		.byte	0
 2316              		.section	.debug_abbrev,"",%progbits
 2317              	.Ldebug_abbrev0:
 2318 0000 01       		.uleb128 0x1
 2319 0001 11       		.uleb128 0x11
 2320 0002 01       		.byte	0x1
 2321 0003 25       		.uleb128 0x25
 2322 0004 0E       		.uleb128 0xe
 2323 0005 13       		.uleb128 0x13
 2324 0006 0B       		.uleb128 0xb
 2325 0007 03       		.uleb128 0x3
 2326 0008 0E       		.uleb128 0xe
 2327 0009 55       		.uleb128 0x55
 2328 000a 17       		.uleb128 0x17
 2329 000b 11       		.uleb128 0x11
 2330 000c 01       		.uleb128 0x1
 2331 000d 10       		.uleb128 0x10
 2332 000e 17       		.uleb128 0x17
 2333 000f 00       		.byte	0
ARM GAS  /tmp/ccQtb5rF.s 			page 64


 2334 0010 00       		.byte	0
 2335 0011 02       		.uleb128 0x2
 2336 0012 24       		.uleb128 0x24
 2337 0013 00       		.byte	0
 2338 0014 0B       		.uleb128 0xb
 2339 0015 0B       		.uleb128 0xb
 2340 0016 3E       		.uleb128 0x3e
 2341 0017 0B       		.uleb128 0xb
 2342 0018 03       		.uleb128 0x3
 2343 0019 08       		.uleb128 0x8
 2344 001a 00       		.byte	0
 2345 001b 00       		.byte	0
 2346 001c 03       		.uleb128 0x3
 2347 001d 24       		.uleb128 0x24
 2348 001e 00       		.byte	0
 2349 001f 0B       		.uleb128 0xb
 2350 0020 0B       		.uleb128 0xb
 2351 0021 3E       		.uleb128 0x3e
 2352 0022 0B       		.uleb128 0xb
 2353 0023 03       		.uleb128 0x3
 2354 0024 0E       		.uleb128 0xe
 2355 0025 00       		.byte	0
 2356 0026 00       		.byte	0
 2357 0027 04       		.uleb128 0x4
 2358 0028 16       		.uleb128 0x16
 2359 0029 00       		.byte	0
 2360 002a 03       		.uleb128 0x3
 2361 002b 0E       		.uleb128 0xe
 2362 002c 3A       		.uleb128 0x3a
 2363 002d 0B       		.uleb128 0xb
 2364 002e 3B       		.uleb128 0x3b
 2365 002f 0B       		.uleb128 0xb
 2366 0030 49       		.uleb128 0x49
 2367 0031 13       		.uleb128 0x13
 2368 0032 00       		.byte	0
 2369 0033 00       		.byte	0
 2370 0034 05       		.uleb128 0x5
 2371 0035 35       		.uleb128 0x35
 2372 0036 00       		.byte	0
 2373 0037 49       		.uleb128 0x49
 2374 0038 13       		.uleb128 0x13
 2375 0039 00       		.byte	0
 2376 003a 00       		.byte	0
 2377 003b 06       		.uleb128 0x6
 2378 003c 13       		.uleb128 0x13
 2379 003d 01       		.byte	0x1
 2380 003e 03       		.uleb128 0x3
 2381 003f 0E       		.uleb128 0xe
 2382 0040 0B       		.uleb128 0xb
 2383 0041 0B       		.uleb128 0xb
 2384 0042 3A       		.uleb128 0x3a
 2385 0043 0B       		.uleb128 0xb
 2386 0044 3B       		.uleb128 0x3b
 2387 0045 0B       		.uleb128 0xb
 2388 0046 01       		.uleb128 0x1
 2389 0047 13       		.uleb128 0x13
 2390 0048 00       		.byte	0
ARM GAS  /tmp/ccQtb5rF.s 			page 65


 2391 0049 00       		.byte	0
 2392 004a 07       		.uleb128 0x7
 2393 004b 0D       		.uleb128 0xd
 2394 004c 00       		.byte	0
 2395 004d 03       		.uleb128 0x3
 2396 004e 0E       		.uleb128 0xe
 2397 004f 3A       		.uleb128 0x3a
 2398 0050 0B       		.uleb128 0xb
 2399 0051 3B       		.uleb128 0x3b
 2400 0052 0B       		.uleb128 0xb
 2401 0053 49       		.uleb128 0x49
 2402 0054 13       		.uleb128 0x13
 2403 0055 38       		.uleb128 0x38
 2404 0056 0B       		.uleb128 0xb
 2405 0057 00       		.byte	0
 2406 0058 00       		.byte	0
 2407 0059 08       		.uleb128 0x8
 2408 005a 0D       		.uleb128 0xd
 2409 005b 00       		.byte	0
 2410 005c 03       		.uleb128 0x3
 2411 005d 08       		.uleb128 0x8
 2412 005e 3A       		.uleb128 0x3a
 2413 005f 0B       		.uleb128 0xb
 2414 0060 3B       		.uleb128 0x3b
 2415 0061 05       		.uleb128 0x5
 2416 0062 49       		.uleb128 0x49
 2417 0063 13       		.uleb128 0x13
 2418 0064 38       		.uleb128 0x38
 2419 0065 0B       		.uleb128 0xb
 2420 0066 00       		.byte	0
 2421 0067 00       		.byte	0
 2422 0068 09       		.uleb128 0x9
 2423 0069 0D       		.uleb128 0xd
 2424 006a 00       		.byte	0
 2425 006b 03       		.uleb128 0x3
 2426 006c 0E       		.uleb128 0xe
 2427 006d 3A       		.uleb128 0x3a
 2428 006e 0B       		.uleb128 0xb
 2429 006f 3B       		.uleb128 0x3b
 2430 0070 05       		.uleb128 0x5
 2431 0071 49       		.uleb128 0x49
 2432 0072 13       		.uleb128 0x13
 2433 0073 38       		.uleb128 0x38
 2434 0074 0B       		.uleb128 0xb
 2435 0075 00       		.byte	0
 2436 0076 00       		.byte	0
 2437 0077 0A       		.uleb128 0xa
 2438 0078 0F       		.uleb128 0xf
 2439 0079 00       		.byte	0
 2440 007a 0B       		.uleb128 0xb
 2441 007b 0B       		.uleb128 0xb
 2442 007c 49       		.uleb128 0x49
 2443 007d 13       		.uleb128 0x13
 2444 007e 00       		.byte	0
 2445 007f 00       		.byte	0
 2446 0080 0B       		.uleb128 0xb
 2447 0081 13       		.uleb128 0x13
ARM GAS  /tmp/ccQtb5rF.s 			page 66


 2448 0082 01       		.byte	0x1
 2449 0083 03       		.uleb128 0x3
 2450 0084 0E       		.uleb128 0xe
 2451 0085 0B       		.uleb128 0xb
 2452 0086 0B       		.uleb128 0xb
 2453 0087 3A       		.uleb128 0x3a
 2454 0088 0B       		.uleb128 0xb
 2455 0089 3B       		.uleb128 0x3b
 2456 008a 05       		.uleb128 0x5
 2457 008b 01       		.uleb128 0x1
 2458 008c 13       		.uleb128 0x13
 2459 008d 00       		.byte	0
 2460 008e 00       		.byte	0
 2461 008f 0C       		.uleb128 0xc
 2462 0090 15       		.uleb128 0x15
 2463 0091 01       		.byte	0x1
 2464 0092 27       		.uleb128 0x27
 2465 0093 19       		.uleb128 0x19
 2466 0094 01       		.uleb128 0x1
 2467 0095 13       		.uleb128 0x13
 2468 0096 00       		.byte	0
 2469 0097 00       		.byte	0
 2470 0098 0D       		.uleb128 0xd
 2471 0099 05       		.uleb128 0x5
 2472 009a 00       		.byte	0
 2473 009b 49       		.uleb128 0x49
 2474 009c 13       		.uleb128 0x13
 2475 009d 00       		.byte	0
 2476 009e 00       		.byte	0
 2477 009f 0E       		.uleb128 0xe
 2478 00a0 0F       		.uleb128 0xf
 2479 00a1 00       		.byte	0
 2480 00a2 0B       		.uleb128 0xb
 2481 00a3 0B       		.uleb128 0xb
 2482 00a4 00       		.byte	0
 2483 00a5 00       		.byte	0
 2484 00a6 0F       		.uleb128 0xf
 2485 00a7 13       		.uleb128 0x13
 2486 00a8 01       		.byte	0x1
 2487 00a9 03       		.uleb128 0x3
 2488 00aa 0E       		.uleb128 0xe
 2489 00ab 0B       		.uleb128 0xb
 2490 00ac 05       		.uleb128 0x5
 2491 00ad 3A       		.uleb128 0x3a
 2492 00ae 0B       		.uleb128 0xb
 2493 00af 3B       		.uleb128 0x3b
 2494 00b0 05       		.uleb128 0x5
 2495 00b1 01       		.uleb128 0x1
 2496 00b2 13       		.uleb128 0x13
 2497 00b3 00       		.byte	0
 2498 00b4 00       		.byte	0
 2499 00b5 10       		.uleb128 0x10
 2500 00b6 0D       		.uleb128 0xd
 2501 00b7 00       		.byte	0
 2502 00b8 03       		.uleb128 0x3
 2503 00b9 08       		.uleb128 0x8
 2504 00ba 3A       		.uleb128 0x3a
ARM GAS  /tmp/ccQtb5rF.s 			page 67


 2505 00bb 0B       		.uleb128 0xb
 2506 00bc 3B       		.uleb128 0x3b
 2507 00bd 0B       		.uleb128 0xb
 2508 00be 49       		.uleb128 0x49
 2509 00bf 13       		.uleb128 0x13
 2510 00c0 38       		.uleb128 0x38
 2511 00c1 0B       		.uleb128 0xb
 2512 00c2 00       		.byte	0
 2513 00c3 00       		.byte	0
 2514 00c4 11       		.uleb128 0x11
 2515 00c5 13       		.uleb128 0x13
 2516 00c6 01       		.byte	0x1
 2517 00c7 0B       		.uleb128 0xb
 2518 00c8 0B       		.uleb128 0xb
 2519 00c9 3A       		.uleb128 0x3a
 2520 00ca 0B       		.uleb128 0xb
 2521 00cb 3B       		.uleb128 0x3b
 2522 00cc 0B       		.uleb128 0xb
 2523 00cd 01       		.uleb128 0x1
 2524 00ce 13       		.uleb128 0x13
 2525 00cf 00       		.byte	0
 2526 00d0 00       		.byte	0
 2527 00d1 12       		.uleb128 0x12
 2528 00d2 17       		.uleb128 0x17
 2529 00d3 01       		.byte	0x1
 2530 00d4 0B       		.uleb128 0xb
 2531 00d5 0B       		.uleb128 0xb
 2532 00d6 3A       		.uleb128 0x3a
 2533 00d7 0B       		.uleb128 0xb
 2534 00d8 3B       		.uleb128 0x3b
 2535 00d9 0B       		.uleb128 0xb
 2536 00da 01       		.uleb128 0x1
 2537 00db 13       		.uleb128 0x13
 2538 00dc 00       		.byte	0
 2539 00dd 00       		.byte	0
 2540 00de 13       		.uleb128 0x13
 2541 00df 0D       		.uleb128 0xd
 2542 00e0 00       		.byte	0
 2543 00e1 03       		.uleb128 0x3
 2544 00e2 0E       		.uleb128 0xe
 2545 00e3 3A       		.uleb128 0x3a
 2546 00e4 0B       		.uleb128 0xb
 2547 00e5 3B       		.uleb128 0x3b
 2548 00e6 05       		.uleb128 0x5
 2549 00e7 49       		.uleb128 0x49
 2550 00e8 13       		.uleb128 0x13
 2551 00e9 00       		.byte	0
 2552 00ea 00       		.byte	0
 2553 00eb 14       		.uleb128 0x14
 2554 00ec 26       		.uleb128 0x26
 2555 00ed 00       		.byte	0
 2556 00ee 49       		.uleb128 0x49
 2557 00ef 13       		.uleb128 0x13
 2558 00f0 00       		.byte	0
 2559 00f1 00       		.byte	0
 2560 00f2 15       		.uleb128 0x15
 2561 00f3 01       		.uleb128 0x1
ARM GAS  /tmp/ccQtb5rF.s 			page 68


 2562 00f4 01       		.byte	0x1
 2563 00f5 49       		.uleb128 0x49
 2564 00f6 13       		.uleb128 0x13
 2565 00f7 01       		.uleb128 0x1
 2566 00f8 13       		.uleb128 0x13
 2567 00f9 00       		.byte	0
 2568 00fa 00       		.byte	0
 2569 00fb 16       		.uleb128 0x16
 2570 00fc 21       		.uleb128 0x21
 2571 00fd 00       		.byte	0
 2572 00fe 49       		.uleb128 0x49
 2573 00ff 13       		.uleb128 0x13
 2574 0100 2F       		.uleb128 0x2f
 2575 0101 0B       		.uleb128 0xb
 2576 0102 00       		.byte	0
 2577 0103 00       		.byte	0
 2578 0104 17       		.uleb128 0x17
 2579 0105 04       		.uleb128 0x4
 2580 0106 01       		.byte	0x1
 2581 0107 0B       		.uleb128 0xb
 2582 0108 0B       		.uleb128 0xb
 2583 0109 3A       		.uleb128 0x3a
 2584 010a 0B       		.uleb128 0xb
 2585 010b 3B       		.uleb128 0x3b
 2586 010c 0B       		.uleb128 0xb
 2587 010d 01       		.uleb128 0x1
 2588 010e 13       		.uleb128 0x13
 2589 010f 00       		.byte	0
 2590 0110 00       		.byte	0
 2591 0111 18       		.uleb128 0x18
 2592 0112 28       		.uleb128 0x28
 2593 0113 00       		.byte	0
 2594 0114 03       		.uleb128 0x3
 2595 0115 0E       		.uleb128 0xe
 2596 0116 1C       		.uleb128 0x1c
 2597 0117 0D       		.uleb128 0xd
 2598 0118 00       		.byte	0
 2599 0119 00       		.byte	0
 2600 011a 19       		.uleb128 0x19
 2601 011b 2E       		.uleb128 0x2e
 2602 011c 01       		.byte	0x1
 2603 011d 03       		.uleb128 0x3
 2604 011e 0E       		.uleb128 0xe
 2605 011f 3A       		.uleb128 0x3a
 2606 0120 0B       		.uleb128 0xb
 2607 0121 3B       		.uleb128 0x3b
 2608 0122 05       		.uleb128 0x5
 2609 0123 27       		.uleb128 0x27
 2610 0124 19       		.uleb128 0x19
 2611 0125 20       		.uleb128 0x20
 2612 0126 0B       		.uleb128 0xb
 2613 0127 01       		.uleb128 0x1
 2614 0128 13       		.uleb128 0x13
 2615 0129 00       		.byte	0
 2616 012a 00       		.byte	0
 2617 012b 1A       		.uleb128 0x1a
 2618 012c 05       		.uleb128 0x5
ARM GAS  /tmp/ccQtb5rF.s 			page 69


 2619 012d 00       		.byte	0
 2620 012e 03       		.uleb128 0x3
 2621 012f 0E       		.uleb128 0xe
 2622 0130 3A       		.uleb128 0x3a
 2623 0131 0B       		.uleb128 0xb
 2624 0132 3B       		.uleb128 0x3b
 2625 0133 05       		.uleb128 0x5
 2626 0134 49       		.uleb128 0x49
 2627 0135 13       		.uleb128 0x13
 2628 0136 00       		.byte	0
 2629 0137 00       		.byte	0
 2630 0138 1B       		.uleb128 0x1b
 2631 0139 2E       		.uleb128 0x2e
 2632 013a 00       		.byte	0
 2633 013b 03       		.uleb128 0x3
 2634 013c 0E       		.uleb128 0xe
 2635 013d 3A       		.uleb128 0x3a
 2636 013e 0B       		.uleb128 0xb
 2637 013f 3B       		.uleb128 0x3b
 2638 0140 05       		.uleb128 0x5
 2639 0141 27       		.uleb128 0x27
 2640 0142 19       		.uleb128 0x19
 2641 0143 20       		.uleb128 0x20
 2642 0144 0B       		.uleb128 0xb
 2643 0145 00       		.byte	0
 2644 0146 00       		.byte	0
 2645 0147 1C       		.uleb128 0x1c
 2646 0148 34       		.uleb128 0x34
 2647 0149 00       		.byte	0
 2648 014a 03       		.uleb128 0x3
 2649 014b 0E       		.uleb128 0xe
 2650 014c 49       		.uleb128 0x49
 2651 014d 13       		.uleb128 0x13
 2652 014e 34       		.uleb128 0x34
 2653 014f 19       		.uleb128 0x19
 2654 0150 1C       		.uleb128 0x1c
 2655 0151 0E       		.uleb128 0xe
 2656 0152 00       		.byte	0
 2657 0153 00       		.byte	0
 2658 0154 1D       		.uleb128 0x1d
 2659 0155 2E       		.uleb128 0x2e
 2660 0156 01       		.byte	0x1
 2661 0157 3F       		.uleb128 0x3f
 2662 0158 19       		.uleb128 0x19
 2663 0159 03       		.uleb128 0x3
 2664 015a 0E       		.uleb128 0xe
 2665 015b 3A       		.uleb128 0x3a
 2666 015c 0B       		.uleb128 0xb
 2667 015d 3B       		.uleb128 0x3b
 2668 015e 0B       		.uleb128 0xb
 2669 015f 27       		.uleb128 0x27
 2670 0160 19       		.uleb128 0x19
 2671 0161 11       		.uleb128 0x11
 2672 0162 01       		.uleb128 0x1
 2673 0163 12       		.uleb128 0x12
 2674 0164 06       		.uleb128 0x6
 2675 0165 40       		.uleb128 0x40
ARM GAS  /tmp/ccQtb5rF.s 			page 70


 2676 0166 18       		.uleb128 0x18
 2677 0167 9742     		.uleb128 0x2117
 2678 0169 19       		.uleb128 0x19
 2679 016a 01       		.uleb128 0x1
 2680 016b 13       		.uleb128 0x13
 2681 016c 00       		.byte	0
 2682 016d 00       		.byte	0
 2683 016e 1E       		.uleb128 0x1e
 2684 016f 898201   		.uleb128 0x4109
 2685 0172 00       		.byte	0
 2686 0173 11       		.uleb128 0x11
 2687 0174 01       		.uleb128 0x1
 2688 0175 9542     		.uleb128 0x2115
 2689 0177 19       		.uleb128 0x19
 2690 0178 31       		.uleb128 0x31
 2691 0179 13       		.uleb128 0x13
 2692 017a 00       		.byte	0
 2693 017b 00       		.byte	0
 2694 017c 1F       		.uleb128 0x1f
 2695 017d 05       		.uleb128 0x5
 2696 017e 00       		.byte	0
 2697 017f 03       		.uleb128 0x3
 2698 0180 0E       		.uleb128 0xe
 2699 0181 3A       		.uleb128 0x3a
 2700 0182 0B       		.uleb128 0xb
 2701 0183 3B       		.uleb128 0x3b
 2702 0184 0B       		.uleb128 0xb
 2703 0185 49       		.uleb128 0x49
 2704 0186 13       		.uleb128 0x13
 2705 0187 02       		.uleb128 0x2
 2706 0188 18       		.uleb128 0x18
 2707 0189 00       		.byte	0
 2708 018a 00       		.byte	0
 2709 018b 20       		.uleb128 0x20
 2710 018c 05       		.uleb128 0x5
 2711 018d 00       		.byte	0
 2712 018e 03       		.uleb128 0x3
 2713 018f 0E       		.uleb128 0xe
 2714 0190 3A       		.uleb128 0x3a
 2715 0191 0B       		.uleb128 0xb
 2716 0192 3B       		.uleb128 0x3b
 2717 0193 0B       		.uleb128 0xb
 2718 0194 49       		.uleb128 0x49
 2719 0195 13       		.uleb128 0x13
 2720 0196 02       		.uleb128 0x2
 2721 0197 17       		.uleb128 0x17
 2722 0198 00       		.byte	0
 2723 0199 00       		.byte	0
 2724 019a 21       		.uleb128 0x21
 2725 019b 34       		.uleb128 0x34
 2726 019c 00       		.byte	0
 2727 019d 03       		.uleb128 0x3
 2728 019e 0E       		.uleb128 0xe
 2729 019f 49       		.uleb128 0x49
 2730 01a0 13       		.uleb128 0x13
 2731 01a1 34       		.uleb128 0x34
 2732 01a2 19       		.uleb128 0x19
ARM GAS  /tmp/ccQtb5rF.s 			page 71


 2733 01a3 00       		.byte	0
 2734 01a4 00       		.byte	0
 2735 01a5 22       		.uleb128 0x22
 2736 01a6 1D       		.uleb128 0x1d
 2737 01a7 01       		.byte	0x1
 2738 01a8 31       		.uleb128 0x31
 2739 01a9 13       		.uleb128 0x13
 2740 01aa 52       		.uleb128 0x52
 2741 01ab 01       		.uleb128 0x1
 2742 01ac 55       		.uleb128 0x55
 2743 01ad 17       		.uleb128 0x17
 2744 01ae 58       		.uleb128 0x58
 2745 01af 0B       		.uleb128 0xb
 2746 01b0 59       		.uleb128 0x59
 2747 01b1 0B       		.uleb128 0xb
 2748 01b2 01       		.uleb128 0x1
 2749 01b3 13       		.uleb128 0x13
 2750 01b4 00       		.byte	0
 2751 01b5 00       		.byte	0
 2752 01b6 23       		.uleb128 0x23
 2753 01b7 1D       		.uleb128 0x1d
 2754 01b8 01       		.byte	0x1
 2755 01b9 31       		.uleb128 0x31
 2756 01ba 13       		.uleb128 0x13
 2757 01bb 52       		.uleb128 0x52
 2758 01bc 01       		.uleb128 0x1
 2759 01bd 55       		.uleb128 0x55
 2760 01be 17       		.uleb128 0x17
 2761 01bf 58       		.uleb128 0x58
 2762 01c0 0B       		.uleb128 0xb
 2763 01c1 59       		.uleb128 0x59
 2764 01c2 05       		.uleb128 0x5
 2765 01c3 00       		.byte	0
 2766 01c4 00       		.byte	0
 2767 01c5 24       		.uleb128 0x24
 2768 01c6 05       		.uleb128 0x5
 2769 01c7 00       		.byte	0
 2770 01c8 31       		.uleb128 0x31
 2771 01c9 13       		.uleb128 0x13
 2772 01ca 1C       		.uleb128 0x1c
 2773 01cb 0B       		.uleb128 0xb
 2774 01cc 00       		.byte	0
 2775 01cd 00       		.byte	0
 2776 01ce 25       		.uleb128 0x25
 2777 01cf 1D       		.uleb128 0x1d
 2778 01d0 01       		.byte	0x1
 2779 01d1 31       		.uleb128 0x31
 2780 01d2 13       		.uleb128 0x13
 2781 01d3 11       		.uleb128 0x11
 2782 01d4 01       		.uleb128 0x1
 2783 01d5 12       		.uleb128 0x12
 2784 01d6 06       		.uleb128 0x6
 2785 01d7 58       		.uleb128 0x58
 2786 01d8 0B       		.uleb128 0xb
 2787 01d9 59       		.uleb128 0x59
 2788 01da 0B       		.uleb128 0xb
 2789 01db 01       		.uleb128 0x1
ARM GAS  /tmp/ccQtb5rF.s 			page 72


 2790 01dc 13       		.uleb128 0x13
 2791 01dd 00       		.byte	0
 2792 01de 00       		.byte	0
 2793 01df 26       		.uleb128 0x26
 2794 01e0 1D       		.uleb128 0x1d
 2795 01e1 01       		.byte	0x1
 2796 01e2 31       		.uleb128 0x31
 2797 01e3 13       		.uleb128 0x13
 2798 01e4 11       		.uleb128 0x11
 2799 01e5 01       		.uleb128 0x1
 2800 01e6 12       		.uleb128 0x12
 2801 01e7 06       		.uleb128 0x6
 2802 01e8 58       		.uleb128 0x58
 2803 01e9 0B       		.uleb128 0xb
 2804 01ea 59       		.uleb128 0x59
 2805 01eb 05       		.uleb128 0x5
 2806 01ec 00       		.byte	0
 2807 01ed 00       		.byte	0
 2808 01ee 27       		.uleb128 0x27
 2809 01ef 0B       		.uleb128 0xb
 2810 01f0 01       		.byte	0x1
 2811 01f1 11       		.uleb128 0x11
 2812 01f2 01       		.uleb128 0x1
 2813 01f3 12       		.uleb128 0x12
 2814 01f4 06       		.uleb128 0x6
 2815 01f5 00       		.byte	0
 2816 01f6 00       		.byte	0
 2817 01f7 28       		.uleb128 0x28
 2818 01f8 34       		.uleb128 0x34
 2819 01f9 00       		.byte	0
 2820 01fa 31       		.uleb128 0x31
 2821 01fb 13       		.uleb128 0x13
 2822 01fc 00       		.byte	0
 2823 01fd 00       		.byte	0
 2824 01fe 29       		.uleb128 0x29
 2825 01ff 898201   		.uleb128 0x4109
 2826 0202 01       		.byte	0x1
 2827 0203 11       		.uleb128 0x11
 2828 0204 01       		.uleb128 0x1
 2829 0205 31       		.uleb128 0x31
 2830 0206 13       		.uleb128 0x13
 2831 0207 00       		.byte	0
 2832 0208 00       		.byte	0
 2833 0209 2A       		.uleb128 0x2a
 2834 020a 8A8201   		.uleb128 0x410a
 2835 020d 00       		.byte	0
 2836 020e 02       		.uleb128 0x2
 2837 020f 18       		.uleb128 0x18
 2838 0210 9142     		.uleb128 0x2111
 2839 0212 18       		.uleb128 0x18
 2840 0213 00       		.byte	0
 2841 0214 00       		.byte	0
 2842 0215 2B       		.uleb128 0x2b
 2843 0216 34       		.uleb128 0x34
 2844 0217 00       		.byte	0
 2845 0218 03       		.uleb128 0x3
 2846 0219 0E       		.uleb128 0xe
ARM GAS  /tmp/ccQtb5rF.s 			page 73


 2847 021a 3A       		.uleb128 0x3a
 2848 021b 0B       		.uleb128 0xb
 2849 021c 3B       		.uleb128 0x3b
 2850 021d 0B       		.uleb128 0xb
 2851 021e 49       		.uleb128 0x49
 2852 021f 13       		.uleb128 0x13
 2853 0220 02       		.uleb128 0x2
 2854 0221 17       		.uleb128 0x17
 2855 0222 00       		.byte	0
 2856 0223 00       		.byte	0
 2857 0224 2C       		.uleb128 0x2c
 2858 0225 898201   		.uleb128 0x4109
 2859 0228 01       		.byte	0x1
 2860 0229 11       		.uleb128 0x11
 2861 022a 01       		.uleb128 0x1
 2862 022b 9542     		.uleb128 0x2115
 2863 022d 19       		.uleb128 0x19
 2864 022e 31       		.uleb128 0x31
 2865 022f 13       		.uleb128 0x13
 2866 0230 00       		.byte	0
 2867 0231 00       		.byte	0
 2868 0232 2D       		.uleb128 0x2d
 2869 0233 34       		.uleb128 0x34
 2870 0234 00       		.byte	0
 2871 0235 03       		.uleb128 0x3
 2872 0236 0E       		.uleb128 0xe
 2873 0237 3A       		.uleb128 0x3a
 2874 0238 0B       		.uleb128 0xb
 2875 0239 3B       		.uleb128 0x3b
 2876 023a 05       		.uleb128 0x5
 2877 023b 49       		.uleb128 0x49
 2878 023c 13       		.uleb128 0x13
 2879 023d 3F       		.uleb128 0x3f
 2880 023e 19       		.uleb128 0x19
 2881 023f 3C       		.uleb128 0x3c
 2882 0240 19       		.uleb128 0x19
 2883 0241 00       		.byte	0
 2884 0242 00       		.byte	0
 2885 0243 2E       		.uleb128 0x2e
 2886 0244 34       		.uleb128 0x34
 2887 0245 00       		.byte	0
 2888 0246 03       		.uleb128 0x3
 2889 0247 08       		.uleb128 0x8
 2890 0248 3A       		.uleb128 0x3a
 2891 0249 0B       		.uleb128 0xb
 2892 024a 3B       		.uleb128 0x3b
 2893 024b 05       		.uleb128 0x5
 2894 024c 49       		.uleb128 0x49
 2895 024d 13       		.uleb128 0x13
 2896 024e 3F       		.uleb128 0x3f
 2897 024f 19       		.uleb128 0x19
 2898 0250 3C       		.uleb128 0x3c
 2899 0251 19       		.uleb128 0x19
 2900 0252 00       		.byte	0
 2901 0253 00       		.byte	0
 2902 0254 2F       		.uleb128 0x2f
 2903 0255 2E       		.uleb128 0x2e
ARM GAS  /tmp/ccQtb5rF.s 			page 74


 2904 0256 00       		.byte	0
 2905 0257 3F       		.uleb128 0x3f
 2906 0258 19       		.uleb128 0x19
 2907 0259 03       		.uleb128 0x3
 2908 025a 0E       		.uleb128 0xe
 2909 025b 3A       		.uleb128 0x3a
 2910 025c 0B       		.uleb128 0xb
 2911 025d 3B       		.uleb128 0x3b
 2912 025e 0B       		.uleb128 0xb
 2913 025f 27       		.uleb128 0x27
 2914 0260 19       		.uleb128 0x19
 2915 0261 3C       		.uleb128 0x3c
 2916 0262 19       		.uleb128 0x19
 2917 0263 00       		.byte	0
 2918 0264 00       		.byte	0
 2919 0265 30       		.uleb128 0x30
 2920 0266 2E       		.uleb128 0x2e
 2921 0267 01       		.byte	0x1
 2922 0268 3F       		.uleb128 0x3f
 2923 0269 19       		.uleb128 0x19
 2924 026a 03       		.uleb128 0x3
 2925 026b 0E       		.uleb128 0xe
 2926 026c 3A       		.uleb128 0x3a
 2927 026d 0B       		.uleb128 0xb
 2928 026e 3B       		.uleb128 0x3b
 2929 026f 0B       		.uleb128 0xb
 2930 0270 27       		.uleb128 0x27
 2931 0271 19       		.uleb128 0x19
 2932 0272 3C       		.uleb128 0x3c
 2933 0273 19       		.uleb128 0x19
 2934 0274 01       		.uleb128 0x1
 2935 0275 13       		.uleb128 0x13
 2936 0276 00       		.byte	0
 2937 0277 00       		.byte	0
 2938 0278 31       		.uleb128 0x31
 2939 0279 2E       		.uleb128 0x2e
 2940 027a 01       		.byte	0x1
 2941 027b 3F       		.uleb128 0x3f
 2942 027c 19       		.uleb128 0x19
 2943 027d 03       		.uleb128 0x3
 2944 027e 0E       		.uleb128 0xe
 2945 027f 3A       		.uleb128 0x3a
 2946 0280 0B       		.uleb128 0xb
 2947 0281 3B       		.uleb128 0x3b
 2948 0282 0B       		.uleb128 0xb
 2949 0283 27       		.uleb128 0x27
 2950 0284 19       		.uleb128 0x19
 2951 0285 3C       		.uleb128 0x3c
 2952 0286 19       		.uleb128 0x19
 2953 0287 00       		.byte	0
 2954 0288 00       		.byte	0
 2955 0289 00       		.byte	0
 2956              		.section	.debug_loc,"",%progbits
 2957              	.Ldebug_loc0:
 2958              	.LLST0:
 2959 0000 00000000 		.4byte	.LVL2
 2960 0004 0F000000 		.4byte	.LVL3-1
ARM GAS  /tmp/ccQtb5rF.s 			page 75


 2961 0008 0100     		.2byte	0x1
 2962 000a 50       		.byte	0x50
 2963 000b 0F000000 		.4byte	.LVL3-1
 2964 000f 1C000000 		.4byte	.LFE262
 2965 0013 0100     		.2byte	0x1
 2966 0015 54       		.byte	0x54
 2967 0016 00000000 		.4byte	0
 2968 001a 00000000 		.4byte	0
 2969              	.LLST1:
 2970 001e 00000000 		.4byte	.LVL2
 2971 0022 0F000000 		.4byte	.LVL3-1
 2972 0026 0100     		.2byte	0x1
 2973 0028 51       		.byte	0x51
 2974 0029 0F000000 		.4byte	.LVL3-1
 2975 002d 1C000000 		.4byte	.LFE262
 2976 0031 0400     		.2byte	0x4
 2977 0033 F3       		.byte	0xf3
 2978 0034 01       		.uleb128 0x1
 2979 0035 51       		.byte	0x51
 2980 0036 9F       		.byte	0x9f
 2981 0037 00000000 		.4byte	0
 2982 003b 00000000 		.4byte	0
 2983              	.LLST2:
 2984 003f 00000000 		.4byte	.LVL5
 2985 0043 0D000000 		.4byte	.LVL6-1
 2986 0047 0100     		.2byte	0x1
 2987 0049 50       		.byte	0x50
 2988 004a 0D000000 		.4byte	.LVL6-1
 2989 004e 1A000000 		.4byte	.LFE263
 2990 0052 0100     		.2byte	0x1
 2991 0054 54       		.byte	0x54
 2992 0055 00000000 		.4byte	0
 2993 0059 00000000 		.4byte	0
 2994              	.LLST3:
 2995 005d 00000000 		.4byte	.LVL8
 2996 0061 0B000000 		.4byte	.LVL9-1
 2997 0065 0100     		.2byte	0x1
 2998 0067 50       		.byte	0x50
 2999 0068 0B000000 		.4byte	.LVL9-1
 3000 006c 14000000 		.4byte	.LFE264
 3001 0070 0400     		.2byte	0x4
 3002 0072 F3       		.byte	0xf3
 3003 0073 01       		.uleb128 0x1
 3004 0074 50       		.byte	0x50
 3005 0075 9F       		.byte	0x9f
 3006 0076 00000000 		.4byte	0
 3007 007a 00000000 		.4byte	0
 3008              	.LLST4:
 3009 007e 00000000 		.4byte	.LVL8
 3010 0082 0B000000 		.4byte	.LVL9-1
 3011 0086 0100     		.2byte	0x1
 3012 0088 51       		.byte	0x51
 3013 0089 0B000000 		.4byte	.LVL9-1
 3014 008d 14000000 		.4byte	.LFE264
 3015 0091 0400     		.2byte	0x4
 3016 0093 F3       		.byte	0xf3
 3017 0094 01       		.uleb128 0x1
ARM GAS  /tmp/ccQtb5rF.s 			page 76


 3018 0095 51       		.byte	0x51
 3019 0096 9F       		.byte	0x9f
 3020 0097 00000000 		.4byte	0
 3021 009b 00000000 		.4byte	0
 3022              	.LLST5:
 3023 009f 00000000 		.4byte	.LVL10
 3024 00a3 0B000000 		.4byte	.LVL11-1
 3025 00a7 0100     		.2byte	0x1
 3026 00a9 50       		.byte	0x50
 3027 00aa 0B000000 		.4byte	.LVL11-1
 3028 00ae 14000000 		.4byte	.LFE265
 3029 00b2 0400     		.2byte	0x4
 3030 00b4 F3       		.byte	0xf3
 3031 00b5 01       		.uleb128 0x1
 3032 00b6 50       		.byte	0x50
 3033 00b7 9F       		.byte	0x9f
 3034 00b8 00000000 		.4byte	0
 3035 00bc 00000000 		.4byte	0
 3036              	.LLST6:
 3037 00c0 00000000 		.4byte	.LVL10
 3038 00c4 0B000000 		.4byte	.LVL11-1
 3039 00c8 0100     		.2byte	0x1
 3040 00ca 51       		.byte	0x51
 3041 00cb 0B000000 		.4byte	.LVL11-1
 3042 00cf 14000000 		.4byte	.LFE265
 3043 00d3 0400     		.2byte	0x4
 3044 00d5 F3       		.byte	0xf3
 3045 00d6 01       		.uleb128 0x1
 3046 00d7 51       		.byte	0x51
 3047 00d8 9F       		.byte	0x9f
 3048 00d9 00000000 		.4byte	0
 3049 00dd 00000000 		.4byte	0
 3050              	.LLST7:
 3051 00e1 00000000 		.4byte	.LVL12
 3052 00e5 0C000000 		.4byte	.LVL14
 3053 00e9 0100     		.2byte	0x1
 3054 00eb 50       		.byte	0x50
 3055 00ec 0C000000 		.4byte	.LVL14
 3056 00f0 1A000000 		.4byte	.LVL16
 3057 00f4 0100     		.2byte	0x1
 3058 00f6 54       		.byte	0x54
 3059 00f7 1A000000 		.4byte	.LVL16
 3060 00fb 1D000000 		.4byte	.LVL17-1
 3061 00ff 0100     		.2byte	0x1
 3062 0101 50       		.byte	0x50
 3063 0102 1D000000 		.4byte	.LVL17-1
 3064 0106 1E000000 		.4byte	.LFE266
 3065 010a 0400     		.2byte	0x4
 3066 010c F3       		.byte	0xf3
 3067 010d 01       		.uleb128 0x1
 3068 010e 50       		.byte	0x50
 3069 010f 9F       		.byte	0x9f
 3070 0110 00000000 		.4byte	0
 3071 0114 00000000 		.4byte	0
 3072              	.LLST8:
 3073 0118 00000000 		.4byte	.LVL12
 3074 011c 0C000000 		.4byte	.LVL14
ARM GAS  /tmp/ccQtb5rF.s 			page 77


 3075 0120 0100     		.2byte	0x1
 3076 0122 51       		.byte	0x51
 3077 0123 0C000000 		.4byte	.LVL14
 3078 0127 1D000000 		.4byte	.LVL17-1
 3079 012b 0100     		.2byte	0x1
 3080 012d 53       		.byte	0x53
 3081 012e 1D000000 		.4byte	.LVL17-1
 3082 0132 1E000000 		.4byte	.LFE266
 3083 0136 0400     		.2byte	0x4
 3084 0138 F3       		.byte	0xf3
 3085 0139 01       		.uleb128 0x1
 3086 013a 51       		.byte	0x51
 3087 013b 9F       		.byte	0x9f
 3088 013c 00000000 		.4byte	0
 3089 0140 00000000 		.4byte	0
 3090              	.LLST9:
 3091 0144 00000000 		.4byte	.LVL12
 3092 0148 10000000 		.4byte	.LVL15
 3093 014c 0100     		.2byte	0x1
 3094 014e 52       		.byte	0x52
 3095 014f 10000000 		.4byte	.LVL15
 3096 0153 1E000000 		.4byte	.LFE266
 3097 0157 0400     		.2byte	0x4
 3098 0159 F3       		.byte	0xf3
 3099 015a 01       		.uleb128 0x1
 3100 015b 52       		.byte	0x52
 3101 015c 9F       		.byte	0x9f
 3102 015d 00000000 		.4byte	0
 3103 0161 00000000 		.4byte	0
 3104              	.LLST10:
 3105 0165 04000000 		.4byte	.LVL13
 3106 0169 0C000000 		.4byte	.LVL14
 3107 016d 0900     		.2byte	0x9
 3108 016f 71       		.byte	0x71
 3109 0170 00       		.sleb128 0
 3110 0171 33       		.byte	0x33
 3111 0172 24       		.byte	0x24
 3112 0173 70       		.byte	0x70
 3113 0174 04       		.sleb128 4
 3114 0175 06       		.byte	0x6
 3115 0176 22       		.byte	0x22
 3116 0177 9F       		.byte	0x9f
 3117 0178 0C000000 		.4byte	.LVL14
 3118 017c 1A000000 		.4byte	.LVL16
 3119 0180 0800     		.2byte	0x8
 3120 0182 73       		.byte	0x73
 3121 0183 00       		.sleb128 0
 3122 0184 33       		.byte	0x33
 3123 0185 24       		.byte	0x24
 3124 0186 75       		.byte	0x75
 3125 0187 00       		.sleb128 0
 3126 0188 22       		.byte	0x22
 3127 0189 9F       		.byte	0x9f
 3128 018a 00000000 		.4byte	0
 3129 018e 00000000 		.4byte	0
 3130              		.section	.debug_aranges,"",%progbits
 3131 0000 4C000000 		.4byte	0x4c
ARM GAS  /tmp/ccQtb5rF.s 			page 78


 3132 0004 0200     		.2byte	0x2
 3133 0006 00000000 		.4byte	.Ldebug_info0
 3134 000a 04       		.byte	0x4
 3135 000b 00       		.byte	0
 3136 000c 0000     		.2byte	0
 3137 000e 0000     		.2byte	0
 3138 0010 00000000 		.4byte	.LFB260
 3139 0014 04000000 		.4byte	.LFE260-.LFB260
 3140 0018 00000000 		.4byte	.LFB261
 3141 001c 0A000000 		.4byte	.LFE261-.LFB261
 3142 0020 00000000 		.4byte	.LFB262
 3143 0024 1C000000 		.4byte	.LFE262-.LFB262
 3144 0028 00000000 		.4byte	.LFB263
 3145 002c 1A000000 		.4byte	.LFE263-.LFB263
 3146 0030 00000000 		.4byte	.LFB264
 3147 0034 14000000 		.4byte	.LFE264-.LFB264
 3148 0038 00000000 		.4byte	.LFB265
 3149 003c 14000000 		.4byte	.LFE265-.LFB265
 3150 0040 00000000 		.4byte	.LFB266
 3151 0044 1E000000 		.4byte	.LFE266-.LFB266
 3152 0048 00000000 		.4byte	0
 3153 004c 00000000 		.4byte	0
 3154              		.section	.debug_ranges,"",%progbits
 3155              	.Ldebug_ranges0:
 3156 0000 02000000 		.4byte	.LBB76
 3157 0004 04000000 		.4byte	.LBE76
 3158 0008 06000000 		.4byte	.LBB85
 3159 000c 0A000000 		.4byte	.LBE85
 3160 0010 00000000 		.4byte	0
 3161 0014 00000000 		.4byte	0
 3162 0018 02000000 		.4byte	.LBB92
 3163 001c 04000000 		.4byte	.LBE92
 3164 0020 06000000 		.4byte	.LBB101
 3165 0024 0A000000 		.4byte	.LBE101
 3166 0028 00000000 		.4byte	0
 3167 002c 00000000 		.4byte	0
 3168 0030 00000000 		.4byte	.LFB260
 3169 0034 04000000 		.4byte	.LFE260
 3170 0038 00000000 		.4byte	.LFB261
 3171 003c 0A000000 		.4byte	.LFE261
 3172 0040 00000000 		.4byte	.LFB262
 3173 0044 1C000000 		.4byte	.LFE262
 3174 0048 00000000 		.4byte	.LFB263
 3175 004c 1A000000 		.4byte	.LFE263
 3176 0050 00000000 		.4byte	.LFB264
 3177 0054 14000000 		.4byte	.LFE264
 3178 0058 00000000 		.4byte	.LFB265
 3179 005c 14000000 		.4byte	.LFE265
 3180 0060 00000000 		.4byte	.LFB266
 3181 0064 1E000000 		.4byte	.LFE266
 3182 0068 00000000 		.4byte	0
 3183 006c 00000000 		.4byte	0
 3184              		.section	.debug_line,"",%progbits
 3185              	.Ldebug_line0:
 3186 0000 29030000 		.section	.debug_str,"MS",%progbits,1
 3186      02003F02 
 3186      00000201 
ARM GAS  /tmp/ccQtb5rF.s 			page 79


 3186      FB0E0D00 
 3186      01010101 
 3187              	.LASF50:
 3188 0000 72656164 		.ascii	"ready_list_t\000"
 3188      795F6C69 
 3188      73745F74 
 3188      00
 3189              	.LASF88:
 3190 000d 77747472 		.ascii	"wttrp\000"
 3190      7000
 3191              	.LASF85:
 3192 0013 7264796D 		.ascii	"rdymsg\000"
 3192      736700
 3193              	.LASF16:
 3194 001a 75696E74 		.ascii	"uint64_t\000"
 3194      36345F74 
 3194      00
 3195              	.LASF1:
 3196 0023 7369676E 		.ascii	"signed char\000"
 3196      65642063 
 3196      68617200 
 3197              	.LASF5:
 3198 002f 5F5F7569 		.ascii	"__uint8_t\000"
 3198      6E74385F 
 3198      7400
 3199              	.LASF109:
 3200 0039 65787063 		.ascii	"expchannel_t\000"
 3200      68616E6E 
 3200      656C5F74 
 3200      00
 3201              	.LASF82:
 3202 0046 706F7274 		.ascii	"port_intctx\000"
 3202      5F696E74 
 3202      63747800 
 3203              	.LASF69:
 3204 0052 73797374 		.ascii	"system_debug_t\000"
 3204      656D5F64 
 3204      65627567 
 3204      5F7400
 3205              	.LASF115:
 3206 0061 706F7274 		.ascii	"port_lock\000"
 3206      5F6C6F63 
 3206      6B00
 3207              	.LASF134:
 3208 006b 65787453 		.ascii	"extSetChannelModeI\000"
 3208      65744368 
 3208      616E6E65 
 3208      6C4D6F64 
 3208      654900
 3209              	.LASF12:
 3210 007e 6C6F6E67 		.ascii	"long long unsigned int\000"
 3210      206C6F6E 
 3210      6720756E 
 3210      7369676E 
 3210      65642069 
 3211              	.LASF139:
 3212 0095 6578745F 		.ascii	"ext_lld_stop\000"
ARM GAS  /tmp/ccQtb5rF.s 			page 80


 3212      6C6C645F 
 3212      73746F70 
 3212      00
 3213              	.LASF86:
 3214 00a2 65786974 		.ascii	"exitcode\000"
 3214      636F6465 
 3214      00
 3215              	.LASF76:
 3216 00ab 6D61696E 		.ascii	"mainthread\000"
 3216      74687265 
 3216      616400
 3217              	.LASF66:
 3218 00b6 76697274 		.ascii	"virtual_timers_list_t\000"
 3218      75616C5F 
 3218      74696D65 
 3218      72735F6C 
 3218      6973745F 
 3219              	.LASF137:
 3220 00cc 49544D5F 		.ascii	"ITM_RxBuffer\000"
 3220      52784275 
 3220      66666572 
 3220      00
 3221              	.LASF49:
 3222 00d9 63685F74 		.ascii	"ch_threads_queue\000"
 3222      68726561 
 3222      64735F71 
 3222      75657565 
 3222      00
 3223              	.LASF147:
 3224 00ea 6578745F 		.ascii	"ext_lld_channel_disable\000"
 3224      6C6C645F 
 3224      6368616E 
 3224      6E656C5F 
 3224      64697361 
 3225              	.LASF29:
 3226 0102 705F7072 		.ascii	"p_prio\000"
 3226      696F00
 3227              	.LASF124:
 3228 0109 65787453 		.ascii	"extStart\000"
 3228      74617274 
 3228      00
 3229              	.LASF10:
 3230 0112 6C6F6E67 		.ascii	"long long int\000"
 3230      206C6F6E 
 3230      6720696E 
 3230      7400
 3231              	.LASF125:
 3232 0120 65787470 		.ascii	"extp\000"
 3232      00
 3233              	.LASF123:
 3234 0125 6578744F 		.ascii	"extObjectInit\000"
 3234      626A6563 
 3234      74496E69 
 3234      7400
 3235              	.LASF43:
 3236 0133 705F6D70 		.ascii	"p_mpool\000"
 3236      6F6F6C00 
ARM GAS  /tmp/ccQtb5rF.s 			page 81


 3237              	.LASF96:
 3238 013b 6D5F7175 		.ascii	"m_queue\000"
 3238      65756500 
 3239              	.LASF75:
 3240 0143 76746C69 		.ascii	"vtlist\000"
 3240      737400
 3241              	.LASF116:
 3242 014a 706F7274 		.ascii	"port_unlock\000"
 3242      5F756E6C 
 3242      6F636B00 
 3243              	.LASF146:
 3244 0156 6578745F 		.ascii	"ext_lld_init\000"
 3244      6C6C645F 
 3244      696E6974 
 3244      00
 3245              	.LASF107:
 3246 0163 73746174 		.ascii	"state\000"
 3246      6500
 3247              	.LASF113:
 3248 0169 6368616E 		.ascii	"channels\000"
 3248      6E656C73 
 3248      00
 3249              	.LASF7:
 3250 0172 6C6F6E67 		.ascii	"long int\000"
 3250      20696E74 
 3250      00
 3251              	.LASF19:
 3252 017b 74737461 		.ascii	"tstate_t\000"
 3252      74655F74 
 3252      00
 3253              	.LASF31:
 3254 0184 705F6E65 		.ascii	"p_newer\000"
 3254      77657200 
 3255              	.LASF93:
 3256 018c 735F7175 		.ascii	"s_queue\000"
 3256      65756500 
 3257              	.LASF112:
 3258 0194 45585443 		.ascii	"EXTChannelConfig\000"
 3258      68616E6E 
 3258      656C436F 
 3258      6E666967 
 3258      00
 3259              	.LASF55:
 3260 01a5 725F6E65 		.ascii	"r_newer\000"
 3260      77657200 
 3261              	.LASF79:
 3262 01ad 72656761 		.ascii	"regarm_t\000"
 3262      726D5F74 
 3262      00
 3263              	.LASF62:
 3264 01b6 76745F70 		.ascii	"vt_prev\000"
 3264      72657600 
 3265              	.LASF120:
 3266 01be 6F73616C 		.ascii	"osalSysLock\000"
 3266      5379734C 
 3266      6F636B00 
 3267              	.LASF100:
ARM GAS  /tmp/ccQtb5rF.s 			page 82


 3268 01ca 6D757465 		.ascii	"mutex_t\000"
 3268      785F7400 
 3269              	.LASF143:
 3270 01d2 76616C75 		.ascii	"value\000"
 3270      6500
 3271              	.LASF77:
 3272 01d8 69646C65 		.ascii	"idle_thread_wa\000"
 3272      5F746872 
 3272      6561645F 
 3272      776100
 3273              	.LASF24:
 3274 01e7 636E745F 		.ascii	"cnt_t\000"
 3274      7400
 3275              	.LASF0:
 3276 01ed 756E7369 		.ascii	"unsigned int\000"
 3276      676E6564 
 3276      20696E74 
 3276      00
 3277              	.LASF61:
 3278 01fa 76745F6E 		.ascii	"vt_next\000"
 3278      65787400 
 3279              	.LASF144:
 3280 0202 5F5F6675 		.ascii	"__func__.5798\000"
 3280      6E635F5F 
 3280      2E353739 
 3280      3800
 3281              	.LASF89:
 3282 0210 77747365 		.ascii	"wtsemp\000"
 3282      6D7000
 3283              	.LASF38:
 3284 0217 705F6D73 		.ascii	"p_msgqueue\000"
 3284      67717565 
 3284      756500
 3285              	.LASF126:
 3286 0222 65787453 		.ascii	"extStop\000"
 3286      746F7000 
 3287              	.LASF138:
 3288 022a 6578745F 		.ascii	"ext_lld_start\000"
 3288      6C6C645F 
 3288      73746172 
 3288      7400
 3289              	.LASF94:
 3290 0238 735F636E 		.ascii	"s_cnt\000"
 3290      7400
 3291              	.LASF81:
 3292 023e 636F6E74 		.ascii	"context\000"
 3292      65787400 
 3293              	.LASF4:
 3294 0246 73686F72 		.ascii	"short unsigned int\000"
 3294      7420756E 
 3294      7369676E 
 3294      65642069 
 3294      6E7400
 3295              	.LASF46:
 3296 0259 63685F74 		.ascii	"ch_thread\000"
 3296      68726561 
 3296      6400
ARM GAS  /tmp/ccQtb5rF.s 			page 83


 3297              	.LASF114:
 3298 0263 45585443 		.ascii	"EXTConfig\000"
 3298      6F6E6669 
 3298      6700
 3299              	.LASF22:
 3300 026d 6D73675F 		.ascii	"msg_t\000"
 3300      7400
 3301              	.LASF72:
 3302 0273 63685F73 		.ascii	"ch_system_t\000"
 3302      79737465 
 3302      6D5F7400 
 3303              	.LASF18:
 3304 027f 746D6F64 		.ascii	"tmode_t\000"
 3304      655F7400 
 3305              	.LASF51:
 3306 0287 63685F72 		.ascii	"ch_ready_list\000"
 3306      65616479 
 3306      5F6C6973 
 3306      7400
 3307              	.LASF23:
 3308 0295 6576656E 		.ascii	"eventmask_t\000"
 3308      746D6173 
 3308      6B5F7400 
 3309              	.LASF6:
 3310 02a1 5F5F696E 		.ascii	"__int32_t\000"
 3310      7433325F 
 3310      7400
 3311              	.LASF80:
 3312 02ab 73746B61 		.ascii	"stkalign_t\000"
 3312      6C69676E 
 3312      5F7400
 3313              	.LASF140:
 3314 02b6 6578745F 		.ascii	"ext_lld_channel_enable\000"
 3314      6C6C645F 
 3314      6368616E 
 3314      6E656C5F 
 3314      656E6162 
 3315              	.LASF104:
 3316 02cd 4558545F 		.ascii	"EXT_ACTIVE\000"
 3316      41435449 
 3316      564500
 3317              	.LASF141:
 3318 02d8 474E5520 		.ascii	"GNU C 4.8.4 20141219 (release) -mcpu=cortex-m4 -mno"
 3318      4320342E 
 3318      382E3420 
 3318      32303134 
 3318      31323139 
 3319 030b 2D746875 		.ascii	"-thumb-interwork -mthumb -ggdb -O2 -fomit-frame-poi"
 3319      6D622D69 
 3319      6E746572 
 3319      776F726B 
 3319      202D6D74 
 3320 033e 6E746572 		.ascii	"nter -falign-functions=16 -ffunction-sections -fdat"
 3320      202D6661 
 3320      6C69676E 
 3320      2D66756E 
 3320      6374696F 
ARM GAS  /tmp/ccQtb5rF.s 			page 84


 3321 0371 612D7365 		.ascii	"a-sections -fno-common -flto\000"
 3321      6374696F 
 3321      6E73202D 
 3321      666E6F2D 
 3321      636F6D6D 
 3322              	.LASF142:
 3323 038e 2F757372 		.ascii	"/usr/src/chibios/os/hal/src/ext.c\000"
 3323      2F737263 
 3323      2F636869 
 3323      62696F73 
 3323      2F6F732F 
 3324              	.LASF145:
 3325 03b0 6F6C6463 		.ascii	"oldcp\000"
 3325      7000
 3326              	.LASF37:
 3327 03b6 705F7761 		.ascii	"p_waiting\000"
 3327      6974696E 
 3327      6700
 3328              	.LASF78:
 3329 03c0 73697A65 		.ascii	"sizetype\000"
 3329      74797065 
 3329      00
 3330              	.LASF44:
 3331 03c9 74687265 		.ascii	"thread_reference_t\000"
 3331      61645F72 
 3331      65666572 
 3331      656E6365 
 3331      5F7400
 3332              	.LASF105:
 3333 03dc 65787473 		.ascii	"extstate_t\000"
 3333      74617465 
 3333      5F7400
 3334              	.LASF67:
 3335 03e7 63685F76 		.ascii	"ch_virtual_timers_list\000"
 3335      69727475 
 3335      616C5F74 
 3335      696D6572 
 3335      735F6C69 
 3336              	.LASF132:
 3337 03fe 65787443 		.ascii	"extChannelDisable\000"
 3337      68616E6E 
 3337      656C4469 
 3337      7361626C 
 3337      6500
 3338              	.LASF68:
 3339 0410 76745F6C 		.ascii	"vt_lasttime\000"
 3339      61737474 
 3339      696D6500 
 3340              	.LASF32:
 3341 041c 705F6F6C 		.ascii	"p_older\000"
 3341      64657200 
 3342              	.LASF54:
 3343 0424 725F6374 		.ascii	"r_ctx\000"
 3343      7800
 3344              	.LASF127:
 3345 042a 5F5F6675 		.ascii	"__func__.7598\000"
 3345      6E635F5F 
ARM GAS  /tmp/ccQtb5rF.s 			page 85


 3345      2E373539 
 3345      3800
 3346              	.LASF84:
 3347 0438 746D5F63 		.ascii	"tm_calibration_t\000"
 3347      616C6962 
 3347      72617469 
 3347      6F6E5F74 
 3347      00
 3348              	.LASF102:
 3349 0449 4558545F 		.ascii	"EXT_UNINIT\000"
 3349      554E494E 
 3349      495400
 3350              	.LASF57:
 3351 0454 725F6375 		.ascii	"r_current\000"
 3351      7272656E 
 3351      7400
 3352              	.LASF56:
 3353 045e 725F6F6C 		.ascii	"r_older\000"
 3353      64657200 
 3354              	.LASF11:
 3355 0466 5F5F7569 		.ascii	"__uint64_t\000"
 3355      6E743634 
 3355      5F7400
 3356              	.LASF20:
 3357 0471 74726566 		.ascii	"trefs_t\000"
 3357      735F7400 
 3358              	.LASF59:
 3359 0479 76697274 		.ascii	"virtual_timer_t\000"
 3359      75616C5F 
 3359      74696D65 
 3359      725F7400 
 3360              	.LASF28:
 3361 0489 705F7072 		.ascii	"p_prev\000"
 3361      657600
 3362              	.LASF21:
 3363 0490 74707269 		.ascii	"tprio_t\000"
 3363      6F5F7400 
 3364              	.LASF70:
 3365 0498 63685F73 		.ascii	"ch_system_debug\000"
 3365      79737465 
 3365      6D5F6465 
 3365      62756700 
 3366              	.LASF101:
 3367 04a8 5F426F6F 		.ascii	"_Bool\000"
 3367      6C00
 3368              	.LASF14:
 3369 04ae 696E7433 		.ascii	"int32_t\000"
 3369      325F7400 
 3370              	.LASF2:
 3371 04b6 756E7369 		.ascii	"unsigned char\000"
 3371      676E6564 
 3371      20636861 
 3371      7200
 3372              	.LASF122:
 3373 04c4 65787449 		.ascii	"extInit\000"
 3373      6E697400 
 3374              	.LASF41:
ARM GAS  /tmp/ccQtb5rF.s 			page 86


 3375 04cc 705F6D74 		.ascii	"p_mtxlist\000"
 3375      786C6973 
 3375      7400
 3376              	.LASF3:
 3377 04d6 73686F72 		.ascii	"short int\000"
 3377      7420696E 
 3377      7400
 3378              	.LASF34:
 3379 04e0 705F7374 		.ascii	"p_state\000"
 3379      61746500 
 3380              	.LASF53:
 3381 04e8 725F7072 		.ascii	"r_prio\000"
 3381      696F00
 3382              	.LASF91:
 3383 04ef 65776D61 		.ascii	"ewmask\000"
 3383      736B00
 3384              	.LASF27:
 3385 04f6 705F6E65 		.ascii	"p_next\000"
 3385      787400
 3386              	.LASF35:
 3387 04fd 705F666C 		.ascii	"p_flags\000"
 3387      61677300 
 3388              	.LASF117:
 3389 0505 63685379 		.ascii	"chSysLock\000"
 3389      734C6F63 
 3389      6B00
 3390              	.LASF73:
 3391 050f 63685F73 		.ascii	"ch_system\000"
 3391      79737465 
 3391      6D00
 3392              	.LASF121:
 3393 0519 6F73616C 		.ascii	"osalSysUnlock\000"
 3393      53797355 
 3393      6E6C6F63 
 3393      6B00
 3394              	.LASF130:
 3395 0527 6368616E 		.ascii	"channel\000"
 3395      6E656C00 
 3396              	.LASF60:
 3397 052f 63685F76 		.ascii	"ch_virtual_timer\000"
 3397      69727475 
 3397      616C5F74 
 3397      696D6572 
 3397      00
 3398              	.LASF92:
 3399 0540 63685F73 		.ascii	"ch_semaphore\000"
 3399      656D6170 
 3399      686F7265 
 3399      00
 3400              	.LASF40:
 3401 054d 705F6570 		.ascii	"p_epending\000"
 3401      656E6469 
 3401      6E6700
 3402              	.LASF15:
 3403 0558 75696E74 		.ascii	"uint32_t\000"
 3403      33325F74 
 3403      00
ARM GAS  /tmp/ccQtb5rF.s 			page 87


 3404              	.LASF90:
 3405 0561 77746D74 		.ascii	"wtmtxp\000"
 3405      787000
 3406              	.LASF52:
 3407 0568 725F7175 		.ascii	"r_queue\000"
 3407      65756500 
 3408              	.LASF63:
 3409 0570 76745F64 		.ascii	"vt_delta\000"
 3409      656C7461 
 3409      00
 3410              	.LASF47:
 3411 0579 63685F74 		.ascii	"ch_threads_list\000"
 3411      68726561 
 3411      64735F6C 
 3411      69737400 
 3412              	.LASF9:
 3413 0589 6C6F6E67 		.ascii	"long unsigned int\000"
 3413      20756E73 
 3413      69676E65 
 3413      6420696E 
 3413      7400
 3414              	.LASF103:
 3415 059b 4558545F 		.ascii	"EXT_STOP\000"
 3415      53544F50 
 3415      00
 3416              	.LASF99:
 3417 05a4 63686172 		.ascii	"char\000"
 3417      00
 3418              	.LASF111:
 3419 05a9 6D6F6465 		.ascii	"mode\000"
 3419      00
 3420              	.LASF108:
 3421 05ae 636F6E66 		.ascii	"config\000"
 3421      696700
 3422              	.LASF110:
 3423 05b5 65787463 		.ascii	"extcallback_t\000"
 3423      616C6C62 
 3423      61636B5F 
 3423      7400
 3424              	.LASF26:
 3425 05c3 74687265 		.ascii	"thread_t\000"
 3425      61645F74 
 3425      00
 3426              	.LASF128:
 3427 05cc 5F5F6675 		.ascii	"__func__.7602\000"
 3427      6E635F5F 
 3427      2E373630 
 3427      3200
 3428              	.LASF98:
 3429 05da 6D5F6E65 		.ascii	"m_next\000"
 3429      787400
 3430              	.LASF25:
 3431 05e1 73797374 		.ascii	"systime_t\000"
 3431      696D655F 
 3431      7400
 3432              	.LASF42:
 3433 05eb 705F7265 		.ascii	"p_realprio\000"
ARM GAS  /tmp/ccQtb5rF.s 			page 88


 3433      616C7072 
 3433      696F00
 3434              	.LASF58:
 3435 05f6 76746675 		.ascii	"vtfunc_t\000"
 3435      6E635F74 
 3435      00
 3436              	.LASF8:
 3437 05ff 5F5F7569 		.ascii	"__uint32_t\000"
 3437      6E743332 
 3437      5F7400
 3438              	.LASF118:
 3439 060a 5F5F7365 		.ascii	"__set_BASEPRI\000"
 3439      745F4241 
 3439      53455052 
 3439      4900
 3440              	.LASF71:
 3441 0618 70616E69 		.ascii	"panic_msg\000"
 3441      635F6D73 
 3441      6700
 3442              	.LASF83:
 3443 0622 6F666673 		.ascii	"offset\000"
 3443      657400
 3444              	.LASF17:
 3445 0629 7274636E 		.ascii	"rtcnt_t\000"
 3445      745F7400 
 3446              	.LASF131:
 3447 0631 5F5F6675 		.ascii	"__func__.7607\000"
 3447      6E635F5F 
 3447      2E373630 
 3447      3700
 3448              	.LASF65:
 3449 063f 76745F70 		.ascii	"vt_par\000"
 3449      617200
 3450              	.LASF129:
 3451 0646 65787443 		.ascii	"extChannelEnable\000"
 3451      68616E6E 
 3451      656C456E 
 3451      61626C65 
 3451      00
 3452              	.LASF106:
 3453 0657 45585444 		.ascii	"EXTDriver\000"
 3453      72697665 
 3453      7200
 3454              	.LASF48:
 3455 0661 74687265 		.ascii	"threads_queue_t\000"
 3455      6164735F 
 3455      71756575 
 3455      655F7400 
 3456              	.LASF95:
 3457 0671 63685F6D 		.ascii	"ch_mutex\000"
 3457      75746578 
 3457      00
 3458              	.LASF36:
 3459 067a 705F7265 		.ascii	"p_refs\000"
 3459      667300
 3460              	.LASF74:
 3461 0681 726C6973 		.ascii	"rlist\000"
ARM GAS  /tmp/ccQtb5rF.s 			page 89


 3461      7400
 3462              	.LASF13:
 3463 0687 75696E74 		.ascii	"uint8_t\000"
 3463      385F7400 
 3464              	.LASF133:
 3465 068f 5F5F6675 		.ascii	"__func__.7612\000"
 3465      6E635F5F 
 3465      2E373631 
 3465      3200
 3466              	.LASF87:
 3467 069d 77746F62 		.ascii	"wtobjp\000"
 3467      6A7000
 3468              	.LASF33:
 3469 06a4 705F6E61 		.ascii	"p_name\000"
 3469      6D6500
 3470              	.LASF136:
 3471 06ab 5F5F6675 		.ascii	"__func__.7619\000"
 3471      6E635F5F 
 3471      2E373631 
 3471      3900
 3472              	.LASF45:
 3473 06b9 74687265 		.ascii	"threads_list_t\000"
 3473      6164735F 
 3473      6C697374 
 3473      5F7400
 3474              	.LASF119:
 3475 06c8 63685379 		.ascii	"chSysUnlock\000"
 3475      73556E6C 
 3475      6F636B00 
 3476              	.LASF39:
 3477 06d4 705F6D73 		.ascii	"p_msg\000"
 3477      6700
 3478              	.LASF97:
 3479 06da 6D5F6F77 		.ascii	"m_owner\000"
 3479      6E657200 
 3480              	.LASF30:
 3481 06e2 705F6374 		.ascii	"p_ctx\000"
 3481      7800
 3482              	.LASF64:
 3483 06e8 76745F66 		.ascii	"vt_func\000"
 3483      756E6300 
 3484              	.LASF135:
 3485 06f0 65787463 		.ascii	"extcp\000"
 3485      7000
 3486              		.comm	__gnu_lto_v1,1,1
 3487              		.ident	"GCC: (4.8.4-1+11-1) 4.8.4 20141219 (release)"
ARM GAS  /tmp/ccQtb5rF.s 			page 90


DEFINED SYMBOLS
                            *ABS*:00000000 ext.c
     /tmp/ccQtb5rF.s:389    .text.extInit:00000000 $t
     /tmp/ccQtb5rF.s:395    .text.extInit:00000000 extInit
     /tmp/ccQtb5rF.s:410    .text.extObjectInit:00000000 $t
     /tmp/ccQtb5rF.s:416    .text.extObjectInit:00000000 extObjectInit
     /tmp/ccQtb5rF.s:437    .text.extStart:00000000 $t
     /tmp/ccQtb5rF.s:443    .text.extStart:00000000 extStart
     /tmp/ccQtb5rF.s:516    .text.extStop:00000000 $t
     /tmp/ccQtb5rF.s:522    .text.extStop:00000000 extStop
     /tmp/ccQtb5rF.s:592    .text.extChannelEnable:00000000 $t
     /tmp/ccQtb5rF.s:598    .text.extChannelEnable:00000000 extChannelEnable
     /tmp/ccQtb5rF.s:651    .text.extChannelDisable:00000000 $t
     /tmp/ccQtb5rF.s:657    .text.extChannelDisable:00000000 extChannelDisable
     /tmp/ccQtb5rF.s:710    .text.extSetChannelModeI:00000000 $t
     /tmp/ccQtb5rF.s:716    .text.extSetChannelModeI:00000000 extSetChannelModeI
                            *COM*:00000001 __gnu_lto_v1
                     .debug_frame:00000010 $d

UNDEFINED SYMBOLS
ext_lld_init
ext_lld_start
ext_lld_stop
ext_lld_channel_enable
ext_lld_channel_disable
