ARM GAS  /tmp/ccBA9sFT.s 			page 1


   1              		.syntax unified
   2              		.cpu cortex-m4
   3              		.fpu softvfp
   4              		.eabi_attribute 20, 1
   5              		.eabi_attribute 21, 1
   6              		.eabi_attribute 23, 3
   7              		.eabi_attribute 24, 1
   8              		.eabi_attribute 25, 1
   9              		.eabi_attribute 26, 1
  10              		.eabi_attribute 30, 2
  11              		.eabi_attribute 34, 1
  12              		.eabi_attribute 18, 4
  13              		.thumb
  14              		.file	"ext_lld_isr.c"
  15              		.text
  16              	.Ltext0:
  17              		.section	.gnu.lto_.jmpfuncs.2317bc6143929e,"",%progbits
  18 0000 789C7D90 		.ascii	"x\234}\220\311\015\302P\014D\3778\373\002\011{\013@"
  18      C90DC250 
  18      0C44FF38 
  18      FB02097B 
  18      0B40
  19 0012 11544001 		.ascii	"\021T@\001\264\300\201\0128\300\221\033\375r\2028\304"
  19      B4C0810A 
  19      38C0911B 
  19      FD728238 
  19      C4
  20 0023 42329948 		.ascii	"B2\231HQ~\336<Y\236/A\302\277\347\031\367\337\366\363"
  20      517EDE3C 
  20      599E2F41 
  20      C2BFE719 
  20      F7DFF6F3 
  21 0037 8A5CC3EB 		.ascii	"\212\\\303\353\376\270\267g\204\013\024\313\011gt\307"
  21      FEB8B767 
  21      840B14CB 
  21      096774C7 
  22 0047 5BE8068C 		.ascii	"[\350\006\214\032P#\"\206\250\021\023#R#!F\254FJ\214"
  22      1A502322 
  22      86A81113 
  22      23522321 
  22      46AC464A 
  23 005c A2DF742C 		.ascii	"\242\337t,\316y\234\3618\345q\242qF\214\206\017\230"
  23      CE799CF1 
  23      38E571A2 
  23      71468C86 
  23      0F98
  24 006e F278C2E3 		.ascii	"\362x\302\343\232\307\025\217K\215sb\264j\024\304\230"
  24      9AC7158F 
  24      4B8D7362 
  24      B46A14C4 
  24      98
  25 007f A9511263 		.ascii	"\251Q\022c\256FE\214\205\03251\226jL\210\261RcJ\214"
  25      AE46458C 
  25      851A3531 
  25      966A4C88 
  25      B152634A 
  26 0094 B51ACD47 		.ascii	"\265\032\315G\350~%\372ri\302\200\304\243\343\200RC"
ARM GAS  /tmp/ccBA9sFT.s 			page 2


  26      E87E25FA 
  26      7269C280 
  26      C4A3E380 
  26      5243
  27 00a6 078FF61E 		.ascii	"\007\217\366\036\355\374,xk\353\321\306\243\322\243"
  27      EDFC2C78 
  27      6BEBD1C6 
  27      A3D2A3
  28 00b5 C2A3DCA3 		.ascii	"\302\243\334\243\314\243\364\007\265\001v\027\260+\200"
  28      CCA3F407 
  28      B5017617 
  28      B02B80
  29 00c4 35871586 		.ascii	"5\207\025\206\365\204\325\203\265\202\225\201u\200\255"
  29      F584D583 
  29      B5829581 
  29      7580AD
  30 00d3 0EDB18B6 		.ascii	"\016\333\030\266(l?\3306\341\015J\336\235!"
  30      286C3FD8 
  30      36E10D4A 
  30      DE9D21
  31              		.text
  32              		.section	.gnu.lto_.inline.2317bc6143929e,"",%progbits
  33 0000 789C6362 		.ascii	"x\234cb`b\300\006.C\205\005\030\030x\024\030\031\230"
  33      6062C006 
  33      2E438505 
  33      18187814 
  33      181998
  34 0013 D83EE831 		.ascii	"\330>\3501\260-\220\007\2132r\001\011VA\006\220V&\374"
  34      B02D9007 
  34      8B327201 
  34      09564106 
  34      905626FC 
  35 0027 D2CCF8A5 		.ascii	"\322\314\370\245Y\360K\263\342\227fc\260\264\006J[\\"
  35      59F04BB3 
  35      E2976663 
  35      B0B4064A 
  35      5B5C
  36 0039 39C9845D 		.ascii	"9\311\204];\036\212\235\3410\303\021\006\240n\2473\215"
  36      3B1E8A9D 
  36      E130C311 
  36      06A06EA7 
  36      338D
  37 004b CC24EB86 		.ascii	"\314$\353\206R\034\370\335\307\211_\232\013\27747~i"
  37      521CF8DD 
  37      C7895F9A 
  37      0BBF3437 
  37      7E69
  38 005d 1EFCD2BC 		.ascii	"\036\374\322\274\370\245\371\360K\3633\350\256bd\004"
  38      F8A5F9F0 
  38      4BF333E8 
  38      AE626404 
  39 006d 270D9834 		.ascii	"'\015\23043\017$BiG\0110\310\317A\263\224\211\233\001"
  39      330F2442 
  39      69470930 
  39      C8CF41B3 
  39      94899B01 
  40 0081 14475425 		.ascii	"\024GT%\031\000T\232)="
ARM GAS  /tmp/ccBA9sFT.s 			page 3


  40      1900549A 
  40      293D
  41              		.text
  42              		.section	.gnu.lto_.pureconst.2317bc6143929e,"",%progbits
  43 0000 789C25C1 		.ascii	"x\234%\301\267\021\000 \014\0001\237\311\331\245\357"
  43      B7110020 
  43      0C00319F 
  43      C9D9A5EF 
  44 0010 3BF65F92 		.ascii	";\366_\222\002IE\345\312g\202\022\210$2\205J\2433\230"
  44      024945E5 
  44      CA678212 
  44      88243285 
  44      4AA33398 
  45 0024 2C36C7CD 		.ascii	",6\307\315\037(n\002Y"
  45      1F286E02 
  45      59
  46              		.text
  47              		.section	.gnu.lto_Vector58.2317bc6143929e,"",%progbits
  48 0000 789C5D50 		.ascii	"x\234]P=K\003A\020}\263w\371Pc\242\245\235`g\320\005"
  48      3D4B0341 
  48      107DB377 
  48      F95063A2 
  48      A59D6067 
  49 0016 B514D3D9 		.ascii	"\265\024\323\331Y\031A\253\220\234\222,D\"w\021\002"
  49      591941AB 
  49      909C922C 
  49      44227711 
  49      02
  50 0027 16D9D304 		.ascii	"\026\331\323\004R^)\012\006[\021mS\006\373(\266V\361"
  50      525E290A 
  50      065B116D 
  50      5306FB28 
  50      B656F1
  51 003a 1F682736 		.ascii	"\037h'6q\367\366.\205\303\355\3540\367\336\233\267\303"
  51      71F7F62E 
  51      85C3EDEC 
  51      30F7DE9B 
  51      B7C3
  52 004c C0F03F96 		.ascii	"\300\360?\226\324\271#`G\335d\201X\360\012\370iF\244"
  52      D4B92360 
  52      47DD6481 
  52      58F00AF8 
  52      6946A4
  53 005f 0B10DA8C 		.ascii	"\013\020\332\214\332G\024b\237\331p<\231<}}\177\366"
  53      DA471462 
  53      9FD9703C 
  53      993C7D7D 
  53      7FF6
  54 0071 68316541 		.ascii	"h1eA\020l\225\364\317\004:R\006\313\200\023B\213*k\376"
  54      106C95F4 
  54      CF043A52 
  54      06CB8013 
  54      428B2A6B 
  55 0086 01317D5B 		.ascii	"\0011}[#\274\014\256\373\3312\335S\002y<\310\216/s\202"
  55      23BC0CAE 
  55      FBD932DD 
  55      5302793C 
ARM GAS  /tmp/ccBA9sFT.s 			page 4


  55      C88E2F73 
  56 009b D82D6E48 		.ascii	"\330-nH\220u\250\222-\177:\322FX\206\323*fh\330a\272"
  56      9075A892 
  56      2D7F3AD2 
  56      465886D3 
  56      2A6668D8 
  57 00b1 1EE1F263 		.ascii	"\036\341\362c\320\317\030\221*Yy\254*\007J\302\227r"
  57      D0CF1891 
  57      2A5979AC 
  57      2A074AC2 
  57      9772
  58 00c3 4150E202 		.ascii	"AP\342\002\277\262\247\253\344)\305\304d$\025i\205\032"
  58      BFB2A7AB 
  58      E429C5C4 
  58      64241569 
  58      851A
  59 00d5 412E96B0 		.ascii	"A.\226\260\265\025EH\255\341Q\006Rz\202\322\272\245"
  59      B5154548 
  59      ADE15106 
  59      527A82D2 
  59      BAA5
  60 00e7 CA82A019 		.ascii	"\312\202\240\031\343n\266j\014\"\222bSWs\323-V\324\352"
  60      E36EB66A 
  60      0C229262 
  60      535773D3 
  60      2D56D4EA 
  61 00fb 4CBCA13B 		.ascii	"L\274\241;,\030}\350\011\200\266\2256\246\242\276\346"
  61      2C187DE8 
  61      0980B695 
  61      36A6A2BE 
  61      E6
  62 010c 66A03637 		.ascii	"f\24067\257\361W\343I2&L\237\220u\"\313\202r\300;\374"
  62      AFF157E3 
  62      4932264C 
  62      9F907522 
  62      CB8272C0 
  63 0122 716F2506 		.ascii	"qo%\006\231(*\200Z\255v\263\315\317=\227{\256\303\235"
  63      99282A80 
  63      5AAD76B3 
  63      CDCF3D97 
  63      7BAEC39D 
  64 0136 9AA88886 		.ascii	"\232\250\210\206\307\325W+\327\371Y\303mz|\277\270\267"
  64      C7D5572B 
  64      D7F959C3 
  64      6D7A7CBF 
  64      B8B7
  65 0148 B961F2EE 		.ascii	"\271a\362\356V\253\305OZ\315R\275~\\\022\236\273\356"
  65      56ABC54F 
  65      5ACD52BD 
  65      7E5C129E 
  65      BBEE
  66 015a E00F6A37 		.ascii	"\340\017j7o\321"
  66      6FD1
  67              		.text
  68              		.section	.gnu.lto_Vector5C.2317bc6143929e,"",%progbits
  69 0000 789C5D90 		.ascii	"x\234]\220\273K\003A\020\306\277\331\273<|\306\326N"
  69      BB4B0341 
ARM GAS  /tmp/ccBA9sFT.s 			page 5


  69      10C6BFD9 
  69      BB3C7CC6 
  69      D64E
  70 0012 B033E881 		.ascii	"\2603\350\201Z\212\351\354\254\214\240UHNI\026\"\221"
  70      5A8AE9EC 
  70      AC8CA055 
  70      484E4916 
  70      2291
  71 0024 BB08018B 		.ascii	"\273\010\001\213\354i\024\313+}@$\255\210\266\226\301"
  71      EC6914CB 
  71      2B7D4024 
  71      AD88B696 
  71      C1
  72 0035 3E8AADD5 		.ascii	">\212\255\325U\372/\004\021\342\356\355^\012\227\333"
  72      55FA2F04 
  72      11E2EEED 
  72      5E0A97DB 
  73 0045 D961EE9B 		.ascii	"\331a\356\233o~\273\014\014\377\327\274\334=\0026\345"
  73      6F7EBB0C 
  73      0CFFD7BC 
  73      DC3D0236 
  73      E5
  74 0056 49168885 		.ascii	"I\026\210\205o@\220eD*\001\241\315\250\275O\261\366"
  74      6F409065 
  74      442A01A1 
  74      CDA8BD4F 
  74      B1F6
  75 0068 99F5A3D1 		.ascii	"\231\365\243\321\350\251{\331\375\245\033\226\261\300"
  75      E8A97BD9 
  75      FDA51B96 
  75      B1C0
  76 0076 09B60CEA 		.ascii	"\011\266\014\352o\012\035!\302\005\300\215\265E\031"
  76      6F0A1D21 
  76      C205C08D 
  76      B54519
  77 0085 95C12E31 		.ascii	"\225\301.1uZ\003\274\276\014\277\"*S\217R\310\343At"
  77      755A03BC 
  77      BE0CBF22 
  77      2A538F52 
  77      C8E34174 
  78 0099 0291E3C4 		.ascii	"\002\221\343\304\356pK\234\254=\031l1\354\010\033q\032"
  78      EE704B9C 
  78      AC3D196C 
  78      31EC081B 
  78      711A
  79 00ab CFABE8B1 		.ascii	"\317\253\350\261q\205)\364\001\316>\257\277\373\306"
  79      718529F4 
  79      01CE3EAF 
  79      BFFBC6
  80 00ba A54A561E 		.ascii	"\245JV\036K\222Az\004B\314qJ\235\342G\\\251,}DIg\332"
  80      4B92417A 
  80      0442CC71 
  80      4A9DE247 
  80      5CA92C7D 
  81 00d2 7819B3D8 		.ascii	"x\031\263\330$\314%\026\266b\221\015\231e<\212P\010"
  81      24CC2516 
  81      B662910D 
ARM GAS  /tmp/ccBA9sFT.s 			page 6


  81      99653C8A 
  81      5008
  82 00e4 9F535695 		.ascii	"\237SV\225dZ\3404\241\361&\253\232\020\306\212\215\261"
  82      645AE034 
  82      A1F126AB 
  82      9A10C68A 
  82      8DB1
  83 00f6 A6125759 		.ascii	"\246\022WY\265L\366\216\213~A\373CM\000\024VVC\231\272"
  83      B54CF68E 
  83      8B7E41FB 
  83      434D0014 
  83      56564399 
  84 010b EA9D26F9 		.ascii	"\352\235&\371v3J\177\036u\335\244a|\205Y\327 s\312\001"
  84      76334A7F 
  84      1E75DDA4 
  84      617C8559 
  84      D72073CA 
  85 0120 1F08A2FB 		.ascii	"\037\010\242\373\305D\244WQ\012\344\343*\232\015\347"
  85      C544A457 
  85      510AE4E3 
  85      2A9A0DE7 
  86 0130 C4F71CDF 		.ascii	"\304\367\034\337s\035\267\306+\274\341;\362\253\225"
  86      731DB7C6 
  86      2BBCE13B 
  86      F2AB95
  87 013f EBCE71C3 		.ascii	"\353\316q\303k\372\316Nq{mU\307\255\365V\3139l5K\365"
  87      6BFACE4E 
  87      717B6D55 
  87      C7ADF556 
  87      CB396C35 
  88 0155 FA4189FB 		.ascii	"\372A\211\373\336\212\213?<\224r?"
  88      DE8A8B3F 
  88      3C94723F 
  89              		.text
  90              		.section	.gnu.lto_Vector60.2317bc6143929e,"",%progbits
  91 0000 789C5D50 		.ascii	"x\234]P=K\003A\020}\263w1\3613\266v\202\235A\027\324"
  91      3D4B0341 
  91      107DB377 
  91      31F133B6 
  91      76829D41 
  92 0016 524C6767 		.ascii	"RLgge\004\255BrJ\262\020\211\334E\010XdO\243X^m@H+\242"
  92      6504AD42 
  92      724AB210 
  92      89DC4508 
  92      58644FA3 
  93 0031 AD8D12EC 		.ascii	"\255\215\022\354\243\330\211X\334\017\220\324\301&\356"
  93      A3D88958 
  93      DC0F90D4 
  93      C126EE
  94 0040 DEDEA570 		.ascii	"\336\336\245p\330\235\031f\337\274y;\014\014\377mA\335"
  94      D89D1966 
  94      DFBC793B 
  94      0C0CFF6D 
  94      41DD
  95 0052 2E015B2A 		.ascii	".\001[*\222\005b\301\033\340g\030\221N@h1j\035P\204"
  95      920562C1 
  95      1BE06718 
ARM GAS  /tmp/ccBA9sFT.s 			page 7


  95      914E4068 
  95      316A1D50 
  96 0067 7D64BD70 		.ascii	"}d\275p4z\370\276\272\375\241\016K[\020\004[9\375\232"
  96      347AF8BE 
  96      BAFDA10E 
  96      4B5B1004 
  96      5B39FD9A 
  97 007b 425BCA60 		.ascii	"B[\312`\021p\"lAyM\260GLG\253\217\327\247\317AH%\352"
  97      1170226C 
  97      41794DB0 
  97      474C47AB 
  97      8FD7A7CF 
  98 0093 520A39DC 		.ascii	"R\0129\334\311\266/\263\202X\0077$\310\332W\316\226"
  98      C9B62FB3 
  98      82580737 
  98      24C8DA57 
  98      CE96
  99 00a5 C3B6B411 		.ascii	"\303\266\264\021\245\321\274\262\031\033U\230.\365q"
  99      A5D1BCB2 
  99      191B5598 
  99      2EF571
 100 00b4 FE351CF4 		.ascii	"\3765\034\364b\226\012Y9,+\015\212\303\227r^P\352\014"
 100      62960A59 
 100      392C2B0D 
 100      8AC39772 
 100      5E50EA0C 
 101 00c8 BFF25A67 		.ascii	"\277\362Zg\023\307\224tN\304\\1YD\022d\023\012[kQ\015"
 101      13C79474 
 101      4EC45C31 
 101      59441264 
 101      130A5B6B 
 102 00de E915DCCB 		.ascii	"\351\025\334\313@JOPF\227T\232\0274i\344MU\214B\304"
 102      404A4F50 
 102      4697549A 
 102      173469E4 
 102      4D558C42 
 103 00f3 546C2C6B 		.ascii	"Tl,kz\274\321\262\332\236\261w\\\366\362\206\037z\002"
 103      7ABCD1B2 
 103      DA9EB177 
 103      5CF6F286 
 103      1F7A02
 104 0106 A065658C 		.ascii	"\240ee\214\250\270\256{g\230\332\335\254\306_\204\317"
 104      A8B8AE7B 
 104      6798DADD 
 104      ACC65F84 
 104      CF
 105 0117 4ED230FE 		.ascii	"N\3220\376\302\234\023K\026\224\005>\340\207/K\011\310"
 105      C29C134B 
 105      1694053E 
 105      E0872F4B 
 105      09C8
 106 0129 584101D4 		.ascii	"XA\001\324r\265\204M~\352\271\334s\035\356TEY\324=\256"
 106      72B5844D 
 106      7EEAB9DC 
 106      731DEE54 
 106      4559D43D 
 107 013e 4EB554E3 		.ascii	"N\265T\343'u\267\341\361\335\302\316\372\232\361\333"
ARM GAS  /tmp/ccBA9sFT.s 			page 8


 107      2775B7E1 
 107      F1DDC2CE 
 107      FA9AF1DB 
 108 014e 1BCD263F 		.ascii	"\033\315&?j6\212\265\332aQx\356\252\203?\023\304s\000"
 108      6A368AB5 
 108      DA615178 
 108      EEAA833F 
 108      13C47300 
 109              		.text
 110              		.section	.gnu.lto_Vector64.2317bc6143929e,"",%progbits
 111 0000 789C5D50 		.ascii	"x\234]P=K\003A\020}\263wI\316\317\330\332\011v\006="
 111      3D4B0341 
 111      107DB377 
 111      49CECFD8 
 111      DA097606 
 112 0015 504B319D 		.ascii	"PK1\235\235\225\021\264\012\311)\311B$r\027!`\221=M"
 112      9D9511B4 
 112      0AC929C9 
 112      42247217 
 112      2160913D 
 113 002a D0F2EA88 		.ascii	"\320\362\352\210BZ\021mS\006\373(v\"\021\356W\004\261"
 113      425A116D 
 113      5306FB28 
 113      762211EE 
 113      5704B1
 114 003d 89BBB777 		.ascii	"\211\273\267w)\\vg\037\263o\336\274\035\006\206\377"
 114      295C7667 
 114      1FB36FDE 
 114      BC1D0686 
 114      FF
 115 004e 6B599E1E 		.ascii	"kY\236\036\001\273\362&\003\304\2027\300\267\030\221"
 115      01BBF226 
 115      03C48237 
 115      C0B71891 
 116 005e 0220B418 		.ascii	"\002 \264\030\265\216)\342\276\260A8\231<wo\036Ft\317"
 116      B58E29E2 
 116      BEB04138 
 116      993C776F 
 116      1E4674CF 
 117 0072 320638C1 		.ascii	"2\0068\301\224A\275\246\320\026\"X\001\234\210[\220"
 117      9441BDA6 
 117      D0162258 
 117      019C885B 
 117      90
 118 0083 51091C12 		.ascii	"Q\011\034\022S\2671\304k\277?\016\251D=J!\207G\321\366"
 118      53B731C4 
 118      6BBF3F0E 
 118      A9443D4A 
 118      218747D1 
 119 0098 459613BB 		.ascii	"E\226\023\273C\2278\031G2\230\342\247-LD0\352W\326m"
 119      43973819 
 119      473298E2 
 119      A72D4C44 
 119      30EA57D6 
 120 00ad A30CB324 		.ascii	"\243\014\263$\030\342\352\353s<\210U*d\344\260&=H\015"
 120      18E2EAEB 
 120      733C8855 
ARM GAS  /tmp/ccBA9sFT.s 			page 9


 120      2A64E4B0 
 120      263D480D 
 121 00c1 5F88254E 		.ascii	"_\210%N\251K\374\212[\205\322g\224T\246c\255X,\022\011"
 121      A94BFC8A 
 121      5B85D267 
 121      9454A663 
 121      AD582C12 
 122 00d6 B28984A9 		.ascii	"\262\211\204\251\274\310\202\314:\236D \204\307\311"
 122      BCC882CC 
 122      3A9E4420 
 122      84C7C9
 123 00e5 522909F3 		.ascii	"R)\011\363\234f\264\275\331\212v\210X\212Mm\315\031"
 123      9C66B4BD 
 123      D98A7688 
 123      588A4D6D 
 123      CD19
 124 00f7 C920CB94 		.ascii	"\311 \313\224\300wt\006y\255\017\325\001P\266,m*\316"
 124      C0777406 
 124      79AD0FD5 
 124      0150B62C 
 124      6D2ACE
 125 010a ABDA7935 		.ascii	"\253\332y5\300\005\305\277\016GNR0\375\302\242\023["
 125      C005C5BF 
 125      0E474E52 
 125      30FDC2A2 
 125      135B
 126 011c E694053E 		.ascii	"\346\224\005>\340\207\337\253\011I\257\202$\310\341"
 126      E087DFAB 
 126      0949AF82 
 126      24C8E1
 127 012b 2A373BF6 		.ascii	"*7;\366\205\347\332\236\353\330N\225\227y\335\263\345"
 127      85E7DA9E 
 127      EBD84E95 
 127      9779DDB3 
 127      E5
 128 013c AE966AF6 		.ascii	"\256\226j\366y\335mx\366Aa\177kS\307\275\355f\323>m"
 128      79DD6D78 
 128      F641617F 
 128      6B53C7BD 
 128      ED66D33E 
 129 0151 368AB5DA 		.ascii	"6\212\265\332I\221{\356\206\203?^\256r\305"
 129      49917BEE 
 129      86833F5E 
 129      AE72C5
 130              		.text
 131              		.section	.gnu.lto_Vector68.2317bc6143929e,"",%progbits
 132 0000 789C5D50 		.ascii	"x\234]P=K\003A\020}\263w\371\3603i\355\004;\203\036"
 132      3D4B0341 
 132      107DB377 
 132      F9F03369 
 132      ED043B83 
 133 0015 A8A598CE 		.ascii	"\250\245\230\316\316\312\023\264\012\311)\311B$r\027"
 133      CECA13B4 
 133      0AC929C9 
 133      42247217 
 134 0025 2160913D 		.ascii	"!`\221=\215hy\245((iE\264M\031\254\215b'V\3673D%q\367"
 134      8D6879A5 
ARM GAS  /tmp/ccBA9sFT.s 			page 10


 134      28286945 
 134      B44D19AC 
 134      8D622756 
 135 003f F62E85C3 		.ascii	"\366.\205\303\355\354c\356\315\233\267\303\300\360?"
 135      EDEC63EE 
 135      CD9BB7C3 
 135      C0F03F
 136 004e E6E4E912 		.ascii	"\346\344\351\022\260!o2@,x\005\374,#R\000\2046\243\366"
 136      B0216F32 
 136      402C7805 
 136      FC2C2352 
 136      008436A3 
 137 0063 1E45DC27 		.ascii	"\036E\334'\326\017G\243\307\217\213\333\027\272c\031"
 137      D60F47A3 
 137      C78F8BDB 
 137      17BA6319 
 138 0073 039C60CA 		.ascii	"\003\234`\312\244\376\246\320\021\"\230\007\234\210"
 138      A4FEA6D0 
 138      11229807 
 138      9C88
 139 0081 6BCBAC04 		.ascii	"k\313\254\004v\210\251\333\030\340\271w5\014\251L]J"
 139      7688A9DB 
 139      18E0B977 
 139      350CA94C 
 139      5D4A
 140 0093 A1807BD1 		.ascii	"\241\200{\321\361E\216\023\273\3015q2ve2\305WG\230\210"
 140      F1458E13 
 140      BBC13571 
 140      32766532 
 140      C5574798 
 141 00a8 6034AFA2 		.ascii	"`4\257\242\307F\025\226\227`\200\323\317\336\260\037"
 141      C7461596 
 141      976080D3 
 141      CFDEB01F 
 142 00b8 AB54C928 		.ascii	"\253T\311(`Qz\220\032\276\020yN\251\023|\213K\205\322"
 142      60517A90 
 142      1ABE1079 
 142      4EA9137C 
 142      8B4B85D2 
 143 00cc 879474A6 		.ascii	"\207\224t\246c\255X,\022\011r\211\204\251\274\310\206"
 143      63AD582C 
 143      12097289 
 143      84A9BCC8 
 143      86
 144 00dd CC121E44 		.ascii	"\314\022\036D \204\307)\253J\022\0269Mh{\223U\355\020"
 144      2084C729 
 144      AB4A1216 
 144      394D687B 
 144      9355ED10 
 145 00f1 B1141BDB 		.ascii	"\261\024\033\333\2322\223EV\344\366t\274\341\274_\324"
 145      9A329345 
 145      56E4F674 
 145      BCE1BC5F 
 145      D4
 146 0102 FA501300 		.ascii	"\372P\023\000e+\253M\305u\325;\255v7\243\370g\341\217"
 146      652BAB4D 
 146      C575D53B 
ARM GAS  /tmp/ccBA9sFT.s 			page 11


 146      AD7637A3 
 146      F867E18F 
 147 0116 93348C9F 		.ascii	"\2234\214\2370\353\304\2269\345\200w\370\341\357BB\322"
 147      30EBC496 
 147      39E58077 
 147      F8E1EF42 
 147      42D2
 148 0128 614B825C 		.ascii	"aK\202\\\256r\263n\035{\256\345\271\216\345\324x\205"
 148      AE72B36E 
 148      1D7BAEE5 
 148      B98EE5D4 
 148      7885
 149 013a 373C4B7E 		.ascii	"7<K~\265r\335:j\270M\317\332\266\267VWt\336\\k\265\254"
 149      B572DD3A 
 149      6AB84DCF 
 149      DAB6B756 
 149      5774DE5C 
 150 0151 8356B354 		.ascii	"\203V\263T\257\357\227\270\347.;\370\003\225\303s\015"
 150      AFEF97B8 
 150      E72E3BF8 
 150      0395C373 
 150      0D
 151              		.text
 152              		.section	.gnu.lto_Vector9C.2317bc6143929e,"",%progbits
 153 0000 789CA593 		.ascii	"x\234\245\223Mh\023Q\024\205\357}\231\277L\246MLJZ\322"
 153      4D681351 
 153      1485EF7D 
 153      99BF4CA6 
 153      4D4C4A5A 
 154 0015 528BE0C6 		.ascii	"R\213\340\306\242\003*\270\021\324\215\340\302U[\320"
 154      A2032AB8 
 154      11D48DE0 
 154      C2555BD0 
 155 0025 55696369 		.ascii	"Uici\007*-I\305\202\213\276\264)\272,\242\342\317\306"
 155      072A2D49 
 155      C5828BBE 
 155      B429BA2C 
 155      A2E2CFC6 
 156 0039 52A850B5 		.ascii	"R\250P\265nK\355\242\270\262\213Z\013\305EW\351Z\027"
 156      6E4BEDA2 
 156      B8B28B5A 
 156      0BC54557 
 156      E95A17
 157 004c 821B5121 		.ascii	"\202\033Q!\3367/3\023M\206\0042$o\346\234\314\273\367"
 157      DE372F33 
 157      134D8604 
 157      32246FE6 
 157      9CCCBBF7 
 158 0060 9E6F260C 		.ascii	"\236o&\014\030\374\177<\241\357}\035\340\012\235\261"
 158      18FC7F3C 
 158      A1EF7D1D 
 158      E00A9DB1 
 159 0070 0D902D7D 		.ascii	"\015\220-}\002(\030\214E\016\322\300Me\353\002p+\202"
 159      0228188C 
 159      450ED2C0 
 159      4D65EB02 
 159      702B82
ARM GAS  /tmp/ccBA9sFT.s 			page 12


 160 0083 8AB415A6 		.ascii	"\212\264\025\246\272\266\346\332*j\322\326\230\356\332"
 160      BAB6E6DA 
 160      2A6AD2D6 
 160      98EEDA
 161 0092 866BEB68 		.ascii	"\206k\353hH\333`Q\3276];\212\246\264M\026\333\354%\333"
 161      48DB6051 
 161      D7365D3B 
 161      8AA6B44D 
 161      16DBEC25 
 162 00a7 FA62931D 		.ascii	"\372b\223\035CK\332\026\242\270\000\2049\026QTM7\242"
 162      434BDA16 
 162      A2B80084 
 162      39165154 
 162      4D37A2
 163 00ba 66CCC2B9 		.ascii	"f\314\302\271\233(\346\304\023\260\314\371\303\322\342"
 163      9B28E6C4 
 163      13B0CCF9 
 163      C3D2E2
 164 00c9 CA113EE3 		.ascii	"\312\021>\343\333\305\227\374O\271\214\350 e\272\204"
 164      DBC597FC 
 164      4FB98CE8 
 164      2065BA84 
 165 00d9 9045B841 		.ascii	"\220E\270A\002\373\334\023S\376\015\371\216m\227\312"
 165      02FBDC13 
 165      53FE0DF9 
 165      8E6D97CA 
 166 00e9 E5ADFDEF 		.ascii	"\345\255\375\357G\353\230<\256\203\203\021\003Fp\231"
 166      47EB983C 
 166      AE838311 
 166      03467099 
 167 00f9 8A9A42C4 		.ascii	"\212\232B\304hQ,Z\324v!\343B&\204L\012\231\022\262C"
 167      68512C5A 
 167      D47621E3 
 167      4226844C 
 167      0A9912B2 
 168 010e C8B4909D 		.ascii	"\310\264\220\235Bv\011\231\021\262[\310\036!\251\221"
 168      42760999 
 168      11B25BC8 
 168      1E21A991 
 169 011e 0A45CE97 		.ascii	"\012E\316\227\372di\020S\3211H\253H6\204L\234#\273\360"
 169      FA646910 
 169      53D13148 
 169      AB483684 
 169      4C9C23BB 
 170 0133 E1F0E9EA 		.ascii	"\341\360\351\352\021\216\340\012m\032G\275\037\326x"
 170      118EE00A 
 170      6D1A47BD 
 170      1FD678
 171 0142 91C6D65E 		.ascii	"\221\306\326^\300s:\351\"\202\301\177\026\271\342\246"
 171      C0733AE9 
 171      2282C17F 
 171      16B9E2A6 
 172 0152 31DC0CA3 		.ascii	"1\334\014\243\350\245\331\205\205\367\013\031o\2671"
 172      E8A5D985 
 172      85F70B19 
 172      6FB731
 173 0161 2E37444A 		.ascii	".7DJ\364\024a\007\230\374A\2160.6S\277\235\015\277\237"
ARM GAS  /tmp/ccBA9sFT.s 			page 13


 173      F4146107 
 173      98FC418E 
 173      302E3653 
 173      BF9D0DBF 
 174 0176 DBACC0E3 		.ascii	"\333\254\300\343M\266\253T\240\216_\037\371=M\257g\037"
 174      4DB6AB54 
 174      A08E5F1F 
 174      F93D4DAF 
 174      671F
 175 0188 DDF1118A 		.ascii	"\335\361\021\212\337\012m\376O\256_\015\177\210\344"
 175      DF0A6DFE 
 175      4FAE5F0D 
 175      7F88E4
 176 0197 419A52CF 		.ascii	"A\232R\317\037\376\\\335\367S\307\372\341\024\221\243"
 176      1FFE5CDD 
 176      F753C7FA 
 176      E11491A3 
 177 01a7 190A9C27 		.ascii	"\031\012\234'\034\214\336\203_\374\201\2702o\273\275"
 177      1C8CDE83 
 177      5FFC81B8 
 177      326FBBBD 
 178 01b7 4521B332 		.ascii	"E!\2632\013\372\321\347\017?\307\275\022\226\310B\033"
 178      0BFAD1E7 
 178      0F3FC7BD 
 178      1296C842 
 178      1B
 179 01c8 62A7E10D 		.ascii	"b\247\341\015_\342\374\256#-\272\034p\260M\306k\247"
 179      5FE2FCAE 
 179      232DBA1C 
 179      70B04DC6 
 179      6BA7
 180 01da 56A29452 		.ascii	"V\242\224R)%\377\002\302\211\253\336\210\243\376\304"
 180      2925FF02 
 180      C289ABDE 
 180      88A3FEC4 
 181 01ea 7BB0B87D 		.ascii	"{\260\270}M\326\027\331-\0001\226!\207\252\370boB\245"
 181      4DD617D9 
 181      2D003196 
 181      2187AAF8 
 181      626F42A5 
 182 01fe 277ECC0B 		.ascii	"'~\314\013\250T\236+Q\372\021Pj\367(]\256\241\324^\207"
 182      A8549E2B 
 182      51FA1150 
 182      6AF7285D 
 182      AEA1D45E 
 183 0213 92EA51DA 		.ascii	"\222\352Q\332x\025P\212\267N)\321$\245x\010%\255!\245"
 183      7815508A 
 183      B74E29D1 
 183      24A57808 
 183      25AD21A5 
 184 0227 442825AD 		.ascii	"D(%\255\232\222\026P\372\035PJz\2248\326`J\326\301\244"
 184      9A921650 
 184      FA1D504A 
 184      7A9438D6 
 184      604AD6C1 
 185 023c FB2F5315 		.ascii	"\373/S\025\246T\353\230:\232\304\224\012\301\2447\304"
 185      A654EB98 
ARM GAS  /tmp/ccBA9sFT.s 			page 14


 185      3A9AC494 
 185      0AC1A437 
 185      C4
 186 024d D4118A49 		.ascii	"\324\021\212I\257\306d\004\230V\036\373\230\322>&V\203"
 186      AFC66404 
 186      98561EFB 
 186      98D23E26 
 186      5683
 187 025f 295D0753 		.ascii	")]\007S\324\177\233\326\002L\235\255c\352j\022Sg\010"
 187      D47F9BD6 
 187      024C9DAD 
 187      63EA6A12 
 187      536708
 188 0272 26A321A6 		.ascii	"&\243!\246\256PLF5&3\300\364:\300\224\3611)5\2302u0"
 188      AE504C46 
 188      352633C0 
 188      F43AC094 
 188      F1312935 
 189 028a C560B357 		.ascii	"\305`\263W\276MU\230\272[\307\324\323$\246\356\020L"
 189      BE4D5598 
 189      BA5BC7D4 
 189      D324A6EE 
 189      104C
 190 029c D186987A 		.ascii	"\321\206\230zB1E\2531Y.\246=X(\275\035\3636\373q\222"
 190      423145AB 
 190      31592EA6 
 190      3D5828BD 
 190      1DF336FB 
 191 02b2 D9CAF80E 		.ascii	"\331\312\370\016\246\000\366\241PZ?\351\335$\217A\272"
 191      A600F6A1 
 191      505A3FE9 
 191      DD248F41 
 191      BA
 192 02c3 810A88C9 		.ascii	"\201\012\210\311.\332w\3629;\237\313\332\331\011g\324"
 192      2EDA77F2 
 192      393B9FCB 
 192      DAD90967 
 192      D4
 193 02d4 99CADBF4 		.ascii	"\231\312\333\364\231\030\231\264\247\247r3y{`\360\372"
 193      991899B4 
 193      A7A77233 
 193      797B60F0 
 193      FA
 194 02e5 B9B372BD 		.ascii	"\271\263r\275z~v\326\036\233\235\031\236\234\2745\354"
 194      7A7E76D6 
 194      1E9B9D19 
 194      9E9CBC35 
 194      EC
 195 02f6 E47367B2 		.ascii	"\344sg\262\300\246s\177\001\201\273\265'"
 195      C0A6737F 
 195      0181BBB5 
 195      27
 196              		.text
 197              		.section	.gnu.lto_VectorE0.2317bc6143929e,"",%progbits
 198 0000 789CA593 		.ascii	"x\234\245\223MH\024a\030\307\237\347\335\331\335\331"
 198      4D481461 
 198      18C79FE7 
ARM GAS  /tmp/ccBA9sFT.s 			page 15


 198      DDD9DDD9 
 199 0010 F9D8D975 		.ascii	"\371\330\331u\375\314\2575\352\222\324B\005]\202\352"
 199      FDCCAF35 
 199      EA92D442 
 199      055D82EA 
 200 0020 D221E8A4 		.ascii	"\322!\350\244B\235D7\311\001C\3315\022:\370\256n\320"
 200      429D4437 
 200      C90143D9 
 200      35123AF8 
 200      AE6ED0
 201 0033 513A84D5 		.ascii	"Q:\204\325%\351&\201\220\220`A\"\004y0\021\244D:\350"
 201      25E92681 
 201      90906041 
 201      22047930 
 201      11A4443A 
 202 0048 29A8206F 		.ascii	")\250 oI\004\333\373\314\354\314,\356\016\273\260\203"
 202      4904DBFB 
 202      CCECCC2C 
 202      EE0EBBB0 
 202      83
 203 0059 CECCFFFF 		.ascii	"\316\314\377\377\316\373<\317\3777\263\014\030\034?"
 203      CEFB3CCF 
 203      FF37B30C 
 203      181C3F
 204 0068 96C4FFBA 		.ascii	"\226\304\377\272\014pM\\\321\000ds\237\001r2c\201\235"
 204      0C704D5C 
 204      D1006473 
 204      9F017232 
 204      63819D
 205 007b 66E08AF4 		.ascii	"f\340\212\364\376\022p-\200\222mK,h\331!\313\016b\310"
 205      FE12702D 
 205      80926D4B 
 205      2C68D921 
 205      CB0E62C8 
 206 008f B6432C6C 		.ascii	"\266C,l\331\262e\207Q\266m\231E,[\261\354\010*\266\255"
 206      D9B26587 
 206      51B66D99 
 206      452C5BB1 
 206      EC082AB6 
 207 00a4 30D5B235 		.ascii	"0\325\2625\313VQ\263m\215\351\253]\302\216~I\011[\307"
 207      CB5651B3 
 207      6D8DE9AB 
 207      5DC28E7E 
 207      49095BC7 
 208 00b8 A86D4711 		.ascii	"\250mG\021\351\006\020\246Y@\012\206\302rDQ5=\212\323"
 208      E90610A6 
 208      59400A86 
 208      C2724451 
 208      353D8AD3 
 209 00cc B79102E0 		.ascii	"\267\221\002\340IX\340\374\311\376\307\245\003|\306"
 209      4958E0FC 
 209      C9FEC7A5 
 209      037CC6
 210 00db D7F22FF9 		.ascii	"\327\362/\371\277B\001\321D\021\366\012B\032\341\226"
 210      BF4201D1 
 210      4411F60A 
 210      421AE196 
ARM GAS  /tmp/ccBA9sFT.s 			page 16


 211 00eb 1098B42E 		.ascii	"\020\230\264.L:\226\236\255\355\027\012\337\276\036"
 211      4C3A969E 
 211      ADED170A 
 211      DFBE1E
 212 00fa 1EFCC486 		.ascii	"\036\374\304\206S2\230\030\210\300\020.\210\242*\011"
 212      53329818 
 212      88C0102E 
 212      88A22A09 
 213 010a 4D9C245D 		.ascii	"M\234$]\234\202\006\311\030\3118\311\004\311F\222M$"
 213      9C8206C9 
 213      18C938C9 
 213      04C94692 
 213      4D24
 214 011c 5B48B692 		.ascii	"[H\266\222l#\331N\262\203d'\311n\222I\222=$E\337 \344"
 214      6C23D94E 
 214      B2836427 
 214      C96E9249 
 214      923D2445 
 215 0133 399F4BDA 		.ascii	"9\237K\332\235\200\206\024G\2778S\324\001dt\015l\302"
 215      9D808614 
 215      47BF3853 
 215      D4016474 
 215      0D6CC2
 216 0146 FADEEE9B 		.ascii	"\372\336\356\233\003\034\302Wb\323]\224{a\221\347E\212"
 216      031CC257 
 216      62D35D94 
 216      7B6191E7 
 216      458A
 217 0158 D00B782E 		.ascii	"\320\013x..aJ$\363\243<\227\254p\262\025i\030\235p\233"
 217      2E614A24 
 217      F3A33C97 
 217      AC70B215 
 217      69189D70 
 218 016d 30FB6EF6 		.ascii	"0\373n\366\204\263;\"\012\320S\001~\024\020\213\033"
 218      84B33B22 
 218      0AD05301 
 218      7E14108B 
 218      1B
 219 017e C0EC157B 		.ascii	"\300\354\025{\006\261N\033\3267\346\227\235\206V\267"
 219      06B14E1B 
 219      D637E697 
 219      9D8656B7 
 220 018e 1C376AEC 		.ascii	"\0347j\354W\254 Z\256<u\233\252nSz\370\023\344\177\345"
 220      57AC205A 
 220      AE3C759B 
 220      AA6E537A 
 220      F813E47F 
 221 01a3 7477CD5A 		.ascii	"tw\315Z(}\033\003B\3564\213\3343{\273\313\333nn\255"
 221      287D1B03 
 221      42EE348B 
 221      DC337BBB 
 221      CBDB6E6E 
 222 01b8 17CE0876 		.ascii	"\027\316\010vb\210\034\3471\023#\017\341/\177Lw\312"
 222      62881CE7 
 222      3113230F 
 222      E12F7F4C 
 222      77CA
ARM GAS  /tmp/ccBA9sFT.s 			page 17


 223 01ca 3DAB3915 		.ascii	"=\2539\025R\212\303\240\033~f\357\320pJ\350\024FlP\317"
 223      528AC3A0 
 223      1B7E66EF 
 223      D0704AE8 
 223      14466C50 
 224 01df C26B3EC7 		.ascii	"\302k>\307\371\003\223\252.\322m\237\211\272\235/*Z"
 224      F90393AA 
 224      2ED26D9F 
 224      89BA9D2F 
 224      2A5A
 225 01f1 5129A958 		.ascii	"Q)\251X\312\376\261\220c(\316\210\303\356\304[\360h"
 225      CAFEB190 
 225      6328CE88 
 225      C3EEC45B 
 225      F068
 226 0203 ED865D9F 		.ascii	"\355\206]\237\302\353\0004\226l\017U\364ioL\021\357"
 226      C2EB0034 
 226      966C0F55 
 226      F4696F4C 
 226      11EF
 227 0215 3CEE0494 		.ascii	"<\356\004\224\212oV`\372\340a2\\L\2612LF\005LA\007\323"
 227      8A6F5660 
 227      FAE06132 
 227      5C4CB132 
 227      4C46054C 
 228 022c FC5B0F53 		.ascii	"\374[\017S\254~L\361\0321\305|0\251U1\305}1\251\245"
 228      AC7E4CF1 
 228      1A31C57C 
 228      30A95531 
 228      C57D31A9 
 229 0241 98421EA6 		.ascii	"\230B\036\246\357\036\246\204\213)Y\206)Q\001S\330\375"
 229      EF1EA684 
 229      8B295986 
 229      29510153 
 229      D8FD
 230 0253 9A4A3035 		.ascii	"\232J05\326\217\251\251FL\215>\230\264\252\230\232|"
 230      D68FA9A9 
 230      464C8D3E 
 230      98B4AA98 
 230      9A7C
 231 0265 3169A598 		.ascii	"1i\245\230d\017\323o\017S\213\213\351j\031\246\226\012"
 231      640FD36F 
 231      0F538B8B 
 231      E96A19A6 
 231      960A
 232 0277 9822EED7 		.ascii	"\230\"\356\327\264\342aj\255\037S[\215\230Z}0\351U1"
 232      B4E2616A 
 232      AD1F535B 
 232      8D985A7D 
 232      30E95531 
 233 028b B5F962D2 		.ascii	"\265\371b\322K1)\036\246?\036\246v\027\023\3072N\355"
 233      4B31291E 
 233      A63F1EA6 
 233      761713C7 
 233      324EED
 234 029e 1538A9EE 		.ascii	"\0258\251\356\347T\302\251\243~N\2355r\352\360\341\024"
 234      E754C2A9 
ARM GAS  /tmp/ccBA9sFT.s 			page 18


 234      A37E4E9D 
 234      3572EAF0 
 234      E114
 235 02b0 ADCAA9D3 		.ascii	"\255\312\251\323\227S\264\224\223\346q*x\234\272=N\254"
 235      9753B494 
 235      93E6712A 
 235      789CBA3D 
 235      4EAC
 236 02c2 8C537705 		.ascii	"\214Sw\005N:\254v\331\337\323\252\307)Y?\247\236\032"
 236      4E3AAC76 
 236      D9DFD3AA 
 236      C729593F 
 236      A79E1A
 237 02d5 39257D38 		.ascii	"9%}8\031U9\365\370r2J9E-N[0\273\377c\304\331\354\306"
 237      195539F5 
 237      F872324A 
 237      39452D4E 
 237      5B30BBFF 
 238 02ee 694817C7 		.ascii	"iH\027\30771\001\260\015\271\375\237\247\235\207\354"
 238      373101B0 
 238      0DB9FD9F 
 238      A79D87EC 
 239 02fe A35F3C20 		.ascii	"\243_< \012\320d\227S\367\263\231T6\223N\245G\315as"
 239      0AD06497 
 239      53F7B399 
 239      5436934E 
 239      A547CD61 
 240 0313 3C9B127F 		.ascii	"<\233\022\177\243Cc\251\211\361\314d6\325\327\177\363"
 240      A34363A9 
 240      89F1CC64 
 240      36D5D77F 
 240      F3
 241 0324 C279FB7C 		.ascii	"\302y\373|\375\342\324Tjdjrpl\354\316\240\231\315\234"
 241      FDE2D454 
 241      6A646A72 
 241      706CECCE 
 241      A099CD9C 
 242 0338 4B039BC8 		.ascii	"K\003\233\310\374\007\005\205\373\375"
 242      FC070585 
 242      FBFD
 243              		.text
 244              		.section	.gnu.lto_Vector44.2317bc6143929e,"",%progbits
 245 0000 789C5D50 		.ascii	"x\234]P=K\003A\020}\263w1\3613i\355\354\004\203.\250"
 245      3D4B0341 
 245      107DB377 
 245      31F13369 
 245      EDEC0483 
 246 0016 A5682736 		.ascii	"\245h'6VF\320*$\247$\013\221\310]\204\200E\3664\202"
 246      5646D02A 
 246      24A7240B 
 246      91C85D84 
 246      8045F634 
 247 002b 1F4D6A05 		.ascii	"\037Mj\005A\354$\250e\272D\373(vb\025\377\203E\260\211"
 247      41EC24A8 
 247      65BA44FB 
 247      28766215 
 247      FF8345B0 
ARM GAS  /tmp/ccBA9sFT.s 			page 19


 248 0040 BBB77729 		.ascii	"\273\267w)\034vg\206\3317o\336\016\003\303\177\233V"
 248      1C766786 
 248      D9376FDE 
 248      0E03C37F 
 248      9B56
 249 0052 F79E8055 		.ascii	"\367\236\200U\025\311\002\261\306\033\340'\030\221N"
 249      15C902B1 
 249      C61BE027 
 249      18914E
 250 0061 40A831AA 		.ascii	"@\2501\252\355R\200}b\235\336`\360\370su\333\244\026"
 250      ED52807D 
 250      629DDE60 
 250      F0F87375 
 250      DBA416
 251 0074 8B5B1004 		.ascii	"\213[\020\004[9\375\032C]\312\306\014\340\004\330\214"
 251      5B39FD1A 
 251      435DCAC6 
 251      0CE004D8 
 251      8C
 252 0085 F29A609B 		.ascii	"\362\232`\233\230\216V\027\257\255\317\3667\345\350"
 252      988E5617 
 252      AFADCFF6 
 252      37E5E8
 253 0094 8E6248E3 		.ascii	"\216bH\343A\326}\231\024\304npM\202\254\035\345l\331"
 253      41D67D99 
 253      14C46E70 
 253      4D82AC1D 
 253      E56CD9
 254 00a7 AF4B1B41 		.ascii	"\257K\033A\032\314\313\233\261A\205I\251\213]\234|\365"
 254      1ACCCB9B 
 254      B1418549 
 254      A98B5D9C 
 254      7CF5
 255 00b9 DB2F214F 		.ascii	"\333/!O\201\2544\346\224\012\305\342K\231\022\024;\306"
 255      81AC34E6 
 255      940AC5E2 
 255      4B991214 
 255      3BC6
 256 00cb AF3CD7D9 		.ascii	"\257<\327\331\310\001E\275#![H\027\220<'#\012[\253Q"
 256      C80145BD 
 256      23215B48 
 256      17903C27 
 256      230A5BAB 
 257 00e0 0DF17934 		.ascii	"\015\361y4eCJOPB\227T\272&h\324\010\034+\030\215\010"
 257      65434A4F 
 257      50429754 
 257      BA2668D4 
 257      081C2B18 
 258 00f6 A9D850D8 		.ascii	"\251\330P\330x*Ze^\355\317\330;\316:\033\206\037z\002"
 258      782A5A65 
 258      5EEDCFD8 
 258      3BCE3A1B 
 258      861F7A02 
 259 010a A065258C 		.ascii	"\240e%\214\250\260\256{'Rj{\223\032\177\332\273(D\015"
 259      A8B0AE7B 
 259      27526A7B 
 259      931A7FDA 
ARM GAS  /tmp/ccBA9sFT.s 			page 20


 259      BB28440D 
 260 011e C32F4C39 		.ascii	"\303/L9\241dAI\340\003~\357r6\002\031\313(\200Z\257"
 260      A1644149 
 260      E0037EEF 
 260      72360219 
 260      CB28805A 
 261 0133 56B3C28F 		.ascii	"V\263\302\217<\227{\256\303\235\242\310\213\262\307"
 261      3C977BAE 
 261      C39DA2C8 
 261      8BB2C7
 262 0142 D529E64A 		.ascii	"\325)\346J\374\260\354V<\276\225\331\\Z4~}\271Z\345"
 262      FCB0EC56 
 262      3CBE95D9 
 262      5C5A347E 
 262      7DB95AE5 
 263 0156 FBD54AB6 		.ascii	"\373\325J\266T\332\313\012\317]p\360\007?\256s\205"
 263      54DACB0A 
 263      CF5D70F0 
 263      073FAE73 
 263      85
 264              		.text
 265              		.section	.gnu.lto_VectorE4.2317bc6143929e,"",%progbits
 266 0000 789C5D50 		.ascii	"x\234]P=K\003A\020}\263wI\316\317\230\322\316N0\350"
 266      3D4B0341 
 266      107DB377 
 266      49CECF98 
 266      D2CE4E30 
 267 0015 815A8A76 		.ascii	"\201Z\212vbce\004\255BrJ\262\020\211\334E\010XdO#XI"
 267      62636504 
 267      AD42724A 
 267      B21089DC 
 267      45085864 
 268 002d 6A15416C 		.ascii	"j\025AlTD\305*XE\373(vb\025\253\374\005\261\211\273"
 268      5444C52A 
 268      5845FB28 
 268      766215AB 
 268      FC05B189 
 269 0042 B777291C 		.ascii	"\267w)\034ng\037so\336\274\035\006\206\3771.\317\025"
 269      6E671F73 
 269      6FDEBC1D 
 269      0686FF31 
 269      2ECF15
 270 0055 018BF226 		.ascii	"\001\213\362&\003\304\032o\200o1\"\005@\2501\252mR\300"
 270      03C41A6F 
 270      806F3122 
 270      0540A831 
 270      AA6D52C0 
 271 0069 7D60AD4E 		.ascii	"}`\255N\257w\377trqN\317,a\200\023L\231\324\337\030"
 271      AF77FF74 
 271      72714ECF 
 271      2C618013 
 271      4C99D4DF 
 272 007e EA423426 		.ascii	"\352B4&\000'\340fdV\002\353\304\324m\264\361\332lv\277"
 272      0027E066 
 272      645602EB 
 272      C4D46DB4 
 272      F1DA6C76 
ARM GAS  /tmp/ccBA9sFT.s 			page 21


 273 0093 29479714 		.ascii	")G\227\024C\032\267\242\356\213$'v\206S\342dl\310d\212"
 273      431AB7A2 
 273      EE8B2427 
 273      768653E2 
 273      646CC864 
 274 00a8 9FBA3011 		.ascii	"\237\2720\021\300`^^\217\015*L\010K\3026\016\276>\273"
 274      C0605E5E 
 274      8F0D2A4C 
 274      084BC236 
 274      0EBE3EBB 
 275 00bc 2FA14E81 		.ascii	"/\241N\201\2144\246\244\013\251\342\0131\306)\266\217"
 275      8C34A6A4 
 275      0BA9E20B 
 275      31C629B6 
 275      8F
 276 00cd 5F71AC50 		.ascii	"_q\254P|\207\242\336x\250\026\312\005\"\217\311H\302"
 276      7C87A2DE 
 276      78A816CA 
 276      05228FC9 
 276      48C2
 277 00df 546E6443 		.ascii	"TndCb\032w\242!\204\307\311R%\011\2278\015h\203\203"
 277      621A77A2 
 277      2184C7C9 
 277      52250997 
 277      380D6883 
 278 00f4 05ED11A1 		.ascii	"\005\355\021\241\024\353\033\033JE\253\314\313\375\351"
 278      14EB1B1B 
 278      4A45ABCC 
 278      CBFDE9
 279 0103 78C7516B 		.ascii	"x\307QkE\353CM\000\224-K\233\012\353\252w8%\2677\242"
 279      45EB434D 
 279      00942D4B 
 279      9B0AEBAA 
 279      773825B7 
 280 0119 F8879DEB 		.ascii	"\370\207\235\353B\324\320\177\302\250\023Z\346\224\004"
 280      42D4D07F 
 280      C2A8135A 
 280      E69404
 281 0128 3EE0776E 		.ascii	">\340wn&#\222\216\214$\310\365*7\013\366\236\347\332"
 281      2623928E 
 281      8C24C8F5 
 281      2A370BF6 
 281      9EE7DA
 282 013b 9EEBD84E 		.ascii	"\236\353\330N\221\347y\331\263\345W\314\225\354\335"
 282      91E779D9 
 282      B3E557CC 
 282      95ECDD
 283 014a B25BF1EC 		.ascii	"\262[\361\354\265\314\352\334\254\316\313\363\325\252"
 283      B5CCEADC 
 283      ACCECBF3 
 283      D5AA
 284 0158 BD5DAD64 		.ascii	"\275]\255dK\245\255,\367\334\031\007\177\352\356s\214"
 284      4BA5AD2C 
 284      F7DC1907 
 284      7FEAEE73 
 284      8C
 285              		.text
ARM GAS  /tmp/ccBA9sFT.s 			page 22


 286              		.section	.gnu.lto_VectorE8.2317bc6143929e,"",%progbits
 287 0000 789C5D50 		.ascii	"x\234]P=K\003A\020}\263w\371\3603\222\316\316N0\350"
 287      3D4B0341 
 287      107DB377 
 287      F9F03392 
 287      CECE4E30 
 288 0015 815A8A76 		.ascii	"\201Z\212vbce\004\255BrJ\262\020\211\344\"\004,\262"
 288      62636504 
 288      AD42724A 
 288      B21089E4 
 288      22042CB2 
 289 0029 A7112C44 		.ascii	"\247\021,DR\212\202 v\"j\231B0Z\331D\261\265\212\277"
 289      528A8220 
 289      76226A99 
 289      42305AD9 
 289      44B1B58A 
 290 003e 20966213 		.ascii	" \226b\023g\357#\205\303\355\354c\356\315\233\267# "
 290      67EF2385 
 290      C3EDEC63 
 290      EECD9BB7 
 290      2320
 291 0050 F03FC6F9 		.ascii	"\360?\306\371\\\023\260\3107\031 \321x\003\334\270 "
 291      5C13B0C8 
 291      371920D1 
 291      7803DCB8 
 291      20
 292 0061 D200849A 		.ascii	"\322\000\204\232\240\332&y\334{\321\352\364zw\337\247"
 292      A0DA2679 
 292      DC7BD1EA 
 292      F47A77DF 
 292      A7
 293 0072 9727F428 		.ascii	"\227'\364(b\006$\301\344\244\377FPW\2521\001\330\036"
 293      620624C1 
 293      E4A4FF46 
 293      5057AA31 
 293      01D81E
 294 0085 37CD590B 		.ascii	"7\315Y\013\254\223\320\267\321\306K\363\254\373EY\272"
 294      AC93D0B7 
 294      D1C64BF3 
 294      ACFB4559 
 294      BA
 295 0096 A20852B8 		.ascii	"\242\010R\270QuW%$\211\013\234\223$c\203\223\251~\352"
 295      51755725 
 295      24890B9C 
 295      93246383 
 295      93A97EEA 
 296 00aa CA8407BD 		.ascii	"\312\204\007\275y9\177\254W\021J\2151l\343\340\263\331"
 296      79397FAC 
 296      57114A8D 
 296      316CE3E0 
 296      B3D9
 297 00bc 7D0E74F2 		.ascii	"}\016t\362d\2440\305.X\305e\202\244\310>~\325\261F\321"
 297      64A430C5 
 297      2E58C565 
 297      82A4C83E 
 297      7ED5B146 
 298 00d1 1D0A7BA3 		.ascii	"\035\012{\243\201Z \347\211<$B\011S\273\341\206\330"
ARM GAS  /tmp/ccBA9sFT.s 			page 23


 298      815A20E7 
 298      893C2442 
 298      0953BBE1 
 298      86D8
 299 00e3 346E5543 		.ascii	"4nUC)GR\\\227\030.I\032\360\015\016\346}\217\010\244"
 299      2947525C 
 299      97182E49 
 299      1AF00D0E 
 299      E67D8F08 
 300 00f8 44DFD850 		.ascii	"D\337\330P2\\e\216\367\347\307;\216Z+\276>\364\004@"
 300      325C658E 
 300      F7E7C73B 
 300      8E5A2BBE 
 300      3EF40440 
 301 010c DB8AFBA6 		.ascii	"\333\212\373\246\202\272\356\035N\362\366F4\377\260"
 301      82BAEE1D 
 301      4EF2F646 
 301      34FFB0
 302 011b F3940F1B 		.ascii	"\363\224\017\033\372O\030\265\003\313\222\022\300\007"
 302      FA4F18B5 
 302      03CB9212 
 302      C007
 303 0129 DCCEEB64 		.ascii	"\334\316\353dH\362#\315\004^\257v\263`\3559e\313)\333"
 303      48F223CD 
 303      045EAF76 
 303      B360ED39 
 303      65CB29DB 
 304 013d 965D9039 		.ascii	"\226]\2209Yr,\376\012\331\242\265[*W\034k-\275:7\353"
 304      59722CFE 
 304      0AD9A2B5 
 304      5B2A571C 
 304      6B2DBD3A 
 305 0153 E7E5F96A 		.ascii	"\347\345\371j\325\332\256V2\305\342VF:\345\031\033\177"
 305      D5DAAE56 
 305      32C5E256 
 305      463AE519 
 305      1B7F
 306 0165 1E5A73CC 		.ascii	"\036Zs\314"
 307              		.text
 308              		.section	.gnu.lto_Vector138.2317bc6143929e,"",%progbits
 309 0000 789C5D90 		.ascii	"x\234]\220=K\003A\020\206\337\331\273$\347g\204Tvv\202"
 309      3D4B0341 
 309      1086DFD9 
 309      BB24E767 
 309      84547676 
 310 0015 410FD452 		.ascii	"A\017\324R\264\023\033+#h\025\222S\222\205H\344.B\300"
 310      B4131B2B 
 310      23681592 
 310      53928548 
 310      E42E42C0 
 311 0029 227B1AC1 		.ascii	"\"{\032\301\302\"\245(\010b'\242)SI\264\217\301\326"
 311      C222A528 
 311      086227A2 
 311      295349B4 
 311      8FC1D6
 312 003c C6D8F90F 		.ascii	"\306\330\371\017\"6q\367\366.\205\303\355\35407\363"
 312      223671F7 
ARM GAS  /tmp/ccBA9sFT.s 			page 24


 312      F62E85C3 
 312      EDEC3037 
 312      F3
 313 004d CCBBC3C0 		.ascii	"\314\273\303\300\360\337\246\345\271#`U\336d\200X\343"
 313      F0DFA6E5 
 313      B9236055 
 313      DE648058 
 313      E3
 314 005e 0DF02D46 		.ascii	"\015\360-F\244\002\020j\214j\273\024\324>\261vo0xlv"
 314      A402106A 
 314      8C6ABB14 
 314      D43EB176 
 314      6F30786C 
 315 0073 6F2EE899 		.ascii	"o.\350\231%\014p\202)\235\372\033C]\210\306\014\340"
 315      250C7082 
 315      299DFA1B 
 315      435D88C6 
 315      0CE0
 316 0085 04B519E9 		.ascii	"\004\265\031\351\025`\233\230\272\215\016^[\227\375"
 316      15609B98 
 316      BA8D0E5E 
 316      5B97FD
 317 0094 2FCAD12D 		.ascii	"/\312\321-\305\220\306\275\250\373\"\311\211]\343\212"
 317      C590C6BD 
 317      A8FB22C9 
 317      895DE38A 
 318 00a4 38193BD2 		.ascii	"8\031;\322\231\342\247.L\004a0/\257\307\006\031&\204"
 318      99E2A72E 
 318      4C046130 
 318      2FAFC706 
 318      192684
 319 00b7 84A38393 		.ascii	"\204\243\203\223\217V\377%\344\024\310HcN\252\220\024"
 319      8F56FF25 
 319      E414C848 
 319      634EAA90 
 319      14
 320 00c8 5F88294E 		.ascii	"_\210)N\261c\374\212s\025\305\017(\352\215\207\264\020"
 320      B163FC8A 
 320      7315C50F 
 320      28EA8D87 
 320      B410
 321 00da 17409AC9 		.ascii	"\027@\232\311\010a*5\262!1\217\007\321\020\302\343d"
 321      08612A35 
 321      B221318F 
 321      07D110C2 
 321      E364
 322 00ec A9940CD7 		.ascii	"\251\224\014\3278\215h\201\243\005\255\021!\212\015"
 322      388D6881 
 322      A305AD11 
 322      218A0D
 323 00fb 858DA5A2 		.ascii	"\205\215\245\242U\346\345\376\264uq\326\336\320|\250"
 323      55E6E5FE 
 323      B47571D6 
 323      DED07CA8 
 324 010b 09809265 		.ascii	"\011\200\222eiQa^\365\216\247\344\366&T\375i\357\263"
 324      6951615E 
 324      F58EA7E4 
ARM GAS  /tmp/ccBA9sFT.s 			page 25


 324      F62654FD 
 324      69EFB3
 325 011e 10350C9F 		.ascii	"\0205\014\2370\351\204\2229%\201w\370\275\357\331\250"
 325      30E98492 
 325      39258177 
 325      F8BDEFD9 
 325      A8
 326 012f 485B4616 		.ascii	"H[F\026\310\365*5+\366\221\347\332\236\353\330N\221"
 326      C8F52A35 
 326      2BF691E7 
 326      DA9EEBD8 
 326      4E91
 327 0141 E779D9B3 		.ascii	"\347y\331\263\345W\314\225\354\303\262[\361\354\255"
 327      E557CC95 
 327      ECC3B25B 
 327      F1ECAD
 328 0150 CCE6D2A2 		.ascii	"\314\346\322\242\366\353\313\325\252\275_\255dK\245"
 328      F6EBCBD5 
 328      AABD5FAD 
 328      644BA5
 329 015f BD2CF7DC 		.ascii	"\275,\367\334\005\007\177l\204t1"
 329      05077F6C 
 329      847431
 330              		.text
 331              		.section	.gnu.lto_Vector170.2317bc6143929e,"",%progbits
 332 0000 789C5D50 		.ascii	"x\234]P=K\003A\020}\263w\371\3603\026i\354l5\350\201"
 332      3D4B0341 
 332      107DB377 
 332      F9F03316 
 332      69EC6C35 
 333 0016 5A8A5A89 		.ascii	"Z\212Z\211\215\225\021\264\012\311)\311B$r\027!`\221"
 333      8D9511B4 
 333      0AC929C9 
 333      42247217 
 333      216091
 334 0029 BD182176 		.ascii	"\275\030!v\251U\004\261\023Q\313\224\321\312&\006;\261"
 334      A95504B1 
 334      1351CB94 
 334      D1CA2606 
 334      3BB1
 335 003b 8A7FC14A 		.ascii	"\212\177\301Jl\316\335\333\273\024\016\267\263\217\271"
 335      6CCEDDDB 
 335      BB140EB7 
 335      B38FB9
 336 004a 376FDE0E 		.ascii	"7o\336\016\003\303\377\230\226\347\226\200Uy\223\001"
 336      03C3FF98 
 336      96E79680 
 336      55799301 
 337 005a 62ED37C0 		.ascii	"b\3557\300K2\"\005@\2503\252\357Q\300}d\335\201\357"
 337      4B322205 
 337      40A833AA 
 337      EF51C07D 
 337      64DD81EF 
 338 006e 3F7CF7AF 		.ascii	"?|\367\257\257\350\225%\014p\202)\223\372\033CS\210"
 338      AFE89525 
 338      0C708229 
 338      93FA1B43 
ARM GAS  /tmp/ccBA9sFT.s 			page 26


 338      5388
 339 0080 F60C6007 		.ascii	"\366\014`\007\334\254\314J`\207\230\272\215\036^:\035"
 339      DCACCC4A 
 339      608798BA 
 339      8D1E5E3A 
 339      1D
 340 0091 FF8BF274 		.ascii	"\377\213\362tC1dp'\232\236Hqb\227\270 N\306\256L\246"
 340      43316470 
 340      279A9E48 
 340      716297B8 
 340      204EC6AE 
 341 00a7 F8690A13 		.ascii	"\370i\012\023\001\014\346\025\364\330\240\302\204X\227"
 341      010CE615 
 341      F4D8A0C2 
 341      845897
 342 00b6 B087C6E7 		.ascii	"\260\207\306\347\207\377\034\352\024\311\310`N\272\220"
 342      87FF1CEA 
 342      14C9C860 
 342      4EBA90
 343 00c5 2A9E1053 		.ascii	"*\236\020S\234b'\370\025-\205\342\207\024\365\306C\265"
 343      9C6227F8 
 343      152D85E2 
 343      8714F5C6 
 343      43B5
 344 00d7 502E1079 		.ascii	"P.\020yJE\022\246r#\033\022\363\270\027m!\\NIU\222p"
 344      4A4512A6 
 344      72231B12 
 344      F3B8176D 
 344      215C4E49 
 345 00ee 8DD38836 		.ascii	"\215\323\21068Z\324\036\021J\261\241\261\261t\264\312"
 345      385AD41E 
 345      114AB1A1 
 345      B1B174B4 
 345      CA
 346 00ff 82DC9F8E 		.ascii	"\202\334\237\216>\316\272\233Z\037j\002\240l%\265\251"
 346      3ECEBA9B 
 346      5A1F6A02 
 346      A06C25B5 
 346      A9
 347 0110 B0AE7AC7 		.ascii	"\260\256z\307\323r{\023\212\177:h\361\250a\370\204I"
 347      D3727B13 
 347      8A7F3A68 
 347      F1A861F8 
 347      8449
 348 0122 3BB4CC29 		.ascii	";\264\314)\005\274\303\033\234\317F$\035YI\220\353U"
 348      05BCC31B 
 348      9CCF4624 
 348      1D594990 
 348      EB55
 349 0134 6E56AC63 		.ascii	"nV\254c\327\261\\\307\266\354\022/\360\212k\311\257"
 349      D7B15CC7 
 349      B6EC122F 
 349      F08A6BC9 
 349      AF
 350 0145 942F5B47 		.ascii	"\224/[G\025\247\352Z\333\331\255\245E\2357\226k5\353"
 350      15A7EA5A 
 350      DBD9ADA5 
ARM GAS  /tmp/ccBA9sFT.s 			page 27


 350      459D3796 
 350      6B35EB
 351 0158 A056CD95 		.ascii	"\240V\315\225\313\3739\356:\0136\376\000lTtM"
 351      CBFB39EE 
 351      3A0B36FE 
 351      006C5474 
 351      4D
 352              		.text
 353              		.section	.gnu.lto_Vector48.2317bc6143929e,"",%progbits
 354 0000 789C5D50 		.ascii	"x\234]P=K\003A\020}\263wI\316\317\330\244\260\263\325"
 354      3D4B0341 
 354      107DB377 
 354      49CECFD8 
 354      A4B0B3D5 
 355 0014 A0076A29 		.ascii	"\240\007j)\332\211\215\225\021\264\012\311)\311B$r\027"
 355      DA898D95 
 355      11B40AC9 
 355      29C94224 
 355      7217
 356 0026 2160913D 		.ascii	"!`\221=\215`\031,\025\004A\010\206\240\026\026\226!"
 356      8D60192C 
 356      15044108 
 356      86A01616 
 356      9621
 357 0038 A510C54E 		.ascii	"\245\020\305N\254\202\277\"\330\304\335\333\273\024"
 357      AC82BF22 
 357      D8C4DDDB 
 357      BB14
 358 0046 0EBBB3B3 		.ascii	"\016\273\263\263\263o\336\274\035\006\206\3776+\367"
 358      B36FDEBC 
 358      1D0686FF 
 358      362BF7
 359 0055 3D01EBF2 		.ascii	"=\001\353\362$\003\304\032\357\200o1\"\025\200PcT\333"
 359      2403C41A 
 359      EF806F31 
 359      22158050 
 359      6354DB
 360 0068 A700FBC4 		.ascii	"\247\000\373\304:\375\341\360\361\345\352\266Mo,a\200"
 360      3AFDE1F0 
 360      F1E5EAB6 
 360      4D6F2C61 
 360      80
 361 0079 134CE9D4 		.ascii	"\023L\351\324k\014u!\032s\200\023`3\322+\202]b\3524"
 361      6B0C7521 
 361      1A738013 
 361      6033D22B 
 361      825D62EA 
 362 008e 7AE8BE7E 		.ascii	"z\350\276~5\177(Gw\024C\032-Q\367E\222\023\273\3015"
 362      357F2847 
 362      7714431A 
 362      2D51F745 
 362      9213BBC1 
 363 00a3 7132F6A4 		.ascii	"q2\366\2443\305\240.L\004a\320/\257\333\006\031&\204"
 363      33C5A02E 
 363      4C0461D0 
 363      2FAFDB06 
 363      192684
ARM GAS  /tmp/ccBA9sFT.s 			page 28


 364 00b6 50D71ECE 		.ascii	"P\327\036\316\276\007\315nHT #\215\005)C\322\370B\314"
 364      BE07CD6E 
 364      48542023 
 364      8D052943 
 364      D2F842CC 
 365 00ca 708A9DE2 		.ascii	"p\212\235\342W\\\252(~DQq<\244\013\371\002\222\347d"
 365      575CAA28 
 365      7E445171 
 365      3CA40BF9 
 365      0292E764 
 366 00de 44612A39 		.ascii	"Da*9\262 \261\210\266h\010\341q\262TJ\206\033\234\306"
 366      B220B188 
 366      B66808E1 
 366      71B2544A 
 366      861B9CC6 
 367 00f2 B4C2F182 		.ascii	"\264\302\361\202\026\211\220\212\215\224M\244\242Y\346"
 367      1689908A 
 367      8D944DA4 
 367      A259E6
 368 0101 E500B57D 		.ascii	"\345\000\265}\340\242\263\245\371\241:\000J\226\245"
 368      E0A2B3A5 
 368      F9A13A00 
 368      4A96A5
 369 0110 45857955 		.ascii	"E\205yU;\231\222\343\233R\370\363\376\003\217\012F_"
 369      3B9992E3 
 369      9B52F8F3 
 369      FE038F0A 
 369      465F
 370 0122 987642C9 		.ascii	"\230vB\311\234\222\300'\374~k>\002i\313H\200\234\257"
 370      9C92C027 
 370      FC7E6B3E 
 370      0269CB48 
 370      809CAF
 371 0135 52B3669F 		.ascii	"R\263f\237x\256\355\271\216\355\024y\236\227=[\256b"
 371      78AEEDB9 
 371      8EED1479 
 371      9E973D5B 
 371      AE62
 372 0147 AE641F97 		.ascii	"\256d\037\227\335\212g\357d\266W\226\265\337\\\255V"
 372      DD8A67EF 
 372      64B65796 
 372      B5DF5CAD 
 372      56
 373 0158 EDC36A25 		.ascii	"\355\303j%[*\035d\271\347.9\370\003\251xs\374"
 373      5B2A1D64 
 373      B9E72E39 
 373      F803A978 
 373      73FC
 374              		.text
 375              		.section	.gnu.lto_Vector4C.2317bc6143929e,"",%progbits
 376 0000 789C5D90 		.ascii	"x\234]\220=K\003A\020\206\337\331\273\230\370\031\253"
 376      3D4B0341 
 376      1086DFD9 
 376      BB98F819 
 376      AB
 377 0011 809DAD06 		.ascii	"\200\235\255\006]PK\321Nl\254\214\240UHNI\026\"\221"
 377      5D504BD1 
ARM GAS  /tmp/ccBA9sFT.s 			page 29


 377      4E6CAC8C 
 377      A055484E 
 377      49162291 
 378 0025 BB08018B 		.ascii	"\273\010\001\213\354i\004\313`\251 \010V\022\214\245"
 378      EC6904CB 
 378      60A92008 
 378      56128CA5 
 379 0035 6548A718 		.ascii	"eH\247\030\305N\254\202\277\301\"\330\304\335\333\273"
 379      C54EAC82 
 379      BFC122D8 
 379      C4DDDBBB 
 380 0045 140EB7B3 		.ascii	"\024\016\267\263\303\334\314;\317\016\003\303\177\233"
 380      C3DCCC3B 
 380      CF0E03C3 
 380      7F9B
 381 0053 51E78E80 		.ascii	"Q\347\216\2005u\223\005b\2157\300O0\"\035\200PcT\333"
 381      35759305 
 381      628D37C0 
 381      4F30221D 
 381      80506354 
 382 0068 A3A0B6C5 		.ascii	"\243\240\266\305\332\275\301\340\341\347\362\246I\257"
 382      DABDC1E0 
 382      E1E7F2A6 
 382      49AF
 383 0076 2C6E4110 		.ascii	",nA\020l\345\364\337\030\352R6f\001'\250\315(\257\005"
 383      6CE5F4DF 
 383      18EA5236 
 383      660127A8 
 383      CD28AF05 
 384 008a 7688E9DB 		.ascii	"v\210\351\333\352\242\363\364\331\372\246\034\335R\014"
 384      EAA2F3F4 
 384      D9FAA61C 
 384      DD520C
 385 0099 69DCCBBA 		.ascii	"i\334\313\272/\223\202\3305\256H\220\265\253\234-\373"
 385      2F9382D8 
 385      35AE4890 
 385      B5AB9C2D 
 385      FB
 386 00aa 75692308 		.ascii	"ui#\010\203yy36\3100)\245\246\357\342\364\253\337\352"
 386      83797933 
 386      36C83029 
 386      A5A6EFE2 
 386      F4ABDFEA 
 387 00be 844205B2 		.ascii	"\204B\005\262\322\230W\030J\306\227rZP\354\004\277\362"
 387      D2985718 
 387      4AC69772 
 387      5A50EC04 
 387      BFF2
 388 00d0 42472387 		.ascii	"BG#\207\0245\217\204r\241^ \362\230\214$l\215\243\032"
 388      14358F84 
 388      72A15E20 
 388      F2988C24 
 388      6C8DA31A 
 389 00e4 E20B68CA 		.ascii	"\342\013h\312\206\224\236\240\204N\251p]\320\250!\034"
 389      86949EA0 
 389      844EA970 
 389      5DD0A821 
ARM GAS  /tmp/ccBA9sFT.s 			page 30


 389      1C
 390 00f5 2B184884 		.ascii	"+\030H\204RlH6\236\212v\231W\0134\366\216\363\366\246"
 390      526C4836 
 390      9E8A7699 
 390      570B34F6 
 390      8EF3F6A6 
 391 0109 D1879E00 		.ascii	"\321\207\236\000h\254\204\201\012\363\272w\"\245\326"
 391      68AC8481 
 391      0AF3BA77 
 391      22A5D6
 392 0118 37A9EBCF 		.ascii	"7\251\353\317z\317\"j\030>a\312\011\221\005%\201\017"
 392      7ACF226A 
 392      183E61CA 
 392      09910525 
 392      810F
 393 012a F8BD97B9 		.ascii	"\370\275\227\271\250\310XF\025\250\375j\232U~\354\271"
 393      A8C85846 
 393      15A8FD6A 
 393      9A557EEC 
 393      B9
 394 013b DC731DEE 		.ascii	"\334s\035\356\024E^\224=\256\276b\256\304\217\312n\305"
 394      14455E94 
 394      3DAEBE62 
 394      AEC48FCA 
 394      6EC5
 395 014d E3DB99AD 		.ascii	"\343\333\231\255\345%\3437V\252U~P\255dK\245\375\254"
 395      E525E337 
 395      56AA557E 
 395      50AD644B 
 395      A5FDAC
 396 0160 F0DC4507 		.ascii	"\360\334E\007\177V\324t\221"
 396      7F56D474 
 396      91
 397              		.text
 398              		.section	.gnu.lto_ext_lld_exti_irq_enable.2317bc6143929e,"",%progbits
 399 0000 789C6362 		.ascii	"x\234cb`b@\007\222@\254\310\314\300`\007\244\031\231"
 399      60624007 
 399      9240ACC8 
 399      CCC06007 
 399      A41999
 400 0013 19189926 		.ascii	"\031\030\231&\234c`h\344`bd\0041\030\030\031\352\231"
 400      9C636068 
 400      E4606264 
 400      04311818 
 400      19EA99
 401 0026 18EB2319 		.ascii	"\030\353#\031\301j\3273\035x\360\377\377\272]\223\227"
 401      C16AD733 
 401      1D78F0FF 
 401      FFBA5D93 
 401      97
 402 0037 ED61BCC1 		.ascii	"\355a\274\301$\000\024aehih\230\240\300\300\220\014"
 402      24001461 
 402      65686968 
 402      98A0C0C0 
 402      900C
 403 0049 56110224 		.ascii	"V\021\002$A\332B\031\231@4\363y\206\326\007\367_r%2"
 403      41DA4219 
ARM GAS  /tmp/ccBA9sFT.s 			page 31


 403      994034F3 
 403      7986D607 
 403      F75F7225 
 404 005e 2E646405 		.ascii	".dd\005JW3\374j\350h\020\310d\004*\207\230\030\301\230"
 404      4A5733FC 
 404      6AE86810 
 404      C864042A 
 404      879818C1 
 405 0073 C9C8C806 		.ascii	"\311\310\310\006\2432\201\332\030\200z\026\274\340$"
 405      A33281DA 
 405      18807A16 
 405      BCE024
 406 0082 A0851D43 		.ascii	"\240\205\035C\313KBZ80\264\274\"\244\205\023C\313kB"
 406      CB4B425A 
 406      3830B4BC 
 406      22A48513 
 406      43CB6B42 
 407 0096 5AB830B4 		.ascii	"Z\2700\264\274!\244E\034C\313[BZ40\264\274#\244\205"
 407      BC21A445 
 407      1C43CB5B 
 407      425A3430 
 407      B4BC23A4 
 408 00ab 1143CB7B 		.ascii	"\021C\313{BZ4!\024?B\313\017BZ\2640l\371EH\213\035\206"
 408      425A3421 
 408      143F42CB 
 408      0F425AB4 
 408      306CF945 
 409 00c3 96BF84B4 		.ascii	"\226\277\204\264\370`h\351\340&\240\205\011\303/]\204"
 409      F86068E9 
 409      E026A085 
 409      09C32F5D 
 409      84
 410 00d4 B430A368 		.ascii	"\2640\243h\271\310\320\370\240[\033\246\005\002B\200"
 410      B9C8D0F8 
 410      A05B1BA6 
 410      05024280 
 411 00e4 CA81C91C 		.ascii	"\312\201\311\034\224\251l\364K\213\213\364\213\213\222"
 411      94A96CF4 
 411      4B8B8BF4 
 411      8B8B92
 412 00f3 F5933332 		.ascii	"\365\22332\2232\363\213\365\201(#1G\277 \277\250\244"
 412      9332F38B 
 412      F5812823 
 412      3147BF20 
 412      BFA8A4
 413 0106 583F38C4 		.ascii	"X?8\304\327\330\010B\272\231TT\350\247V\224\304\347"
 413      D7D80842 
 413      BA995454 
 413      E8A75694 
 413      C4E7
 414 0118 E4A4C467 		.ascii	"\344\244\304g\026\027\351%3\000\000*\256\271E"
 414      1617E925 
 414      3300002A 
 414      AEB945
 415              		.text
 416              		.section	.gnu.lto_ext_lld_exti_irq_disable.2317bc6143929e,"",%progbits
 417 0000 789C6362 		.ascii	"x\234cb`b@\007\222@\274\037(l\007\244\031\231\031\030"
ARM GAS  /tmp/ccBA9sFT.s 			page 32


 417      60624007 
 417      9240BC1F 
 417      286C07A4 
 417      19991918 
 418 0014 99269C63 		.ascii	"\231&\234c`h\344`bd\0041\030\030\031\352\231\030\353"
 418      6068E460 
 418      62640431 
 418      181819EA 
 418      9918EB
 419 0027 2319C16A 		.ascii	"#\031\301j\3273\035x\360\377\377\272-\327\226\3650\336"
 419      D7331D78 
 419      F0FFFFBA 
 419      2DD796F5 
 419      30DE
 420 0039 6112008A 		.ascii	"a\022\000\212\2602\26444LP``H\006\253\010\001\222 m"
 420      B032B434 
 420      344C5060 
 420      604806AB 
 420      08019220 
 421 004e A18C4C20 		.ascii	"\241\214L \232\371<C\313\2039\335\334\211\214\013\031"
 421      9AF93C43 
 421      CB8339DD 
 421      DC898C0B 
 421      19
 422 005f 5981D2D5 		.ascii	"Y\201\322\325\014\277\032:\032\0042\031\201\312!&F0"
 422      0CBF1A3A 
 422      1A043219 
 422      81CA2126 
 422      4630
 423 0071 663232B2 		.ascii	"f22\2621d\002\3253\000\025/\230KH-;B\355<Bj9\020j\347"
 423      316402D5 
 423      3300152F 
 423      984B482D 
 423      3B42ED3C 
 424 008b 1352CB89 		.ascii	"\023R\313\211P\273\202\220Z.\204\332\225\204\324\212"
 424      50BB8290 
 424      5A2E84DA 
 424      9584D48A 
 425 009b 23D4AE22 		.ascii	"#\324\256\"\244V\003\241v5!\265\214\010\265k\010\251"
 425      A45603A1 
 425      763521B5 
 425      8C08B56B 
 425      08A9
 426 00ad D544A85D 		.ascii	"\325D\250]KH\255\026B\355zBj\355\020jw\021R\353\203"
 426      4B48AD16 
 426      42ED7A42 
 426      6AED106A 
 426      771152EB 
 427 00c2 50BB9790 		.ascii	"P\273\227\220Z&\204\332\375\204\3242C\324^dh|pB\033"
 427      5A2684DA 
 427      FD84D432 
 427      43D45E64 
 427      687C7042 
 428 00d7 A6160242 		.ascii	"\246\026\002B\200\352\200\211\020\224\344m\364K\213"
 428      80EA8089 
 428      1094E46D 
 428      F44B8B
ARM GAS  /tmp/ccBA9sFT.s 			page 33


 429 00e6 8BF48B8B 		.ascii	"\213\364\213\213\222\365\22332\2232\363\213\365\201"
 429      92F59333 
 429      329332F3 
 429      8BF581
 430 00f5 28233147 		.ascii	"(#1G\277 \277\250\244X?8\304\327\330\010B\272\231TT"
 430      BF20BFA8 
 430      A4583F38 
 430      C4D7D808 
 430      42BA9954 
 431 010a E8A75694 		.ascii	"\350\247V\224\304\347\344\244\304g\026\027\351%3\000"
 431      C4E7E4A4 
 431      C4671617 
 431      E9253300 
 432 011a 000488AB 		.ascii	"\000\004\210\253\322"
 432      D2
 433              		.text
 434              		.section	.gnu.lto_.symbol_nodes.2317bc6143929e,"",%progbits
 435 0000 789C4DCD 		.ascii	"x\234M\315\313N\302`\020\206\341\351\327\023g(\272\347"
 435      CB4EC260 
 435      1086E1E9 
 435      D7136728 
 435      BAE7
 436 0012 5287A40A 		.ascii	"R\207\244\012\010*\010\036vn\270\004/\341O\\j\2427 "
 436      082A081E 
 436      766EB804 
 436      2FE14F5C 
 436      6AA23720 
 437 0026 69DCB163 		.ascii	"i\334\261cOl;\237\360w\363\366\351L3\020\310e(\366\340"
 437      4F6C3B9F 
 437      F077F3F6 
 437      E94C3310 
 437      C86528F6 
 438 003b 0A2AB2FA 		.ascii	"\012*\262\372\020Q}\235\005\361#\3127\301548\177\305"
 438      10517D9D 
 438      05F123CA 
 438      37C13534 
 438      387FC5
 439 004e 040A8F53 		.ascii	"\004\012\217Sh\350q\006\215<\336@c\217sh\342q\001M="
 439      68E87106 
 439      8D3CDE40 
 439      638F7368 
 439      E271014D 
 440 0063 DE421B1E 		.ascii	"\336B\033\036\357\240M\217\367\320\226\307%\264\355"
 440      EFA04D8F 
 440      F7D096C7 
 440      25B4ED
 441 0072 7105ED78 		.ascii	"q\005\355x|\200v=\256\241=\217\033h\377\314\340\011"
 441      7C80763D 
 441      AEA13D8F 
 441      1B68FFCC 
 441      E009
 442 0084 3A308EC7 		.ascii	":0\216\307A\360\014\315\316z\201\016O\012%\223|w\014"
 442      41F00CCD 
 442      CE7A810E 
 442      4F0A2593 
 442      7C770C
 443 0097 2291C3CF 		.ascii	"\"\221\303\3171\010A\302\030\222\2411\"#cL\306\306$"
ARM GAS  /tmp/ccBA9sFT.s 			page 34


 443      310841C2 
 443      1892A131 
 443      2223634C 
 443      C6C624
 444 00aa 93ED723F 		.ascii	"\223\355r?\212\022\331L~\2432o\323:\337\363:\207E\235"
 444      8A12D94C 
 444      7EA3326F 
 444      D33ADFF3 
 444      3A87459D 
 445 00be CDE77B12 		.ascii	"\315\347{\022\246\231\270u\271\232\332jj\253\251\255"
 445      A699B875 
 445      B99ADA6A 
 445      6AABA9AD 
 446 00ce A6B65ACE 		.ascii	"\246\266Z\316\2266\373*\377h\360V\303n5\311\246\261"
 446      9636FB2A 
 446      FF68F056 
 446      C36E35C9 
 446      A6B1
 447 00e0 45B68C6D 		.ascii	"E\266\214m\262m\354\220\035c\227\354\032{d\317\330\037"
 447      B26DEC90 
 447      1D6397EC 
 447      1A7B64CF 
 447      D81F
 448 00f2 4ACE6E59 		.ascii	"J\316nY\307\026\377\363\035\347\254c\0136\237\354G\365"
 448      C716FFF3 
 448      1DE7AC63 
 448      0B369FEC 
 448      47F5
 449 0104 9C756CC1 		.ascii	"\234ul\301\346S\316\253\016.\354^\331-\353\330\202\255"
 449      E653CEAB 
 449      0E2EEC5E 
 449      D92DEBD8 
 449      82AD
 450 0116 EF5573D6 		.ascii	"\357Us\326\261\005[\337\253\346\254c\0136\347\235\352"
 450      B1055BDF 
 450      ABE6AC63 
 450      0B36E79D 
 450      EA
 451 0127 9EFC013B 		.ascii	"\236\374\001;C\374\211"
 451      43FC89
 452              		.text
 453              		.section	.gnu.lto_.refs.2317bc6143929e,"",%progbits
 454 0000 789C6DCB 		.ascii	"x\234m\313A\016\200 \020C\321RD\001\321\373r{3\237\235"
 454      410E8020 
 454      1043D152 
 454      4401D1FB 
 454      727B339F 
 455 0015 6192BE45 		.ascii	"a\222\276E\323\261\254\251u\226\222\223\215\031\017"
 455      D3B1ACA9 
 455      75969293 
 455      8D190F
 456 0024 2C613FC3 		.ascii	",a?\303\177\306\265k\371\252\330\260\343\215\003\037"
 456      7FC6B56B 
 456      F9AAD8B0 
 456      E38D031F 
 457 0034 7C597F71 		.ascii	"|Y\177q\364\001p"
 457      F40170
ARM GAS  /tmp/ccBA9sFT.s 			page 35


 458              		.text
 459              		.section	.gnu.lto_.decls.2317bc6143929e,"",%progbits
 460 0000 789CBD98 		.ascii	"x\234\275\230{l\024E\034\307g\366\012\355A-o(\376C5"
 460      7B6C1445 
 460      1CC767F6 
 460      0AED412D 
 460      6F28FE43 
 461 0015 8144140E 		.ascii	"\201D\024\016h\025M\014\321\264U\233X$mA\3760\331l\257"
 461      68154D0C 
 461      D1B4559B 
 461      58246D41 
 461      FE30D96C 
 462 002a 0B5CBCDE 		.ascii	"\013\\\274\336\341\335\025\213\377\270\320Z\237\204"
 462      E1DD158B 
 462      FFB8D05A 
 462      9F84
 463 0038 A25881F0 		.ascii	"\242X\201\360h\221\362P\221\207\362~\035\017)\312\303"
 463      6891F250 
 463      9187F27E 
 463      1D0F29CA 
 463      C3
 464 0049 42041F20 		.ascii	"B\004\037 \\J\252(\006)i\203\251\326\3637\263\273\267"
 464      5C4AAA28 
 464      06296983 
 464      A9D6F337 
 464      B3BBB7
 465 005c 7B7373DB 		.ascii	"{ss\333\255\346\274\334oonv\346\363\375\376ff\367vN"
 465      ADE6BCDC 
 465      6F6F6E76 
 465      E6F3FDFE 
 465      6666F776 
 466 0071 40026A4D 		.ascii	"@\002jMG(\012\257\202\021\010Mu 4\004!4\015\002\212"
 466      47280AAF 
 466      8211084D 
 466      75203404 
 466      21340D02 
 467 0086 A809A215 		.ascii	"\250\011\242\025\342\004R_\303 .C\\\203h\203h\207\270"
 467      E204525F 
 467      C3202E43 
 467      5C836883 
 467      6887B8
 468 0099 017113E2 		.ascii	"\001q\023\342\026D\007D'\304]\210n\210\036\322\011\003"
 468      16440744 
 468      27C45D88 
 468      6E881ED2 
 468      0903
 469 00ab 0BA23F84 		.ascii	"\013\242?\204\023\"\023\"\013b\030\246\247\320(\214"
 469      13221322 
 469      0B6218A6 
 469      A7D0288C 
 470 00bb E25E843F 		.ascii	"\342^\204?\030b7\304E\210\321p\376^\210\007!\326k\236"
 470      186237C4 
 470      4588D170 
 470      FE5E8807 
 470      21D66B9E 
 471 00cf 1E82F204 		.ascii	"\036\202\362\004\210\211\020{\340{\232\346\363,\204"
 471      8889107B 
ARM GAS  /tmp/ccBA9sFT.s 			page 36


 471      E07B9AE6 
 471      F32C84
 472 00de 0BEAAE68 		.ascii	"\013\352\256hu\017@y\027|\036\2048\015!h\374\314$\332"
 472      750F4079 
 472      177C1E84 
 472      380D2168 
 472      FCCC24DA 
 473 00f2 D752AC7D 		.ascii	"\327R\254}\315B\273-\305\332m\026\332\355)\326n\267"
 473      CD42BB2D 
 473      C5DA6D16 
 473      DAED29D6 
 473      6EB7
 474 0104 D0BE9162 		.ascii	"\320\276\221b\355\033\026\332d\335\016G\352\372\316"
 474      ED1B16DA 
 474      64DD0E47 
 474      EAFACE
 475 0113 22ED20D2 		.ascii	"\"\355 \322S\350\345\246\205\227[\377\263\227[\026^"
 475      53E8E5A6 
 475      85975BFF 
 475      B3975B16 
 475      5E
 476 0124 3A523C27 		.ascii	":R<'\035\026\332\235)\326\356\264\320\276\233b\355\273"
 476      1D16DA9D 
 476      29D6EEB4 
 476      D0BE9B62 
 476      EDBB
 477 0136 16DADD29 		.ascii	"\026\332\335)\326\356\266\320\356I\261v\217\2056\251"
 477      D6EEB6D0 
 477      EE49B176 
 477      8F8536A9 
 478 0146 4CA536E1 		.ascii	"L\2456\341'\323v\244X\333a\241M~\017\311o\354$\254^"
 478      27D376A4 
 478      58DB61A1 
 478      4D7E0FC9 
 478      6FEC24AC 
 479 015b F383B4F3 		.ascii	"\363\203\264\363\202v.\213\035'\244\376~\222>\223\265"
 479      82762E8B 
 479      1D27A4FE 
 479      7E923E93 
 479      B5
 480 016c 3EC34D7D 		.ascii	">\303M}\310\271a\234>\003\321[\212\262Xi\254S\2369\225"
 480      C8B9619C 
 480      3E03D15B 
 480      8AB25869 
 480      AC539E39 
 481 0181 35142D53 		.ascii	"5\024-S\340\225s\012\3560\263\261\204\263\234\350\011"
 481      E095730A 
 481      EE30B3B1 
 481      84B39CE8 
 481      09
 482 0192 5AC874A2 		.ascii	"Z\310t\242\014h<\026mP\224\372\310k?\265:\024%C\302"
 482      0C683C16 
 482      6D5094FA 
 482      C86B3FB5 
 482      3A142543 
 483 01a7 EBF15080 		.ascii	"\353\361P\200Cj\343\321\026\350W\257(m\367&J \015\333"
 483      436AE3D1 
ARM GAS  /tmp/ccBA9sFT.s 			page 37


 483      16E857AF 
 483      286DF726 
 483      4A200DDB 
 484 01bb F84432AE 		.ascii	"\370D2\256\2047`\001\216\033\201'\341f<^UR\"]\315K\263"
 484      84376001 
 484      8E1B8127 
 484      E1663C5E 
 484      5552225D 
 485 01d2 A9123983 		.ascii	"\251\0229\203\264s\234\327}\250\021\262\010_nY;J\211"
 485      B4739CD7 
 485      7DA811B2 
 485      085F6E59 
 485      3B4A89
 486 01e5 84713AAA 		.ascii	"\204q:\252#IE^[\234\275\302\220\314\320%\261\221J{["
 486      2349455E 
 486      5B9CBDC2 
 486      90CCD025 
 486      B1914A7B 
 487 01fa B69226E1 		.ascii	"\266\222&\341-\320E@\2258N\301\006\205X\372\004\372"
 487      2DD04540 
 487      95384EC1 
 487      068558FA 
 487      04FA
 488 020c 9A4D87A3 		.ascii	"\232M\207\243\013s\324Z\013\303\0162)\002\252\306\224"
 488      0B73D45A 
 488      0BC30E32 
 488      2902AAC6 
 488      94
 489 021d 96E634AA 		.ascii	"\226\3464\252jp\254\016\233Z\276cT\013\032\203|\305"
 489      6A70AC0E 
 489      9B5ABE63 
 489      540B1A83 
 489      7CC5
 490 022f 4EA3108D 		.ascii	"N\243\020\215\237^\2633\011o\305c\341\370)vp\273\011"
 490      9F5EB333 
 490      096FC563 
 490      E1F82976 
 490      70BB09
 491 0242 E8038CB5 		.ascii	"\350\003\214\265\011\340\345\251\025\015\335,\375\213"
 491      09E0E5A9 
 491      150DDD2C 
 491      FD8B
 492 0250 36F491AE 		.ascii	"6\364\221\256\366\245\323V*\341Z\007oAA\013l\232\373"
 492      F6A5D356 
 492      2AE15A07 
 492      6F41410B 
 492      6C9AFB
 493 0263 F0401DB8 		.ascii	"\360@\035\270\327\230\212\360\276\026\234\303Y\200L"
 493      D7988AF0 
 493      BE169CC3 
 493      59804C
 494 0272 6309EF85 		.ascii	"c\011\357\205LzoGZ\356g\226SxMK&\231\355\3756\026\223"
 494      4C7A6F47 
 494      5AEE6796 
 494      53784D4B 
 494      2699EDFD 
 495 0289 12DED5B2 		.ascii	"\022\336\325\262\032+\215\307\360\020T\257i\365\272"
ARM GAS  /tmp/ccBA9sFT.s 			page 38


 495      1A2B8DC7 
 495      F01054AF 
 495      69F5BA
 496 0298 8EB54C96 		.ascii	"\216\265L\226A&\022>L/\21658~Q\365\312 \306\216\262"
 496      4126123E 
 496      4C2F8E35 
 496      387E51F5 
 496      CA20C68E 
 497 02ad C6BF3F49 		.ascii	"\306\277?I\215\037\265u\025t\234\\=\232\030w\2427\214"
 497      8D1FB575 
 497      15749C5C 
 497      3D9A1877 
 497      A2378C
 498 02c0 998889E5 		.ascii	"\231\210\211\345\350bi\306Up\350\355\015\017\321\313"
 498      E86269C6 
 498      5570E8ED 
 498      0D0FD1CB 
 499 02d0 EC0426CB 		.ascii	"\354\004&\313\353<\343\331>\250\353\334\211e\270\006"
 499      EB3CE3D9 
 499      3EA8EBDC 
 499      8965B806 
 500 02e0 665BC22D 		.ascii	"f[\302-\024\365\206\020\217\222p\272\323l\231~\327\033"
 500      14F58610 
 500      8F9270BA 
 500      D36C997E 
 500      D71B
 501 02f2 105EBAD3 		.ascii	"\020^\272\323(\220}\307 \324\327\346\002z\217\212\036"
 501      28907DC7 
 501      20D4D7E6 
 501      027A8F8A 
 501      1E
 502 0303 35D6729C 		.ascii	"5\326r\234\325\336\327rg\317\022:\200qKy$z\237N\034"
 502      D5DED772 
 502      67CF123A 
 502      80714B79 
 502      247A9F4E 
 503 0318 DC137048 		.ascii	"\334\023pH\302\323Fp\341\304\342Y<\222\226\034\352\225"
 503      C2D34670 
 503      E1C4E259 
 503      3C92961C 
 503      EA95
 504 032a 2AE12620 		.ascii	"*\341& i_l\017ex]\335\0102\345\255t\030W$\014\343\011"
 504      695F6C0F 
 504      65785DDD 
 504      0832E5AD 
 504      74185724 
 505 0341 FC6FC651 		.ascii	"\374o\306Q\3023\035\261>\026\342G\352\206\023\3613`"
 505      C2331DB1 
 505      3E16E247 
 505      EA8613F1 
 505      3360
 506 0353 5C40CD8C 		.ascii	"\\@\315\214x\334\260\250\351&\033\212\213\000\340/\327"
 506      78DCB0A8 
 506      E9261B8A 
 506      8B00E02F 
 506      D7
 507 0364 847302FA 		.ascii	"\204s\002\372\254\317\323\226\223\2005\361\215\213H"
ARM GAS  /tmp/ccBA9sFT.s 			page 39


 507      ACCFD396 
 507      938035F1 
 507      8D8B48
 508 0373 C2C7E8DD 		.ascii	"\302\307\350\335\3578\276\017\216\247\341\310\216\001"
 508      EF38BE0F 
 508      8EA7E1C8 
 508      8E01
 509 0381 E7E67108 		.ascii	"\347\346q\010\017A\261\031Sb\331B\223d\311~\253MI\314"
 509      0F41B119 
 509      5362D942 
 509      9364C97E 
 509      AB4D49CC 
 510 0395 A9561889 		.ascii	"\251V\030\211\364\014w\323\014\367\033\0312\272\026"
 510      F40C77D3 
 510      0CF71B19 
 510      32BA16
 511 03a4 4BD39498 		.ascii	"K\323\224\230\232\322\001\232\322As2\002:\222\260N\324"
 511      9AD2019A 
 511      D2417332 
 511      023A92B0 
 511      4ED4
 512 03b6 7B9DA9B7 		.ascii	"{\235\251\267qSDl\377d\211\355\206\231\212I|)0?\024"
 512      7153446C 
 512      FF6489ED 
 512      86998A49 
 512      7C29303F 
 513 03cb FF6D9636 		.ascii	"\377m\2266\232fi\023Mi3\235\245]v\2145\031\306\306\240"
 513      9A666913 
 513      4D69339D 
 513      A55D768C 
 513      3519C6C6 
 514 03e0 B54A6324 		.ascii	"\265Jc$r\276\341 &?CJ4\372*\262\177\311^\321.Y\343\372"
 514      72BEE120 
 514      263F434A 
 514      34FA2AB2 
 514      7FC95ED1 
 515 03f8 10D01207 		.ascii	"\020\320\022\007f\326\3568\324Lx\312f\305Ai\244\375"
 515      66D6EE38 
 515      D44C78CA 
 515      66C54169 
 515      A4FD
 516 040a 653C263E 		.ascii	"e<&>\241\037\261`\256P}\205\327\236\314\254_\024\211"
 516      A11FB160 
 516      AE507D85 
 516      D79ECCAC 
 516      5F1489
 517 041d 46C7A85A 		.ascii	"F\307\250Z\002j\260E\277\306\322#\\\372\025\226\276"
 517      026AB045 
 517      BFC6D223 
 517      5CFA1596 
 517      BE
 518 042e CE16BD8D 		.ascii	"\316\026\275\215\245_\347\322W\2650\364\315\266\350"
 518      A55FE7D2 
 518      57B530F4 
 518      CDB6E8
 519 043d ED2CFD27 		.ascii	"\355,\375'.\375;\226\276\303\026\375\006K\377\205Ko"
 519      2EFD3B96 
ARM GAS  /tmp/ccBA9sFT.s 			page 40


 519      BEC316FD 
 519      064BFF85 
 519      4B6F
 520 044f F88AA1EF 		.ascii	"\370\212\241\357\267E\277\311\322\177\343\322\273Y\372"
 520      B745BFC9 
 520      D27FE3D2 
 520      BB59FA
 521 045e 715BF45B 		.ascii	"q[\364[,\375w.\275\3634C?c\213\336\301\322\357p\351"
 521      2CFD772E 
 521      BDF33443 
 521      3F638BDE 
 521      C1D2EF70 
 522 0473 3BCF31F4 		.ascii	";\3171\364\213\266\350\235,\275\213K\277\315\322\257"
 522      8BB6E89D 
 522      2CBD8B4B 
 522      BFCDD2AF 
 523 0483 DAA2DF65 		.ascii	"\332\242\337e\351\177p\351\333\277f\350?\333\242w\263"
 523      E97F70E9 
 523      DBBF66E8 
 523      3FDBA277 
 523      B3
 524 0494 F43FB9F4 		.ascii	"\364?\271\364;,\275\303\026\275\207\245\377\315\245"
 524      3B2CBDC3 
 524      16BD87A5 
 524      FFCDA5
 525 04a3 7F7E81A1 		.ascii	"\177~\201\241\377i\213\256\010\014}\221\300]3,\2756"
 525      FF698BAE 
 525      080C7D91 
 525      C05D332C 
 525      BD36
 526 04b5 CD0EBD86 		.ascii	"\315\016\275\206\245\327r\351\007\336;\215\225w\225"
 526      A5D772E9 
 526      07DE3B8D 
 526      957795
 527 04c4 BFA25107 		.ascii	"\277\242Q\007\322\005\226\330\022\250c\005^\347\012"
 527      D20596D8 
 527      12A86305 
 527      5EE70A
 528 04d3 7C7E89B1 		.ascii	"|~\211\261\337l\213\376&K\177+\221\036\251\217\364\\"
 528      DF6C8BFE 
 528      264B7F2B 
 528      911EA98F 
 528      F45C
 529 04e5 BFFDC28A 		.ascii	"\277\375\302\212\235J\355\233\312\337\321W\261.q;AB"
 529      9D4AED9B 
 529      CADFD157 
 529      B12E713B 
 529      4142
 530 04f7 652CE132 		.ascii	"e,\3412\032~\275=z\245r\254\257?0K\005\346\231\220<"
 530      1A7EBD3D 
 530      7AA572AC 
 530      AF3F304B 
 530      05E69990 
 531 050c BFC57D41 		.ascii	"\277\305}A\314\323\231\200\366\364\343\033{\227g,|\370"
 531      CCD39980 
 531      F6F4E31B 
 531      7B97672C 
ARM GAS  /tmp/ccBA9sFT.s 			page 41


 531      7CF8
 532 051e E43B0A56 		.ascii	"\344;\012V\007\317\276\255\345<[\214\215SIl4\304\333"
 532      07CFBEAD 
 532      E53C5B8C 
 532      8D53496C 
 532      34C4DB
 533 0531 B81F3591 		.ascii	"\270\0375\221\361\351\332\267|\374\"2>d\225`\254\377"
 533      F1E9DAB7 
 533      7CFC2232 
 533      3E649560 
 533      ACFF
 534 0543 47F0430C 		.ascii	"G\360C\014\222l\317\263\302\300\321G\256\032\313\207"
 534      926CCFB3 
 534      C2C0D147 
 534      AE1ACB87 
 535 0553 64097F41 		.ascii	"d\011\177A\037\026z\177\352\345m\025\261\216\312F\261"
 535      1F167A7F 
 535      EAE56D15 
 535      B18ECA46 
 535      B1
 536 0564 ADCBB2DF 		.ascii	"\255\313\262\337#\257\250;\227U\002q\\\337\237\273q"
 536      23AFA83B 
 536      97550271 
 536      5CDF9FBB 
 536      71
 537 0575 4BCE21A6 		.ascii	"K\316!\246\326\010\314\306m\337U\272q#\365\275l\334"
 537      D608CCC6 
 537      6DDF55BA 
 537      7123F5BD 
 537      6CDC
 538 0587 6A6BC287 		.ascii	"jk\302\207\256.\247\373\016\011\257\024\310S\377\032"
 538      AE2EA7FB 
 538      0E09AF14 
 538      C853FF1A 
 539 0597 6A81F4FD 		.ascii	"j\201\364\375\027\373\030\340\035\276\232Y/\351\260"
 539      17FB18E0 
 539      1DBE9A59 
 539      2FE9B0
 540 05a6 A63EC372 		.ascii	"\246>\303r\342`\255fX\263\035XFrg\027\314\260\217\372"
 540      E260AD66 
 540      58B31D58 
 540      46726717 
 540      CCB08FFA 
 541 05ba 0C8B77F6 		.ascii	"\014\213w\366\215\031\266\315\016lprg\227\314\260]}"
 541      8D19B6CD 
 541      0E6C7072 
 541      6797CCB0 
 541      5D7D
 542 05cc 86E5F0A6 		.ascii	"\206\345\360\246\027%\254\016\011\257\025\310\362]'"
 542      1725AC0E 
 542      09AF15C8 
 542      F25D27
 543 05db 9067DD26 		.ascii	"\220g\335&z\374\220\036\233\351q\023=n\021L\317\300"
 543      7AFC901E 
 543      9BE97113 
 543      3D6E114C 
 543      CFC0
ARM GAS  /tmp/ccBA9sFT.s 			page 42


 544 05ed CCAE6B55 		.ascii	"\314\256kU\022SD\347ca`B\257p_\367j\372\037\025\341"
 544      125344E7 
 544      63616042 
 544      AF705FF7 
 544      6AFA1F15 
 545 0602 B8BF6E98 		.ascii	"\270\277n\230\277\355\216\320\213\360h\334\226\202\263"
 545      BFED8ED0 
 545      8BF068DC 
 545      9682B3
 546 0611 CB32FE42 		.ascii	"\3132\376B\221\360V!\331\356\307\274\3532vSl\342W,R"
 546      91F05621 
 546      D9EEC7BC 
 546      EB327653 
 546      6CE2572C 
 547 0626 D8C6495C 		.ascii	"\330\306I\\\355E\356\277\311zmO\332k\271E\257\035F/"
 547      ED45EEBF 
 547      C97A6D4F 
 547      DA6BB945 
 547      AF1D462F 
 548 063a 34CE5515 		.ascii	"4\316U\025\014\270\202\001\267\313=\317S\356\361\007"
 548      0CB88201 
 548      B7CB3DCF 
 548      53EEF107 
 549 064a 5DF09E27 		.ascii	"]\360\236'y]\036\237\333[U!\273\344\352\320\304y\310"
 549      795D1E9F 
 549      DB5B5521 
 549      BBE4EAD0 
 549      C479C8
 550 065d 5938BBAC 		.ascii	"Y8\273\254 \340Y \007\372?=}fN>\232\222\254\337|\177"
 550      20E05920 
 550      07FA3F3D 
 550      7D664E3E 
 550      9A92ACDF 
 551 0673 20147495 		.ascii	" \024t\225\226\025\347Nq=\373l\001\351/z\275\025\300"
 551      9615E74E 
 551      713DFB6C 
 551      01E92F7A 
 551      BD15C0
 552 0686 1800C560 		.ascii	"\030\000\305`H\012\311bh\000\340\304\231\323\213\246"
 552      480AC962 
 552      6800E0C4 
 552      99D38BA6 
 553 0696 17956590 		.ascii	"\027\225e\220bi\331s3h\335\223\371eE\263\012\373\321"
 553      6269D973 
 553      3368DD93 
 553      F96545B3 
 553      0AFBD1
 554 06a9 6683A122 		.ascii	"f\203\241\"\177\236\344\363\311\336|\277o\216g\356\375"
 554      7F9EE4F3 
 554      C9DE7CBF 
 554      6F8E67EE 
 554      FD
 555 06ba 545337E6 		.ascii	"TS7\346\223_\366z\312]\301\205A\227\030\014Ux|\304g"
 555      935FF67A 
 555      CA5DC185 
 555      4197180C 
 555      55787CC4 
ARM GAS  /tmp/ccBA9sFT.s 			page 43


 556 06cf 46157CE6 		.ascii	"F\025|\346N\021C\023xm+%0\353\223]b\205<G\252\362\206"
 556      4E114313 
 556      786D2B25 
 556      30EB935D 
 556      62853C47 
 557 06e6 C4D0C2F9 		.ascii	"\304\320\302\371r\220X\023E\275cZ\245\277B\316\224\253"
 557      72905813 
 557      45BD635A 
 557      A5BF42CE 
 557      94AB
 558 06f8 E7BB5569 		.ascii	"\347\273Ui1t\017\370vK^o\271\344~Q\014\011\356\362\014"
 558      31740FF8 
 558      764B5E6F 
 558      B9E47E51 
 558      0C09EEF2 
 559 070d ED54908C 		.ascii	"\355T\220\214\212j\255\277\233~<ngT\350\361\251\274"
 559      8A6AADBF 
 559      9B7E3C6E 
 559      6754E8F1 
 559      A9BC
 560 071f EA6A7D6C 		.ascii	"\352j}lDO00\321\2152f\311\356\220?\360\360\243z!_+<"
 560      444F3030 
 560      D18D3266 
 560      C9EE903F 
 560      F0F0A37A 
 561 0737 32492FE4 		.ascii	"2I/\344\351\005\275\315cz\233B\275M\236\336\2460Vx\324"
 561      E905BDCD 
 561      637A9B42 
 561      BD4D9EDE 
 561      A6305678 
 562 074c A91626E7 		.ascii	"\251\026&\347\306JSc\315uR^\376(\335\016|zDO\340%Q\366"
 562      C64A5363 
 562      CD75525E 
 562      FE28DD0E 
 562      7C7A444F 
 563 0764 49E55E39 		.ascii	"I\345^9;\241\276\302\023$'&\363\262\015\204\264d\237"
 563      3BA1BEC2 
 563      13242726 
 563      F3B20D84 
 563      B4649F
 564 0777 2C29CE2F 		.ascii	",)\316/\256\206Sn\177@\026\027L\255\204q\036*\222s*"
 564      AE86536E 
 564      7F401617 
 564      4CAD8471 
 564      1E2A9273 
 565 078c 7BBEC7EB 		.ascii	"{\276\307\353\237[%\347Z\017\231\333_Y\351\367\3510"
 565      9F5B25E7 
 565      5A0F99DB 
 565      5F59E9F7 
 565      E930
 566 079e DF028F1B 		.ascii	"\337\002\217\0330\203\311g!5\247\232\037B*\012TWjM?"
 566      3083C967 
 566      2135A79A 
 566      1F422A0A 
 566      54576A4D 
 567 07b3 B26027BB 		.ascii	"\262`'\273xpH\303\225_\\ZT\0123\341\012\206*s\247\314"
 567      787048C3 
ARM GAS  /tmp/ccBA9sFT.s 			page 44


 567      955F5C5A 
 567      540A33E1 
 567      0A862A73 
 568 07c9 C99B34B5 		.ascii	"\311\2334\265\272\032\300"
 568      BA1AC0
 569 07d0 99D0AB48 		.ascii	"\231\320\253H,\203UQ \317q\024\025\2278\012\213K\322"
 569      2C835551 
 569      20CF7114 
 569      1597380A 
 569      8B4BD2
 570 07e3 4ACA4A4B 		.ascii	"J\312JK\322\236\202C\277\322\347\213\012K\204\031%\377"
 570      D29E8243 
 570      BFD2E78B 
 570      0A4B8419 
 570      25FF
 571 07f5 009C06C1 		.ascii	"\000\234\006\301q"
 571      71
 572              		.text
 573              		.section	.gnu.lto_.symtab.2317bc6143929e,"",%progbits
 574 0000 56656374 		.ascii	"Vector58\000\000\000\000\000\000\000\000\000\000\000"
 574      6F723538 
 574      00000000 
 574      00000000 
 574      000000
 575 0013 00DB0000 		.ascii	"\000\333\000\000\000Vector5C\000\000\000\000\000\000"
 575      00566563 
 575      746F7235 
 575      43000000 
 575      000000
 576 0026 00000000 		.ascii	"\000\000\000\000\000\000\337\000\000\000Vector60\000"
 576      0000DF00 
 576      00005665 
 576      63746F72 
 576      363000
 577 0039 00000000 		.ascii	"\000\000\000\000\000\000\000\000\000\000\000\342\000"
 577      00000000 
 577      000000E2 
 577      00
 578 0046 00005665 		.ascii	"\000\000Vector64\000\000\000\000\000\000\000\000\000"
 578      63746F72 
 578      36340000 
 578      00000000 
 578      000000
 579 0059 000000E5 		.ascii	"\000\000\000\345\000\000\000Vector68\000\000\000\000"
 579      00000056 
 579      6563746F 
 579      72363800 
 579      000000
 580 006c 00000000 		.ascii	"\000\000\000\000\000\000\000\000\350\000\000\000Vec"
 580      00000000 
 580      E8000000 
 580      566563
 581 007b 746F7239 		.ascii	"tor9C\000\000\000\000\000\000\000\000\000\000\000\000"
 581      43000000 
 581      00000000 
 581      00000000 
 581      00
ARM GAS  /tmp/ccBA9sFT.s 			page 45


 582 008c EB000000 		.ascii	"\353\000\000\000VectorE0\000\000\000\000\000\000\000"
 582      56656374 
 582      6F724530 
 582      00000000 
 582      000000
 583 009f 00000000 		.ascii	"\000\000\000\000\000\356\000\000\000Vector44\000\000"
 583      00EE0000 
 583      00566563 
 583      746F7234 
 583      340000
 584 00b2 00000000 		.ascii	"\000\000\000\000\000\000\000\000\000\000\361\000\000"
 584      00000000 
 584      0000F100 
 584      00
 585 00bf 00566563 		.ascii	"\000VectorE4\000\000\000\000\000\000\000\000\000\000"
 585      746F7245 
 585      34000000 
 585      00000000 
 585      000000
 586 00d2 0000F400 		.ascii	"\000\000\364\000\000\000VectorE8\000\000\000\000\000"
 586      00005665 
 586      63746F72 
 586      45380000 
 586      000000
 587 00e5 00000000 		.ascii	"\000\000\000\000\000\000\000\367\000\000\000Vector1"
 587      000000F7 
 587      00000056 
 587      6563746F 
 587      7231
 588 00f7 33380000 		.ascii	"38\000\000\000\000\000\000\000\000\000\000\000\000\372"
 588      00000000 
 588      00000000 
 588      0000FA
 589 0106 00000056 		.ascii	"\000\000\000Vector170\000\000\000\000\000\000\000\000"
 589      6563746F 
 589      72313730 
 589      00000000 
 589      00000000 
 590 011a 00000000 		.ascii	"\000\000\000\000\375\000\000\000Vector48\000\000\000"
 590      FD000000 
 590      56656374 
 590      6F723438 
 590      000000
 591 012d 00000000 		.ascii	"\000\000\000\000\000\000\000\000\000\000\001\000\000"
 591      00000000 
 591      00000100 
 591      00
 592 013a 56656374 		.ascii	"Vector4C\000\000\000\000\000\000\000\000\000\000\000"
 592      6F723443 
 592      00000000 
 592      00000000 
 592      000000
 593 014d 00030100 		.ascii	"\000\003\001\000\000ext_lld_exti_irq_enable\000\000"
 593      00657874 
 593      5F6C6C64 
 593      5F657874 
 593      695F6972 
ARM GAS  /tmp/ccBA9sFT.s 			page 46


 594 016b 00000000 		.ascii	"\000\000\000\000\000\000\000\000\000\000\006\001\000"
 594      00000000 
 594      00000601 
 594      00
 595 0178 00657874 		.ascii	"\000ext_lld_exti_irq_disable\000\000\000\000\000\000"
 595      5F6C6C64 
 595      5F657874 
 595      695F6972 
 595      715F6469 
 596 0197 00000000 		.ascii	"\000\000\000\000\000\000\011\001\000\000EXTD1\000\000"
 596      00000901 
 596      00004558 
 596      54443100 
 596      00
 597 01a8 02000000 		.ascii	"\002\000\000\000\000\000\000\000\000\000\027\001\000"
 597      00000000 
 597      00001701 
 597      00
 598 01b5 005F706F 		.ascii	"\000_port_irq_epilogue\000\000\002\000\000\000\000\000"
 598      72745F69 
 598      72715F65 
 598      70696C6F 
 598      67756500 
 599 01d0 00000000 		.ascii	"\000\000\000\000\014\001\000\000nvicEnableVector\000"
 599      0C010000 
 599      6E766963 
 599      456E6162 
 599      6C655665 
 600 01e9 00020000 		.ascii	"\000\002\000\000\000\000\000\000\000\000\000\016\001"
 600      00000000 
 600      0000000E 
 600      01
 601 01f6 00006E76 		.ascii	"\000\000nvicDisableVector\000\000\002\000\000\000\000"
 601      69634469 
 601      7361626C 
 601      65566563 
 601      746F7200 
 602 0210 00000000 		.ascii	"\000\000\000\000\000\023\001\000\000"
 602      00130100 
 602      00
 603              		.text
 604              		.section	.gnu.lto_.opts,"",%progbits
 605 0000 272D6D63 		.ascii	"'-mcpu=cortex-m4' '-mno-thumb-interwork' '-mthumb' "
 605      70753D63 
 605      6F727465 
 605      782D6D34 
 605      2720272D 
 606 0033 272D6767 		.ascii	"'-ggdb' '-O2' '-fomit-frame-pointer' '-falign-funct"
 606      64622720 
 606      272D4F32 
 606      2720272D 
 606      666F6D69 
 607 0066 696F6E73 		.ascii	"ions=16' '-ffunction-sections' '-fdata-sections' '-"
 607      3D313627 
 607      20272D66 
 607      66756E63 
 607      74696F6E 
ARM GAS  /tmp/ccBA9sFT.s 			page 47


 608 0099 666E6F2D 		.ascii	"fno-common' '-flto'\000"
 608      636F6D6D 
 608      6F6E2720 
 608      272D666C 
 608      746F2700 
 609              		.text
 610              		.cfi_sections	.debug_frame
 611              		.section	.text.Vector58,"ax",%progbits
 612              		.align	2
 613              		.p2align 4,,15
 614              		.global	Vector58
 615              		.thumb
 616              		.thumb_func
 617              		.type	Vector58, %function
 618              	Vector58:
 619              	.LFB260:
 620              		.file 1 "/usr/src/chibios/os/hal/ports/STM32/STM32F4xx/ext_lld_isr.c"
 621              		.loc 1 56 0
 622              		.cfi_startproc
 623              		@ args = 0, pretend = 0, frame = 0
 624              		@ frame_needed = 0, uses_anonymous_args = 0
 625 0000 08B5     		push	{r3, lr}
 626              		.cfi_def_cfa_offset 8
 627              		.cfi_offset 3, -8
 628              		.cfi_offset 14, -4
 629              		.loc 1 61 0
 630 0002 0648     		ldr	r0, .L2
 631              		.loc 1 60 0
 632 0004 064A     		ldr	r2, .L2+4
 633              		.loc 1 61 0
 634 0006 4368     		ldr	r3, [r0, #4]
 635              		.loc 1 60 0
 636 0008 0121     		movs	r1, #1
 637              		.loc 1 61 0
 638 000a 5B68     		ldr	r3, [r3, #4]
 639              		.loc 1 60 0
 640 000c 5161     		str	r1, [r2, #20]
 641              		.loc 1 61 0
 642 000e 0021     		movs	r1, #0
 643 0010 9847     		blx	r3
 644              	.LVL0:
 645              		.loc 1 64 0
 646 0012 BDE80840 		pop	{r3, lr}
 647              		.loc 1 63 0
 648 0016 FFF7FEBF 		b	_port_irq_epilogue
 649              	.LVL1:
 650              	.L3:
 651 001a 00BF     		.align	2
 652              	.L2:
 653 001c 00000000 		.word	EXTD1
 654 0020 003C0140 		.word	1073822720
 655              		.cfi_endproc
 656              	.LFE260:
 657              		.size	Vector58, .-Vector58
 658              		.section	.text.Vector5C,"ax",%progbits
 659              		.align	2
 660              		.p2align 4,,15
ARM GAS  /tmp/ccBA9sFT.s 			page 48


 661              		.global	Vector5C
 662              		.thumb
 663              		.thumb_func
 664              		.type	Vector5C, %function
 665              	Vector5C:
 666              	.LFB261:
 667              		.loc 1 71 0
 668              		.cfi_startproc
 669              		@ args = 0, pretend = 0, frame = 0
 670              		@ frame_needed = 0, uses_anonymous_args = 0
 671 0000 08B5     		push	{r3, lr}
 672              		.cfi_def_cfa_offset 8
 673              		.cfi_offset 3, -8
 674              		.cfi_offset 14, -4
 675              		.loc 1 76 0
 676 0002 0648     		ldr	r0, .L5
 677              		.loc 1 75 0
 678 0004 064A     		ldr	r2, .L5+4
 679              		.loc 1 76 0
 680 0006 4368     		ldr	r3, [r0, #4]
 681              		.loc 1 75 0
 682 0008 0221     		movs	r1, #2
 683              		.loc 1 76 0
 684 000a DB68     		ldr	r3, [r3, #12]
 685              		.loc 1 75 0
 686 000c 5161     		str	r1, [r2, #20]
 687              		.loc 1 76 0
 688 000e 0121     		movs	r1, #1
 689 0010 9847     		blx	r3
 690              	.LVL2:
 691              		.loc 1 79 0
 692 0012 BDE80840 		pop	{r3, lr}
 693              		.loc 1 78 0
 694 0016 FFF7FEBF 		b	_port_irq_epilogue
 695              	.LVL3:
 696              	.L6:
 697 001a 00BF     		.align	2
 698              	.L5:
 699 001c 00000000 		.word	EXTD1
 700 0020 003C0140 		.word	1073822720
 701              		.cfi_endproc
 702              	.LFE261:
 703              		.size	Vector5C, .-Vector5C
 704              		.section	.text.Vector60,"ax",%progbits
 705              		.align	2
 706              		.p2align 4,,15
 707              		.global	Vector60
 708              		.thumb
 709              		.thumb_func
 710              		.type	Vector60, %function
 711              	Vector60:
 712              	.LFB262:
 713              		.loc 1 86 0
 714              		.cfi_startproc
 715              		@ args = 0, pretend = 0, frame = 0
 716              		@ frame_needed = 0, uses_anonymous_args = 0
 717 0000 08B5     		push	{r3, lr}
ARM GAS  /tmp/ccBA9sFT.s 			page 49


 718              		.cfi_def_cfa_offset 8
 719              		.cfi_offset 3, -8
 720              		.cfi_offset 14, -4
 721              		.loc 1 91 0
 722 0002 0648     		ldr	r0, .L8
 723              		.loc 1 90 0
 724 0004 064A     		ldr	r2, .L8+4
 725              		.loc 1 91 0
 726 0006 4368     		ldr	r3, [r0, #4]
 727              		.loc 1 90 0
 728 0008 0421     		movs	r1, #4
 729              		.loc 1 91 0
 730 000a 5B69     		ldr	r3, [r3, #20]
 731              		.loc 1 90 0
 732 000c 5161     		str	r1, [r2, #20]
 733              		.loc 1 91 0
 734 000e 0221     		movs	r1, #2
 735 0010 9847     		blx	r3
 736              	.LVL4:
 737              		.loc 1 94 0
 738 0012 BDE80840 		pop	{r3, lr}
 739              		.loc 1 93 0
 740 0016 FFF7FEBF 		b	_port_irq_epilogue
 741              	.LVL5:
 742              	.L9:
 743 001a 00BF     		.align	2
 744              	.L8:
 745 001c 00000000 		.word	EXTD1
 746 0020 003C0140 		.word	1073822720
 747              		.cfi_endproc
 748              	.LFE262:
 749              		.size	Vector60, .-Vector60
 750              		.section	.text.Vector64,"ax",%progbits
 751              		.align	2
 752              		.p2align 4,,15
 753              		.global	Vector64
 754              		.thumb
 755              		.thumb_func
 756              		.type	Vector64, %function
 757              	Vector64:
 758              	.LFB263:
 759              		.loc 1 101 0
 760              		.cfi_startproc
 761              		@ args = 0, pretend = 0, frame = 0
 762              		@ frame_needed = 0, uses_anonymous_args = 0
 763 0000 08B5     		push	{r3, lr}
 764              		.cfi_def_cfa_offset 8
 765              		.cfi_offset 3, -8
 766              		.cfi_offset 14, -4
 767              		.loc 1 106 0
 768 0002 0648     		ldr	r0, .L11
 769              		.loc 1 105 0
 770 0004 064A     		ldr	r2, .L11+4
 771              		.loc 1 106 0
 772 0006 4368     		ldr	r3, [r0, #4]
 773              		.loc 1 105 0
 774 0008 0821     		movs	r1, #8
ARM GAS  /tmp/ccBA9sFT.s 			page 50


 775              		.loc 1 106 0
 776 000a DB69     		ldr	r3, [r3, #28]
 777              		.loc 1 105 0
 778 000c 5161     		str	r1, [r2, #20]
 779              		.loc 1 106 0
 780 000e 0321     		movs	r1, #3
 781 0010 9847     		blx	r3
 782              	.LVL6:
 783              		.loc 1 109 0
 784 0012 BDE80840 		pop	{r3, lr}
 785              		.loc 1 108 0
 786 0016 FFF7FEBF 		b	_port_irq_epilogue
 787              	.LVL7:
 788              	.L12:
 789 001a 00BF     		.align	2
 790              	.L11:
 791 001c 00000000 		.word	EXTD1
 792 0020 003C0140 		.word	1073822720
 793              		.cfi_endproc
 794              	.LFE263:
 795              		.size	Vector64, .-Vector64
 796              		.section	.text.Vector68,"ax",%progbits
 797              		.align	2
 798              		.p2align 4,,15
 799              		.global	Vector68
 800              		.thumb
 801              		.thumb_func
 802              		.type	Vector68, %function
 803              	Vector68:
 804              	.LFB264:
 805              		.loc 1 116 0
 806              		.cfi_startproc
 807              		@ args = 0, pretend = 0, frame = 0
 808              		@ frame_needed = 0, uses_anonymous_args = 0
 809 0000 08B5     		push	{r3, lr}
 810              		.cfi_def_cfa_offset 8
 811              		.cfi_offset 3, -8
 812              		.cfi_offset 14, -4
 813              		.loc 1 121 0
 814 0002 0648     		ldr	r0, .L14
 815              		.loc 1 120 0
 816 0004 064A     		ldr	r2, .L14+4
 817              		.loc 1 121 0
 818 0006 4368     		ldr	r3, [r0, #4]
 819              		.loc 1 120 0
 820 0008 1021     		movs	r1, #16
 821              		.loc 1 121 0
 822 000a 5B6A     		ldr	r3, [r3, #36]
 823              		.loc 1 120 0
 824 000c 5161     		str	r1, [r2, #20]
 825              		.loc 1 121 0
 826 000e 0421     		movs	r1, #4
 827 0010 9847     		blx	r3
 828              	.LVL8:
 829              		.loc 1 124 0
 830 0012 BDE80840 		pop	{r3, lr}
 831              		.loc 1 123 0
ARM GAS  /tmp/ccBA9sFT.s 			page 51


 832 0016 FFF7FEBF 		b	_port_irq_epilogue
 833              	.LVL9:
 834              	.L15:
 835 001a 00BF     		.align	2
 836              	.L14:
 837 001c 00000000 		.word	EXTD1
 838 0020 003C0140 		.word	1073822720
 839              		.cfi_endproc
 840              	.LFE264:
 841              		.size	Vector68, .-Vector68
 842              		.section	.text.Vector9C,"ax",%progbits
 843              		.align	2
 844              		.p2align 4,,15
 845              		.global	Vector9C
 846              		.thumb
 847              		.thumb_func
 848              		.type	Vector9C, %function
 849              	Vector9C:
 850              	.LFB265:
 851              		.loc 1 131 0
 852              		.cfi_startproc
 853              		@ args = 0, pretend = 0, frame = 0
 854              		@ frame_needed = 0, uses_anonymous_args = 0
 855              		.loc 1 136 0
 856 0000 184B     		ldr	r3, .L42
 857              		.loc 1 131 0
 858 0002 10B5     		push	{r4, lr}
 859              		.cfi_def_cfa_offset 8
 860              		.cfi_offset 4, -8
 861              		.cfi_offset 14, -4
 862              		.loc 1 136 0
 863 0004 5C69     		ldr	r4, [r3, #20]
 864 0006 04F47872 		and	r2, r4, #992
 865              	.LVL10:
 866              		.loc 1 137 0
 867 000a 5A61     		str	r2, [r3, #20]
 868              		.loc 1 138 0
 869 000c A306     		lsls	r3, r4, #26
 870 000e 22D4     		bmi	.L38
 871              	.LVL11:
 872              	.L17:
 873              		.loc 1 140 0
 874 0010 6006     		lsls	r0, r4, #25
 875 0012 1AD4     		bmi	.L39
 876              	.L18:
 877              		.loc 1 142 0
 878 0014 2106     		lsls	r1, r4, #24
 879 0016 12D4     		bmi	.L40
 880              	.L19:
 881              		.loc 1 144 0
 882 0018 E205     		lsls	r2, r4, #23
 883 001a 0AD4     		bmi	.L41
 884              	.L20:
 885              		.loc 1 146 0
 886 001c A305     		lsls	r3, r4, #22
 887 001e 04D5     		bpl	.L21
 888              		.loc 1 147 0
ARM GAS  /tmp/ccBA9sFT.s 			page 52


 889 0020 1148     		ldr	r0, .L42+4
 890 0022 4368     		ldr	r3, [r0, #4]
 891 0024 0921     		movs	r1, #9
 892 0026 DB6C     		ldr	r3, [r3, #76]
 893 0028 9847     		blx	r3
 894              	.LVL12:
 895              	.L21:
 896              		.loc 1 150 0
 897 002a BDE81040 		pop	{r4, lr}
 898              	.LVL13:
 899              		.loc 1 149 0
 900 002e FFF7FEBF 		b	_port_irq_epilogue
 901              	.LVL14:
 902              	.L41:
 903              		.loc 1 145 0
 904 0032 0D48     		ldr	r0, .L42+4
 905 0034 4368     		ldr	r3, [r0, #4]
 906 0036 0821     		movs	r1, #8
 907 0038 5B6C     		ldr	r3, [r3, #68]
 908 003a 9847     		blx	r3
 909              	.LVL15:
 910 003c EEE7     		b	.L20
 911              	.L40:
 912              		.loc 1 143 0
 913 003e 0A48     		ldr	r0, .L42+4
 914 0040 4368     		ldr	r3, [r0, #4]
 915 0042 0721     		movs	r1, #7
 916 0044 DB6B     		ldr	r3, [r3, #60]
 917 0046 9847     		blx	r3
 918              	.LVL16:
 919 0048 E6E7     		b	.L19
 920              	.L39:
 921              		.loc 1 141 0
 922 004a 0748     		ldr	r0, .L42+4
 923 004c 4368     		ldr	r3, [r0, #4]
 924 004e 0621     		movs	r1, #6
 925 0050 5B6B     		ldr	r3, [r3, #52]
 926 0052 9847     		blx	r3
 927              	.LVL17:
 928 0054 DEE7     		b	.L18
 929              	.LVL18:
 930              	.L38:
 931              		.loc 1 139 0
 932 0056 0448     		ldr	r0, .L42+4
 933 0058 4368     		ldr	r3, [r0, #4]
 934 005a 0521     		movs	r1, #5
 935 005c DB6A     		ldr	r3, [r3, #44]
 936 005e 9847     		blx	r3
 937              	.LVL19:
 938 0060 D6E7     		b	.L17
 939              	.L43:
 940 0062 00BF     		.align	2
 941              	.L42:
 942 0064 003C0140 		.word	1073822720
 943 0068 00000000 		.word	EXTD1
 944              		.cfi_endproc
 945              	.LFE265:
ARM GAS  /tmp/ccBA9sFT.s 			page 53


 946              		.size	Vector9C, .-Vector9C
 947              		.section	.text.VectorE0,"ax",%progbits
 948              		.align	2
 949              		.p2align 4,,15
 950              		.global	VectorE0
 951              		.thumb
 952              		.thumb_func
 953              		.type	VectorE0, %function
 954              	VectorE0:
 955              	.LFB266:
 956              		.loc 1 157 0
 957              		.cfi_startproc
 958              		@ args = 0, pretend = 0, frame = 0
 959              		@ frame_needed = 0, uses_anonymous_args = 0
 960              		.loc 1 162 0
 961 0000 1C4B     		ldr	r3, .L74
 962              		.loc 1 157 0
 963 0002 10B5     		push	{r4, lr}
 964              		.cfi_def_cfa_offset 8
 965              		.cfi_offset 4, -8
 966              		.cfi_offset 14, -4
 967              		.loc 1 162 0
 968 0004 5C69     		ldr	r4, [r3, #20]
 969 0006 04F47C42 		and	r2, r4, #64512
 970              	.LVL20:
 971              		.loc 1 164 0
 972 000a 5A61     		str	r2, [r3, #20]
 973              		.loc 1 165 0
 974 000c 6205     		lsls	r2, r4, #21
 975              	.LVL21:
 976 000e 2AD4     		bmi	.L69
 977              	.LVL22:
 978              	.L45:
 979              		.loc 1 167 0
 980 0010 2305     		lsls	r3, r4, #20
 981 0012 22D4     		bmi	.L70
 982              	.L46:
 983              		.loc 1 169 0
 984 0014 E004     		lsls	r0, r4, #19
 985 0016 1AD4     		bmi	.L71
 986              	.L47:
 987              		.loc 1 171 0
 988 0018 A104     		lsls	r1, r4, #18
 989 001a 12D4     		bmi	.L72
 990              	.L48:
 991              		.loc 1 173 0
 992 001c 6204     		lsls	r2, r4, #17
 993 001e 0AD4     		bmi	.L73
 994              	.L49:
 995              		.loc 1 175 0
 996 0020 2304     		lsls	r3, r4, #16
 997 0022 04D5     		bpl	.L50
 998              		.loc 1 176 0
 999 0024 1448     		ldr	r0, .L74+4
 1000 0026 4368     		ldr	r3, [r0, #4]
 1001 0028 0F21     		movs	r1, #15
 1002 002a DB6F     		ldr	r3, [r3, #124]
ARM GAS  /tmp/ccBA9sFT.s 			page 54


 1003 002c 9847     		blx	r3
 1004              	.LVL23:
 1005              	.L50:
 1006              		.loc 1 179 0
 1007 002e BDE81040 		pop	{r4, lr}
 1008              	.LVL24:
 1009              		.loc 1 178 0
 1010 0032 FFF7FEBF 		b	_port_irq_epilogue
 1011              	.LVL25:
 1012              	.L73:
 1013              		.loc 1 174 0
 1014 0036 1048     		ldr	r0, .L74+4
 1015 0038 4368     		ldr	r3, [r0, #4]
 1016 003a 0E21     		movs	r1, #14
 1017 003c 5B6F     		ldr	r3, [r3, #116]
 1018 003e 9847     		blx	r3
 1019              	.LVL26:
 1020 0040 EEE7     		b	.L49
 1021              	.L72:
 1022              		.loc 1 172 0
 1023 0042 0D48     		ldr	r0, .L74+4
 1024 0044 4368     		ldr	r3, [r0, #4]
 1025 0046 0D21     		movs	r1, #13
 1026 0048 DB6E     		ldr	r3, [r3, #108]
 1027 004a 9847     		blx	r3
 1028              	.LVL27:
 1029 004c E6E7     		b	.L48
 1030              	.L71:
 1031              		.loc 1 170 0
 1032 004e 0A48     		ldr	r0, .L74+4
 1033 0050 4368     		ldr	r3, [r0, #4]
 1034 0052 0C21     		movs	r1, #12
 1035 0054 5B6E     		ldr	r3, [r3, #100]
 1036 0056 9847     		blx	r3
 1037              	.LVL28:
 1038 0058 DEE7     		b	.L47
 1039              	.L70:
 1040              		.loc 1 168 0
 1041 005a 0748     		ldr	r0, .L74+4
 1042 005c 4368     		ldr	r3, [r0, #4]
 1043 005e 0B21     		movs	r1, #11
 1044 0060 DB6D     		ldr	r3, [r3, #92]
 1045 0062 9847     		blx	r3
 1046              	.LVL29:
 1047 0064 D6E7     		b	.L46
 1048              	.LVL30:
 1049              	.L69:
 1050              		.loc 1 166 0
 1051 0066 0448     		ldr	r0, .L74+4
 1052 0068 4368     		ldr	r3, [r0, #4]
 1053              	.LVL31:
 1054 006a 0A21     		movs	r1, #10
 1055 006c 5B6D     		ldr	r3, [r3, #84]
 1056 006e 9847     		blx	r3
 1057              	.LVL32:
 1058 0070 CEE7     		b	.L45
 1059              	.L75:
ARM GAS  /tmp/ccBA9sFT.s 			page 55


 1060 0072 00BF     		.align	2
 1061              	.L74:
 1062 0074 003C0140 		.word	1073822720
 1063 0078 00000000 		.word	EXTD1
 1064              		.cfi_endproc
 1065              	.LFE266:
 1066              		.size	VectorE0, .-VectorE0
 1067              		.section	.text.Vector44,"ax",%progbits
 1068              		.align	2
 1069              		.p2align 4,,15
 1070              		.global	Vector44
 1071              		.thumb
 1072              		.thumb_func
 1073              		.type	Vector44, %function
 1074              	Vector44:
 1075              	.LFB267:
 1076              		.loc 1 186 0
 1077              		.cfi_startproc
 1078              		@ args = 0, pretend = 0, frame = 0
 1079              		@ frame_needed = 0, uses_anonymous_args = 0
 1080 0000 08B5     		push	{r3, lr}
 1081              		.cfi_def_cfa_offset 8
 1082              		.cfi_offset 3, -8
 1083              		.cfi_offset 14, -4
 1084              		.loc 1 191 0
 1085 0002 0748     		ldr	r0, .L77
 1086              		.loc 1 190 0
 1087 0004 074A     		ldr	r2, .L77+4
 1088              		.loc 1 191 0
 1089 0006 4368     		ldr	r3, [r0, #4]
 1090              		.loc 1 190 0
 1091 0008 4FF48031 		mov	r1, #65536
 1092              		.loc 1 191 0
 1093 000c D3F88430 		ldr	r3, [r3, #132]
 1094              		.loc 1 190 0
 1095 0010 5161     		str	r1, [r2, #20]
 1096              		.loc 1 191 0
 1097 0012 1021     		movs	r1, #16
 1098 0014 9847     		blx	r3
 1099              	.LVL33:
 1100              		.loc 1 194 0
 1101 0016 BDE80840 		pop	{r3, lr}
 1102              		.loc 1 193 0
 1103 001a FFF7FEBF 		b	_port_irq_epilogue
 1104              	.LVL34:
 1105              	.L78:
 1106 001e 00BF     		.align	2
 1107              	.L77:
 1108 0020 00000000 		.word	EXTD1
 1109 0024 003C0140 		.word	1073822720
 1110              		.cfi_endproc
 1111              	.LFE267:
 1112              		.size	Vector44, .-Vector44
 1113              		.section	.text.VectorE4,"ax",%progbits
 1114              		.align	2
 1115              		.p2align 4,,15
 1116              		.global	VectorE4
ARM GAS  /tmp/ccBA9sFT.s 			page 56


 1117              		.thumb
 1118              		.thumb_func
 1119              		.type	VectorE4, %function
 1120              	VectorE4:
 1121              	.LFB268:
 1122              		.loc 1 201 0
 1123              		.cfi_startproc
 1124              		@ args = 0, pretend = 0, frame = 0
 1125              		@ frame_needed = 0, uses_anonymous_args = 0
 1126 0000 08B5     		push	{r3, lr}
 1127              		.cfi_def_cfa_offset 8
 1128              		.cfi_offset 3, -8
 1129              		.cfi_offset 14, -4
 1130              		.loc 1 206 0
 1131 0002 0748     		ldr	r0, .L80
 1132              		.loc 1 205 0
 1133 0004 074A     		ldr	r2, .L80+4
 1134              		.loc 1 206 0
 1135 0006 4368     		ldr	r3, [r0, #4]
 1136              		.loc 1 205 0
 1137 0008 4FF40031 		mov	r1, #131072
 1138              		.loc 1 206 0
 1139 000c D3F88C30 		ldr	r3, [r3, #140]
 1140              		.loc 1 205 0
 1141 0010 5161     		str	r1, [r2, #20]
 1142              		.loc 1 206 0
 1143 0012 1121     		movs	r1, #17
 1144 0014 9847     		blx	r3
 1145              	.LVL35:
 1146              		.loc 1 209 0
 1147 0016 BDE80840 		pop	{r3, lr}
 1148              		.loc 1 208 0
 1149 001a FFF7FEBF 		b	_port_irq_epilogue
 1150              	.LVL36:
 1151              	.L81:
 1152 001e 00BF     		.align	2
 1153              	.L80:
 1154 0020 00000000 		.word	EXTD1
 1155 0024 003C0140 		.word	1073822720
 1156              		.cfi_endproc
 1157              	.LFE268:
 1158              		.size	VectorE4, .-VectorE4
 1159              		.section	.text.VectorE8,"ax",%progbits
 1160              		.align	2
 1161              		.p2align 4,,15
 1162              		.global	VectorE8
 1163              		.thumb
 1164              		.thumb_func
 1165              		.type	VectorE8, %function
 1166              	VectorE8:
 1167              	.LFB269:
 1168              		.loc 1 216 0
 1169              		.cfi_startproc
 1170              		@ args = 0, pretend = 0, frame = 0
 1171              		@ frame_needed = 0, uses_anonymous_args = 0
 1172 0000 08B5     		push	{r3, lr}
 1173              		.cfi_def_cfa_offset 8
ARM GAS  /tmp/ccBA9sFT.s 			page 57


 1174              		.cfi_offset 3, -8
 1175              		.cfi_offset 14, -4
 1176              		.loc 1 221 0
 1177 0002 0748     		ldr	r0, .L83
 1178              		.loc 1 220 0
 1179 0004 074A     		ldr	r2, .L83+4
 1180              		.loc 1 221 0
 1181 0006 4368     		ldr	r3, [r0, #4]
 1182              		.loc 1 220 0
 1183 0008 4FF48021 		mov	r1, #262144
 1184              		.loc 1 221 0
 1185 000c D3F89430 		ldr	r3, [r3, #148]
 1186              		.loc 1 220 0
 1187 0010 5161     		str	r1, [r2, #20]
 1188              		.loc 1 221 0
 1189 0012 1221     		movs	r1, #18
 1190 0014 9847     		blx	r3
 1191              	.LVL37:
 1192              		.loc 1 224 0
 1193 0016 BDE80840 		pop	{r3, lr}
 1194              		.loc 1 223 0
 1195 001a FFF7FEBF 		b	_port_irq_epilogue
 1196              	.LVL38:
 1197              	.L84:
 1198 001e 00BF     		.align	2
 1199              	.L83:
 1200 0020 00000000 		.word	EXTD1
 1201 0024 003C0140 		.word	1073822720
 1202              		.cfi_endproc
 1203              	.LFE269:
 1204              		.size	VectorE8, .-VectorE8
 1205              		.section	.text.Vector138,"ax",%progbits
 1206              		.align	2
 1207              		.p2align 4,,15
 1208              		.global	Vector138
 1209              		.thumb
 1210              		.thumb_func
 1211              		.type	Vector138, %function
 1212              	Vector138:
 1213              	.LFB270:
 1214              		.loc 1 232 0
 1215              		.cfi_startproc
 1216              		@ args = 0, pretend = 0, frame = 0
 1217              		@ frame_needed = 0, uses_anonymous_args = 0
 1218 0000 08B5     		push	{r3, lr}
 1219              		.cfi_def_cfa_offset 8
 1220              		.cfi_offset 3, -8
 1221              		.cfi_offset 14, -4
 1222              		.loc 1 237 0
 1223 0002 0748     		ldr	r0, .L86
 1224              		.loc 1 236 0
 1225 0004 074A     		ldr	r2, .L86+4
 1226              		.loc 1 237 0
 1227 0006 4368     		ldr	r3, [r0, #4]
 1228              		.loc 1 236 0
 1229 0008 4FF40021 		mov	r1, #524288
 1230              		.loc 1 237 0
ARM GAS  /tmp/ccBA9sFT.s 			page 58


 1231 000c D3F89C30 		ldr	r3, [r3, #156]
 1232              		.loc 1 236 0
 1233 0010 5161     		str	r1, [r2, #20]
 1234              		.loc 1 237 0
 1235 0012 1321     		movs	r1, #19
 1236 0014 9847     		blx	r3
 1237              	.LVL39:
 1238              		.loc 1 240 0
 1239 0016 BDE80840 		pop	{r3, lr}
 1240              		.loc 1 239 0
 1241 001a FFF7FEBF 		b	_port_irq_epilogue
 1242              	.LVL40:
 1243              	.L87:
 1244 001e 00BF     		.align	2
 1245              	.L86:
 1246 0020 00000000 		.word	EXTD1
 1247 0024 003C0140 		.word	1073822720
 1248              		.cfi_endproc
 1249              	.LFE270:
 1250              		.size	Vector138, .-Vector138
 1251              		.section	.text.Vector170,"ax",%progbits
 1252              		.align	2
 1253              		.p2align 4,,15
 1254              		.global	Vector170
 1255              		.thumb
 1256              		.thumb_func
 1257              		.type	Vector170, %function
 1258              	Vector170:
 1259              	.LFB271:
 1260              		.loc 1 249 0
 1261              		.cfi_startproc
 1262              		@ args = 0, pretend = 0, frame = 0
 1263              		@ frame_needed = 0, uses_anonymous_args = 0
 1264 0000 08B5     		push	{r3, lr}
 1265              		.cfi_def_cfa_offset 8
 1266              		.cfi_offset 3, -8
 1267              		.cfi_offset 14, -4
 1268              		.loc 1 254 0
 1269 0002 0748     		ldr	r0, .L89
 1270              		.loc 1 253 0
 1271 0004 074A     		ldr	r2, .L89+4
 1272              		.loc 1 254 0
 1273 0006 4368     		ldr	r3, [r0, #4]
 1274              		.loc 1 253 0
 1275 0008 4FF48011 		mov	r1, #1048576
 1276              		.loc 1 254 0
 1277 000c D3F8A430 		ldr	r3, [r3, #164]
 1278              		.loc 1 253 0
 1279 0010 5161     		str	r1, [r2, #20]
 1280              		.loc 1 254 0
 1281 0012 1421     		movs	r1, #20
 1282 0014 9847     		blx	r3
 1283              	.LVL41:
 1284              		.loc 1 257 0
 1285 0016 BDE80840 		pop	{r3, lr}
 1286              		.loc 1 256 0
 1287 001a FFF7FEBF 		b	_port_irq_epilogue
ARM GAS  /tmp/ccBA9sFT.s 			page 59


 1288              	.LVL42:
 1289              	.L90:
 1290 001e 00BF     		.align	2
 1291              	.L89:
 1292 0020 00000000 		.word	EXTD1
 1293 0024 003C0140 		.word	1073822720
 1294              		.cfi_endproc
 1295              	.LFE271:
 1296              		.size	Vector170, .-Vector170
 1297              		.section	.text.Vector48,"ax",%progbits
 1298              		.align	2
 1299              		.p2align 4,,15
 1300              		.global	Vector48
 1301              		.thumb
 1302              		.thumb_func
 1303              		.type	Vector48, %function
 1304              	Vector48:
 1305              	.LFB272:
 1306              		.loc 1 266 0
 1307              		.cfi_startproc
 1308              		@ args = 0, pretend = 0, frame = 0
 1309              		@ frame_needed = 0, uses_anonymous_args = 0
 1310 0000 08B5     		push	{r3, lr}
 1311              		.cfi_def_cfa_offset 8
 1312              		.cfi_offset 3, -8
 1313              		.cfi_offset 14, -4
 1314              		.loc 1 271 0
 1315 0002 0748     		ldr	r0, .L92
 1316              		.loc 1 270 0
 1317 0004 074A     		ldr	r2, .L92+4
 1318              		.loc 1 271 0
 1319 0006 4368     		ldr	r3, [r0, #4]
 1320              		.loc 1 270 0
 1321 0008 4FF40011 		mov	r1, #2097152
 1322              		.loc 1 271 0
 1323 000c D3F8AC30 		ldr	r3, [r3, #172]
 1324              		.loc 1 270 0
 1325 0010 5161     		str	r1, [r2, #20]
 1326              		.loc 1 271 0
 1327 0012 1521     		movs	r1, #21
 1328 0014 9847     		blx	r3
 1329              	.LVL43:
 1330              		.loc 1 274 0
 1331 0016 BDE80840 		pop	{r3, lr}
 1332              		.loc 1 273 0
 1333 001a FFF7FEBF 		b	_port_irq_epilogue
 1334              	.LVL44:
 1335              	.L93:
 1336 001e 00BF     		.align	2
 1337              	.L92:
 1338 0020 00000000 		.word	EXTD1
 1339 0024 003C0140 		.word	1073822720
 1340              		.cfi_endproc
 1341              	.LFE272:
 1342              		.size	Vector48, .-Vector48
 1343              		.section	.text.Vector4C,"ax",%progbits
 1344              		.align	2
ARM GAS  /tmp/ccBA9sFT.s 			page 60


 1345              		.p2align 4,,15
 1346              		.global	Vector4C
 1347              		.thumb
 1348              		.thumb_func
 1349              		.type	Vector4C, %function
 1350              	Vector4C:
 1351              	.LFB273:
 1352              		.loc 1 282 0
 1353              		.cfi_startproc
 1354              		@ args = 0, pretend = 0, frame = 0
 1355              		@ frame_needed = 0, uses_anonymous_args = 0
 1356 0000 08B5     		push	{r3, lr}
 1357              		.cfi_def_cfa_offset 8
 1358              		.cfi_offset 3, -8
 1359              		.cfi_offset 14, -4
 1360              		.loc 1 287 0
 1361 0002 0748     		ldr	r0, .L95
 1362              		.loc 1 286 0
 1363 0004 074A     		ldr	r2, .L95+4
 1364              		.loc 1 287 0
 1365 0006 4368     		ldr	r3, [r0, #4]
 1366              		.loc 1 286 0
 1367 0008 4FF48001 		mov	r1, #4194304
 1368              		.loc 1 287 0
 1369 000c D3F8B430 		ldr	r3, [r3, #180]
 1370              		.loc 1 286 0
 1371 0010 5161     		str	r1, [r2, #20]
 1372              		.loc 1 287 0
 1373 0012 1621     		movs	r1, #22
 1374 0014 9847     		blx	r3
 1375              	.LVL45:
 1376              		.loc 1 290 0
 1377 0016 BDE80840 		pop	{r3, lr}
 1378              		.loc 1 289 0
 1379 001a FFF7FEBF 		b	_port_irq_epilogue
 1380              	.LVL46:
 1381              	.L96:
 1382 001e 00BF     		.align	2
 1383              	.L95:
 1384 0020 00000000 		.word	EXTD1
 1385 0024 003C0140 		.word	1073822720
 1386              		.cfi_endproc
 1387              	.LFE273:
 1388              		.size	Vector4C, .-Vector4C
 1389              		.section	.text.ext_lld_exti_irq_enable,"ax",%progbits
 1390              		.align	2
 1391              		.p2align 4,,15
 1392              		.global	ext_lld_exti_irq_enable
 1393              		.thumb
 1394              		.thumb_func
 1395              		.type	ext_lld_exti_irq_enable, %function
 1396              	ext_lld_exti_irq_enable:
 1397              	.LFB274:
 1398              		.loc 1 301 0
 1399              		.cfi_startproc
 1400              		@ args = 0, pretend = 0, frame = 0
 1401              		@ frame_needed = 0, uses_anonymous_args = 0
ARM GAS  /tmp/ccBA9sFT.s 			page 61


 1402              		.loc 1 303 0
 1403 0000 0620     		movs	r0, #6
 1404              		.loc 1 301 0
 1405 0002 08B5     		push	{r3, lr}
 1406              		.cfi_def_cfa_offset 8
 1407              		.cfi_offset 3, -8
 1408              		.cfi_offset 14, -4
 1409              		.loc 1 303 0
 1410 0004 0146     		mov	r1, r0
 1411 0006 FFF7FEFF 		bl	nvicEnableVector
 1412              	.LVL47:
 1413              		.loc 1 304 0
 1414 000a 0720     		movs	r0, #7
 1415 000c 0621     		movs	r1, #6
 1416 000e FFF7FEFF 		bl	nvicEnableVector
 1417              	.LVL48:
 1418              		.loc 1 305 0
 1419 0012 0820     		movs	r0, #8
 1420 0014 0621     		movs	r1, #6
 1421 0016 FFF7FEFF 		bl	nvicEnableVector
 1422              	.LVL49:
 1423              		.loc 1 306 0
 1424 001a 0920     		movs	r0, #9
 1425 001c 0621     		movs	r1, #6
 1426 001e FFF7FEFF 		bl	nvicEnableVector
 1427              	.LVL50:
 1428              		.loc 1 307 0
 1429 0022 0A20     		movs	r0, #10
 1430 0024 0621     		movs	r1, #6
 1431 0026 FFF7FEFF 		bl	nvicEnableVector
 1432              	.LVL51:
 1433              		.loc 1 308 0
 1434 002a 1720     		movs	r0, #23
 1435 002c 0621     		movs	r1, #6
 1436 002e FFF7FEFF 		bl	nvicEnableVector
 1437              	.LVL52:
 1438              		.loc 1 309 0
 1439 0032 2820     		movs	r0, #40
 1440 0034 0621     		movs	r1, #6
 1441 0036 FFF7FEFF 		bl	nvicEnableVector
 1442              	.LVL53:
 1443              		.loc 1 310 0
 1444 003a 0120     		movs	r0, #1
 1445 003c 0621     		movs	r1, #6
 1446 003e FFF7FEFF 		bl	nvicEnableVector
 1447              	.LVL54:
 1448              		.loc 1 311 0
 1449 0042 2920     		movs	r0, #41
 1450 0044 0F21     		movs	r1, #15
 1451 0046 FFF7FEFF 		bl	nvicEnableVector
 1452              	.LVL55:
 1453              		.loc 1 312 0
 1454 004a 2A20     		movs	r0, #42
 1455 004c 0621     		movs	r1, #6
 1456 004e FFF7FEFF 		bl	nvicEnableVector
 1457              	.LVL56:
 1458              		.loc 1 314 0
ARM GAS  /tmp/ccBA9sFT.s 			page 62


 1459 0052 3E20     		movs	r0, #62
 1460 0054 0621     		movs	r1, #6
 1461 0056 FFF7FEFF 		bl	nvicEnableVector
 1462              	.LVL57:
 1463              		.loc 1 317 0
 1464 005a 4C20     		movs	r0, #76
 1465 005c 0621     		movs	r1, #6
 1466 005e FFF7FEFF 		bl	nvicEnableVector
 1467              	.LVL58:
 1468              		.loc 1 320 0
 1469 0062 0220     		movs	r0, #2
 1470 0064 0F21     		movs	r1, #15
 1471 0066 FFF7FEFF 		bl	nvicEnableVector
 1472              	.LVL59:
 1473              		.loc 1 322 0
 1474 006a 0320     		movs	r0, #3
 1475 006c 0F21     		movs	r1, #15
 1476              		.loc 1 323 0
 1477 006e BDE80840 		pop	{r3, lr}
 1478              		.loc 1 322 0
 1479 0072 FFF7FEBF 		b	nvicEnableVector
 1480              	.LVL60:
 1481              		.cfi_endproc
 1482              	.LFE274:
 1483              		.size	ext_lld_exti_irq_enable, .-ext_lld_exti_irq_enable
 1484 0076 00BF     		.section	.text.ext_lld_exti_irq_disable,"ax",%progbits
 1485              		.align	2
 1486              		.p2align 4,,15
 1487              		.global	ext_lld_exti_irq_disable
 1488              		.thumb
 1489              		.thumb_func
 1490              		.type	ext_lld_exti_irq_disable, %function
 1491              	ext_lld_exti_irq_disable:
 1492              	.LFB275:
 1493              		.loc 1 330 0
 1494              		.cfi_startproc
 1495              		@ args = 0, pretend = 0, frame = 0
 1496              		@ frame_needed = 0, uses_anonymous_args = 0
 1497 0000 08B5     		push	{r3, lr}
 1498              		.cfi_def_cfa_offset 8
 1499              		.cfi_offset 3, -8
 1500              		.cfi_offset 14, -4
 1501              		.loc 1 332 0
 1502 0002 0620     		movs	r0, #6
 1503 0004 FFF7FEFF 		bl	nvicDisableVector
 1504              	.LVL61:
 1505              		.loc 1 333 0
 1506 0008 0720     		movs	r0, #7
 1507 000a FFF7FEFF 		bl	nvicDisableVector
 1508              	.LVL62:
 1509              		.loc 1 334 0
 1510 000e 0820     		movs	r0, #8
 1511 0010 FFF7FEFF 		bl	nvicDisableVector
 1512              	.LVL63:
 1513              		.loc 1 335 0
 1514 0014 0920     		movs	r0, #9
 1515 0016 FFF7FEFF 		bl	nvicDisableVector
ARM GAS  /tmp/ccBA9sFT.s 			page 63


 1516              	.LVL64:
 1517              		.loc 1 336 0
 1518 001a 0A20     		movs	r0, #10
 1519 001c FFF7FEFF 		bl	nvicDisableVector
 1520              	.LVL65:
 1521              		.loc 1 337 0
 1522 0020 1720     		movs	r0, #23
 1523 0022 FFF7FEFF 		bl	nvicDisableVector
 1524              	.LVL66:
 1525              		.loc 1 338 0
 1526 0026 2820     		movs	r0, #40
 1527 0028 FFF7FEFF 		bl	nvicDisableVector
 1528              	.LVL67:
 1529              		.loc 1 339 0
 1530 002c 0120     		movs	r0, #1
 1531 002e FFF7FEFF 		bl	nvicDisableVector
 1532              	.LVL68:
 1533              		.loc 1 340 0
 1534 0032 2920     		movs	r0, #41
 1535 0034 FFF7FEFF 		bl	nvicDisableVector
 1536              	.LVL69:
 1537              		.loc 1 341 0
 1538 0038 2A20     		movs	r0, #42
 1539 003a FFF7FEFF 		bl	nvicDisableVector
 1540              	.LVL70:
 1541              		.loc 1 343 0
 1542 003e 3E20     		movs	r0, #62
 1543 0040 FFF7FEFF 		bl	nvicDisableVector
 1544              	.LVL71:
 1545              		.loc 1 346 0
 1546 0044 4C20     		movs	r0, #76
 1547 0046 FFF7FEFF 		bl	nvicDisableVector
 1548              	.LVL72:
 1549              		.loc 1 349 0
 1550 004a 0220     		movs	r0, #2
 1551 004c FFF7FEFF 		bl	nvicDisableVector
 1552              	.LVL73:
 1553              		.loc 1 351 0
 1554 0050 0320     		movs	r0, #3
 1555              		.loc 1 352 0
 1556 0052 BDE80840 		pop	{r3, lr}
 1557              		.loc 1 351 0
 1558 0056 FFF7FEBF 		b	nvicDisableVector
 1559              	.LVL74:
 1560              		.cfi_endproc
 1561              	.LFE275:
 1562              		.size	ext_lld_exti_irq_disable, .-ext_lld_exti_irq_disable
 1563 005a 00BF     		.text
 1564              	.Letext0:
 1565              		.file 2 "/usr/include/newlib/machine/_default_types.h"
 1566              		.file 3 "/usr/include/newlib/sys/_stdint.h"
 1567              		.file 4 "/usr/src/chibios/os/rt/ports/ARMCMx/compilers/GCC/chtypes.h"
 1568              		.file 5 "/usr/src/chibios/os/rt/include/chsystypes.h"
 1569              		.file 6 "/usr/src/chibios/os/rt/include/chschd.h"
 1570              		.file 7 "/usr/src/chibios/os/ext/CMSIS/ST/stm32f407xx.h"
 1571              		.file 8 "/usr/src/chibios/os/rt/ports/ARMCMx/chcore.h"
 1572              		.file 9 "/usr/src/chibios/os/rt/ports/ARMCMx/chcore_v7m.h"
ARM GAS  /tmp/ccBA9sFT.s 			page 64


 1573              		.file 10 "/usr/src/chibios/os/rt/include/chtm.h"
 1574              		.file 11 "/usr/src/chibios/os/rt/include/chsem.h"
 1575              		.file 12 "/usr/src/chibios/os/rt/include/chmtx.h"
 1576              		.file 13 "/usr/src/chibios/os/hal/include/ext.h"
 1577              		.file 14 "/usr/src/chibios/os/hal/ports/STM32/LLD/ext_lld.h"
 1578              		.file 15 "/usr/src/chibios/os/ext/CMSIS/include/core_cm4.h"
 1579              		.file 16 "/usr/src/chibios/os/hal/ports/common/ARMCMx/nvic.h"