ARM GAS  /tmp/ccHNlLx5.s 			page 1


   1              		.syntax unified
   2              		.cpu cortex-m4
   3              		.fpu softvfp
   4              		.eabi_attribute 20, 1
   5              		.eabi_attribute 21, 1
   6              		.eabi_attribute 23, 3
   7              		.eabi_attribute 24, 1
   8              		.eabi_attribute 25, 1
   9              		.eabi_attribute 26, 1
  10              		.eabi_attribute 30, 2
  11              		.eabi_attribute 34, 1
  12              		.eabi_attribute 18, 4
  13              		.thumb
  14              		.file	"ext_lld.c"
  15              		.text
  16              	.Ltext0:
  17              		.section	.gnu.lto_.jmpfuncs.142d968e0b77c7c7,"",%progbits
  18 0000 789C6362 		.ascii	"x\234cb`b\300\006L\2414+\003\003#S5\303\257\206\216"
  18      6062C006 
  18      4CA1342B 
  18      03032353 
  18      35C3AF86 
  19 0015 06814C46 		.ascii	"\006\201LF\206\\F\260(\023#\00333\013\023+#\0233\220"
  19      865C46B0 
  19      28132303 
  19      33330B13 
  19      2B231333 
  20 002a 57061682 		.ascii	"W\006\026\202\263\030\030\000\311\011\0052"
  20      B3181800 
  20      C9090532 
  21              		.text
  22              		.section	.gnu.lto_.inline.142d968e0b77c7c7,"",%progbits
  23 0000 789C6362 		.ascii	"x\234cb`b\300\006\264\030!4+\020\3612\202\025\261-\220"
  23      6062C006 
  23      B4182134 
  23      2B10F132 
  23      8215B12D 
  24 0015 07AB65E2 		.ascii	"\007\253e\342f`\000\211pq123\244G0f2221030d \230@\315"
  24      66600089 
  24      70713132 
  24      33A44730 
  24      66323232 
  25 0032 CC0C2C6C 		.ascii	"\314\014,l\037\364 \232\030_\260\01301\260v\250\013"
  25      1FF4209A 
  25      185FB00B 
  25      3031B076 
  25      A80B
  26 0044 80F43372 		.ascii	"\200\3643r1\260\200\344\0170\2503\2620\246\200t1\361"
  26      31B080E4 
  26      0F30A833 
  26      B230A680 
  26      7431F1
  27 0057 038553E1 		.ascii	"\003\205S\341,\260\335 3\0248]\256\\g\202\030\"\261"
  27      2CB0DD20 
  27      3314385D 
  27      AE5C6782 
  27      1822B1
ARM GAS  /tmp/ccHNlLx5.s 			page 2


  28 006a 26578081 		.ascii	"&W\200\201\013h\006\013\003\343\027f\005\026&\010\305"
  28      0B68060B 
  28      03E31766 
  28      05162608 
  28      C5
  29 007b 2070C08E 		.ascii	" p\300\216\005d\203\002\330\036\005\240N\001\240\371"
  29      05648302 
  29      D81E05A0 
  29      4E01A0F9 
  30 008b 42828C8C 		.ascii	"B\202\214\214`s\230\245&\234f\204\230\300\262@\236\005"
  30      607398A5 
  30      269C6684 
  30      98C0B240 
  30      9E05
  31 009d E227D12B 		.ascii	"\342'\321+\314p\2673\"\334\316\210p;\377\234%\242\014"
  31      CC70B733 
  31      22DCCE88 
  31      703BFF9C 
  31      25A20C
  32 00b0 EC4F2E31 		.ascii	"\354O.1\242\273\236\231\007\350\367gl\023\374\340\014"
  32      A2BB9E99 
  32      07E8F767 
  32      6C13FCE0 
  32      0C
  33 00c1 887F1800 		.ascii	"\210\177\030\000\031\037$v"
  33      191F2476 
  34              		.text
  35              		.section	.gnu.lto_.pureconst.142d968e0b77c7c7,"",%progbits
  36 0000 789C6362 		.ascii	"x\234cb`b\340f\200\000V\006\011&)f)\026)VI\000\004*"
  36      6062E066 
  36      80005606 
  36      09262966 
  36      29162956 
  37 0018 00A2     		.ascii	"\000\242"
  38              		.text
  39              		.section	.gnu.lto_ext_lld_init.142d968e0b77c7c7,"",%progbits
  40 0000 789C6362 		.ascii	"x\234cb`b@\007\222@\334\007\304&@\314\310\314\300\310"
  40      60624007 
  40      9240DC07 
  40      C42640CC 
  40      C8CCC0C8 
  41 0014 34E11C03 		.ascii	"4\341\034\003C#\007\023##\210\301\300\310P\317\304X"
  41      43230713 
  41      232388C1 
  41      C0C850CF 
  41      C458
  42 0026 1FC90856 		.ascii	"\037\311\010V\273\236\351\300\203\377\377\327M:6\347"
  42      BB9EE9C0 
  42      83FFFFD7 
  42      4D3A36E7 
  43 0036 0EE30C26 		.ascii	"\016\343\014&f\240\010+CKC\303\004\005\006\206d\260"
  43      66A0082B 
  43      434B43C3 
  43      04050686 
  43      64B0
  44 0048 8A102009 		.ascii	"\212\020 \011\322\026\312\310\004\242\231\3173\264<"
  44      D216CAC8 
ARM GAS  /tmp/ccHNlLx5.s 			page 3


  44      04A299CF 
  44      33B43C
  45 0057 E869E64A 		.ascii	"\350i\346Jd\\\310\310\012\224\256f\370\325\320\321 "
  45      645CC8C8 
  45      0A94AE66 
  45      F8D5D0D1 
  45      20
  46 0068 90C90854 		.ascii	"\220\311\010T\0161\021$\302\221\311\310\230\313\310"
  46      0E311124 
  46      C291C9C8 
  46      98CBC8
  47 0077 00559409 		.ascii	"\000U\224\011\324\312p\221\241\361A\2572L\033\004\204"
  47      D4CA7091 
  47      A1F141AF 
  47      324C1B04 
  47      84
  48 0088 00B500CD 		.ascii	"\000\265\000\315\004\371\300H\277\264\270H\277\270("
  48      04F9C048 
  48      BFB4B848 
  48      BFB828
  49 0097 593F3923 		.ascii	"Y?9#3)3\277X\037\2102\022s\364\013\362\213J\212\365"
  49      332933BF 
  49      581F8832 
  49      1273F40B 
  49      F28B4A8A 
  50 00ac 83437C8D 		.ascii	"\203C|\215\215\364}|\\\364S+J\342srR\364\222\031\000"
  50      8DF47D7C 
  50      5CF4532B 
  50      4AE27372 
  50      52F49219 
  51 00c1 3D00377A 		.ascii	"=\0007z"
  52              		.text
  53              		.section	.gnu.lto_ext_lld_stop.142d968e0b77c7c7,"",%progbits
  54 0000 789C9590 		.ascii	"x\234\225\220\261KC1\020\306\277K\322ZEy\376\011\202"
  54      B14B4331 
  54      10C6BF4B 
  54      D25A4579 
  54      FE0982
  55 0013 9B0503D5 		.ascii	"\233\005\003\325\331\311\261NV\320I\332\247\264\201"
  55      D9C9B14E 
  55      56D049DA 
  55      A7B481
  56 0022 4AA5AF82 		.ascii	"J\245\257\202\340\320<-\350\330IDq\020\301\301A\327"
  56      E0D03C2D 
  56      E8D84944 
  56      7110C1C1 
  56      41D7
  57 0034 8E22A588 		.ascii	"\216\"\245\210`\305\2558H7\035\334\004\021\227\232\274"
  57      60C5AD38 
  57      48371DDC 
  57      0411979A 
  57      BC
  58 0045 D7AAE8D4 		.ascii	"\327\252\350\324#\311].\271\337}\011\003\303_K\230Y"
  58      23C95D2E 
  58      B9DF7D09 
  58      03C35F4B 
  58      9859
ARM GAS  /tmp/ccHNlLx5.s 			page 4


  59 0057 2760DA78 		.ascii	"'`\332x\212\200X\265\011\3701\306x\303\201\036\022\267"
  59      8A8058B5 
  59      09F831C6 
  59      78C3811E 
  59      12B7
  60 0069 33D0C39C 		.ascii	"3\320\303\234D\230\026D6\000\241\314\270\240\362\022"
  60      44981644 
  60      3600A1CC 
  60      B8A0F212 
  61 0079 05904B76 		.ascii	"\005\220Kv\325\356t.\366w\317^\351\230\015rZ#\010\250"
  61      D5EE742E 
  61      F677CF5E 
  61      E9980D72 
  61      5A2308A8 
  62 008d E030828A 		.ascii	"\3400\202\212\326\3251\300\015\266)\263Z\304\0021\353"
  62      D6D531C0 
  62      0DB629B3 
  62      5AC40231 
  62      EB
  63 009e F91DB61F 		.ascii	"\371\035\266\037ko-J\323\211i\237%\021\307\204\":\302"
  63      6B6F2D4A 
  63      D389699F 
  63      2511C784 
  63      223AC2
  64 00b1 21296259 		.ascii	"!)bY\342\213\306\363\240K\206z\242oP\177\366G\276K\354"
  64      E28BC6F3 
  64      A04B867A 
  64      A26F507F 
  64      F647BE4B 
  65 00c6 15FAFDB4 		.ascii	"\025\372\375\264\005S\321p\370=v\332\315S'\274\007l"
  65      0553D170 
  65      F83D76DA 
  65      CD5327BC 
  65      076C
  66 00d8 E153EFE9 		.ascii	"\341S\357\351QE\302\245\020\245\202|P \272j\256k\007"
  66      5145C2A5 
  66      10A5827C 
  66      5020BA6A 
  66      AE6B07
  67 00eb EF2F5D35 		.ascii	"\357/]5q\234\353\212\257\035E\321P\317\200\355\024\323"
  67      719CEB8A 
  67      AF1D45D1 
  67      50CF80ED 
  67      14D3
  68 00fd 1F152D10 		.ascii	"\037\025-\020\204]]!\315f\2426\260\224Z\377\024\366"
  68      845D5D21 
  68      CD66A236 
  68      B0945AFF 
  68      14F6
  69 010f 9FD2EA9F 		.ascii	"\237\322\352\237\302\177(\035c\216\331<\300o?\215\367"
  69      C27F281D 
  69      638ED93C 
  69      C06F3F8D 
  69      F7
  70 0120 BE21B494 		.ascii	"\276!\264\224\021m^l{&\344\206W\224^\321\225nNeT\301"
  70      116D5E6C 
  70      7B26E486 
ARM GAS  /tmp/ccHNlLx5.s 			page 5


  70      57945ED1 
  70      956E4E65 
  71 0136 9366E4D2 		.ascii	"\223f\344\322y\271^(\226<9\237\232\233J\310drV\256n"
  71      79B95E28 
  71      963C399F 
  71      9A9B4AC8 
  71      647256AE 
  72 014b 9696F3F9 		.ascii	"\226\226\363\371\225I\027_>}\2017"
  72      9549175F 
  72      3E7D8137 
  73              		.text
  74              		.section	.gnu.lto_ext_lld_channel_enable.142d968e0b77c7c7,"",%progbits
  75 0000 789CA556 		.ascii	"x\234\245V[H\\W\024=\347\316\235\367\3137\032\023ML"
  75      5B485C57 
  75      143DE7CE 
  75      9DF7CB37 
  75      1A134D4C 
  76 0014 344663C6 		.ascii	"4Fc\306W\325D\2146\032\211\232|UiJ\240eb\203\0165\246"
  76      57D5448C 
  76      361A899A 
  76      7C55694A 
  76      A0656283 
  77 002b 680AA53F 		.ascii	"h\012\245?\336\311\035\210\224\200\323\322\322G\010"
  77      DEC91D88 
  77      9480D3D2 
  77      D24708
  78 003a 2484D4D6 		.ascii	"$\204\324\3264\246\344\243\244$\264\032(\255\037-\315"
  78      34A6E4A3 
  78      A424B41A 
  78      28AD1F2D 
  78      CD
  79 004b 9F483FA4 		.ascii	"\237H?\244\037\201BI\245B\223\246\322\351\336\3475\257"
  79      1F814249 
  79      A54293A6 
  79      D2E9DEE7 
  79      35AF
  80 005d 42C7F1A2 		.ascii	"B\307\361\242\373\236\273\327\336\373\254\3758\207\321"
  80      FB9EBBD7 
  80      DEFBACFD 
  80      3887D1
  81 006c 8846529F 		.ascii	"\210FR\237\313\360_\356#\244\037\336\324G\250\026\375"
  81      CBF05FEE 
  81      23A41FDE 
  81      D447A816 
  81      FD
  82 007d 9190B043 		.ascii	"\221\220\260C\323,\323{\211\341\322Qz,T\347j]\2632\265"
  82      D32CD37B 
  82      89E1D251 
  82      7A2C54E7 
  82      6A5DB332 
  83 0092 8DA9ADD4 		.ascii	"\215\251\255\324\316\3256\271\260k\016\206;\031\356"
  83      CED536B9 
  83      B06B0E86 
  83      3B19EE
  84 00a1 A02EAE76 		.ascii	"\240.\256v\312\205Ks_\351\000\334\263\236\003\270\233"
  84      CA854B73 
  84      5FE900DC 
ARM GAS  /tmp/ccHNlLx5.s 			page 6


  84      B39E03B8 
  84      9B
  85 00b2 7AB9DA23 		.ascii	"z\271\332#\027^JqA(\231\322,\272\325fw8]n\217\227N\275"
  85      175E4A71 
  85      412899D2 
  85      2CBAD566 
  85      77385D6E 
  86 00ca 4491AC5E 		.ascii	"D\221\254^A\256\031Ft\365\333\331E\313G\357-D\256\032"
  86      41AE1946 
  86      74F5DBD9 
  86      45CB47EF 
  86      2D44AE1A 
  87 00de 1BB118A5 		.ascii	"\033\261\030\245!\012\211=G\3110%'\341\203\356d/MO\316"
  87      210A893D 
  87      47C93025 
  87      27E183EE 
  87      642F4D4F 
  88 00f3 94F9BEBB 		.ascii	"\224\371\276\273\360\327\305\231\022\343\352\205\250"
  88      F0D7C599 
  88      12E3EA85 
  88      A8
  89 0100 F10FB886 		.ascii	"\361\017\270\206\250E#\235\031z>\373\316\023\015O\033"
  89      A845239D 
  89      197A3EFB 
  89      CE130D4F 
  89      1B
  90 0111 B1D81473 		.ascii	"\261\330\024s{>C\267\215d\267\336\377s\273\255-\254"
  90      7B3E43B7 
  90      8D64B7DE 
  90      FF73BBAD 
  90      2DAC
  91 0123 C66297BE 		.ascii	"\306b\227\276\371\342\322\006\235\327NX\351YJ\354$H"
  91      F9E2D206 
  91      9DD74E58 
  91      E9594AEC 
  91      2448
  92 0135 AFD30AE2 		.ascii	"\257\323\012\342 !\252;Q\270@\0207\012\017\012/\030"
  92      2021AA3B 
  92      51B84010 
  92      370A0F0A 
  92      2F18
  93 0147 DC00031F 		.ascii	"\334\000\003\037XS?h\2549h\225\213\"\017E>\030\314\202"
  93      58533F68 
  93      AC396895 
  93      8B220F45 
  93      3E18CC82 
  94 015b 41017E14 		.ascii	"A\001~\024\242(BQ\214\246%\270\332\206\242\024\305v"
  94      A2284251 
  94      8CA625B8 
  94      DA86A214 
  94      C576
  95 016d 30BD06A6 		.ascii	"0\275\006\246;0p\031j\312Q\354BQ!\260\335\210\355AQ"
  95      3B307019 
  95      6ACA51EC 
  95      425121B0 
  95      DD88ED41 
  96 0182 89EA2A14 		.ascii	"\211\352*\024\325(\366\241\250\021V\265h\260\0375u("
ARM GAS  /tmp/ccHNlLx5.s 			page 7


  96      D528F6A1 
  96      A81156B5 
  96      68B01F35 
  96      7528
  97 0194 0228EA05 		.ascii	"\002(\352\005\326\200X#\212&T7\243h\001ak\305U\233\260"
  97      D6805823 
  97      8A265437 
  97      A3680161 
  97      6BC5559B 
  98 01a9 3A880687 		.ascii	":\210\006\207P\323\216\242\003\305a\324u\342\252\013"
  98      50D38EA2 
  98      03C561D4 
  98      75E2AA0B 
  99 01b9 C51114DD 		.ascii	"\305\021\024\335\302\276\007\261\243\250\351Eq\014E"
  99      C2BE07B1 
  99      A3A8E945 
  99      710C45
 100 01c8 1FEAFA71 		.ascii	"\037\352\372q5\200\002Jl%\021\030\243\235\004;\001\317"
 100      3580024A 
 100      6C251118 
 100      A39D043B 
 100      01CF
 101 01da 20481CBB 		.ascii	" H\034\273!\252\341\333\362=\211<Z|r\321\022\244\237"
 101      21AAE1DB 
 101      F23D893C 
 101      5A7C72D1 
 101      12A49F
 102 01ed 512B19A1 		.ascii	"Q+\031\241Vl\223\335\237\320\243!j!\323{-?\020s\336"
 102      566C93DD 
 102      9FD0A321 
 102      6A21D37B 
 102      2D3F1073 
 103 0202 5C9F2913 		.ascii	"\\\237)\023\361x\217x#x\265\011\3411\340\031\241v\021"
 103      F1788F78 
 103      2378B509 
 103      E131E019 
 103      A17611
 104 0215 899DC225 		.ascii	"\211\235\302%\242\005\351\034@\334\011PB \334=\363\311"
 104      A205E91C 
 104      40DC0950 
 104      4220DC3D 
 104      F3C9
 105 0227 CC490E8C 		.ascii	"\314I\016\214P\207p\320-\204\201o\233\177j\022s\002"
 105      508770D0 
 105      2D84816F 
 105      9B7F6A12 
 105      7302
 106 0239 CC309D61 		.ascii	"\3140\235a\027\036\233\217\251\304\\\0003\207[\026\251"
 106      171E9B8F 
 106      A9C45C00 
 106      33875B16 
 106      A9
 107 024a 72B38DFD 		.ascii	"r\263\215\375\0102\363\373\346\227\312\334\003\260\210"
 107      0832F3FB 
 107      E697CADC 
 107      03B088
 108 0259 F196D479 		.ascii	"\361\226\324yA\235D\362\006#\351ev+\313\261e\025\331"
ARM GAS  /tmp/ccHNlLx5.s 			page 8


 108      419D44F2 
 108      0623E965 
 108      762BCBB1 
 108      6515D9
 109 026c 5F4B6A60 		.ascii	"_Kj`\206.\223\217a\007`\354\303\235\234\254J\247\251"
 109      862E938F 
 109      610760EC 
 109      C39D9CAC 
 109      4AA7A9
 110 027f AC173AFD 		.ascii	"\254\027:\375T*]rj\311\234\221\023\242\256:\362\271"
 110      542A5D72 
 110      6AC99C91 
 110      13A2AE3A 
 110      F2B9
 111 0291 11358C7B 		.ascii	"\0215\214{\340\341F\035\254?\200\265\207\007\003\016"
 111      E0E1461D 
 111      AC3F80B5 
 111      8707030E 
 112 02a1 7E0C6615 		.ascii	"~\014f\025\301x\264\021\361\215\032M\205\207\302\375"
 112      C178B411 
 112      F18D1A4D 
 112      8587C2FD 
 113 02b1 A128E5C2 		.ascii	"\241(\345\302\026\2546k\224\203\363fl\346\224D\363\300"
 113      16AC366B 
 113      9483F366 
 113      6CE69444 
 113      F3C0
 114 02c3 80558357 		.ascii	"\200U\203W\316\274e\376=S&\301|\206\273\222R\237e\251"
 114      CEBC65FE 
 114      3D5326C1 
 114      7C86BB92 
 114      529F65A9 
 115 02d7 E7A3F183 		.ascii	"\347\243\361\203\237\357^_\264J\343\002\344\037\201"
 115      9FEF5E5F 
 115      B44AE302 
 115      E41F81
 116 02e6 503E241F 		.ascii	"P>$\037\011\033\357\300\332\317\3113\002\271\306Z\304"
 116      091BEFC0 
 116      DACFC933 
 116      02B9C65A 
 116      C4
 117 02f7 D0D929CF 		.ascii	"\320\331)\317\025\224-\"\011;!I\344Uc\013!\256(\264"
 117      15942D22 
 117      093B2149 
 117      E455630B 
 117      21AE28B4 
 118 030b F9957947 		.ascii	"\371\225yG%U\304 \316bi\315\315\325\214@\330x1N\241"
 118      2555C420 
 118      CE6269CD 
 118      CDD58C40 
 118      D878314E 
 119 0320 75D30C20 		.ascii	"u\323\014 \264\034j\235\215?6\353\356\354\257T\216\177"
 119      B41C6A9D 
 119      8D3F36EB 
 119      EEECAF54 
 119      8E7F
 120 0332 71A61D8E 		.ascii	"q\246\035\216\026I\227\222\224\016O\305\033|*\261\277"
ARM GAS  /tmp/ccHNlLx5.s 			page 9


 120      16499792 
 120      940E4FC5 
 120      1B7C2AB1 
 120      BF
 121 0343 C59BE8EF 		.ascii	"\305\233\350\3573MF\337\006\033\260\376\242\007\034"
 121      334D46DF 
 121      061BB0FE 
 121      A2071C
 122 0352 D6DFC20D 		.ascii	"\326\337\302\015\012b\372\304\353t\010\364\354\250>"
 122      0A62FAC4 
 122      EB7408F4 
 122      ECA83E
 123 0361 58599E7D 		.ascii	"XY\236}\250b\224\362z\001G\037g\223\207\236\371\306"
 123      A86294F2 
 123      7A01471F 
 123      6793879E 
 123      F9C6
 124 0373 5359AE7C 		.ascii	"SY\256|\301AW\034\340|\374\242\212\262\235\361\024g"
 124      C141571C 
 124      E07CFCA2 
 124      8AB29DF1 
 124      1467
 125 0385 8CAB76B0 		.ascii	"\214\253v\260\251\242\010\012\3639e^\0060o\2512/\007"
 125      A9A2080A 
 125      F339655E 
 125      06306FA9 
 125      322F07
 126 0398 1200B086 		.ascii	"\022\000\260\206\366q\345\3468A\010\231\242M\2468\035"
 126      F671E5E6 
 126      38410899 
 126      A24DA638 
 126      1D
 127 03a9 DF725756 		.ascii	"\337rWV\031>R\376\025\351\031\356V\031V$\334\"\034\333"
 127      193E52FE 
 127      15E919EE 
 127      56195624 
 127      DC221CDB 
 128 03bd 03705ADA 		.ascii	"\003pZ\332\225\240\347\355S1\252\200\031\000[I\273J"
 128      95A0E7ED 
 128      5331AA80 
 128      19005B49 
 128      BB4A
 129 03cf A66D17F3 		.ascii	"\246m\027\363\012\3231\373\376\313r\207j9\036Z\332x"
 129      0AD331FB 
 129      FECB7287 
 129      6A391E5A 
 129      DA78
 130 03e1 54FFC778 		.ascii	"T\377\307x8\324x\314\305\307c_\246\234\254\211\305\213"
 130      38D478CC 
 130      C5C7635F 
 130      A69CAC89 
 130      C58B
 131 03f3 8F474D7A 		.ascii	"\217GMz\361jU\361j\322\352\264\037\340\224\361\250\003"
 131      F16A55F1 
 131      6AD2EAB4 
 131      1FE094F1 
 131      A803
ARM GAS  /tmp/ccHNlLx5.s 			page 10


 132 0405 12006453 		.ascii	"\022\000dS'\253\250S\235L\321\251\306\343\246\3322\220"
 132      27ABA853 
 132      9D4CD1A9 
 132      C6E3A6DA 
 132      3290
 133 0417 5586F1F1 		.ascii	"U\206\361\361\250O\317\260AeX\2376\036\215\000\247\245"
 133      A84FCFB0 
 133      4165589F 
 133      361E8D00 
 133      A7A5
 134 0429 DD04FA94 		.ascii	"\335\004\372\224\361h\006f\000l%\355f\231\266K]gOo\342"
 134      F1680666 
 134      006C25ED 
 134      6699B64B 
 134      5D674F6F 
 135 043e ADCD7768 		.ascii	"\255\315wh\021wS\301\326\356&\233X%\017X\013:\025&\017"
 135      117753C1 
 135      D6EE269B 
 135      58250F58 
 135      0B3A1526 
 136 0453 989B5CE9 		.ascii	"\230\233\\\351`\325\377p~I\015Xk\246Y\311k\232\225\356"
 136      60D5FF70 
 136      7E490D58 
 136      6BA659C9 
 136      6B9A95EE 
 137 0467 6B55BAB6 		.ascii	"kU\272\266\364\362\037T\345o\023\346\237(\363C\000\247"
 137      F4F21F54 
 137      E56F13E6 
 137      9F28F343 
 137      00A7
 138 0479 0C583B90 		.ascii	"\014X;\220\000 \233J\333E5\332\231\363\312\247\363j"
 138      00209B4A 
 138      DB4535DA 
 138      99F3CAA7 
 138      F36A
 139 048b 9F8E4C43 		.ascii	"\237\216LC8\342i\3357\357(\377\303\202g\022\371N\320"
 139      38E269DD 
 139      37EF28FF 
 139      C3826712 
 139      F94ED0
 140 049e A78C4917 		.ascii	"\247\214I\027l\005@6\344\035\202|\227\354\217\207\254"
 140      6C054036 
 140      E41D827C 
 140      97EC8F87 
 140      AC
 141 04af E7F0D371 		.ascii	"\347\360\323q[my$\213<\022\333\323\235\336\236\036\325"
 141      5B6D7924 
 141      8B3C12DB 
 141      D39DDE9E 
 141      1ED5
 142 04c1 9EEEB40C 		.ascii	"\236\356\264\014\217\002\234\322\236^ \001\300V2\354"
 142      8F029CD2 
 142      9E5E2001 
 142      C05632EC 
 143 04d1 15ED89A7 		.ascii	"\025\355\211\247u,\213\251KlO\237\340\231D\276\037\364"
 143      752C8BA9 
 143      4B6C4F9F 
ARM GAS  /tmp/ccHNlLx5.s 			page 11


 143      E09944BE 
 143      1FF4
 144 04e3 29ED1980 		.ascii	")\355\031\200\255\000\330\312l\015\310\366x\331)~H\302"
 144      AD00D8CA 
 144      6C0DC8F6 
 144      78D9297E 
 144      48C2
 145 04f5 ABBF57AA 		.ascii	"\253\277W\252_\323\354\031\204c\011\030^\363\215\201"
 145      5FD3EC19 
 145      84630918 
 145      5EF38D81 
 146 0505 37262702 		.ascii	"7&'\002\223\023\303\201\341\321\320\351\320\271\311"
 146      9313C381 
 146      E1D1D0E9 
 146      D0B9C9
 147 0514 00FC8D06 		.ascii	"\000\374\215\006\307\002\257\237\2338?\031xa\360DSc"
 147      C702AF9F 
 147      9B383F19 
 147      7861F044 
 147      5363
 148 0526 E0F8F19E 		.ascii	"\340\370\361\236\300\2317\317\27726\366\352\201a\342"
 148      C09937CF 
 148      BF3236F6 
 148      EA8161E2 
 149 0536 1C1E0D8E 		.ascii	"\034\036\015\216\217\237\031;PO\307\365\263\301\311"
 149      8F9F193B 
 149      504FC7F5 
 149      B3C1C9
 150 0545 D774B4FD 		.ascii	"\327t\264\375\027(\3453\204"
 150      1728E533 
 150      84
 151              		.text
 152              		.section	.gnu.lto_ext_lld_channel_disable.142d968e0b77c7c7,"",%progbits
 153 0000 789C9D93 		.ascii	"x\234\235\223=H\303@\024\307\337\273Kkmii)\016n\342"
 153      3D48C340 
 153      14C7DFBB 
 153      4B6B6D69 
 153      69290E6E 
 154 0015 22281854 		.ascii	"\"(\030T\\\235\\\004\235\254\240\223\324(m\240~\320"
 154      5C9D5C04 
 154      9DACA093 
 154      D4286DA0 
 154      7ED0
 155 0027 2AB899DA 		.ascii	"*\270\231\332\272988\3705(\202\210 \2028\251\203:\351"
 155      BA393838 
 155      F8352882 
 155      88208238 
 155      A9833AE9 
 156 003b 50C1C1C5 		.ascii	"P\301\301\305\2518\024'A\\\034\204\372\3365\211\037"
 156      A9381427 
 156      415C1C84 
 156      FADE3589 
 156      1F
 157 004c 08D61EC9 		.ascii	"\010\326\036\311\377\222\367\356\376\357\227\273\213"
 157      FF92F7EE 
 157      FEEF97BB 
 157      8B
ARM GAS  /tmp/ccHNlLx5.s 			page 12


 158 0059 00013F5B 		.ascii	"\000\001?[#\335\367\022\240\207z\224\200b\345\026 \353"
 158      23DDF712 
 158      A0877A94 
 158      8062E516 
 158      20EB
 159 006b 1388FC00 		.ascii	"\023\210\374\000\010\013\002\027F\220\207b3\354X\326"
 159      080B0217 
 159      46908762 
 159      33EC58D6 
 160 007b 4A71A974 		.ascii	"Jq\251t)\327W/\362\333\326{\271\214h\"\331v#\030\010"
 160      29D7572F 
 160      F2DBD67B 
 160      B98C6822 
 160      D9762318 
 161 0090 C3F4824D 		.ascii	"\303\364\202M\252\023\332\367:G\342\242X.o\275\234,"
 161      AA13DAF7 
 161      3A47E2A2 
 161      582E6FBD 
 161      9C2C
 162 00a2 BFE3A968 		.ascii	"\277\343\251h\020`\242\2248\211\240A\034w\310\332C\021"
 162      1060A294 
 162      3889A041 
 162      1C77C8DA 
 162      4311
 163 00b4 F0B2D471 		.ascii	"\360\262\324q\316\307\342g\011\260\004YB,a\226\010K"
 163      CEC7E267 
 163      09B00459 
 163      422C6196 
 163      084B
 164 00c6 9485AC3D 		.ascii	"\224\205\254=\220'\254&`\002j1Rf\037B\301\275,\300\325"
 164      9027AC26 
 164      60026A31 
 164      52661F42 
 164      C1BD2CC0 
 165 00db C35AE946 		.ascii	"\303Z\351F\304q\027=\220@\321\006\007V>\0336Q\333\204"
 165      C471173D 
 165      9040D106 
 165      07563E1B 
 165      3651DB84 
 166 00ef 0D42F530 		.ascii	"\015B\3650\257\327z\313[\232B\367*\3401t\320\013\260"
 166      AFD77ACB 
 166      5B9A42F7 
 166      2AE03174 
 166      D00BB0
 167 0102 F89C7B44 		.ascii	"\370\234{Dg\276\226\340\252\005\310\035J'\244\034h\255"
 167      67BE96E0 
 167      AA05C81D 
 167      4A27A41C 
 167      68AD
 168 0114 28A9869F 		.ascii	"(\251\206\237\347\216\335\341^J\333\036{n\260.\301U"
 168      E78EDDE1 
 168      5E4ADB1E 
 168      7B6EB02E 
 168      C155
 169 0126 C8E3CCF5 		.ascii	"\310\343\314\365\360\021\031%8z\325W\011\376\017\224"
 169      F0111925 
 169      387AD557 
ARM GAS  /tmp/ccHNlLx5.s 			page 13


 169      09FE0F94 
 170 0136 2CD4E487 		.ascii	",\324\344\207\375\222[\307_\255\005\272\337\372\005"
 170      FD925BC7 
 170      5FAD05BA 
 170      DFFA05
 171 0145 29A040FD 		.ascii	")\240@\375\265 \241\215\024\250 ]\177\"\005\253\265"
 171      B520A18D 
 171      14A8205D 
 171      7F2205AB 
 171      B5
 172 0156 10BF2185 		.ascii	"\020\277!\205\024R\260\026$a#\205*HO\237H\341j-\344"
 172      1452B016 
 172      24612385 
 172      2A484F9F 
 172      48E16A2D 
 173 016b 6F481185 		.ascii	"oH\021\205\024\256\005I\332H\021\373\200\274n\265:\256"
 173      14AE0549 
 173      DA4811FB 
 173      80BC6EB5 
 173      3AAE
 174 017d 51FBD87C 		.ascii	"Q\373\330|\267\264\272\376\364\324l\317(\300\035d\213"
 174      B7B4BAFE 
 174      F4D46CCF 
 174      28C01D64 
 174      8B
 175 018e 472D95F9 		.ascii	"G-\225\371N\213\321\326\320_\301\213\321\251\317e\322"
 175      4E8BD1D6 
 175      D05FC18B 
 175      D1A9CF65 
 175      D2
 176 019f 7A266DE8 		.ascii	"z&m\350F\322\0343\2473:]\311xJ\237\231N\317f\364\301"
 176      46D21C33 
 176      A7333A5D 
 176      C9784A9F 
 176      994ECF66 
 177 01b5 D84057A7 		.ascii	"\330@W\247\336\337\337\253O\314\317\216\246R\343\355"
 177      DEDFDFAB 
 177      4FCCCF8E 
 177      A652E3ED 
 178 01c5 06D41BC9 		.ascii	"\006\324\033\311\370\324\324D\252\275\343\003\242\204"
 178      F8D4D444 
 178      AABDE303 
 178      A284
 179 01d3 EAB9     		.ascii	"\352\271"
 180              		.text
 181              		.section	.gnu.lto_ext_lld_start.142d968e0b77c7c7,"",%progbits
 182 0000 789C6D52 		.ascii	"x\234mRMh\023A\024~o&\373\2775\321\203\347\242\210`"
 182      4D681341 
 182      147E6F26 
 182      FBBF35D1 
 182      83E7A288 
 183 0015 A98B1505 		.ascii	"\251\213\025\005\361\352\261z1\001\305\203$\253$\013"
 183      F1EAB17A 
 183      3101C583 
 183      24AB240B 
 184 0025 914AD282 		.ascii	"\221J\322\202\342!\223n\204\\\204\340M\275\030z+B\017"
 184      E221936E 
ARM GAS  /tmp/ccHNlLx5.s 			page 14


 184      845C84E0 
 184      4DBD187A 
 184      2B420F
 185 0038 5AAAF552 		.ascii	"Z\252\365R\251\007+\370wk\325\303R\250-Z\360.B|\263"
 185      A9072BF8 
 185      776BD5C3 
 185      52A82D5A 
 185      F02E427C 
 186 004d BBB354CD 		.ascii	"\273\263T\315\220\274\231}\357\373\276\375\336\333a"
 186      90BC997D 
 186      EFFBBEFD 
 186      DEDB61
 187 005c C0E0DF75 		.ascii	"\300\340\337u\233\376g9\300i\332\321\005d\275\367\000"
 187      9BFE6739 
 187      C069DAD1 
 187      0564BDF7 
 187      00
 188 006d 6D9331FE 		.ascii	"m\2231\376\305\006a[\213\253\000\302\345h%y\013\035"
 188      C506615B 
 188      8BAB00C2 
 188      E5682579 
 188      0B1D
 189 007f 79408DE9 		.ascii	"y@\215\351\335\243T7dtu4\223\262\241\016f\202{e:L\373"
 189      DDA35437 
 189      64747534 
 189      93B2A10E 
 189      66827B65 
 190 0096 F996246C 		.ascii	"\371\226$l\273\317\011i#\312< \264\030\2674\3350\035"
 190      BBCF0969 
 190      23CA3C20 
 190      B418B734 
 190      DD301D
 191 00a9 1B5B9751 		.ascii	"\033[\227QZ\301C\320\027\342~\264\265\035\341\003\261"
 191      5AC143D0 
 191      17E27EB4 
 191      B51DE103 
 191      B1
 192 00ba D2792C7E 		.ascii	"\322y,~\017\006\210\001\222\355S\010>\302%z\300\321"
 192      0F068801 
 192      92ED5308 
 192      3EC2257A 
 192      C0D1
 193 00cc 7863B9BF 		.ascii	"xc\271\277\373X`+\321`\260\373\364\331\3462\356/ \224"
 193      FB58602B 
 193      D160B0FB 
 193      F4D9E632 
 193      EE2F2094 
 194 00e0 B14F7A2C 		.ascii	"\261Oz,\335u\274\201`@\200\334\246\220s(h\256\014\371"
 194      DD75BC81 
 194      604080DC 
 194      A6907328 
 194      68AE0CF9 
 195 00f4 14404B83 		.ascii	"\024@K\203\216\020\275Q\365\354\307\236\212\024\311"
 195      8E10BD51 
 195      F5ECC79E 
 195      8A14C9
 196 0103 7809196D 		.ascii	"x\011\031m\374\035\314~~\376}\035\3138\207\032T\321"
ARM GAS  /tmp/ccHNlLx5.s 			page 15


 196      FC1DCC7E 
 196      7EFE7D1D 
 196      CB38871A 
 196      54D1
 197 0115 18836301 		.ascii	"\030\203c\001\352\217\340!92\252\250Kgf\354\247\202"
 197      EA8FE021 
 197      3932AAA8 
 197      4B6766EC 
 197      A782
 198 0127 CAD91B78 		.ascii	"\312\331\033x\275\335\036\311(\022\242\343\036\347%"
 198      BDDD1EC9 
 198      2812A2E3 
 198      1EE725
 199 0136 E470867F 		.ascii	"\344p\206\177\2000\232\017\363\011\014\340\016\374\022"
 199      80309A0F 
 199      F3090CE0 
 199      0EFC12
 200 0145 5D5108D0 		.ascii	"]Q\010\320\3621\001\007h+\274%\275\000l\000\223b\224"
 200      F2310107 
 200      682BBC25 
 200      BD006C00 
 200      936294
 201 0158 E25F176B 		.ascii	"\342_\027k\351\221\305\010\015h\350\261\335\365\037"
 201      E991C508 
 201      0D68E8B1 
 201      DDF51F
 202 0167 3B995D3B 		.ascii	";\231];\266\233\033nWY\222\244\217\007\024\305\031\203"
 202      B69B1B6E 
 202      575992A4 
 202      8F0714C5 
 202      1983
 203 0179 7969C319 		.ascii	"yi\303\031\207'\242'D+@W\246\350x%\300\221Dj\037IK\251"
 203      8727A227 
 203      442B4057 
 203      A6E87825 
 203      C091446A 
 204 0191 5C2A95DC 		.ascii	"\\*\225\334\262j&Y\241\016\225x\3702\334dJ\335\245\027"
 204      B26A2659 
 204      A10E9578 
 204      F832DC64 
 204      4ADDA517 
 205 01a5 48A2968B 		.ascii	"H\242\226\213\347\324\331m\237\310Jq~\357\027.\241\016"
 205      E7D4D96D 
 205      9FC84A71 
 205      7EEF172E 
 205      A10E
 206 01b7 4B476850 		.ascii	"KGhPw\243\205\271\377\007\225\367\263\367\352Uyk\012"
 206      77A385B9 
 206      FF0795F7 
 206      B3F7EA55 
 206      796B0A
 207 01ca 8A6628DA 		.ascii	"\212f(\332\213\325\2414>\234f\2463\014\273\341\322\275"
 207      8BD5A134 
 207      3E9C66A6 
 207      330CBBE1 
 207      D2BD
 208 01dc 0BCA579E 		.ascii	"\013\312W\236@\361\250esk\220\266\222\\\032\252*\262"
ARM GAS  /tmp/ccHNlLx5.s 			page 16


 208      40F1A865 
 208      736B90B6 
 208      925C1AAA 
 208      2AB2
 209 01ee 0374CD71 		.ascii	"\003t\315q\015fi\274\252\210q\217\337\332\206\322J\204"
 209      0D6669BC 
 209      AA88718F 
 209      DFDA86D2 
 209      4A84
 210 0200 0E661D6E 		.ascii	"\016f\035n\000V\221Y\024\362\346\216%el\371\245?A;Z"
 210      00569159 
 210      14F2E68E 
 210      25656CF9 
 210      A53F413B 
 211 0215 3EAC9C27 		.ascii	">\254\234'\253Hj}.\033\236\360f\232\015\257\331\360"
 211      AB486A7D 
 211      2E1B9EF0 
 211      669A0DAF 
 211      D9F0
 212 0227 3DBF1654 		.ascii	"=\277\026T\202\251\246G\277Z\271\356\335\234jL7\275"
 212      82A9A647 
 212      BF5AB9EE 
 212      DD9C6A4C 
 212      37BD
 213 0239 8BC5F327 		.ascii	"\213\305\363''\274\311\311s\336\365[\323W\353\365k\307"
 213      27BCC9C9 
 213      73DEF55B 
 213      D357EBF5 
 213      6BC7
 214 024b 7DC0E00F 		.ascii	"}\300\340\017Q\222\313\003"
 214      5192CB03 
 215              		.text
 216              		.section	.gnu.lto_.symbol_nodes.142d968e0b77c7c7,"",%progbits
 217 0000 789C4DC8 		.ascii	"x\234M\310\275\015\202`\024\205\341s\317\345\202\003"
 217      BD0D8260 
 217      1485E173 
 217      CFE58203 
 218 0010 583A832B 		.ascii	"X:\203+\036\"\240\370S8\201\035[\330\221X:\202!\204"
 218      1E22A0F8 
 218      5338811D 
 218      5BD89158 
 218      3A822184 
 219 0024 CE1D8C85 		.ascii	"\316\035\214\205\206\217\267{^\202\350\360\217\015\005"
 219      868FB77B 
 219      5E82E8F0 
 219      8F0D05
 220 0033 5C9F8074 		.ascii	"\\\237\200tk-j\"\004\036(K\227-\305\005\217\224/\270"
 220      6B2D6A22 
 220      041E284B 
 220      972DC505 
 220      8F942FB8 
 221 0047 A7B2443B 		.ascii	"\247\262D;Q\361cY\232]\250<\351L\025\263\0349\252\341"
 221      51F16359 
 221      9A5DA83C 
 221      E94C15B3 
 221      1C39AAE1 
 222 005b 63CE02FD 		.ascii	"c\316\002\375}\343\261B?\254=\034c\367\332zd\330=\246"
ARM GAS  /tmp/ccHNlLx5.s 			page 17


 222      7DE3B142 
 222      3FAC3D1C 
 222      63F7DA7A 
 222      64D83DA6 
 223 006f 77E00B6F 		.ascii	"w\340\013o|/\366"
 223      7C2FF6
 224              		.text
 225              		.section	.gnu.lto_.refs.142d968e0b77c7c7,"",%progbits
 226 0000 789C6362 		.ascii	"x\234cb`b`e\200\000F\006&F\006\000\000\237\000\016"
 226      60626065 
 226      80004606 
 226      26460600 
 226      009F000E 
 227              		.text
 228              		.section	.gnu.lto_.decls.142d968e0b77c7c7,"",%progbits
 229 0000 789CAD58 		.ascii	"x\234\255Xml\024\307\031\236\231;\333w\341b>\032\214"
 229      6D6C14C7 
 229      199E993B 
 229      DB77E162 
 229      3E1A8C
 230 0013 DBFEE088 		.ascii	"\333\376\340\210\222H\245\037\327B\244\376\251P\252"
 230      9248A51F 
 230      D742A4FE 
 230      A950AA
 231 0022 C3044B31 		.ascii	"\303\004K1\261\356L\222\252?N\343\363Q\256=\316\256"
 231      B1EE4C92 
 231      AA3F4EE3 
 231      F351AE3D 
 231      CEAE
 232 0034 6F694DFF 		.ascii	"oiM\377t\211\201\246M\020\2064\004\004$6`\002\025\211"
 232      748981A6 
 232      4D108634 
 232      04042436 
 232      60021589 
 233 0048 94202850 		.ascii	"\224 (P>\326\304\301T4\221iK\"b\027\257p\002\375pUh"
 233      3ED6C4C1 
 233      54349169 
 233      4B226217 
 233      AF7002FD 
 234 005f EAA6B421 		.ascii	"\352\246\264!\327wfgow\347v\357\203v\345w\274\037\363"
 234      D7776667 
 234      6F77E776 
 234      EF8376E5 
 234      77BC1FF3 
 235 0073 3EEFF3BC 		.ascii	">\357\363\274\363\316\354\354\021D\220B\020\312\303"
 235      F3CEECEC 
 235      11449042 
 235      10CAC3
 236 0082 F1ED0684 		.ascii	"\361\355\006\204n\302y-Bh\011\230\017l\000\354\020\330"
 236      6EC2792D 
 236      42680998 
 236      0F6C00EC 
 236      10D8
 237 0094 28328E00 		.ascii	"(2\216\000\330\030\330\004\330u\260)\260[`\323`\037"
 237      D818D804 
 237      D875B029 
 237      B05B60D3 
ARM GAS  /tmp/ccHNlLx5.s 			page 18


 237      601F
 238 00a6 83DD06C3 		.ascii	"\203\335\006\303`\377A\316cL\340\335\021\230\272\270"
 238      60FF41CE 
 238      634CE0DD 
 238      1198BAB8 
 239 00b6 4FC4B369 		.ascii	"O\304\263i\017?\026'\010vX\360\330+\374?\005\033\007"
 239      0F3F1627 
 239      087658F0 
 239      D82BFC3F 
 239      051B07
 240 00c9 CB23C371 		.ascii	"\313#\303q6\230\037N\017\202\325\301y\015\330Ll\340"
 240      36981F4E 
 240      0F82D5C1 
 240      790DD84C 
 240      6CE0
 241 00db 4F086E0C 		.ascii	"O\010n\014\177R\302g\032@6\367\255\007\013\201\0153"
 241      7F52C267 
 241      1A4036F7 
 241      AD070B81 
 241      0D33
 242 00ed 0CB06360 		.ascii	"\014\260c`\227\205v3\356\034\000\371\014\330}`\277\024"
 242      97857633 
 242      EE1C00F9 
 242      0CD87D60 
 242      BF14
 243 00ff F1E7C279 		.ascii	"\361\347\302y#\330\027\260\305e!\330\027\261\301\375"
 243      23D817B0 
 243      C56521D8 
 243      17B1C1FD 
 244 010f 28D829B0 		.ascii	"(\330)\2607\301\026\260{`3\300.\"\203'\343\213\005\027"
 244      37C116B0 
 244      7B6033C0 
 244      2E228327 
 244      E38B0517 
 245 0123 C6F74F60 		.ascii	"\306\367O`\177\224xN\011Nv\236u\222\376\032\033\236"
 245      7F94784E 
 245      094E769E 
 245      7592FE1A 
 245      1B9E
 246 0135 1963A6C0 		.ascii	"\031c\246\300\236\022\372\377&\341\262\261\233\215\014"
 246      9E12FAFF 
 246      26E1B2B1 
 246      9B8D0C
 247 0144 5F13F7B0 		.ascii	"_\023\367\260\320^\347\221s9\007,Go#+\377v\275~\021"
 247      D05EE791 
 247      7339072C 
 247      476F232B 
 247      FF76BD7E 
 248 0159 E336B2EA 		.ascii	"\3436\262\352\205\361\370H\3421\003\375LU\237V\3737"
 248      85F1F848 
 248      E23103FD 
 248      4C559F56 
 248      FB37
 249 016b A9CB2FD4 		.ascii	"\251\313/\324\317A[U8\302\027\200\321S\230\342\372 "
 249      CF415B55 
 249      38C21780 
 249      D15398E2 
ARM GAS  /tmp/ccHNlLx5.s 			page 19


 249      FA20
 250 017d 7A849F84 		.ascii	"z\204\237\204\202\274\000\037D\373U\265O\337x}\324\247"
 250      82BC001F 
 250      44FB55B5 
 250      4FDF787D 
 250      D4A7
 251 018f AA018AF7 		.ascii	"\252\001\212\367\3429\2208H\377Bt\010\374\372T\365\332"
 251      E2399038 
 251      48FF4274 
 251      08FCFA54 
 251      F5DA
 252 01a1 E750F121 		.ascii	"\347P\361!`\373\037\361\302\245x?&\320\036\000<\212"
 252      60FB1FF1 
 252      C2A5783F 
 252      26D01E00 
 252      3C8A
 253 01b3 07F14223 		.ascii	"\007\361B#\222\252O\017ni\344\221\330\023$\236\271\034"
 253      92AA4F0F 
 253      6E69E491 
 253      D813249E 
 253      B91C
 254 01c5 0B503FA8 		.ascii	"\013P?\250\320\306F^\232\247\352\032\256C\233\230(}"
 254      D0C6465E 
 254      9AA7EA1A 
 254      AE439B98 
 254      287D
 255 01d7 E3D38D3B 		.ascii	"\343\323\215;\254\220\0013$\266\244|x\255Q\365S|\010"
 255      AC900133 
 255      24B6A47C 
 255      78AD51F5 
 255      537C08
 256 01ea 5C085A83 		.ascii	"\\\010Z\203\035\021*@a\224\016\203\257\235\264\226_"
 256      1D112A40 
 256      61940E83 
 256      AF9DB496 
 256      5F
 257 01fb 1736EE96 		.ascii	"\0276\356\226 \354c\005GP\017\346h\376\240u\253\027"
 257      20EC6305 
 257      47500FE6 
 257      68FEA075 
 257      AB17
 258 020d 17EE615B 		.ascii	"\027\356a[\317\347\254\333D`\260K\034\264N\362\330\021"
 258      CFE7ACDB 
 258      4460B04B 
 258      1CB44EF2 
 258      D811
 259 021f C2CE8CE2 		.ascii	"\302\316\214\342W\361\203\320\276\206}\256n\004\275"
 259      57F183D0 
 259      BE867DAE 
 259      6E04BD
 260 022e 88B11800 		.ascii	"\210\261\030\0007\235\342\324\212[o^\210\324\353\323"
 260      379DE2D4 
 260      8A5B6F5E 
 260      88D4EBD3 
 261 023e 1F6E59B2 		.ascii	"\037nY\262S\3256\370\334\012\012z`\333\330k3L\300\343"
 261      53D536F8 
 261      DC0A0A7A 
ARM GAS  /tmp/ccHNlLx5.s 			page 20


 261      60DBD86B 
 261      334CC0E3 
 262 0252 D6506827 		.ascii	"\326Ph'Fp\330\245\000\245\316\024\037\007%\345\373\261"
 262      4670D8A5 
 262      00A5CE14 
 262      1F0725E5 
 262      FBB1
 263 0264 9E27A572 		.ascii	"\236'\245r\322\366\214\204\330h\237\254\240\230T\355"
 263      D2F68C84 
 263      D8689FAC 
 263      A09854ED 
 264 0274 E8C86EAC 		.ascii	"\350\310n\254\366\237\303\263Q\237\210U\266\216\205"
 264      F69FC3B3 
 264      519F8855 
 264      B68E85
 265 0283 92ADA084 		.ascii	"\222\255\240\204\3423|r\354\301\316\242*\213\301\210"
 265      E2337C72 
 265      ECC1CEA2 
 265      2A8BC188 
 266 0293 0DC9C4AF 		.ascii	"\015\311\304\257\234\347\304\207*\232\005\267\316\357"
 266      9CE7C487 
 266      2A9A05B7 
 266      CEEF
 267 02a1 FE2C231E 		.ascii	"\376,#\036D\317X#Q\010\0266\203\371\255Yp\372\331\375"
 267      44CF5823 
 267      51081636 
 267      83F9AD59 
 267      70FAD9FD 
 268 02b5 5FE2D36C 		.ascii	"_\342\323l\030\263\362\272$q\256\034h\372\235\341\255"
 268      18B3F2BA 
 268      2471AE1C 
 268      68FA9DE1 
 268      AD
 269 02c6 B817469B 		.ascii	"\270\027F\233\342\021\016\365\014qBQ\\\027\264S\346"
 269      E2110EF5 
 269      0C714251 
 269      5C17B453 
 269      E6
 270 02d7 D7660786 		.ascii	"\327f\007\206W\027\264N\330\273q&\252\266;A\317\363"
 270      5717B44E 
 270      D8BB7126 
 270      AAB63B41 
 270      CFF3
 271 02e9 A043562D 		.ascii	"\240CV-;\250\226\257\345\177\334\331\314\023\350(\345"
 271      3BA896AF 
 271      E57FDCD9 
 271      CC13E828 
 271      E5
 272 02fa 06F4021F 		.ascii	"\006\364\002\0378X\023\260B\361\222\271\256\340\214"
 272      385813B0 
 272      42F192B9 
 272      AEE08C
 273 0309 E2DBB881 		.ascii	"\342\333\270\201\237\371\214\231J\361\000 \211\213\212"
 273      9FF98C99 
 273      4AF10020 
 273      898B8A
 274 0318 53A9BDBC 		.ascii	"S\251\275\274i.\033\362Q\236\306\035Ei\034\306w\223"
ARM GAS  /tmp/ccHNlLx5.s 			page 21


 274      692E1BF2 
 274      519EC61D 
 274      45691CC6 
 274      7793
 275 032a 478A57FA 		.ascii	"G\212W\372\012>%\202\237\335t\037\013\376\033 N\320"
 275      0A3E2582 
 275      9FDD741F 
 275      0BFE1B20 
 275      4ED0
 276 033c A014DC91 		.ascii	"\240\024\334\221\026C\256W*.\003\200{\271\026=#\350"
 276      1643AE57 
 276      2A2E0380 
 276      7BB9163D 
 276      23E8
 277 034e 48D5C316 		.ascii	"H\325\303\026.\202\265\341[\223\210\342s|\365{\023/"
 277      2E82B5E1 
 277      5B9388E2 
 277      737CF57B 
 277      132F
 278 0360 80F622B4 		.ascii	"\200\366\"\264r\016\\\026\217\323x6*\214\230ZP\013]"
 278      720E5C16 
 278      8FD37836 
 278      2A8C985A 
 278      500B5D
 279 0373 BCC4BE27 		.ascii	"\274\304\276'\206\244\300T\2344 S\3411\256\360\244\245"
 279      86A4C054 
 279      9C342053 
 279      E131AEF0 
 279      A4A5
 280 0385 508A5BA2 		.ascii	"P\212[\2424m\302\014I\277\342\222N\331\305\020t\266"
 280      346DC20C 
 280      49BFE292 
 280      4ED9C510 
 280      74B6
 281 0397 A84E8CB5 		.ascii	"\250N\214\265\316\346m-\212H\366\367\022v\014F\252\020"
 281      CEE66D2D 
 281      8A48F6F7 
 281      12760C46 
 281      AA10
 282 03a9 E2D7447A 		.ascii	"\342\327DzQ\374o\243t\3006J\257pI\007\371(\035\255\204"
 282      51FC6FA3 
 282      74C0364A 
 282      AF704907 
 282      F9281DAD 
 283 03be D880456C 		.ascii	"\330\200El>zI\355\327\365K\357\016S\366\032R\363\371"
 283      3E7A49ED 
 283      D7F54BEF 
 283      0E53F61A 
 283      52F3F9
 284 03d1 1FA3CAA7 		.ascii	"\037\243\312\247\354\270\230\262\326\374\200\027\261"
 284      ECB898B2 
 284      D6FC8017 
 284      B1
 285 03de 0F4BB5FB 		.ascii	"\017K\265\373\020\032dx\352A\325\307\321X\3771<\337"
 285      101A6478 
 285      EA41D5C7 
 285      D158FF31 
ARM GAS  /tmp/ccHNlLx5.s 			page 22


 285      3CDF
 286 03f0 29E80F98 		.ascii	")\350\017\230\330o\030\274\264\355#\241\276\365z>?\277"
 286      D86F18BC 
 286      B4ED23A1 
 286      BEF57A3E 
 286      3FBF
 287 0402 724EBADB 		.ascii	"rN\272\3332\342\230\300\004\365I\034\037@\373Tu\233"
 287      32E298C0 
 287      04F5491C 
 287      1F40FB54 
 287      759B
 288 0414 7AA763B9 		.ascii	"z\247c\271\321\035\336?\274\307\004\260t\213SH\241\220"
 288      D11DDE3F 
 288      BCC704B0 
 288      748B5348 
 288      A190
 289 0426 B659DD38 		.ascii	"\266Y\3358\013\027\264M\310\332\256\025k\323oj7Mm\306"
 289      0B17B44D 
 289      C8DAAE15 
 289      6BD36F6A 
 289      374D6DC6 
 290 043a 5A40D05E 		.ascii	"Z@\320^wV\257\247\226\233\">\340\333\275\353\245Y\011"
 290      7756AFA7 
 290      969B223E 
 290      E0DBBDEB 
 290      A55909
 291 044d B78F999B 		.ascii	"\267\217\231\233\261\014\236\340\300\336n\243\306\014"
 291      B10C9EE0 
 291      C0DE6EA3 
 291      C60C
 292 045b 7415735D 		.ascii	"t\025s]\026s\303U\314\266w$1C\356b\216\310b\246*\022"
 292      1673C355 
 292      CCB67724 
 292      3143EE62 
 292      8EC862A6 
 293 0471 73DB1443 		.ascii	"s\333\024C\361\237\313\270\225\0223%\213\371\253k\325"
 293      F19FCBB8 
 293      95123325 
 293      8BF9AB6B 
 293      D5
 294 0482 9D3A5F10 		.ascii	"\235:_\020\243s1W\334\305\344;$1\267\356\252^n\311\254"
 294      A3733157 
 294      DCC5E43B 
 294      2431B7EE 
 294      AA5E6EC9 
 295 0497 FEEE92E2 		.ascii	"\376\356\222\342>\375\255}Cx\247z\316\230\243&\263\033"
 295      3EFDAD7D 
 295      4378A77A 
 295      CE98A326 
 295      B31B
 296 04a9 45B3CD80 		.ascii	"E\263\315\200\370\247+\304\373\023\037\020\033\3048"
 296      F8A72BC4 
 296      FB131F10 
 296      1BC438
 297 04b8 8778C3EF 		.ascii	"\207x\303\357\016\361/7\010\255\357\342s*6\263c\000"
 297      0EF12F37 
 297      08ADEFE2 
ARM GAS  /tmp/ccHNlLx5.s 			page 23


 297      732A36B3 
 297      6300
 298 04ca 5CF400F8 		.ascii	"\\\364\000\370\267\023\340~4\240\352\243\372\245\355"
 298      B713E07E 
 298      34A0EAA3 
 298      FAA5ED
 299 04d9 AF7E7E3D 		.ascii	"\257~~=[j\324O\362y\214\315\257\241\311\002\210\327"
 299      5B6AD44F 
 299      F2798CCD 
 299      AFA1C902 
 299      88D7
 300 04eb EEEE130B 		.ascii	"\356\356\023\013Nz\225\352%^\245w\254\265N\362\032/"
 300      4E7A95EA 
 300      255EA577 
 300      ACB54EF2 
 300      1A2F
 301 04fd E1F5A9E5 		.ascii	"\341\365\251\345\305_d\275%\267\036\024\277\305\227"
 301      C55F64BD 
 301      25B71E14 
 301      BFC597
 302 050c E0F27B09 		.ascii	"\340\362{\011\267\01586\241\032QaCx\344\206\376#c?\250"
 302      B70D3836 
 302      A11A5161 
 302      4378E486 
 302      FE23633F 
 303 0521 12969D9D 		.ascii	"\022\226\235\2355\256\333ao\034F\252\227H\333\341\023"
 303      35AEDB61 
 303      6F1C46AA 
 303      9748DBE1 
 303      13
 304 0532 57F97698 		.ascii	"W\371v\230\335/\263\035\336\320\253\235\276\372s\276"
 304      DD2FB31D 
 304      DED0AB9D 
 304      BEFA73BE 
 305 0542 9BA338CF 		.ascii	"\233\2438\317\027\221\003\234\002\363\275\213\335!\340"
 305      1791039C 
 305      02F3BD8B 
 305      DD21E0
 306 0551 9DB91AEA 		.ascii	"\235\271\032\352\243&\330/\252\006\013;\300F\355`\257"
 306      A326D82F 
 306      AA060B3B 
 306      C046ED60 
 306      AF
 307 0562 550216F0 		.ascii	"U\002\026\360f\366[;\330\221\252\301\234\314~o\007;"
 307      66F65B3B 
 307      D891AAC1 
 307      9CCC7E6F 
 307      073B
 308 0574 5E09D82C 		.ascii	"^\011\330,of\357\332\301\316T\015\026v\033^TT\035\024"
 308      6F66EFDA 
 308      C1CE540D 
 308      16761B5E 
 308      54541D14 
 309 0588 6F20AC7C 		.ascii	"o \254|7\022\266\203\370\011o\177\312\333gy\273\231"
 309      3712B683 
 309      F8096F7F 
 309      CADB6779 
ARM GAS  /tmp/ccHNlLx5.s 			page 24


 309      BB99
 310 059a B75B886D 		.ascii	"\267[\210mg!M%\325\203\024\213\263\2258\247\022\363"
 310      67214D25 
 310      D583148B 
 310      B39538A7 
 310      12F3
 311 05ac D2FE7F53 		.ascii	"\322\376\177S\251_s|#K\277\217\234\345`C\216\275\233"
 311      A95F737C 
 311      234BBF8F 
 311      9CE56043 
 311      8EBD9B
 312 05bf CB76D6FA 		.ascii	"\313v\326\372V\245\370y\342\265\315\264oo\255m\253\303"
 312      56A5F879 
 312      E2B5CDB4 
 312      6F6FAD6D 
 312      ABC3
 313 05d1 998D9470 		.ascii	"\231\215\224pV\261sL\354\335\206\275\273Q\274\235T\273"
 313      56B1734C 
 313      ECDD86BD 
 313      BB51BC9D 
 313      54BB
 314 05e3 837E91B8 		.ascii	"\203~\221\270\357\240\255-\217\275\227\333\342\321O"
 314      EFA0AD2D 
 314      8FBD97DB 
 314      E2D14F
 315 05f2 4C9F0750 		.ascii	"L\237\007P\341k\346\243I\376#\317\016\276\002\015\225"
 315      E16BE6A3 
 315      49FE23CF 
 315      0EBE020D 
 315      95
 316 0603 5F819C20 		.ascii	"_\201\234 ,\344.y\005\272<y\001\363/\346]\025\255AW"
 316      2CE42E79 
 316      05BA3C79 
 316      01F32FE6 
 316      5D15AD41 
 317 0618 262F10FE 		.ascii	"&/\020\376\353\2109\007F9\213]w\275\010\275\317\342"
 317      EB883907 
 317      46398B5D 
 317      77BD08BD 
 317      CFE2
 318 062a 6F0B9970 		.ascii	"o\013\231p\357U\015\027\266\301\255\327\306'\003\034"
 318      EF550D17 
 318      B6C1ADD7 
 318      C627031C 
 319 063a ED051832 		.ascii	"\355\005\0302\202\306d4\347\330\226Y\210 ;W9\234(\024"
 319      82C66434 
 319      E7D89659 
 319      88203B57 
 319      399C2814 
 320 064e F65387A3 		.ascii	"\366S\207\243R\212^\210\373\253.\224A\217B1\177\001"
 320      528A5E88 
 320      FBAB2E94 
 320      418F4231 
 320      7F01
 321 0660 23E89AAC 		.ascii	"#\350\232\254\301\021\325\361\202qM\360Mg\202\377RI"
 321      C111D5F1 
 321      82714DF0 
ARM GAS  /tmp/ccHNlLx5.s 			page 25


 321      4D6782FF 
 321      5249
 322 0672 82C32E70 		.ascii	"\202\303.pn\207\275\236(\336\315\327\254=|mz\231\267"
 322      6E87BD9E 
 322      28DECDD7 
 322      AC3D7C6D 
 322      7A99B7
 323 0685 03BCDDC7 		.ascii	"\003\274\335\307\333WJ\254V;J\254V\207H\361vA\253\366"
 323      DB574AAC 
 323      563B4AAC 
 323      568748F1 
 323      7641ABF6 
 324 0699 7BBD424F 		.ascii	"{\275BO\212\177\307\227'\371k\377\241\310\332\\w$\327"
 324      8A7FC797 
 324      27F96BFF 
 324      A1C8DA5C 
 324      7724D7
 325 06ac 9D8C2457 		.ascii	"\235\214$W\247\333\323\235\271\010\374\255\246\231H"
 325      A7DBD39D 
 325      B908FCAD 
 325      A69948
 326 06bb 3A9BCCAC 		.ascii	":\233\314\254\355HER=\312WV\243`\323SmK\273\323?Hu\327"
 326      ED484552 
 326      3DCA5756 
 326      A360D353 
 326      6D4BBBD3 
 327 06d3 3EBA6265 		.ascii	">\272be8\212\026y\371uuv+\271H\274\255e\361\242\310"
 327      388A1679 
 327      F9757576 
 327      2BB948BC 
 327      AD65F1A2 
 328 06e8 638F2D65 		.ascii	"c\217-e\376\211L\246\0030\356\201\323\234B\225TB\271"
 328      FE894CA6 
 328      0330EE81 
 328      D39C4295 
 328      5442B9
 329 06fb 07E0122B 		.ascii	"\007\340\022+W4\257hn\013\260\323x\333\343\255\374\336"
 329      5734AF68 
 329      6E0BB0D3 
 329      78DBE3AD 
 329      FCDE
 330 070d 37A36DCD 		.ascii	"7\243m\315O4\325\360n\263\340Ft5\315fS\231hgvU\372;"
 330      4F34D5F0 
 330      6EB3E046 
 330      7435CD66 
 330      53996867 
 331 0725 F7F39826 		.ascii	"\367\363\230&\261l\352\207\231t{$\267.\027I\344\224"
 331      B16CEA87 
 331      99747B24 
 331      B72E1749 
 331      E494
 332 0737 8E7496F1 		.ascii	"\216t\226\361\014\254\205\377\213\027%\224/\273\365"
 332      0CAC85FF 
 332      8B172594 
 332      2FBBF5
 333 0746 5D43816C 		.ascii	"]C\201l6\025It\244V\321\265\031%\241\254\353J\345\030"
 333      36154974 
ARM GAS  /tmp/ccHNlLx5.s 			page 26


 333      A456D1B5 
 333      1925A1AC 
 333      EB4AE518 
 334 075a B544C274 		.ascii	"\265D\302t\364\257\351\354H\205R=]I#tB\271\027x'i&\323"
 334      F4AFE9EC 
 334      4885523D 
 334      5D492374 
 334      42B91778 
 335 0772 4E93DF4B 		.ascii	"N\223\337K($\331\036\020\217r,+\006\265\332$\377WuV"
 335      2824D91E 
 335      108F722C 
 335      2B06B5DA 
 335      24FF5775 
 336 0787 9228244E 		.ascii	"\222($N\023\351lZ)\\\344\224\316.?\\t5\230wL:\251,m"
 336      13E96C5A 
 336      295CE494 
 336      CE2E3F5C 
 336      74359877 
 337 07a0 CFA4EAC4 		.ascii	"\317\244\352\304\345<\371qG:\307\236\337k\001\321n\256"
 337      E53CF971 
 337      473AC79E 
 337      DF6B01D1 
 337      6EAE
 338 07b2 E0F1F6EF 		.ascii	"\340\361\366\357\246\222J3\004\371F%$y\273\354\341\236"
 338      A6924A33 
 338      04F94625 
 338      2479BBEC 
 338      E19E
 339 07c4 9E48815F 		.ascii	"\236H\201_\256\0332\325h^\302\377"
 339      AE1B32D5 
 339      685EC2FF 
 340 07d0 7422DDFD 		.ascii	"t\"\335\375}3\342\274\242\007\006\323\032V9_\213\270"
 340      7D33E2BC 
 340      A20706D3 
 340      1A56395F 
 340      8BB8
 341 07e2 C5849E91 		.ascii	"\305\204\236\221hK\2749\016\321\"9e\315\342E\253\036"
 341      684BBC39 
 341      0ED12239 
 341      65CDE245 
 341      AB1E
 342 07f4 FEEAD77B 		.ascii	"\376\352\327{z L\010\274\232\023m0<KS\253|\315-1_SK"
 342      7A204C08 
 342      BC9A136D 
 342      303C4B53 
 342      AB7CCD2D 
 343 080c CC1F6B8B 		.ascii	"\314\037k\213\307\374\313\240\251\211?\331\334\024#"
 343      C7FCCBA0 
 343      A9893FD9 
 343      DC1423
 344 081b ADB1FAF8 		.ascii	"\255\261\372\370\267\342\321e\217\232=k[\240[K\253\257"
 344      B7E2D165 
 344      8F9A3D6B 
 344      5BA05B4B 
 344      ABAF
 345 082d B5255ACB 		.ascii	"\265%Z\313\020\242\261@\254)\336\024{\242iiM\264\245"
 345      10A2B140 
ARM GAS  /tmp/ccHNlLx5.s 			page 27


 345      AC29DE14 
 345      7BA26969 
 345      4DB4A5
 346 0840 351AFB2F 		.ascii	"5\032\373/\270\365F\373"
 346      B8F546FB 
 347              		.text
 348              		.section	.gnu.lto_.symtab.142d968e0b77c7c7,"",%progbits
 349 0000 6578745F 		.ascii	"ext_lld_init\000\000\000\000\000\000\000\000\000\000"
 349      6C6C645F 
 349      696E6974 
 349      00000000 
 349      00000000 
 350 0016 0000DB00 		.ascii	"\000\000\333\000\000\000EXTD1\000\000\000\000\000\000"
 350      00004558 
 350      54443100 
 350      00000000 
 350      00
 351 0027 00000000 		.ascii	"\000\000\000\000\000\000\373\000\000\000ext_lld_sto"
 351      0000FB00 
 351      00006578 
 351      745F6C6C 
 351      645F7374 
 352 003c 70000000 		.ascii	"p\000\000\000\000\000\000\000\000\000\000\000\000\337"
 352      00000000 
 352      00000000 
 352      00DF
 353 004a 00000065 		.ascii	"\000\000\000ext_lld_channel_enable\000\000\000\000\000"
 353      78745F6C 
 353      6C645F63 
 353      68616E6E 
 353      656C5F65 
 354 0068 00000000 		.ascii	"\000\000\000\000\000\000\000\346\000\000\000ext_lld"
 354      000000E6 
 354      00000065 
 354      78745F6C 
 354      6C64
 355 007a 5F636861 		.ascii	"_channel_disable\000\000\000\000\000\000\000\000\000"
 355      6E6E656C 
 355      5F646973 
 355      61626C65 
 355      00000000 
 356 0093 000000EC 		.ascii	"\000\000\000\354\000\000\000ext_lld_start\000\000\000"
 356      00000065 
 356      78745F6C 
 356      6C645F73 
 356      74617274 
 357 00aa 00000000 		.ascii	"\000\000\000\000\000\000\000\000\000\361\000\000\000"
 357      00000000 
 357      00F10000 
 357      00
 358 00b7 6578744F 		.ascii	"extObjectInit\000\000\002\000\000\000\000\000\000\000"
 358      626A6563 
 358      74496E69 
 358      74000002 
 358      00000000 
 359 00ce 0000F500 		.ascii	"\000\000\365\000\000\000ext_lld_exti_irq_disable\000"
 359      00006578 
ARM GAS  /tmp/ccHNlLx5.s 			page 28


 359      745F6C6C 
 359      645F6578 
 359      74695F69 
 360 00ed 00020000 		.ascii	"\000\002\000\000\000\000\000\000\000\000\000\367\000"
 360      00000000 
 360      000000F7 
 360      00
 361 00fa 00006578 		.ascii	"\000\000ext_lld_exti_irq_enable\000\000\002\000\000"
 361      745F6C6C 
 361      645F6578 
 361      74695F69 
 361      72715F65 
 362 0118 00000000 		.ascii	"\000\000\000\000\000\000\000\371\000\000\000"
 362      000000F9 
 362      000000
 363              		.text
 364              		.section	.gnu.lto_.opts,"",%progbits
 365 0000 272D6D63 		.ascii	"'-mcpu=cortex-m4' '-mno-thumb-interwork' '-mthumb' "
 365      70753D63 
 365      6F727465 
 365      782D6D34 
 365      2720272D 
 366 0033 272D6767 		.ascii	"'-ggdb' '-O2' '-fomit-frame-pointer' '-falign-funct"
 366      64622720 
 366      272D4F32 
 366      2720272D 
 366      666F6D69 
 367 0066 696F6E73 		.ascii	"ions=16' '-ffunction-sections' '-fdata-sections' '-"
 367      3D313627 
 367      20272D66 
 367      66756E63 
 367      74696F6E 
 368 0099 666E6F2D 		.ascii	"fno-common' '-flto'\000"
 368      636F6D6D 
 368      6F6E2720 
 368      272D666C 
 368      746F2700 
 369              		.text
 370              		.cfi_sections	.debug_frame
 371              		.section	.text.ext_lld_init,"ax",%progbits
 372              		.align	2
 373              		.p2align 4,,15
 374              		.global	ext_lld_init
 375              		.thumb
 376              		.thumb_func
 377              		.type	ext_lld_init, %function
 378              	ext_lld_init:
 379              	.LFB260:
 380              		.file 1 "/usr/src/chibios/os/hal/ports/STM32/LLD/ext_lld.c"
 381              		.loc 1 65 0
 382              		.cfi_startproc
 383              		@ args = 0, pretend = 0, frame = 0
 384              		@ frame_needed = 0, uses_anonymous_args = 0
 385              		@ link register save eliminated.
 386              		.loc 1 68 0
 387 0000 0148     		ldr	r0, .L2
 388 0002 FFF7FEBF 		b	extObjectInit
ARM GAS  /tmp/ccHNlLx5.s 			page 29


 389              	.LVL0:
 390              	.L3:
 391 0006 00BF     		.align	2
 392              	.L2:
 393 0008 00000000 		.word	.LANCHOR0
 394              		.cfi_endproc
 395              	.LFE260:
 396              		.size	ext_lld_init, .-ext_lld_init
 397              		.section	.text.ext_lld_stop,"ax",%progbits
 398              		.align	2
 399              		.p2align 4,,15
 400              		.global	ext_lld_stop
 401              		.thumb
 402              		.thumb_func
 403              		.type	ext_lld_stop, %function
 404              	ext_lld_stop:
 405              	.LFB262:
 406              		.loc 1 99 0
 407              		.cfi_startproc
 408              		@ args = 0, pretend = 0, frame = 0
 409              		@ frame_needed = 0, uses_anonymous_args = 0
 410              	.LVL1:
 411 0000 08B5     		push	{r3, lr}
 412              		.cfi_def_cfa_offset 8
 413              		.cfi_offset 3, -8
 414              		.cfi_offset 14, -4
 415              		.loc 1 101 0
 416 0002 0378     		ldrb	r3, [r0]	@ zero_extendqisi2
 417 0004 022B     		cmp	r3, #2
 418 0006 07D0     		beq	.L7
 419              	.LVL2:
 420              	.L5:
 421              		.loc 1 104 0
 422 0008 054B     		ldr	r3, .L8
 423 000a 0022     		movs	r2, #0
 424              		.loc 1 106 0
 425 000c 4FF0FF31 		mov	r1, #-1
 426              		.loc 1 104 0
 427 0010 5A60     		str	r2, [r3, #4]
 428              		.loc 1 105 0
 429 0012 1A60     		str	r2, [r3]
 430              		.loc 1 106 0
 431 0014 5961     		str	r1, [r3, #20]
 432 0016 08BD     		pop	{r3, pc}
 433              	.LVL3:
 434              	.L7:
 435              		.loc 1 102 0
 436 0018 FFF7FEFF 		bl	ext_lld_exti_irq_disable
 437              	.LVL4:
 438 001c F4E7     		b	.L5
 439              	.L9:
 440 001e 00BF     		.align	2
 441              	.L8:
 442 0020 003C0140 		.word	1073822720
 443              		.cfi_endproc
 444              	.LFE262:
 445              		.size	ext_lld_stop, .-ext_lld_stop
ARM GAS  /tmp/ccHNlLx5.s 			page 30


 446              		.section	.text.ext_lld_channel_enable,"ax",%progbits
 447              		.align	2
 448              		.p2align 4,,15
 449              		.global	ext_lld_channel_enable
 450              		.thumb
 451              		.thumb_func
 452              		.type	ext_lld_channel_enable, %function
 453              	ext_lld_channel_enable:
 454              	.LFB263:
 455              		.loc 1 120 0
 456              		.cfi_startproc
 457              		@ args = 0, pretend = 0, frame = 0
 458              		@ frame_needed = 0, uses_anonymous_args = 0
 459              		@ link register save eliminated.
 460              	.LVL5:
 461              		.loc 1 123 0
 462 0000 0F29     		cmp	r1, #15
 463              		.loc 1 120 0
 464 0002 F0B4     		push	{r4, r5, r6, r7}
 465              		.cfi_def_cfa_offset 16
 466              		.cfi_offset 4, -16
 467              		.cfi_offset 5, -12
 468              		.cfi_offset 6, -8
 469              		.cfi_offset 7, -4
 470              		.loc 1 123 0
 471 0004 20D9     		bls	.L11
 472 0006 4368     		ldr	r3, [r0, #4]
 473 0008 53F83100 		ldr	r0, [r3, r1, lsl #3]
 474              	.LVL6:
 475              		.loc 1 141 0
 476 000c C207     		lsls	r2, r0, #31
 477 000e 34D5     		bpl	.L13
 478              	.L19:
 479              		.loc 1 142 0
 480 0010 224C     		ldr	r4, .L20
 481 0012 0122     		movs	r2, #1
 482 0014 A568     		ldr	r5, [r4, #8]
 483 0016 8A40     		lsls	r2, r2, r1
 484 0018 1543     		orrs	r5, r5, r2
 485 001a A560     		str	r5, [r4, #8]
 486 001c D443     		mvns	r4, r2
 487              	.L14:
 488              		.loc 1 145 0
 489 001e 10F0020F 		tst	r0, #2
 490              		.loc 1 146 0
 491 0022 1E48     		ldr	r0, .L20
 492              		.loc 1 151 0
 493 0024 03EBC101 		add	r1, r3, r1, lsl #3
 494              	.LVL7:
 495              		.loc 1 146 0
 496 0028 C568     		ldr	r5, [r0, #12]
 497              		.loc 1 151 0
 498 002a 4B68     		ldr	r3, [r1, #4]
 499              		.loc 1 146 0
 500 002c 14BF     		ite	ne
 501 002e 1543     		orrne	r5, r2, r5
 502              		.loc 1 148 0
ARM GAS  /tmp/ccHNlLx5.s 			page 31


 503 0030 2540     		andeq	r5, r4, r5
 504 0032 C560     		str	r5, [r0, #12]
 505              		.loc 1 151 0
 506 0034 4BB3     		cbz	r3, .L17
 507              		.loc 1 152 0
 508 0036 194B     		ldr	r3, .L20
 509 0038 1968     		ldr	r1, [r3]
 510 003a 0A43     		orrs	r2, r2, r1
 511 003c 1A60     		str	r2, [r3]
 512              		.loc 1 153 0
 513 003e 5A68     		ldr	r2, [r3, #4]
 514 0040 1440     		ands	r4, r4, r2
 515 0042 5C60     		str	r4, [r3, #4]
 516              		.loc 1 183 0
 517 0044 F0BC     		pop	{r4, r5, r6, r7}
 518 0046 7047     		bx	lr
 519              	.LVL8:
 520              	.L11:
 521 0048 21F00302 		bic	r2, r1, #3
 522              	.LBB2:
 523              		.loc 1 126 0
 524 004c 4368     		ldr	r3, [r0, #4]
 525 004e 02F18042 		add	r2, r2, #1073741824
 526 0052 02F59C32 		add	r2, r2, #79872
 527 0056 53F83100 		ldr	r0, [r3, r1, lsl #3]
 528              	.LVL9:
 529              		.loc 1 133 0
 530 005a 9768     		ldr	r7, [r2, #8]
 531              		.loc 1 125 0
 532 005c 01F00304 		and	r4, r1, #3
 533 0060 A400     		lsls	r4, r4, #2
 534              	.LVL10:
 535 0062 0F25     		movs	r5, #15
 536 0064 A540     		lsls	r5, r5, r4
 537              		.loc 1 127 0
 538 0066 C0F30316 		ubfx	r6, r0, #4, #4
 539              		.loc 1 133 0
 540 006a 27EA0505 		bic	r5, r7, r5
 541              		.loc 1 126 0
 542 006e 06FA04F4 		lsl	r4, r6, r4
 543              	.LVL11:
 544              		.loc 1 133 0
 545 0072 2C43     		orrs	r4, r4, r5
 546 0074 9460     		str	r4, [r2, #8]
 547              	.LBE2:
 548              		.loc 1 141 0
 549 0076 C207     		lsls	r2, r0, #31
 550 0078 CAD4     		bmi	.L19
 551              	.LVL12:
 552              	.L13:
 553              		.loc 1 144 0
 554 007a 084D     		ldr	r5, .L20
 555 007c 0122     		movs	r2, #1
 556 007e AE68     		ldr	r6, [r5, #8]
 557 0080 8A40     		lsls	r2, r2, r1
 558 0082 D443     		mvns	r4, r2
 559 0084 2640     		ands	r6, r6, r4
ARM GAS  /tmp/ccHNlLx5.s 			page 32


 560 0086 AE60     		str	r6, [r5, #8]
 561 0088 C9E7     		b	.L14
 562              	.LVL13:
 563              	.L17:
 564              		.loc 1 156 0
 565 008a 044B     		ldr	r3, .L20
 566 008c 5968     		ldr	r1, [r3, #4]
 567 008e 0A43     		orrs	r2, r2, r1
 568 0090 5A60     		str	r2, [r3, #4]
 569              		.loc 1 157 0
 570 0092 1A68     		ldr	r2, [r3]
 571 0094 1440     		ands	r4, r4, r2
 572 0096 1C60     		str	r4, [r3]
 573              		.loc 1 183 0
 574 0098 F0BC     		pop	{r4, r5, r6, r7}
 575 009a 7047     		bx	lr
 576              	.L21:
 577              		.align	2
 578              	.L20:
 579 009c 003C0140 		.word	1073822720
 580              		.cfi_endproc
 581              	.LFE263:
 582              		.size	ext_lld_channel_enable, .-ext_lld_channel_enable
 583              		.section	.text.ext_lld_channel_disable,"ax",%progbits
 584              		.align	2
 585              		.p2align 4,,15
 586              		.global	ext_lld_channel_disable
 587              		.thumb
 588              		.thumb_func
 589              		.type	ext_lld_channel_disable, %function
 590              	ext_lld_channel_disable:
 591              	.LFB264:
 592              		.loc 1 193 0
 593              		.cfi_startproc
 594              		@ args = 0, pretend = 0, frame = 0
 595              		@ frame_needed = 0, uses_anonymous_args = 0
 596              		@ link register save eliminated.
 597              	.LVL14:
 598              		.loc 1 200 0
 599 0000 094B     		ldr	r3, .L23
 600 0002 0122     		movs	r2, #1
 601 0004 1868     		ldr	r0, [r3]
 602              	.LVL15:
 603 0006 02FA01F1 		lsl	r1, r2, r1
 604              	.LVL16:
 605 000a CA43     		mvns	r2, r1
 606 000c 1040     		ands	r0, r0, r2
 607 000e 1860     		str	r0, [r3]
 608              		.loc 1 201 0
 609 0010 5868     		ldr	r0, [r3, #4]
 610 0012 1040     		ands	r0, r0, r2
 611 0014 5860     		str	r0, [r3, #4]
 612              		.loc 1 202 0
 613 0016 9868     		ldr	r0, [r3, #8]
 614 0018 1040     		ands	r0, r0, r2
 615 001a 9860     		str	r0, [r3, #8]
 616              		.loc 1 203 0
ARM GAS  /tmp/ccHNlLx5.s 			page 33


 617 001c D868     		ldr	r0, [r3, #12]
 618 001e 0240     		ands	r2, r2, r0
 619 0020 DA60     		str	r2, [r3, #12]
 620              		.loc 1 204 0
 621 0022 5961     		str	r1, [r3, #20]
 622 0024 7047     		bx	lr
 623              	.L24:
 624 0026 00BF     		.align	2
 625              	.L23:
 626 0028 003C0140 		.word	1073822720
 627              		.cfi_endproc
 628              	.LFE264:
 629              		.size	ext_lld_channel_disable, .-ext_lld_channel_disable
 630              		.section	.text.ext_lld_start,"ax",%progbits
 631              		.align	2
 632              		.p2align 4,,15
 633              		.global	ext_lld_start
 634              		.thumb
 635              		.thumb_func
 636              		.type	ext_lld_start, %function
 637              	ext_lld_start:
 638              	.LFB261:
 639              		.loc 1 78 0
 640              		.cfi_startproc
 641              		@ args = 0, pretend = 0, frame = 0
 642              		@ frame_needed = 0, uses_anonymous_args = 0
 643              	.LVL17:
 644 0000 38B5     		push	{r3, r4, r5, lr}
 645              		.cfi_def_cfa_offset 16
 646              		.cfi_offset 3, -16
 647              		.cfi_offset 4, -12
 648              		.cfi_offset 5, -8
 649              		.cfi_offset 14, -4
 650              		.loc 1 81 0
 651 0002 0378     		ldrb	r3, [r0]	@ zero_extendqisi2
 652 0004 012B     		cmp	r3, #1
 653              		.loc 1 78 0
 654 0006 0546     		mov	r5, r0
 655              		.loc 1 81 0
 656 0008 14D0     		beq	.L31
 657              	.LVL18:
 658              	.L26:
 659              		.loc 1 78 0 discriminator 1
 660 000a 0024     		movs	r4, #0
 661 000c 04E0     		b	.L30
 662              	.LVL19:
 663              	.L33:
 664              		.loc 1 85 0
 665 000e 0134     		adds	r4, r4, #1
 666              		.loc 1 87 0
 667 0010 FFF7FEFF 		bl	ext_lld_channel_enable
 668              	.LVL20:
 669              		.loc 1 85 0
 670 0014 172C     		cmp	r4, #23
 671 0016 0CD0     		beq	.L32
 672              	.LVL21:
 673              	.L30:
ARM GAS  /tmp/ccHNlLx5.s 			page 34


 674              		.loc 1 86 0
 675 0018 6B68     		ldr	r3, [r5, #4]
 676 001a 53F83430 		ldr	r3, [r3, r4, lsl #3]
 677 001e 13F0040F 		tst	r3, #4
 678              		.loc 1 89 0
 679 0022 2146     		mov	r1, r4
 680 0024 2846     		mov	r0, r5
 681              		.loc 1 86 0
 682 0026 F2D1     		bne	.L33
 683              	.LVL22:
 684              		.loc 1 85 0
 685 0028 0134     		adds	r4, r4, #1
 686              	.LVL23:
 687              		.loc 1 89 0
 688 002a FFF7FEFF 		bl	ext_lld_channel_disable
 689              	.LVL24:
 690              		.loc 1 85 0
 691 002e 172C     		cmp	r4, #23
 692 0030 F2D1     		bne	.L30
 693              	.L32:
 694              		.loc 1 90 0
 695 0032 38BD     		pop	{r3, r4, r5, pc}
 696              	.LVL25:
 697              	.L31:
 698              		.loc 1 82 0
 699 0034 FFF7FEFF 		bl	ext_lld_exti_irq_enable
 700              	.LVL26:
 701 0038 E7E7     		b	.L26
 702              		.cfi_endproc
 703              	.LFE261:
 704              		.size	ext_lld_start, .-ext_lld_start
 705              		.global	EXTD1
 706 003a 00BF     		.section	.bss.EXTD1,"aw",%nobits
 707              		.align	2
 708              		.set	.LANCHOR0,. + 0
 709              		.type	EXTD1, %object
 710              		.size	EXTD1, 8
 711              	EXTD1:
 712 0000 00000000 		.space	8
 712      00000000 
 713              		.text
 714              	.Letext0:
 715              		.file 2 "/usr/lib/gcc/arm-none-eabi/4.8/include/stddef.h"
 716              		.file 3 "/usr/include/newlib/machine/_default_types.h"
 717              		.file 4 "/usr/include/newlib/sys/_stdint.h"
 718              		.file 5 "/usr/src/chibios/os/rt/ports/ARMCMx/compilers/GCC/chtypes.h"
 719              		.file 6 "/usr/src/chibios/os/rt/include/chsystypes.h"
 720              		.file 7 "/usr/src/chibios/os/rt/include/chschd.h"
 721              		.file 8 "/usr/src/chibios/os/ext/CMSIS/ST/stm32f407xx.h"
 722              		.file 9 "/usr/src/chibios/os/rt/ports/ARMCMx/chcore.h"
 723              		.file 10 "/usr/src/chibios/os/rt/ports/ARMCMx/chcore_v7m.h"
 724              		.file 11 "/usr/src/chibios/os/rt/include/chtm.h"
 725              		.file 12 "/usr/src/chibios/os/rt/include/chsem.h"
 726              		.file 13 "/usr/src/chibios/os/rt/include/chmtx.h"
 727              		.file 14 "/usr/src/chibios/os/hal/include/ext.h"
 728              		.file 15 "/usr/src/chibios/os/hal/ports/STM32/LLD/ext_lld.h"
 729              		.file 16 "/usr/src/chibios/os/ext/CMSIS/include/core_cm4.h"
ARM GAS  /tmp/ccHNlLx5.s 			page 35


 730              		.file 17 "/usr/src/chibios/os/hal/ports/STM32/STM32F4xx/ext_lld_isr.h"