ARM GAS  /tmp/ccHNlLx5.s 			page 1


   1              		.syntax unified
   2              		.cpu cortex-m4
   3              		.fpu softvfp
   4              		.eabi_attribute 20, 1
   5              		.eabi_attribute 21, 1
   6              		.eabi_attribute 23, 3
   7              		.eabi_attribute 24, 1
   8              		.eabi_attribute 25, 1
   9              		.eabi_attribute 26, 1
  10              		.eabi_attribute 30, 2
  11              		.eabi_attribute 34, 1
  12              		.eabi_attribute 18, 4
  13              		.thumb
  14              		.file	"ext_lld.c"
  15              		.text
  16              	.Ltext0:
  17              		.section	.gnu.lto_.jmpfuncs.142d968e0b77c7c7,"",%progbits
  18 0000 789C6362 		.ascii	"x\234cb`b\300\006L\2414+\003\003#S5\303\257\206\216"
  18      6062C006 
  18      4CA1342B 
  18      03032353 
  18      35C3AF86 
  19 0015 06814C46 		.ascii	"\006\201LF\206\\F\260(\023#\00333\013\023+#\0233\220"
  19      865C46B0 
  19      28132303 
  19      33330B13 
  19      2B231333 
  20 002a 57061682 		.ascii	"W\006\026\202\263\030\030\000\311\011\0052"
  20      B3181800 
  20      C9090532 
  21              		.text
  22              		.section	.gnu.lto_.inline.142d968e0b77c7c7,"",%progbits
  23 0000 789C6362 		.ascii	"x\234cb`b\300\006\264\030!4+\020\3612\202\025\261-\220"
  23      6062C006 
  23      B4182134 
  23      2B10F132 
  23      8215B12D 
  24 0015 07AB65E2 		.ascii	"\007\253e\342f`\000\211pq123\244G0f2221030d \230@\315"
  24      66600089 
  24      70713132 
  24      33A44730 
  24      66323232 
  25 0032 CC0C2C6C 		.ascii	"\314\014,l\037\364 \232\030_\260\01301\260v\250\013"
  25      1FF4209A 
  25      185FB00B 
  25      3031B076 
  25      A80B
  26 0044 80F43372 		.ascii	"\200\3643r1\260\200\344\0170\2503\2620\246\200t1\361"
  26      31B080E4 
  26      0F30A833 
  26      B230A680 
  26      7431F1
  27 0057 038553E1 		.ascii	"\003\205S\341,\260\335 3\0248]\256\\g\202\030\"\261"
  27      2CB0DD20 
  27      3314385D 
  27      AE5C6782 
  27      1822B1
ARM GAS  /tmp/ccHNlLx5.s 			page 2


  28 006a 26578081 		.ascii	"&W\200\201\013h\006\013\003\343\027f\005\026&\010\305"
  28      0B68060B 
  28      03E31766 
  28      05162608 
  28      C5
  29 007b 2070C08E 		.ascii	" p\300\216\005d\203\002\330\036\005\240N\001\240\371"
  29      05648302 
  29      D81E05A0 
  29      4E01A0F9 
  30 008b 42828C8C 		.ascii	"B\202\214\214`s\230\245&\234f\204\230\300\262@\236\005"
  30      607398A5 
  30      269C6684 
  30      98C0B240 
  30      9E05
  31 009d E227D12B 		.ascii	"\342'\321+\314p\2673\"\334\316\210p;\377\234%\242\014"
  31      CC70B733 
  31      22DCCE88 
  31      703BFF9C 
  31      25A20C
  32 00b0 EC4F2E31 		.ascii	"\354O.1\242\273\236\231\007\350\367gl\023\374\340\014"
  32      A2BB9E99 
  32      07E8F767 
  32      6C13FCE0 
  32      0C
  33 00c1 887F1800 		.ascii	"\210\177\030\000\031\037$v"
  33      191F2476 
  34              		.text
  35              		.section	.gnu.lto_.pureconst.142d968e0b77c7c7,"",%progbits
  36 0000 789C6362 		.ascii	"x\234cb`b\340f\200\000V\006\011&)f)\026)VI\000\004*"
  36      6062E066 
  36      80005606 
  36      09262966 
  36      29162956 
  37 0018 00A2     		.ascii	"\000\242"
  38              		.text
  39              		.section	.gnu.lto_ext_lld_init.142d968e0b77c7c7,"",%progbits
  40 0000 789C6362 		.ascii	"x\234cb`b@\007\222@\334\007\304&@\314\310\314\300\310"
  40      60624007 
  40      9240DC07 
  40      C42640CC 
  40      C8CCC0C8 
  41 0014 34E11C03 		.ascii	"4\341\034\003C#\007\023##\210\301\300\310P\317\304X"
  41      43230713 
  41      232388C1 
  41      C0C850CF 
  41      C458
  42 0026 1FC90856 		.ascii	"\037\311\010V\273\236\351\300\203\377\377\327M:6\347"
  42      BB9EE9C0 
  42      83FFFFD7 
  42      4D3A36E7 
  43 0036 0EE30C26 		.ascii	"\016\343\014&f\240\010+CKC\303\004\005\006\206d\260"
  43      66A0082B 
  43      434B43C3 
  43      04050686 
  43      64B0
  44 0048 8A102009 		.ascii	"\212\020 \011\322\026\312\310\004\242\231\3173\264<"
  44      D216CAC8 
ARM GAS  /tmp/ccHNlLx5.s 			page 3


  44      04A299CF 
  44      33B43C
  45 0057 E869E64A 		.ascii	"\350i\346Jd\\\310\310\012\224\256f\370\325\320\321 "
  45      645CC8C8 
  45      0A94AE66 
  45      F8D5D0D1 
  45      20
  46 0068 90C90854 		.ascii	"\220\311\010T\0161\021$\302\221\311\310\230\313\310"
  46      0E311124 
  46      C291C9C8 
  46      98CBC8
  47 0077 00559409 		.ascii	"\000U\224\011\324\312p\221\241\361A\2572L\033\004\204"
  47      D4CA7091 
  47      A1F141AF 
  47      324C1B04 
  47      84
  48 0088 00B500CD 		.ascii	"\000\265\000\315\004\371\300H\277\264\270H\277\270("
  48      04F9C048 
  48      BFB4B848 
  48      BFB828
  49 0097 593F3923 		.ascii	"Y?9#3)3\277X\037\2102\022s\364\013\362\213J\212\365"
  49      332933BF 
  49      581F8832 
  49      1273F40B 
  49      F28B4A8A 
  50 00ac 83437C8D 		.ascii	"\203C|\215\215\364}|\\\364S+J\342srR\364\222\031\000"
  50      8DF47D7C 
  50      5CF4532B 
  50      4AE27372 
  50      52F49219 
  51 00c1 3D00377A 		.ascii	"=\0007z"
  52              		.text
  53              		.section	.gnu.lto_ext_lld_stop.142d968e0b77c7c7,"",%progbits
  54 0000 789C9590 		.ascii	"x\234\225\220\261KC1\020\306\277K\322ZEy\376\011\202"
  54      B14B4331 
  54      10C6BF4B 
  54      D25A4579 
  54      FE0982
  55 0013 9B0503D5 		.ascii	"\233\005\003\325\331\311\261NV\320I\332\247\264\201"
  55      D9C9B14E 
  55      56D049DA 
  55      A7B481
  56 0022 4AA5AF82 		.ascii	"J\245\257\202\340\320<-\350\330IDq\020\301\301A\327"
  56      E0D03C2D 
  56      E8D84944 
  56      7110C1C1 
  56      41D7
  57 0034 8E22A588 		.ascii	"\216\"\245\210`\305\2558H7\035\334\004\021\227\232\274"
  57      60C5AD38 
  57      48371DDC 
  57      0411979A 
  57      BC
  58 0045 D7AAE8D4 		.ascii	"\327\252\350\324#\311].\271\337}\011\003\303_K\230Y"
  58      23C95D2E 
  58      B9DF7D09 
  58      03C35F4B 
  58      9859
ARM GAS  /tmp/ccHNlLx5.s 			page 4


  59 0057 2760DA78 		.ascii	"'`\332x\212\200X\265\011\3701\306x\303\201\036\022\267"
  59      8A8058B5 
  59      09F831C6 
  59      78C3811E 
  59      12B7
  60 0069 33D0C39C 		.ascii	"3\320\303\234D\230\026D6\000\241\314\270\240\362\022"
  60      44981644 
  60      3600A1CC 
  60      B8A0F212 
  61 0079 05904B76 		.ascii	"\005\220Kv\325\356t.\366w\317^\351\230\015rZ#\010\250"
  61      D5EE742E 
  61      F677CF5E 
  61      E9980D72 
  61      5A2308A8 
  62 008d E030828A 		.ascii	"\3400\202\212\326\3251\300\015\266)\263Z\304\0021\353"
  62      D6D531C0 
  62      0DB629B3 
  62      5AC40231 
  62      EB
  63 009e F91DB61F 		.ascii	"\371\035\266\037ko-J\323\211i\237%\021\307\204\":\302"
  63      6B6F2D4A 
  63      D389699F 
  63      2511C784 
  63      223AC2
  64 00b1 21296259 		.ascii	"!)bY\342\213\306\363\240K\206z\242oP\177\366G\276K\354"
  64      E28BC6F3 
  64      A04B867A 
  64      A26F507F 
  64      F647BE4B 
  65 00c6 15FAFDB4 		.ascii	"\025\372\375\264\005S\321p\370=v\332\315S'\274\007l"
  65      0553D170 
  65      F83D76DA 
  65      CD5327BC 
  65      076C
  66 00d8 E153EFE9 		.ascii	"\341S\357\351QE\302\245\020\245\202|P \272j\256k\007"
  66      5145C2A5 
  66      10A5827C 
  66      5020BA6A 
  66      AE6B07
  67 00eb EF2F5D35 		.ascii	"\357/]5q\234\353\212\257\035E\321P\317\200\355\024\323"
  67      719CEB8A 
  67      AF1D45D1 
  67      50CF80ED 
  67      14D3
  68 00fd 1F152D10 		.ascii	"\037\025-\020\204]]!\315f\2426\260\224Z\377\024\366"
  68      845D5D21 
  68      CD66A236 
  68      B0945AFF 
  68      14F6
  69 010f 9FD2EA9F 		.ascii	"\237\322\352\237\302\177(\035c\216\331<\300o?\215\367"
  69      C27F281D 
  69      638ED93C 
  69      C06F3F8D 
  69      F7
  70 0120 BE21B494 		.ascii	"\276!\264\224\021m^l{&\344\206W\224^\321\225nNeT\301"
  70      116D5E6C 
  70      7B26E486 
ARM GAS  /tmp/ccHNlLx5.s 			page 5


  70      57945ED1 
  70      956E4E65 
  71 0136 9366E4D2 		.ascii	"\223f\344\322y\271^(\226<9\237\232\233J\310drV\256n"
  71      79B95E28 
  71      963C399F 
  71      9A9B4AC8 
  71      647256AE 
  72 014b 9696F3F9 		.ascii	"\226\226\363\371\225I\027_>}\2017"
  72      9549175F 
  72      3E7D8137 
  73              		.text
  74              		.section	.gnu.lto_ext_lld_channel_enable.142d968e0b77c7c7,"",%progbits
  75 0000 789CA556 		.ascii	"x\234\245V[H\\W\024=\347\316\235\367\3137\032\023ML"
  75      5B485C57 
  75      143DE7CE 
  75      9DF7CB37 
  75      1A134D4C 
  76 0014 344663C6 		.ascii	"4Fc\306W\325D\2146\032\211\232|UiJ\240eb\203\0165\246"
  76      57D5448C 
  76      361A899A 
  76      7C55694A 
  76      A0656283 
  77 002b 680AA53F 		.ascii	"h\012\245?\336\311\035\210\224\200\323\322\322G\010"
  77      DEC91D88 
  77      9480D3D2 
  77      D24708
  78 003a 2484D4D6 		.ascii	"$\204\324\3264\246\344\243\244$\264\032(\255\037-\315"
  78      34A6E4A3 
  78      A424B41A 
  78      28AD1F2D 
  78      CD
  79 004b 9F483FA4 		.ascii	"\237H?\244\037\201BI\245B\223\246\322\351\336\3475\257"
  79      1F814249 
  79      A54293A6 
  79      D2E9DEE7 
  79      35AF
  80 005d 42C7F1A2 		.ascii	"B\307\361\242\373\236\273\327\336\373\254\3758\207\321"
  80      FB9EBBD7 
  80      DEFBACFD 
  80      3887D1
  81 006c 8846529F 		.ascii	"\210FR\237\313\360_\356#\244\037\336\324G\250\026\375"
  81      CBF05FEE 
  81      23A41FDE 
  81      D447A816 
  81      FD
  82 007d 9190B043 		.ascii	"\221\220\260C\323,\323{\211\341\322Qz,T\347j]\2632\265"
  82      D32CD37B 
  82      89E1D251 
  82      7A2C54E7 
  82      6A5DB332 
  83 0092 8DA9ADD4 		.ascii	"\215\251\255\324\316\3256\271\260k\016\206;\031\356"
  83      CED536B9 
  83      B06B0E86 
  83      3B19EE
  84 00a1 A02EAE76 		.ascii	"\240.\256v\312\205Ks_\351\000\334\263\236\003\270\233"
  84      CA854B73 
  84      5FE900DC 
ARM GAS  /tmp/ccHNlLx5.s 			page 6


  84      B39E03B8 
  84      9B
  85 00b2 7AB9DA23 		.ascii	"z\271\332#\027^JqA(\231\322,\272\325fw8]n\217\227N\275"
  85      175E4A71 
  85      412899D2 
  85      2CBAD566 
  85      77385D6E 
  86 00ca 4491AC5E 		.ascii	"D\221\254^A\256\031Ft\365\333\331E\313G\357-D\256\032"
  86      41AE1946 
  86      74F5DBD9 
  86      45CB47EF 
  86      2D44AE1A 
  87 00de 1BB118A5 		.ascii	"\033\261\030\245!\012\211=G\3110%'\341\203\356d/MO\316"
  87      210A893D 
  87      47C93025 
  87      27E183EE 
  87      642F4D4F 
  88 00f3 94F9BEBB 		.ascii	"\224\371\276\273\360\327\305\231\022\343\352\205\250"
  88      F0D7C599 
  88      12E3EA85 
  88      A8
  89 0100 F10FB886 		.ascii	"\361\017\270\206\250E#\235\031z>\373\316\023\015O\033"
  89      A845239D 
  89      197A3EFB 
  89      CE130D4F 
  89      1B
  90 0111 B1D81473 		.ascii	"\261\330\024s{>C\267\215d\267\336\377s\273\255-\254"
  90      7B3E43B7 
  90      8D64B7DE 
  90      FF73BBAD 
  90      2DAC
  91 0123 C66297BE 		.ascii	"\306b\227\276\371\342\322\006\235\327NX\351YJ\354$H"
  91      F9E2D206 
  91      9DD74E58 
  91      E9594AEC 
  91      2448
  92 0135 AFD30AE2 		.ascii	"\257\323\012\342 !\252;Q\270@\0207\012\017\012/\030"
  92      2021AA3B 
  92      51B84010 
  92      370A0F0A 
  92      2F18
  93 0147 DC00031F 		.ascii	"\334\000\003\037XS?h\2549h\225\213\"\017E>\030\314\202"
  93      58533F68 
  93      AC396895 
  93      8B220F45 
  93      3E18CC82 
  94 015b 41017E14 		.ascii	"A\001~\024\242(BQ\214\246%\270\332\206\242\024\305v"
  94      A2284251 
  94      8CA625B8 
  94      DA86A214 
  94      C576
  95 016d 30BD06A6 		.ascii	"0\275\006\246;0p\031j\312Q\354BQ!\260\335\210\355AQ"
  95      3B307019 
  95      6ACA51EC 
  95      425121B0 
  95      DD88ED41 
  96 0182 89EA2A14 		.ascii	"\211\352*\024\325(\366\241\250\021V\265h\260\0375u("
ARM GAS  /tmp/ccHNlLx5.s 			page 7


  96      D528F6A1 
  96      A81156B5 
  96      68B01F35 
  96      7528
  97 0194 0228EA05 		.ascii	"\002(\352\005\326\200X#\212&T7\243h\001ak\305U\233\260"
  97      D6805823 
  97      8A265437 
  97      A3680161 
  97      6BC5559B 
  98 01a9 3A880687 		.ascii	":\210\006\207P\323\216\242\003\305a\324u\342\252\013"
  98      50D38EA2 
  98      03C561D4 
  98      75E2AA0B 
  99 01b9 C51114DD 		.ascii	"\305\021\024\335\302\276\007\261\243\250\351Eq\014E"
  99      C2BE07B1 
  99      A3A8E945 
  99      710C45
 100 01c8 1FEAFA71 		.ascii	"\037\352\372q5\200\002Jl%\021\030\243\235\004;\001\317"
 100      3580024A 
 100      6C251118 
 100      A39D043B 
 100      01CF
 101 01da 20481CBB 		.ascii	" H\034\273!\252\341\333\362=\211<Z|r\321\022\244\237"
 101      21AAE1DB 
 101      F23D893C 
 101      5A7C72D1 
 101      12A49F
 102 01ed 512B19A1 		.ascii	"Q+\031\241Vl\223\335\237\320\243!j!\323{-?\020s\336"
 102      566C93DD 
 102      9FD0A321 
 102      6A21D37B 
 102      2D3F1073 
 103 0202 5C9F2913 		.ascii	"\\\237)\023\361x\217x#x\265\011\3411\340\031\241v\021"
 103      F1788F78 
 103      2378B509 
 103      E131E019 
 103      A17611
 104 0215 899DC225 		.ascii	"\211\235\302%\242\005\351\034@\334\011PB \334=\363\311"
 104      A205E91C 
 104      40DC0950 
 104      4220DC3D 
 104      F3C9
 105 0227 CC490E8C 		.ascii	"\314I\016\214P\207p\320-\204\201o\233\177j\022s\002"
 105      508770D0 
 105      2D84816F 
 105      9B7F6A12 
 105      7302
 106 0239 CC309D61 		.ascii	"\3140\235a\027\036\233\217\251\304\\\0003\207[\026\251"
 106      171E9B8F 
 106      A9C45C00 
 106      33875B16 
 106      A9
 107 024a 72B38DFD 		.ascii	"r\263\215\375\0102\363\373\346\227\312\334\003\260\210"
 107      0832F3FB 
 107      E697CADC 
 107      03B088
 108 0259 F196D479 		.ascii	"\361\226\324yA\235D\362\006#\351ev+\313\261e\025\331"
ARM GAS  /tmp/ccHNlLx5.s 			page 8


 108      419D44F2 
 108      0623E965 
 108      762BCBB1 
 108      6515D9
 109 026c 5F4B6A60 		.ascii	"_Kj`\206.\223\217a\007`\354\303\235\234\254J\247\251"
 109      862E938F 
 109      610760EC 
 109      C39D9CAC 
 109      4AA7A9
 110 027f AC173AFD 		.ascii	"\254\027:\375T*]rj\311\234\221\023\242\256:\362\271"
 110      542A5D72 
 110      6AC99C91 
 110      13A2AE3A 
 110      F2B9
 111 0291 11358C7B 		.ascii	"\0215\214{\340\341F\035\254?\200\265\207\007\003\016"
 111      E0E1461D 
 111      AC3F80B5 
 111      8707030E 
 112 02a1 7E0C6615 		.ascii	"~\014f\025\301x\264\021\361\215\032M\205\207\302\375"
 112      C178B411 
 112      F18D1A4D 
 112      8587C2FD 
 113 02b1 A128E5C2 		.ascii	"\241(\345\302\026\2546k\224\203\363fl\346\224D\363\300"
 113      16AC366B 
 113      9483F366 
 113      6CE69444 
 113      F3C0
 114 02c3 80558357 		.ascii	"\200U\203W\316\274e\376=S&\301|\206\273\222R\237e\251"
 114      CEBC65FE 
 114      3D5326C1 
 114      7C86BB92 
 114      529F65A9 
 115 02d7 E7A3F183 		.ascii	"\347\243\361\203\237\357^_\264J\343\002\344\037\201"
 115      9FEF5E5F 
 115      B44AE302 
 115      E41F81
 116 02e6 503E241F 		.ascii	"P>$\037\011\033\357\300\332\317\3113\002\271\306Z\304"
 116      091BEFC0 
 116      DACFC933 
 116      02B9C65A 
 116      C4
 117 02f7 D0D929CF 		.ascii	"\320\331)\317\025\224-\"\011;!I\344Uc\013!\256(\264"
 117      15942D22 
 117      093B2149 
 117      E455630B 
 117      21AE28B4 
 118 030b F9957947 		.ascii	"\371\225yG%U\304 \316bi\315\315\325\214@\330x1N\241"
 118      2555C420 
 118      CE6269CD 
 118      CDD58C40 
 118      D878314E 
 119 0320 75D30C20 		.ascii	"u\323\014 \264\034j\235\215?6\353\356\354\257T\216\177"
 119      B41C6A9D 
 119      8D3F36EB 
 119      EEECAF54 
 119      8E7F
 120 0332 71A61D8E 		.ascii	"q\246\035\216\026I\227\222\224\016O\305\033|*\261\277"
ARM GAS  /tmp/ccHNlLx5.s 			page 9


 120      16499792 
 120      940E4FC5 
 120      1B7C2AB1 
 120      BF
 121 0343 C59BE8EF 		.ascii	"\305\233\350\3573MF\337\006\033\260\376\242\007\034"
 121      334D46DF 
 121      061BB0FE 
 121      A2071C
 122 0352 D6DFC20D 		.ascii	"\326\337\302\015\012b\372\304\353t\010\364\354\250>"
 122      0A62FAC4 
 122      EB7408F4 
 122      ECA83E
 123 0361 58599E7D 		.ascii	"XY\236}\250b\224\362z\001G\037g\223\207\236\371\306"
 123      A86294F2 
 123      7A01471F 
 123      6793879E 
 123      F9C6
 124 0373 5359AE7C 		.ascii	"SY\256|\301AW\034\340|\374\242\212\262\235\361\024g"
 124      C141571C 
 124      E07CFCA2 
 124      8AB29DF1 
 124      1467
 125 0385 8CAB76B0 		.ascii	"\214\253v\260\251\242\010\012\3639e^\0060o\2512/\007"
 125      A9A2080A 
 125      F339655E 
 125      06306FA9 
 125      322F07
 126 0398 1200B086 		.ascii	"\022\000\260\206\366q\345\3468A\010\231\242M\2468\035"
 126      F671E5E6 
 126      38410899 
 126      A24DA638 
 126      1D
 127 03a9 DF725756 		.ascii	"\337rWV\031>R\376\025\351\031\356V\031V$\334\"\034\333"
 127      193E52FE 
 127      15E919EE 
 127      56195624 
 127      DC221CDB 
 128 03bd 03705ADA 		.ascii	"\003pZ\332\225\240\347\355S1\252\200\031\000[I\273J"
 128      95A0E7ED 
 128      5331AA80 
 128      19005B49 
 128      BB4A
 129 03cf A66D17F3 		.ascii	"\246m\027\363\012\3231\373\376\313r\207j9\036Z\332x"
 129      0AD331FB 
 129      FECB7287 
 129      6A391E5A 
 129      DA78
 130 03e1 54FFC778 		.ascii	"T\377\307x8\324x\314\305\307c_\246\234\254\211\305\213"
 130      38D478CC 
 130      C5C7635F 
 130      A69CAC89 
 130      C58B
 131 03f3 8F474D7A 		.ascii	"\217GMz\361jU\361j\322\352\264\037\340\224\361\250\003"
 131      F16A55F1 
 131      6AD2EAB4 
 131      1FE094F1 
 131      A803
ARM GAS  /tmp/ccHNlLx5.s 			page 10


 132 0405 12006453 		.ascii	"\022\000dS'\253\250S\235L\321\251\306\343\246\3322\220"
 132      27ABA853 
 132      9D4CD1A9 
 132      C6E3A6DA 
 132      3290
 133 0417 5586F1F1 		.ascii	"U\206\361\361\250O\317\260AeX\2376\036\215\000\247\245"
 133      A84FCFB0 
 133      4165589F 
 133      361E8D00 
 133      A7A5
 134 0429 DD04FA94 		.ascii	"\335\004\372\224\361h\006f\000l%\355f\231\266K]gOo\342"
 134      F1680666 
 134      006C25ED 
 134      6699B64B 
 134      5D674F6F 
 135 043e ADCD7768 		.ascii	"\255\315wh\021wS\301\326\356&\233X%\017X\013:\025&\017"
 135      117753C1 
 135      D6EE269B 
 135      58250F58 
 135      0B3A1526 
 136 0453 989B5CE9 		.ascii	"\230\233\\\351`\325\377p~I\015Xk\246Y\311k\232\225\356"
 136      60D5FF70 
 136      7E490D58 
 136      6BA659C9 
 136      6B9A95EE 
 137 0467 6B55BAB6 		.ascii	"kU\272\266\364\362\037T\345o\023\346\237(\363C\000\247"
 137      F4F21F54 
 137      E56F13E6 
 137      9F28F343 
 137      00A7
 138 0479 0C583B90 		.ascii	"\014X;\220\000 \233J\333E5\332\231\363\312\247\363j"
 138      00209B4A 
 138      DB4535DA 
 138      99F3CAA7 
 138      F36A
 139 048b 9F8E4C43 		.ascii	"\237\216LC8\342i\3357\357(\377\303\202g\022\371N\320"
 139      38E269DD 
 139      37EF28FF 
 139      C3826712 
 139      F94ED0
 140 049e A78C4917 		.ascii	"\247\214I\027l\005@6\344\035\202|\227\354\217\207\254"
 140      6C054036 
 140      E41D827C 
 140      97EC8F87 
 140      AC
 141 04af E7F0D371 		.ascii	"\347\360\323q[my$\213<\022\333\323\235\336\236\036\325"
 141      5B6D7924 
 141      8B3C12DB 
 141      D39DDE9E 
 141      1ED5
 142 04c1 9EEEB40C 		.ascii	"\236\356\264\014\217\002\234\322\236^ \001\300V2\354"
 142      8F029CD2 
 142      9E5E2001 
 142      C05632EC 
 143 04d1 15ED89A7 		.ascii	"\025\355\211\247u,\213\251KlO\237\340\231D\276\037\364"
 143      752C8BA9 
 143      4B6C4F9F 
ARM GAS  /tmp/ccHNlLx5.s 			page 11


 143      E09944BE 
 143      1FF4
 144 04e3 29ED1980 		.ascii	")\355\031\200\255\000\330\312l\015\310\366x\331)~H\302"
 144      AD00D8CA 
 144      6C0DC8F6 
 144      78D9297E 
 144      48C2
 145 04f5 ABBF57AA 		.ascii	"\253\277W\252_\323\354\031\204c\011\030^\363\215\201"
 145      5FD3EC19 
 145      84630918 
 145      5EF38D81 
 146 0505 37262702 		.ascii	"7&'\002\223\023\303\201\341\321\320\351\320\271\311"
 146      9313C381 
 146      E1D1D0E9 
 146      D0B9C9
 147 0514 00FC8D06 		.ascii	"\000\374\215\006\307\002\257\237\2338?\031xa\360DSc"
 147      C702AF9F 
 147      9B383F19 
 147      7861F044 
 147      5363
 148 0526 E0F8F19E 		.ascii	"\340\370\361\236\300\2317\317\27726\366\352\201a\342"
 148      C09937CF 
 148      BF3236F6 
 148      EA8161E2 
 149 0536 1C1E0D8E 		.ascii	"\034\036\015\216\217\237\031;PO\307\365\263\301\311"
 149      8F9F193B 
 149      504FC7F5 
 149      B3C1C9
 150 0545 D774B4FD 		.ascii	"\327t\264\375\027(\3453\204"
 150      1728E533 
 150      84
 151              		.text
 152              		.section	.gnu.lto_ext_lld_channel_disable.142d968e0b77c7c7,"",%progbits
 153 0000 789C9D93 		.ascii	"x\234\235\223=H\303@\024\307\337\273Kkmii)\016n\342"
 153      3D48C340 
 153      14C7DFBB 
 153      4B6B6D69 
 153      69290E6E 
 154 0015 22281854 		.ascii	"\"(\030T\\\235\\\004\235\254\240\223\324(m\240~\320"
 154      5C9D5C04 
 154      9DACA093 
 154      D4286DA0 
 154      7ED0
 155 0027 2AB899DA 		.ascii	"*\270\231\332\272988\3705(\202\210 \2028\251\203:\351"
 155      BA393838 
 155      F8352882 
 155      88208238 
 155      A9833AE9 
 156 003b 50C1C1C5 		.ascii	"P\301\301\305\2518\024'A\\\034\204\372\3365\211\037"
 156      A9381427 
 156      415C1C84 
 156      FADE3589 
 156      1F
 157 004c 08D61EC9 		.ascii	"\010\326\036\311\377\222\367\356\376\357\227\273\213"
 157      FF92F7EE 
 157      FEEF97BB 
 157      8B
ARM GAS  /tmp/ccHNlLx5.s 			page 12


 158 0059 00013F5B 		.ascii	"\000\001?[#\335\367\022\240\207z\224\200b\345\026 \353"
 158      23DDF712 
 158      A0877A94 
 158      8062E516 
 158      20EB
 159 006b 1388FC00 		.ascii	"\023\210\374\000\010\013\002\027F\220\207b3\354X\326"
 159      080B0217 
 159      46908762 
 159      33EC58D6 
 160 007b 4A71A974 		.ascii	"Jq\251t)\327W/\362\333\326{\271\214h\"\331v#\030\010"
 160      29D7572F 
 160      F2DBD67B 
 160      B98C6822 
 160      D9762318 
 161 0090 C3F4824D 		.ascii	"\303\364\202M\252\023\332\367:G\342\242X.o\275\234,"
 161      AA13DAF7 
 161      3A47E2A2 
 161      582E6FBD 
 161      9C2C
 162 00a2 BFE3A968 		.ascii	"\277\343\251h\020`\242\2248\211\240A\034w\310\332C\021"
 162      1060A294 
 162      3889A041 
 162      1C77C8DA 
 162      4311
 163 00b4 F0B2D471 		.ascii	"\360\262\324q\316\307\342g\011\260\004YB,a\226\010K"
 163      CEC7E267 
 163      09B00459 
 163      422C6196 
 163      084B
 164 00c6 9485AC3D 		.ascii	"\224\205\254=\220'\254&`\002j1Rf\037B\301\275,\300\325"
 164      9027AC26 
 164      60026A31 
 164      52661F42 
 164      C1BD2CC0 
 165 00db C35AE946 		.ascii	"\303Z\351F\304q\027=\220@\321\006\007V>\0336Q\333\204"
 165      C471173D 
 165      9040D106 
 165      07563E1B 
 165      3651DB84 
 166 00ef 0D42F530 		.ascii	"\015B\3650\257\327z\313[\232B\367*\3401t\320\013\260"
 166      AFD77ACB 
 166      5B9A42F7 
 166      2AE03174 
 166      D00BB0
 167 0102 F89C7B44 		.ascii	"\370\234{Dg\276\226\340\252\005\310\035J'\244\034h\255"
 167      67BE96E0 
 167      AA05C81D 
 167      4A27A41C 
 167      68AD
 168 0114 28A9869F 		.ascii	"(\251\206\237\347\216\335\341^J\333\036{n\260.\301U"
 168      E78EDDE1 
 168      5E4ADB1E 
 168      7B6EB02E 
 168      C155
 169 0126 C8E3CCF5 		.ascii	"\310\343\314\365\360\021\031%8z\325W\011\376\017\224"
 169      F0111925 
 169      387AD557 
ARM GAS  /tmp/ccHNlLx5.s 			page 13


 169      09FE0F94 
 170 0136 2CD4E487 		.ascii	",\324\344\207\375\222[\307_\255\005\272\337\372\005"
 170      FD925BC7 
 170      5FAD05BA 
 170      DFFA05
 171 0145 29A040FD 		.ascii	")\240@\375\265 \241\215\024\250 ]\177\"\005\253\265"
 171      B520A18D 
 171      14A8205D 
 171      7F2205AB 
 171      B5
 172 0156 10BF2185 		.ascii	"\020\277!\205\024R\260\026$a#\205*HO\237H\341j-\344"
 172      1452B016 
 172      24612385 
 172      2A484F9F 
 172      48E16A2D 
 173 016b 6F481185 		.ascii	"oH\021\205\024\256\005I\332H\021\373\200\274n\265:\256"
 173      14AE0549 
 173      DA4811FB 
 173      80BC6EB5 
 173      3AAE
 174 017d 51FBD87C 		.ascii	"Q\373\330|\267\264\272\376\364\324l\317(\300\035d\213"
 174      B7B4BAFE 
 174      F4D46CCF 
 174      28C01D64 
 174      8B
 175 018e 472D95F9 		.ascii	"G-\225\371N\213\321\326\320_\301\213\321\251\317e\322"
 175      4E8BD1D6 
 175      D05FC18B 
 175      D1A9CF65 
 175      D2
 176 019f 7A266DE8 		.ascii	"z&m\350F\322\0343\2473:]\311xJ\237\231N\317f\364\301"
 176      46D21C33 
 176      A7333A5D 
 176      C9784A9F 
 176      994ECF66 
 177 01b5 D84057A7 		.ascii	"\330@W\247\336\337\337\253O\314\317\216\246R\343\355"
 177      DEDFDFAB 
 177      4FCCCF8E 
 177      A652E3ED 
 178 01c5 06D41BC9 		.ascii	"\006\324\033\311\370\324\324D\252\275\343\003\242\204"
 178      F8D4D444 
 178      AABDE303 
 178      A284
 179 01d3 EAB9     		.ascii	"\352\271"
 180              		.text
 181              		.section	.gnu.lto_ext_lld_start.142d968e0b77c7c7,"",%progbits
 182 0000 789C6D52 		.ascii	"x\234mRMh\023A\024~o&\373\2775\321\203\347\242\210`"
 182      4D681341 
 182      147E6F26 
 182      FBBF35D1 
 182      83E7A288 
 183 0015 A98B1505 		.ascii	"\251\213\025\005\361\352\261z1\001\305\203$\253$\013"
 183      F1EAB17A 
 183      3101C583 
 183      24AB240B 
 184 0025 914AD282 		.ascii	"\221J\322\202\342!\223n\204\\\204\340M\275\030z+B\017"
 184      E221936E 
ARM GAS  /tmp/ccHNlLx5.s 			page 14


 184      845C84E0 
 184      4DBD187A 
 184      2B420F
 185 0038 5AAAF552 		.ascii	"Z\252\365R\251\007+\370wk\325\303R\250-Z\360.B|\263"
 185      A9072BF8 
 185      776BD5C3 
 185      52A82D5A 
 185      F02E427C 
 186 004d BBB354CD 		.ascii	"\273\263T\315\220\274\231}\357\373\276\375\336\333a"
 186      90BC997D 
 186      EFFBBEFD 
 186      DEDB61
 187 005c C0E0DF75 		.ascii	"\300\340\337u\233\376g9\300i\332\321\005d\275\367\000"
 187      9BFE6739 
 187      C069DAD1 
 187      0564BDF7 
 187      00
 188 006d 6D9331FE 		.ascii	"m\2231\376\305\006a[\213\253\000\302\345h%y\013\035"
 188      C506615B 
 188      8BAB00C2 
 188      E5682579 
 188      0B1D
 189 007f 79408DE9 		.ascii	"y@\215\351\335\243T7dtu4\223\262\241\016f\202{e:L\373"
 189      DDA35437 
 189      64747534 
 189      93B2A10E 
 189      66827B65 
 190 0096 F996246C 		.ascii	"\371\226$l\273\317\011i#\312< \264\030\2674\3350\035"
 190      BBCF0969 
 190      23CA3C20 
 190      B418B734 
 190      DD301D
 191 00a9 1B5B9751 		.ascii	"\033[\227QZ\301C\320\027\342~\264\265\035\341\003\261"
 191      5AC143D0 
 191      17E27EB4 
 191      B51DE103 
 191      B1
 192 00ba D2792C7E 		.ascii	"\322y,~\017\006\210\001\222\355S\010>\302%z\300\321"
 192      0F068801 
 192      92ED5308 
 192      3EC2257A 
 192      C0D1
 193 00cc 7863B9BF 		.ascii	"xc\271\277\373X`+\321`\260\373\364\331\3462\356/ \224"
 193      FB58602B 
 193      D160B0FB 
 193      F4D9E632 
 193      EE2F2094 
 194 00e0 B14F7A2C 		.ascii	"\261Oz,\335u\274\201`@\200\334\246\220s(h\256\014\371"
 194      DD75BC81 
 194      604080DC 
 194      A6907328 
 194      68AE0CF9 
 195 00f4 14404B83 		.ascii	"\024@K\203\216\020\275Q\365\354\307\236\212\024\311"
 195      8E10BD51 
 195      F5ECC79E 
 195      8A14C9
 196 0103 7809196D 		.ascii	"x\011\031m\374\035\314~~\376}\035\3138\207\032T\321"
ARM GAS  /tmp/ccHNlLx5.s 			page 15


 196      FC1DCC7E 
 196      7EFE7D1D 
 196      CB38871A 
 196      54D1
 197 0115 18836301 		.ascii	"\030\203c\001\352\217\340!92\252\250Kgf\354\247\202"
 197      EA8FE021 
 197      3932AAA8 
 197      4B6766EC 
 197      A782
 198 0127 CAD91B78 		.ascii	"\312\331\033x\275\335\036\311(\022\242\343\036\347%"
 198      BDDD1EC9 
 198      2812A2E3 
 198      1EE725
 199 0136 E470867F 		.ascii	"\344p\206\177\2000\232\017\363\011\014\340\016\374\022"
 199      80309A0F 
 199      F3090CE0 
 199      0EFC12
 200 0145 5D5108D0 		.ascii	"]Q\010\320\3621\001\007h+\274%\275\000l\000\223b\224"
 200      F2310107 
 200      682BBC25 
 200      BD006C00 
 200      936294
 201 0158 E25F176B 		.ascii	"\342_\027k\351\221\305\010\015h\350\261\335\365\037"
 201      E991C508 
 201      0D68E8B1 
 201      DDF51F
 202 0167 3B995D3B 		.ascii	";\231];\266\233\033nWY\222\244\217\007\024\305\031\203"
 202      B69B1B6E 
 202      575992A4 
 202      8F0714C5 
 202      1983
 203 0179 7969C319 		.ascii	"yi\303\031\207'\242'D+@W\246\350x%\300\221Dj\037IK\251"
 203      8727A227 
 203      442B4057 
 203      A6E87825 
 203      C091446A 
 204 0191 5C2A95DC 		.ascii	"\\*\225\334\262j&Y\241\016\225x\3702\334dJ\335\245\027"
 204      B26A2659 
 204      A10E9578 
 204      F832DC64 
 204      4ADDA517 
 205 01a5 48A2968B 		.ascii	"H\242\226\213\347\324\331m\237\310Jq~\357\027.\241\016"
 205      E7D4D96D 
 205      9FC84A71 
 205      7EEF172E 
 205      A10E
 206 01b7 4B476850 		.ascii	"KGhPw\243\205\271\377\007\225\367\263\367\352Uyk\012"
 206      77A385B9 
 206      FF0795F7 
 206      B3F7EA55 
 206      796B0A
 207 01ca 8A6628DA 		.ascii	"\212f(\332\213\325\2414>\234f\2463\014\273\341\322\275"
 207      8BD5A134 
 207      3E9C66A6 
 207      330CBBE1 
 207      D2BD
 208 01dc 0BCA579E 		.ascii	"\013\312W\236@\361\250esk\220\266\222\\\032\252*\262"
ARM GAS  /tmp/ccHNlLx5.s 			page 16


 208      40F1A865 
 208      736B90B6 
 208      925C1AAA 
 208      2AB2
 209 01ee 0374CD71 		.ascii	"\003t\315q\015fi\274\252\210q\217\337\332\206\322J\204"
 209      0D6669BC 
 209      AA88718F 
 209      DFDA86D2 
 209      4A84
 210 0200 0E661D6E 		.ascii	"\016f\035n\000V\221Y\024\362\346\216%el\371\245?A;Z"
 210      00569159 
 210      14F2E68E 
 210      25656CF9 
 210      A53F413B 
 211 0215 3EAC9C27 		.ascii	">\254\234'\253Hj}.\033\236\360f\232\015\257\331\360"
 211      AB486A7D 
 211      2E1B9EF0 
 211      669A0DAF 
 211      D9F0
 212 0227 3DBF1654 		.ascii	"=\277\026T\202\251\246G\277Z\271\356\335\234jL7\275"
 212      82A9A647 
 212      BF5AB9EE 
 212      DD9C6A4C 
 212      37BD
 213 0239 8BC5F327 		.ascii	"\213\305\363''\274\311\311s\336\365[\323W\353\365k\307"
 213      27BCC9C9 
 213      73DEF55B 
 213      D357EBF5 
 213      6BC7
 214 024b 7DC0E00F 		.ascii	"}\300\340\017Q\222\313\003"
 214      5192CB03 
 215              		.text
 216              		.section	.gnu.lto_.symbol_nodes.142d968e0b77c7c7,"",%progbits
 217 0000 789C4DC8 		.ascii	"x\234M\310\275\015\202`\024\205\341s\317\345\202\003"
 217      BD0D8260 
 217      1485E173 
 217      CFE58203 
 218 0010 583A832B 		.ascii	"X:\203+\036\"\240\370S8\201\035[\330\221X:\202!\204"
 218      1E22A0F8 
 218      5338811D 
 218      5BD89158 
 218      3A822184 
 219 0024 CE1D8C85 		.ascii	"\316\035\214\205\206\217\267{^\202\350\360\217\015\005"
 219      868FB77B 
 219      5E82E8F0 
 219      8F0D05
 220 0033 5C9F8074 		.ascii	"\\\237\200tk-j\"\004\036(K\227-\305\005\217\224/\270"
 220      6B2D6A22 
 220      041E284B 
 220      972DC505 
 220      8F942FB8 
 221 0047 A7B2443B 		.ascii	"\247\262D;Q\361cY\232]\250<\351L\025\263\0349\252\341"
 221      51F16359 
 221      9A5DA83C 
 221      E94C15B3 
 221      1C39AAE1 
 222 005b 63CE02FD 		.ascii	"c\316\002\375}\343\261B?\254=\034c\367\332zd\330=\246"
ARM GAS  /tmp/ccHNlLx5.s 			page 17


 222      7DE3B142 
 222      3FAC3D1C 
 222      63F7DA7A 
 222      64D83DA6 
 223 006f 77E00B6F 		.ascii	"w\340\013o|/\366"
 223      7C2FF6
 224              		.text
 225              		.section	.gnu.lto_.refs.142d968e0b77c7c7,"",%progbits
 226 0000 789C6362 		.ascii	"x\234cb`b`e\200\000F\006&F\006\000\000\237\000\016"
 226      60626065 
 226      80004606 
 226      26460600 
 226      009F000E 
 227              		.text
 228              		.section	.gnu.lto_.decls.142d968e0b77c7c7,"",%progbits
 229 0000 789CAD58 		.ascii	"x\234\255Xml\024\307\031\236\231;\333w\341b>\032\214"
 229      6D6C14C7 
 229      199E993B 
 229      DB77E162 
 229      3E1A8C
 230 0013 DBFEE088 		.ascii	"\333\376\340\210\222H\245\037\327B\244\376\251P\252"
 230      9248A51F 
 230      D742A4FE 
 230      A950AA
 231 0022 C3044B31 		.ascii	"\303\004K1\261\356L\222\252?N\343\363Q\256=\316\256"
 231      B1EE4C92 
 231      AA3F4EE3 
 231      F351AE3D 
 231      CEAE
 232 0034 6F694DFF 		.ascii	"oiM\377t\211\201\246M\020\2064\004\004$6`\002\025\211"
 232      748981A6 
 232      4D108634 
 232      04042436 
 232      60021589 
 233 0048 94202850 		.ascii	"\224 (P>\326\304\301T4\221iK\"b\027\257p\002\375pUh"
 233      3ED6C4C1 
 233      54349169 
 233      4B226217 
 233      AF7002FD 
 234 005f EAA6B421 		.ascii	"\352\246\264!\327wfgow\347v\357\203v\345w\274\037\363"
 234      D7776667 
 234      6F77E776 
 234      EF8376E5 
 234      77BC1FF3 
 235 0073 3EEFF3BC 		.ascii	">\357\363\274\363\316\354\354\021D\220B\020\312\303"
 235      F3CEECEC 
 235      11449042 
 235      10CAC3
 236 0082 F1ED0684 		.ascii	"\361\355\006\204n\302y-Bh\011\230\017l\000\354\020\330"
 236      6EC2792D 
 236      42680998 
 236      0F6C00EC 
 236      10D8
 237 0094 28328E00 		.ascii	"(2\216\000\330\030\330\004\330u\260)\260[`\323`\037"
 237      D818D804 
 237      D875B029 
 237      B05B60D3 
ARM GAS  /tmp/ccHNlLx5.s 			page 18


 237      601F
 238 00a6 83DD06C3 		.ascii	"\203\335\006\303`\377A\316cL\340\335\021\230\272\270"
 238      60FF41CE 
 238      634CE0DD 
 238      1198BAB8 
 239 00b6 4FC4B369 		.ascii	"O\304\263i\017?\026'\010vX\360\330+\374?\005\033\007"
 239      0F3F1627 
 239      087658F0 
 239      D82BFC3F 
 239      051B07
 240 00c9 CB23C371 		.ascii	"\313#\303q6\230\037N\017\202\325\301y\015\330Ll\340"
 240      36981F4E 
 240      0F82D5C1 
 240      790DD84C 
 240      6CE0
 241 00db 4F086E0C 		.ascii	"O\010n\014\177R\302g\032@6\367\255\007\013\201\0153"
 241      7F52C267 
 241      1A4036F7 
 241      AD070B81 
 241      0D33
 242 00ed 0CB06360 		.ascii	"\014\260c`\227\205v3\356\034\000\371\014\330}`\277\024"
 242      97857633 
 242      EE1C00F9 
 242      0CD87D60 
 242      BF14
 243 00ff F1E7C279 		.ascii	"\361\347\302y#\330\027\260\305e!\330\027\261\301\375"
 243      23D817B0 
 243      C56521D8 
 243      17B1C1FD 
 244 010f 28D829B0 		.ascii	"(\330)\2607\301\026\260{`3\300.\"\203'\343\213\005\027"
 244      37C116B0 
 244      7B6033C0 
 244      2E228327 
 244      E38B0517 
 245 0123 C6F74F60 		.ascii	"\306\367O`\177\224xN\011Nv\236u\222\376\032\033\236"
 245      7F94784E 
 245      094E769E 
 245      7592FE1A 
 245      1B9E
 246 0135 1963A6C0 		.ascii	"\031c\246\300\236\022\372\377&\341\262\261\233\215\014"
 246      9E12FAFF 
 246      26E1B2B1 
 246      9B8D0C
 247 0144 5F13F7B0 		.ascii	"_\023\367\260\320^\347\221s9\007,Go#+\377v\275~\021"
 247      D05EE791 
 247      7339072C 
 247      476F232B 
 247      FF76BD7E 
 248 0159 E336B2EA 		.ascii	"\3436\262\352\205\361\370H\3421\003\375LU\237V\3737"
 248      85F1F848 
 248      E23103FD 
 248      4C559F56 
 248      FB37
 249 016b A9CB2FD4 		.ascii	"\251\313/\324\317A[U8\302\027\200\321S\230\342\372 "
 249      CF415B55 
 249      38C21780 
 249      D15398E2 
ARM GAS  /tmp/ccHNlLx5.s 			page 19


 249      FA20
 250 017d 7A849F84 		.ascii	"z\204\237\204\202\274\000\037D\373U\265O\337x}\324\247"
 250      82BC001F 
 250      44FB55B5 
 250      4FDF787D 
 250      D4A7
 251 018f AA018AF7 		.ascii	"\252\001\212\367\3429\2208H\377Bt\010\374\372T\365\332"
 251      E2399038 
 251      48FF4274 
 251      08FCFA54 
 251      F5DA
 252 01a1 E750F121 		.ascii	"\347P\361!`\373\037\361\302\245x?&\320\036\000<\212"
 252      60FB1FF1 
 252      C2A5783F 
 252      26D01E00 
 252      3C8A
 253 01b3 07F14223 		.ascii	"\007\361B#\222\252O\017ni\344\221\330\023$\236\271\034"
 253      92AA4F0F 
 253      6E69E491 
 253      D813249E 
 253      B91C
 254 01c5 0B503FA8 		.ascii	"\013P?\250\320\306F^\232\247\352\032\256C\233\230(}"
 254      D0C6465E 
 254      9AA7EA1A 
 254      AE439B98 
 254      287D
 255 01d7 E3D38D3B 		.ascii	"\343\323\215;\254\220\0013$\266\244|x\255Q\365S|\010"
 255      AC900133 
 255      24B6A47C 
 255      78AD51F5 
 255      537C08
 256 01ea 5C085A83 		.ascii	"\\\010Z\203\035\021*@a\224\016\203\257\235\264\226_"
 256      1D112A40 
 256      61940E83 
 256      AF9DB496 
 256      5F
 257 01fb 1736EE96 		.ascii	"\0276\356\226 \354c\005GP\017\346h\376\240u\253\027"
 257      20EC6305 
 257      47500FE6 
 257      68FEA075 
 257      AB17
 258 020d 17EE615B 		.ascii	"\027\356a[\317\347\254\333D`\260K\034\264N\362\330\021"
 258      CFE7ACDB 
 258      4460B04B 
 258      1CB44EF2 
 258      D811
 259 021f C2CE8CE2 		.ascii	"\302\316\214\342W\361\203\320\276\206}\256n\004\275"
 259      57F183D0 
 259      BE867DAE 
 259      6E04BD
 260 022e 88B11800 		.ascii	"\210\261\030\0007\235\342\324\212[o^\210\324\353\323"
 260      379DE2D4 
 260      8A5B6F5E 
 260      88D4EBD3 
 261 023e 1F6E59B2 		.ascii	"\037nY\262S\3256\370\334\012\012z`\333\330k3L\300\343"
 261      53D536F8 
 261      DC0A0A7A 
ARM GAS  /tmp/ccHNlLx5.s 			page 20


 261      60DBD86B 
 261      334CC0E3 
 262 0252 D6506827 		.ascii	"\326Ph'Fp\330\245\000\245\316\024\037\007%\345\373\261"
 262      4670D8A5 
 262      00A5CE14 
 262      1F0725E5 
 262      FBB1
 263 0264 9E27A572 		.ascii	"\236'\245r\322\366\214\204\330h\237\254\240\230T\355"
 263      D2F68C84 
 263      D8689FAC 
 263      A09854ED 
 264 0274 E8C86EAC 		.ascii	"\350\310n\254\366\237\303\263Q\237\210U\266\216\205"
 264      F69FC3B3 
 264      519F8855 
 264      B68E85
 265 0283 92ADA084 		.ascii	"\222\255\240\204\3423|r\354\301\316\242*\213\301\210"
 265      E2337C72 
 265      ECC1CEA2 
 265      2A8BC188 
 266 0293 0DC9C4AF 		.ascii	"\015\311\304\257\234\347\304\207*\232\005\267\316\357"
 266      9CE7C487 
 266      2A9A05B7 
 266      CEEF
 267 02a1 FE2C231E 		.ascii	"\376,#\036D\317X#Q\010\0266\203\371\255Yp\372\331\375"
 267      44CF5823 
 267      51081636 
 267      83F9AD59 
 267      70FAD9FD 
 268 02b5 5FE2D36C 		.ascii	"_\342\323l\030\263\362\272$q\256\034h\372\235\341\255"
 268      18B3F2BA 
 268      2471AE1C 
 268      68FA9DE1 
 268      AD
 269 02c6 B817469B 		.ascii	"\270\027F\233\342\021\016\365\014qBQ\\\027\264S\346"
 269      E2110EF5 
 269      0C714251 
 269      5C17B453 
 269      E6
 270 02d7 D7660786 		.ascii	"\327f\007\206W\027\264N\330\273q&\252\266;A\317\363"
 270      5717B44E 
 270      D8BB7126 
 270      AAB63B41 
 270      CFF3
 271 02e9 A043562D 		.ascii	"\240CV-;\250\226\257\345\177\334\331\314\023\350(\345"
 271      3BA896AF 
 271      E57FDCD9 
 271      CC13E828 
 271      E5
 272 02fa 06F4021F 		.ascii	"\006\364\002\0378X\023\260B\361\222\271\256\340\214"
 272      385813B0 
 272      42F192B9 
 272      AEE08C
 273 0309 E2DBB881 		.ascii	"\342\333\270\201\237\371\214\231J\361\000 \211\213\212"
 273      9FF98C99 
 273      4AF10020 
 273      898B8A
 274 0318 53A9BDBC 		.ascii	"S\251\275\274i.\033\362Q\236\306\035Ei\034\306w\223"
ARM GAS  /tmp/ccHNlLx5.s 			page 21


 274      692E1BF2 
 274      519EC61D 
 274      45691CC6 
 274      7793
 275 032a 478A57FA 		.ascii	"G\212W\372\012>%\202\237\335t\037\013\376\033 N\320"
 275      0A3E2582 
 275      9FDD741F 
 275      0BFE1B20 
 275      4ED0
 276 033c A014DC91 		.ascii	"\240\024\334\221\026C\256W*.\003\200{\271\026=#\350"
 276      1643AE57 
 276      2A2E0380 
 276      7BB9163D 
 276      23E8
 277 034e 48D5C316 		.ascii	"H\325\303\026.\202\265\341[\223\210\342s|\365{\023/"
 277      2E82B5E1 
 277      5B9388E2 
 277      737CF57B 
 277      132F
 278 0360 80F622B4 		.ascii	"\200\366\"\264r\016\\\026\217\323x6*\214\230ZP\013]"
 278      720E5C16 
 278      8FD37836 
 278      2A8C985A 
 278      500B5D
 279 0373 BCC4BE27 		.ascii	"\274\304\276'\206\244\300T\2344 S\3411\256\360\244\245"
 279      86A4C054 
 279      9C342053 
 279      E131AEF0 
 279      A4A5
 280 0385 508A5BA2 		.ascii	"P\212[\2424m\302\014I\277\342\222N\331\305\020t\266"
 280      346DC20C 
 280      49BFE292 
 280      4ED9C510 
 280      74B6
 281 0397 A84E8CB5 		.ascii	"\250N\214\265\316\346m-\212H\366\367\022v\014F\252\020"
 281      CEE66D2D 
 281      8A48F6F7 
 281      12760C46 
 281      AA10
 282 03a9 E2D7447A 		.ascii	"\342\327DzQ\374o\243t\3006J\257pI\007\371(\035\255\204"
 282      51FC6FA3 
 282      74C0364A 
 282      AF704907 
 282      F9281DAD 
 283 03be D880456C 		.ascii	"\330\200El>zI\355\327\365K\357\016S\366\032R\363\371"
 283      3E7A49ED 
 283      D7F54BEF 
 283      0E53F61A 
 283      52F3F9
 284 03d1 1FA3CAA7 		.ascii	"\037\243\312\247\354\270\230\262\326\374\200\027\261"
 284      ECB898B2 
 284      D6FC8017 
 284      B1
 285 03de 0F4BB5FB 		.ascii	"\017K\265\373\020\032dx\352A\325\307\321X\3771<\337"
 285      101A6478 
 285      EA41D5C7 
 285      D158FF31 
ARM GAS  /tmp/ccHNlLx5.s 			page 22


 285      3CDF
 286 03f0 29E80F98 		.ascii	")\350\017\230\330o\030\274\264\355#\241\276\365z>?\277"
 286      D86F18BC 
 286      B4ED23A1 
 286      BEF57A3E 
 286      3FBF
 287 0402 724EBADB 		.ascii	"rN\272\3332\342\230\300\004\365I\034\037@\373Tu\233"
 287      32E298C0 
 287      04F5491C 
 287      1F40FB54 
 287      759B
 288 0414 7AA763B9 		.ascii	"z\247c\271\321\035\336?\274\307\004\260t\213SH\241\220"
 288      D11DDE3F 
 288      BCC704B0 
 288      748B5348 
 288      A190
 289 0426 B659DD38 		.ascii	"\266Y\3358\013\027\264M\310\332\256\025k\323oj7Mm\306"
 289      0B17B44D 
 289      C8DAAE15 
 289      6BD36F6A 
 289      374D6DC6 
 290 043a 5A40D05E 		.ascii	"Z@\320^wV\257\247\226\233\">\340\333\275\353\245Y\011"
 290      7756AFA7 
 290      969B223E 
 290      E0DBBDEB 
 290      A55909
 291 044d B78F999B 		.ascii	"\267\217\231\233\261\014\236\340\300\336n\243\306\014"
 291      B10C9EE0 
 291      C0DE6EA3 
 291      C60C
 292 045b 7415735D 		.ascii	"t\025s]\026s\303U\314\266w$1C\356b\216\310b\246*\022"
 292      1673C355 
 292      CCB67724 
 292      3143EE62 
 292      8EC862A6 
 293 0471 73DB1443 		.ascii	"s\333\024C\361\237\313\270\225\0223%\213\371\253k\325"
 293      F19FCBB8 
 293      95123325 
 293      8BF9AB6B 
 293      D5
 294 0482 9D3A5F10 		.ascii	"\235:_\020\243s1W\334\305\344;$1\267\356\252^n\311\254"
 294      A3733157 
 294      DCC5E43B 
 294      2431B7EE 
 294      AA5E6EC9 
 295 0497 FEEE92E2 		.ascii	"\376\356\222\342>\375\255}Cx\247z\316\230\243&\263\033"
 295      3EFDAD7D 
 295      4378A77A 
 295      CE98A326 
 295      B31B
 296 04a9 45B3CD80 		.ascii	"E\263\315\200\370\247+\304\373\023\037\020\033\3048"
 296      F8A72BC4 
 296      FB131F10 
 296      1BC438
 297 04b8 8778C3EF 		.ascii	"\207x\303\357\016\361/7\010\255\357\342s*6\263c\000"
 297      0EF12F37 
 297      08ADEFE2 
ARM GAS  /tmp/ccHNlLx5.s 			page 23


 297      732A36B3 
 297      6300
 298 04ca 5CF400F8 		.ascii	"\\\364\000\370\267\023\340~4\240\352\243\372\245\355"
 298      B713E07E 
 298      34A0EAA3 
 298      FAA5ED
 299 04d9 AF7E7E3D 		.ascii	"\257~~=[j\324O\362y\214\315\257\241\311\002\210\327"
 299      5B6AD44F 
 299      F2798CCD 
 299      AFA1C902 
 299      88D7
 300 04eb EEEE130B 		.ascii	"\356\356\023\013Nz\225\352%^\245w\254\265N\362\032/"
 300      4E7A95EA 
 300      255EA577 
 300      ACB54EF2 
 300      1A2F
 301 04fd E1F5A9E5 		.ascii	"\341\365\251\345\305_d\275%\267\036\024\277\305\227"
 301      C55F64BD 
 301      25B71E14 
 301      BFC597
 302 050c E0F27B09 		.ascii	"\340\362{\011\267\01586\241\032QaCx\344\206\376#c?\250"
 302      B70D3836 
 302      A11A5161 
 302      4378E486 
 302      FE23633F 
 303 0521 12969D9D 		.ascii	"\022\226\235\2355\256\333ao\034F\252\227H\333\341\023"
 303      35AEDB61 
 303      6F1C46AA 
 303      9748DBE1 
 303      13
 304 0532 57F97698 		.ascii	"W\371v\230\335/\263\035\336\320\253\235\276\372s\276"
 304      DD2FB31D 
 304      DED0AB9D 
 304      BEFA73BE 
 305 0542 9BA338CF 		.ascii	"\233\2438\317\027\221\003\234\002\363\275\213\335!\340"
 305      1791039C 
 305      02F3BD8B 
 305      DD21E0
 306 0551 9DB91AEA 		.ascii	"\235\271\032\352\243&\330/\252\006\013;\300F\355`\257"
 306      A326D82F 
 306      AA060B3B 
 306      C046ED60 
 306      AF
 307 0562 550216F0 		.ascii	"U\002\026\360f\366[;\330\221\252\301\234\314~o\007;"
 307      66F65B3B 
 307      D891AAC1 
 307      9CCC7E6F 
 307      073B
 308 0574 5E09D82C 		.ascii	"^\011\330,of\357\332\301\316T\015\026v\033^TT\035\024"
 308      6F66EFDA 
 308      C1CE540D 
 308      16761B5E 
 308      54541D14 
 309 0588 6F20AC7C 		.ascii	"o \254|7\022\266\203\370\011o\177\312\333gy\273\231"
 309      3712B683 
 309      F8096F7F 
 309      CADB6779 
ARM GAS  /tmp/ccHNlLx5.s 			page 24


 309      BB99
 310 059a B75B886D 		.ascii	"\267[\210mg!M%\325\203\024\213\263\2258\247\022\363"
 310      67214D25 
 310      D583148B 
 310      B39538A7 
 310      12F3
 311 05ac D2FE7F53 		.ascii	"\322\376\177S\251_s|#K\277\217\234\345`C\216\275\233"
 311      A95F737C 
 311      234BBF8F 
 311      9CE56043 
 311      8EBD9B
 312 05bf CB76D6FA 		.ascii	"\313v\326\372V\245\370y\342\265\315\264oo\255m\253\303"
 312      56A5F879 
 312      E2B5CDB4 
 312      6F6FAD6D 
 312      ABC3
 313 05d1 998D9470 		.ascii	"\231\215\224pV\261sL\354\335\206\275\273Q\274\235T\273"
 313      56B1734C 
 313      ECDD86BD 
 313      BB51BC9D 
 313      54BB
 314 05e3 837E91B8 		.ascii	"\203~\221\270\357\240\255-\217\275\227\333\342\321O"
 314      EFA0AD2D 
 314      8FBD97DB 
 314      E2D14F
 315 05f2 4C9F0750 		.ascii	"L\237\007P\341k\346\243I\376#\317\016\276\002\015\225"
 315      E16BE6A3 
 315      49FE23CF 
 315      0EBE020D 
 315      95
 316 0603 5F819C20 		.ascii	"_\201\234 ,\344.y\005\272<y\001\363/\346]\025\255AW"
 316      2CE42E79 
 316      05BA3C79 
 316      01F32FE6 
 316      5D15AD41 
 317 0618 262F10FE 		.ascii	"&/\020\376\353\2109\007F9\213]w\275\010\275\317\342"
 317      EB883907 
 317      46398B5D 
 317      77BD08BD 
 317      CFE2
 318 062a 6F0B9970 		.ascii	"o\013\231p\357U\015\027\266\301\255\327\306'\003\034"
 318      EF550D17 
 318      B6C1ADD7 
 318      C627031C 
 319 063a ED051832 		.ascii	"\355\005\0302\202\306d4\347\330\226Y\210 ;W9\234(\024"
 319      82C66434 
 319      E7D89659 
 319      88203B57 
 319      399C2814 
 320 064e F65387A3 		.ascii	"\366S\207\243R\212^\210\373\253.\224A\217B1\177\001"
 320      528A5E88 
 320      FBAB2E94 
 320      418F4231 
 320      7F01
 321 0660 23E89AAC 		.ascii	"#\350\232\254\301\021\325\361\202qM\360Mg\202\377RI"
 321      C111D5F1 
 321      82714DF0 
ARM GAS  /tmp/ccHNlLx5.s 			page 25


 321      4D6782FF 
 321      5249
 322 0672 82C32E70 		.ascii	"\202\303.pn\207\275\236(\336\315\327\254=|mz\231\267"
 322      6E87BD9E 
 322      28DECDD7 
 322      AC3D7C6D 
 322      7A99B7
 323 0685 03BCDDC7 		.ascii	"\003\274\335\307\333WJ\254V;J\254V\207H\361vA\253\366"
 323      DB574AAC 
 323      563B4AAC 
 323      568748F1 
 323      7641ABF6 
 324 0699 7BBD424F 		.ascii	"{\275BO\212\177\307\227'\371k\377\241\310\332\\w$\327"
 324      8A7FC797 
 324      27F96BFF 
 324      A1C8DA5C 
 324      7724D7
 325 06ac 9D8C2457 		.ascii	"\235\214$W\247\333\323\235\271\010\374\255\246\231H"
 325      A7DBD39D 
 325      B908FCAD 
 325      A69948
 326 06bb 3A9BCCAC 		.ascii	":\233\314\254\355HER=\312WV\243`\323SmK\273\323?Hu\327"
 326      ED484552 
 326      3DCA5756 
 326      A360D353 
 326      6D4BBBD3 
 327 06d3 3EBA6265 		.ascii	">\272be8\212\026y\371uuv+\271H\274\255e\361\242\310"
 327      388A1679 
 327      F9757576 
 327      2BB948BC 
 327      AD65F1A2 
 328 06e8 638F2D65 		.ascii	"c\217-e\376\211L\246\0030\356\201\323\234B\225TB\271"
 328      FE894CA6 
 328      0330EE81 
 328      D39C4295 
 328      5442B9
 329 06fb 07E0122B 		.ascii	"\007\340\022+W4\257hn\013\260\323x\333\343\255\374\336"
 329      5734AF68 
 329      6E0BB0D3 
 329      78DBE3AD 
 329      FCDE
 330 070d 37A36DCD 		.ascii	"7\243m\315O4\325\360n\263\340Ft5\315fS\231hgvU\372;"
 330      4F34D5F0 
 330      6EB3E046 
 330      7435CD66 
 330      53996867 
 331 0725 F7F39826 		.ascii	"\367\363\230&\261l\352\207\231t{$\267.\027I\344\224"
 331      B16CEA87 
 331      99747B24 
 331      B72E1749 
 331      E494
 332 0737 8E7496F1 		.ascii	"\216t\226\361\014\254\205\377\213\027%\224/\273\365"
 332      0CAC85FF 
 332      8B172594 
 332      2FBBF5
 333 0746 5D43816C 		.ascii	"]C\201l6\025It\244V\321\265\031%\241\254\353J\345\030"
 333      36154974 
ARM GAS  /tmp/ccHNlLx5.s 			page 26


 333      A456D1B5 
 333      1925A1AC 
 333      EB4AE518 
 334 075a B544C274 		.ascii	"\265D\302t\364\257\351\354H\205R=]I#tB\271\027x'i&\323"
 334      F4AFE9EC 
 334      4885523D 
 334      5D492374 
 334      42B91778 
 335 0772 4E93DF4B 		.ascii	"N\223\337K($\331\036\020\217r,+\006\265\332$\377WuV"
 335      2824D91E 
 335      108F722C 
 335      2B06B5DA 
 335      24FF5775 
 336 0787 9228244E 		.ascii	"\222($N\023\351lZ)\\\344\224\316.?\\t5\230wL:\251,m"
 336      13E96C5A 
 336      295CE494 
 336      CE2E3F5C 
 336      74359877 
 337 07a0 CFA4EAC4 		.ascii	"\317\244\352\304\345<\371qG:\307\236\337k\001\321n\256"
 337      E53CF971 
 337      473AC79E 
 337      DF6B01D1 
 337      6EAE
 338 07b2 E0F1F6EF 		.ascii	"\340\361\366\357\246\222J3\004\371F%$y\273\354\341\236"
 338      A6924A33 
 338      04F94625 
 338      2479BBEC 
 338      E19E
 339 07c4 9E48815F 		.ascii	"\236H\201_\256\0332\325h^\302\377"
 339      AE1B32D5 
 339      685EC2FF 
 340 07d0 7422DDFD 		.ascii	"t\"\335\375}3\342\274\242\007\006\323\032V9_\213\270"
 340      7D33E2BC 
 340      A20706D3 
 340      1A56395F 
 340      8BB8
 341 07e2 C5849E91 		.ascii	"\305\204\236\221hK\2749\016\321\"9e\315\342E\253\036"
 341      684BBC39 
 341      0ED12239 
 341      65CDE245 
 341      AB1E
 342 07f4 FEEAD77B 		.ascii	"\376\352\327{z L\010\274\232\023m0<KS\253|\315-1_SK"
 342      7A204C08 
 342      BC9A136D 
 342      303C4B53 
 342      AB7CCD2D 
 343 080c CC1F6B8B 		.ascii	"\314\037k\213\307\374\313\240\251\211?\331\334\024#"
 343      C7FCCBA0 
 343      A9893FD9 
 343      DC1423
 344 081b ADB1FAF8 		.ascii	"\255\261\372\370\267\342\321e\217\232=k[\240[K\253\257"
 344      B7E2D165 
 344      8F9A3D6B 
 344      5BA05B4B 
 344      ABAF
 345 082d B5255ACB 		.ascii	"\265%Z\313\020\242\261@\254)\336\024{\242iiM\264\245"
 345      10A2B140 
ARM GAS  /tmp/ccHNlLx5.s 			page 27


 345      AC29DE14 
 345      7BA26969 
 345      4DB4A5
 346 0840 351AFB2F 		.ascii	"5\032\373/\270\365F\373"
 346      B8F546FB 
 347              		.text
 348              		.section	.gnu.lto_.symtab.142d968e0b77c7c7,"",%progbits
 349 0000 6578745F 		.ascii	"ext_lld_init\000\000\000\000\000\000\000\000\000\000"
 349      6C6C645F 
 349      696E6974 
 349      00000000 
 349      00000000 
 350 0016 0000DB00 		.ascii	"\000\000\333\000\000\000EXTD1\000\000\000\000\000\000"
 350      00004558 
 350      54443100 
 350      00000000 
 350      00
 351 0027 00000000 		.ascii	"\000\000\000\000\000\000\373\000\000\000ext_lld_sto"
 351      0000FB00 
 351      00006578 
 351      745F6C6C 
 351      645F7374 
 352 003c 70000000 		.ascii	"p\000\000\000\000\000\000\000\000\000\000\000\000\337"
 352      00000000 
 352      00000000 
 352      00DF
 353 004a 00000065 		.ascii	"\000\000\000ext_lld_channel_enable\000\000\000\000\000"
 353      78745F6C 
 353      6C645F63 
 353      68616E6E 
 353      656C5F65 
 354 0068 00000000 		.ascii	"\000\000\000\000\000\000\000\346\000\000\000ext_lld"
 354      000000E6 
 354      00000065 
 354      78745F6C 
 354      6C64
 355 007a 5F636861 		.ascii	"_channel_disable\000\000\000\000\000\000\000\000\000"
 355      6E6E656C 
 355      5F646973 
 355      61626C65 
 355      00000000 
 356 0093 000000EC 		.ascii	"\000\000\000\354\000\000\000ext_lld_start\000\000\000"
 356      00000065 
 356      78745F6C 
 356      6C645F73 
 356      74617274 
 357 00aa 00000000 		.ascii	"\000\000\000\000\000\000\000\000\000\361\000\000\000"
 357      00000000 
 357      00F10000 
 357      00
 358 00b7 6578744F 		.ascii	"extObjectInit\000\000\002\000\000\000\000\000\000\000"
 358      626A6563 
 358      74496E69 
 358      74000002 
 358      00000000 
 359 00ce 0000F500 		.ascii	"\000\000\365\000\000\000ext_lld_exti_irq_disable\000"
 359      00006578 
ARM GAS  /tmp/ccHNlLx5.s 			page 28


 359      745F6C6C 
 359      645F6578 
 359      74695F69 
 360 00ed 00020000 		.ascii	"\000\002\000\000\000\000\000\000\000\000\000\367\000"
 360      00000000 
 360      000000F7 
 360      00
 361 00fa 00006578 		.ascii	"\000\000ext_lld_exti_irq_enable\000\000\002\000\000"
 361      745F6C6C 
 361      645F6578 
 361      74695F69 
 361      72715F65 
 362 0118 00000000 		.ascii	"\000\000\000\000\000\000\000\371\000\000\000"
 362      000000F9 
 362      000000
 363              		.text
 364              		.section	.gnu.lto_.opts,"",%progbits
 365 0000 272D6D63 		.ascii	"'-mcpu=cortex-m4' '-mno-thumb-interwork' '-mthumb' "
 365      70753D63 
 365      6F727465 
 365      782D6D34 
 365      2720272D 
 366 0033 272D6767 		.ascii	"'-ggdb' '-O2' '-fomit-frame-pointer' '-falign-funct"
 366      64622720 
 366      272D4F32 
 366      2720272D 
 366      666F6D69 
 367 0066 696F6E73 		.ascii	"ions=16' '-ffunction-sections' '-fdata-sections' '-"
 367      3D313627 
 367      20272D66 
 367      66756E63 
 367      74696F6E 
 368 0099 666E6F2D 		.ascii	"fno-common' '-flto'\000"
 368      636F6D6D 
 368      6F6E2720 
 368      272D666C 
 368      746F2700 
 369              		.text
 370              		.cfi_sections	.debug_frame
 371              		.section	.text.ext_lld_init,"ax",%progbits
 372              		.align	2
 373              		.p2align 4,,15
 374              		.global	ext_lld_init
 375              		.thumb
 376              		.thumb_func
 377              		.type	ext_lld_init, %function
 378              	ext_lld_init:
 379              	.LFB260:
 380              		.file 1 "/usr/src/chibios/os/hal/ports/STM32/LLD/ext_lld.c"
 381              		.loc 1 65 0
 382              		.cfi_startproc
 383              		@ args = 0, pretend = 0, frame = 0
 384              		@ frame_needed = 0, uses_anonymous_args = 0
 385              		@ link register save eliminated.
 386              		.loc 1 68 0
 387 0000 0148     		ldr	r0, .L2
 388 0002 FFF7FEBF 		b	extObjectInit
ARM GAS  /tmp/ccHNlLx5.s 			page 29


 389              	.LVL0:
 390              	.L3:
 391 0006 00BF     		.align	2
 392              	.L2:
 393 0008 00000000 		.word	.LANCHOR0
 394              		.cfi_endproc
 395              	.LFE260:
 396              		.size	ext_lld_init, .-ext_lld_init
 397              		.section	.text.ext_lld_stop,"ax",%progbits
 398              		.align	2
 399              		.p2align 4,,15
 400              		.global	ext_lld_stop
 401              		.thumb
 402              		.thumb_func
 403              		.type	ext_lld_stop, %function
 404              	ext_lld_stop:
 405              	.LFB262:
 406              		.loc 1 99 0
 407              		.cfi_startproc
 408              		@ args = 0, pretend = 0, frame = 0
 409              		@ frame_needed = 0, uses_anonymous_args = 0
 410              	.LVL1:
 411 0000 08B5     		push	{r3, lr}
 412              		.cfi_def_cfa_offset 8
 413              		.cfi_offset 3, -8
 414              		.cfi_offset 14, -4
 415              		.loc 1 101 0
 416 0002 0378     		ldrb	r3, [r0]	@ zero_extendqisi2
 417 0004 022B     		cmp	r3, #2
 418 0006 07D0     		beq	.L7
 419              	.LVL2:
 420              	.L5:
 421              		.loc 1 104 0
 422 0008 054B     		ldr	r3, .L8
 423 000a 0022     		movs	r2, #0
 424              		.loc 1 106 0
 425 000c 4FF0FF31 		mov	r1, #-1
 426              		.loc 1 104 0
 427 0010 5A60     		str	r2, [r3, #4]
 428              		.loc 1 105 0
 429 0012 1A60     		str	r2, [r3]
 430              		.loc 1 106 0
 431 0014 5961     		str	r1, [r3, #20]
 432 0016 08BD     		pop	{r3, pc}
 433              	.LVL3:
 434              	.L7:
 435              		.loc 1 102 0
 436 0018 FFF7FEFF 		bl	ext_lld_exti_irq_disable
 437              	.LVL4:
 438 001c F4E7     		b	.L5
 439              	.L9:
 440 001e 00BF     		.align	2
 441              	.L8:
 442 0020 003C0140 		.word	1073822720
 443              		.cfi_endproc
 444              	.LFE262:
 445              		.size	ext_lld_stop, .-ext_lld_stop
ARM GAS  /tmp/ccHNlLx5.s 			page 30


 446              		.section	.text.ext_lld_channel_enable,"ax",%progbits
 447              		.align	2
 448              		.p2align 4,,15
 449              		.global	ext_lld_channel_enable
 450              		.thumb
 451              		.thumb_func
 452              		.type	ext_lld_channel_enable, %function
 453              	ext_lld_channel_enable:
 454              	.LFB263:
 455              		.loc 1 120 0
 456              		.cfi_startproc
 457              		@ args = 0, pretend = 0, frame = 0
 458              		@ frame_needed = 0, uses_anonymous_args = 0
 459              		@ link register save eliminated.
 460              	.LVL5:
 461              		.loc 1 123 0
 462 0000 0F29     		cmp	r1, #15
 463              		.loc 1 120 0
 464 0002 F0B4     		push	{r4, r5, r6, r7}
 465              		.cfi_def_cfa_offset 16
 466              		.cfi_offset 4, -16
 467              		.cfi_offset 5, -12
 468              		.cfi_offset 6, -8
 469              		.cfi_offset 7, -4
 470              		.loc 1 123 0
 471 0004 20D9     		bls	.L11
 472 0006 4368     		ldr	r3, [r0, #4]
 473 0008 53F83100 		ldr	r0, [r3, r1, lsl #3]
 474              	.LVL6:
 475              		.loc 1 141 0
 476 000c C207     		lsls	r2, r0, #31
 477 000e 34D5     		bpl	.L13
 478              	.L19:
 479              		.loc 1 142 0
 480 0010 224C     		ldr	r4, .L20
 481 0012 0122     		movs	r2, #1
 482 0014 A568     		ldr	r5, [r4, #8]
 483 0016 8A40     		lsls	r2, r2, r1
 484 0018 1543     		orrs	r5, r5, r2
 485 001a A560     		str	r5, [r4, #8]
 486 001c D443     		mvns	r4, r2
 487              	.L14:
 488              		.loc 1 145 0
 489 001e 10F0020F 		tst	r0, #2
 490              		.loc 1 146 0
 491 0022 1E48     		ldr	r0, .L20
 492              		.loc 1 151 0
 493 0024 03EBC101 		add	r1, r3, r1, lsl #3
 494              	.LVL7:
 495              		.loc 1 146 0
 496 0028 C568     		ldr	r5, [r0, #12]
 497              		.loc 1 151 0
 498 002a 4B68     		ldr	r3, [r1, #4]
 499              		.loc 1 146 0
 500 002c 14BF     		ite	ne
 501 002e 1543     		orrne	r5, r2, r5
 502              		.loc 1 148 0
ARM GAS  /tmp/ccHNlLx5.s 			page 31


 503 0030 2540     		andeq	r5, r4, r5
 504 0032 C560     		str	r5, [r0, #12]
 505              		.loc 1 151 0
 506 0034 4BB3     		cbz	r3, .L17
 507              		.loc 1 152 0
 508 0036 194B     		ldr	r3, .L20
 509 0038 1968     		ldr	r1, [r3]
 510 003a 0A43     		orrs	r2, r2, r1
 511 003c 1A60     		str	r2, [r3]
 512              		.loc 1 153 0
 513 003e 5A68     		ldr	r2, [r3, #4]
 514 0040 1440     		ands	r4, r4, r2
 515 0042 5C60     		str	r4, [r3, #4]
 516              		.loc 1 183 0
 517 0044 F0BC     		pop	{r4, r5, r6, r7}
 518 0046 7047     		bx	lr
 519              	.LVL8:
 520              	.L11:
 521 0048 21F00302 		bic	r2, r1, #3
 522              	.LBB2:
 523              		.loc 1 126 0
 524 004c 4368     		ldr	r3, [r0, #4]
 525 004e 02F18042 		add	r2, r2, #1073741824
 526 0052 02F59C32 		add	r2, r2, #79872
 527 0056 53F83100 		ldr	r0, [r3, r1, lsl #3]
 528              	.LVL9:
 529              		.loc 1 133 0
 530 005a 9768     		ldr	r7, [r2, #8]
 531              		.loc 1 125 0
 532 005c 01F00304 		and	r4, r1, #3
 533 0060 A400     		lsls	r4, r4, #2
 534              	.LVL10:
 535 0062 0F25     		movs	r5, #15
 536 0064 A540     		lsls	r5, r5, r4
 537              		.loc 1 127 0
 538 0066 C0F30316 		ubfx	r6, r0, #4, #4
 539              		.loc 1 133 0
 540 006a 27EA0505 		bic	r5, r7, r5
 541              		.loc 1 126 0
 542 006e 06FA04F4 		lsl	r4, r6, r4
 543              	.LVL11:
 544              		.loc 1 133 0
 545 0072 2C43     		orrs	r4, r4, r5
 546 0074 9460     		str	r4, [r2, #8]
 547              	.LBE2:
 548              		.loc 1 141 0
 549 0076 C207     		lsls	r2, r0, #31
 550 0078 CAD4     		bmi	.L19
 551              	.LVL12:
 552              	.L13:
 553              		.loc 1 144 0
 554 007a 084D     		ldr	r5, .L20
 555 007c 0122     		movs	r2, #1
 556 007e AE68     		ldr	r6, [r5, #8]
 557 0080 8A40     		lsls	r2, r2, r1
 558 0082 D443     		mvns	r4, r2
 559 0084 2640     		ands	r6, r6, r4
ARM GAS  /tmp/ccHNlLx5.s 			page 32


 560 0086 AE60     		str	r6, [r5, #8]
 561 0088 C9E7     		b	.L14
 562              	.LVL13:
 563              	.L17:
 564              		.loc 1 156 0
 565 008a 044B     		ldr	r3, .L20
 566 008c 5968     		ldr	r1, [r3, #4]
 567 008e 0A43     		orrs	r2, r2, r1
 568 0090 5A60     		str	r2, [r3, #4]
 569              		.loc 1 157 0
 570 0092 1A68     		ldr	r2, [r3]
 571 0094 1440     		ands	r4, r4, r2
 572 0096 1C60     		str	r4, [r3]
 573              		.loc 1 183 0
 574 0098 F0BC     		pop	{r4, r5, r6, r7}
 575 009a 7047     		bx	lr
 576              	.L21:
 577              		.align	2
 578              	.L20:
 579 009c 003C0140 		.word	1073822720
 580              		.cfi_endproc
 581              	.LFE263:
 582              		.size	ext_lld_channel_enable, .-ext_lld_channel_enable
 583              		.section	.text.ext_lld_channel_disable,"ax",%progbits
 584              		.align	2
 585              		.p2align 4,,15
 586              		.global	ext_lld_channel_disable
 587              		.thumb
 588              		.thumb_func
 589              		.type	ext_lld_channel_disable, %function
 590              	ext_lld_channel_disable:
 591              	.LFB264:
 592              		.loc 1 193 0
 593              		.cfi_startproc
 594              		@ args = 0, pretend = 0, frame = 0
 595              		@ frame_needed = 0, uses_anonymous_args = 0
 596              		@ link register save eliminated.
 597              	.LVL14:
 598              		.loc 1 200 0
 599 0000 094B     		ldr	r3, .L23
 600 0002 0122     		movs	r2, #1
 601 0004 1868     		ldr	r0, [r3]
 602              	.LVL15:
 603 0006 02FA01F1 		lsl	r1, r2, r1
 604              	.LVL16:
 605 000a CA43     		mvns	r2, r1
 606 000c 1040     		ands	r0, r0, r2
 607 000e 1860     		str	r0, [r3]
 608              		.loc 1 201 0
 609 0010 5868     		ldr	r0, [r3, #4]
 610 0012 1040     		ands	r0, r0, r2
 611 0014 5860     		str	r0, [r3, #4]
 612              		.loc 1 202 0
 613 0016 9868     		ldr	r0, [r3, #8]
 614 0018 1040     		ands	r0, r0, r2
 615 001a 9860     		str	r0, [r3, #8]
 616              		.loc 1 203 0
ARM GAS  /tmp/ccHNlLx5.s 			page 33


 617 001c D868     		ldr	r0, [r3, #12]
 618 001e 0240     		ands	r2, r2, r0
 619 0020 DA60     		str	r2, [r3, #12]
 620              		.loc 1 204 0
 621 0022 5961     		str	r1, [r3, #20]
 622 0024 7047     		bx	lr
 623              	.L24:
 624 0026 00BF     		.align	2
 625              	.L23:
 626 0028 003C0140 		.word	1073822720
 627              		.cfi_endproc
 628              	.LFE264:
 629              		.size	ext_lld_channel_disable, .-ext_lld_channel_disable
 630              		.section	.text.ext_lld_start,"ax",%progbits
 631              		.align	2
 632              		.p2align 4,,15
 633              		.global	ext_lld_start
 634              		.thumb
 635              		.thumb_func
 636              		.type	ext_lld_start, %function
 637              	ext_lld_start:
 638              	.LFB261:
 639              		.loc 1 78 0
 640              		.cfi_startproc
 641              		@ args = 0, pretend = 0, frame = 0
 642              		@ frame_needed = 0, uses_anonymous_args = 0
 643              	.LVL17:
 644 0000 38B5     		push	{r3, r4, r5, lr}
 645              		.cfi_def_cfa_offset 16
 646              		.cfi_offset 3, -16
 647              		.cfi_offset 4, -12
 648              		.cfi_offset 5, -8
 649              		.cfi_offset 14, -4
 650              		.loc 1 81 0
 651 0002 0378     		ldrb	r3, [r0]	@ zero_extendqisi2
 652 0004 012B     		cmp	r3, #1
 653              		.loc 1 78 0
 654 0006 0546     		mov	r5, r0
 655              		.loc 1 81 0
 656 0008 14D0     		beq	.L31
 657              	.LVL18:
 658              	.L26:
 659              		.loc 1 78 0 discriminator 1
 660 000a 0024     		movs	r4, #0
 661 000c 04E0     		b	.L30
 662              	.LVL19:
 663              	.L33:
 664              		.loc 1 85 0
 665 000e 0134     		adds	r4, r4, #1
 666              		.loc 1 87 0
 667 0010 FFF7FEFF 		bl	ext_lld_channel_enable
 668              	.LVL20:
 669              		.loc 1 85 0
 670 0014 172C     		cmp	r4, #23
 671 0016 0CD0     		beq	.L32
 672              	.LVL21:
 673              	.L30:
ARM GAS  /tmp/ccHNlLx5.s 			page 34


 674              		.loc 1 86 0
 675 0018 6B68     		ldr	r3, [r5, #4]
 676 001a 53F83430 		ldr	r3, [r3, r4, lsl #3]
 677 001e 13F0040F 		tst	r3, #4
 678              		.loc 1 89 0
 679 0022 2146     		mov	r1, r4
 680 0024 2846     		mov	r0, r5
 681              		.loc 1 86 0
 682 0026 F2D1     		bne	.L33
 683              	.LVL22:
 684              		.loc 1 85 0
 685 0028 0134     		adds	r4, r4, #1
 686              	.LVL23:
 687              		.loc 1 89 0
 688 002a FFF7FEFF 		bl	ext_lld_channel_disable
 689              	.LVL24:
 690              		.loc 1 85 0
 691 002e 172C     		cmp	r4, #23
 692 0030 F2D1     		bne	.L30
 693              	.L32:
 694              		.loc 1 90 0
 695 0032 38BD     		pop	{r3, r4, r5, pc}
 696              	.LVL25:
 697              	.L31:
 698              		.loc 1 82 0
 699 0034 FFF7FEFF 		bl	ext_lld_exti_irq_enable
 700              	.LVL26:
 701 0038 E7E7     		b	.L26
 702              		.cfi_endproc
 703              	.LFE261:
 704              		.size	ext_lld_start, .-ext_lld_start
 705              		.global	EXTD1
 706 003a 00BF     		.section	.bss.EXTD1,"aw",%nobits
 707              		.align	2
 708              		.set	.LANCHOR0,. + 0
 709              		.type	EXTD1, %object
 710              		.size	EXTD1, 8
 711              	EXTD1:
 712 0000 00000000 		.space	8
 712      00000000 
 713              		.text
 714              	.Letext0:
 715              		.file 2 "/usr/lib/gcc/arm-none-eabi/4.8/include/stddef.h"
 716              		.file 3 "/usr/include/newlib/machine/_default_types.h"
 717              		.file 4 "/usr/include/newlib/sys/_stdint.h"
 718              		.file 5 "/usr/src/chibios/os/rt/ports/ARMCMx/compilers/GCC/chtypes.h"
 719              		.file 6 "/usr/src/chibios/os/rt/include/chsystypes.h"
 720              		.file 7 "/usr/src/chibios/os/rt/include/chschd.h"
 721              		.file 8 "/usr/src/chibios/os/ext/CMSIS/ST/stm32f407xx.h"
 722              		.file 9 "/usr/src/chibios/os/rt/ports/ARMCMx/chcore.h"
 723              		.file 10 "/usr/src/chibios/os/rt/ports/ARMCMx/chcore_v7m.h"
 724              		.file 11 "/usr/src/chibios/os/rt/include/chtm.h"
 725              		.file 12 "/usr/src/chibios/os/rt/include/chsem.h"
 726              		.file 13 "/usr/src/chibios/os/rt/include/chmtx.h"
 727              		.file 14 "/usr/src/chibios/os/hal/include/ext.h"
 728              		.file 15 "/usr/src/chibios/os/hal/ports/STM32/LLD/ext_lld.h"
 729              		.file 16 "/usr/src/chibios/os/ext/CMSIS/include/core_cm4.h"
ARM GAS  /tmp/ccHNlLx5.s 			page 35


 730              		.file 17 "/usr/src/chibios/os/hal/ports/STM32/STM32F4xx/ext_lld_isr.h"
 731              		.section	.debug_info,"",%progbits
 732              	.Ldebug_info0:
 733 0000 91090000 		.4byte	0x991
 734 0004 0400     		.2byte	0x4
 735 0006 00000000 		.4byte	.Ldebug_abbrev0
 736 000a 04       		.byte	0x4
 737 000b 01       		.uleb128 0x1
 738 000c DB020000 		.4byte	.LASF138
 739 0010 01       		.byte	0x1
 740 0011 14000000 		.4byte	.LASF139
 741 0015 00000000 		.4byte	.Ldebug_ranges0+0
 742 0019 00000000 		.4byte	0
 743 001d 00000000 		.4byte	.Ldebug_line0
 744 0021 02       		.uleb128 0x2
 745 0022 04       		.byte	0x4
 746 0023 05       		.byte	0x5
 747 0024 696E7400 		.ascii	"int\000"
 748 0028 03       		.uleb128 0x3
 749 0029 0D000000 		.4byte	.LASF2
 750 002d 02       		.byte	0x2
 751 002e D4       		.byte	0xd4
 752 002f 33000000 		.4byte	0x33
 753 0033 04       		.uleb128 0x4
 754 0034 04       		.byte	0x4
 755 0035 07       		.byte	0x7
 756 0036 FF010000 		.4byte	.LASF0
 757 003a 04       		.uleb128 0x4
 758 003b 01       		.byte	0x1
 759 003c 06       		.byte	0x6
 760 003d 4F000000 		.4byte	.LASF1
 761 0041 03       		.uleb128 0x3
 762 0042 5B000000 		.4byte	.LASF3
 763 0046 03       		.byte	0x3
 764 0047 1D       		.byte	0x1d
 765 0048 4C000000 		.4byte	0x4c
 766 004c 04       		.uleb128 0x4
 767 004d 01       		.byte	0x1
 768 004e 08       		.byte	0x8
 769 004f A8040000 		.4byte	.LASF4
 770 0053 04       		.uleb128 0x4
 771 0054 02       		.byte	0x2
 772 0055 05       		.byte	0x5
 773 0056 C5040000 		.4byte	.LASF5
 774 005a 04       		.uleb128 0x4
 775 005b 02       		.byte	0x2
 776 005c 07       		.byte	0x7
 777 005d 48020000 		.4byte	.LASF6
 778 0061 03       		.uleb128 0x3
 779 0062 BB020000 		.4byte	.LASF7
 780 0066 03       		.byte	0x3
 781 0067 3F       		.byte	0x3f
 782 0068 6C000000 		.4byte	0x6c
 783 006c 04       		.uleb128 0x4
 784 006d 04       		.byte	0x4
 785 006e 05       		.byte	0x5
 786 006f 79010000 		.4byte	.LASF8
ARM GAS  /tmp/ccHNlLx5.s 			page 36


 787 0073 03       		.uleb128 0x3
 788 0074 D8050000 		.4byte	.LASF9
 789 0078 03       		.byte	0x3
 790 0079 41       		.byte	0x41
 791 007a 7E000000 		.4byte	0x7e
 792 007e 04       		.uleb128 0x4
 793 007f 04       		.byte	0x4
 794 0080 07       		.byte	0x7
 795 0081 70050000 		.4byte	.LASF10
 796 0085 04       		.uleb128 0x4
 797 0086 08       		.byte	0x8
 798 0087 05       		.byte	0x5
 799 0088 25010000 		.4byte	.LASF11
 800 008c 03       		.uleb128 0x3
 801 008d 44040000 		.4byte	.LASF12
 802 0091 03       		.byte	0x3
 803 0092 5B       		.byte	0x5b
 804 0093 97000000 		.4byte	0x97
 805 0097 04       		.uleb128 0x4
 806 0098 08       		.byte	0x8
 807 0099 07       		.byte	0x7
 808 009a 9A000000 		.4byte	.LASF13
 809 009e 03       		.uleb128 0x3
 810 009f 33060000 		.4byte	.LASF14
 811 00a3 04       		.byte	0x4
 812 00a4 14       		.byte	0x14
 813 00a5 41000000 		.4byte	0x41
 814 00a9 03       		.uleb128 0x3
 815 00aa A0040000 		.4byte	.LASF15
 816 00ae 04       		.byte	0x4
 817 00af 1F       		.byte	0x1f
 818 00b0 61000000 		.4byte	0x61
 819 00b4 03       		.uleb128 0x3
 820 00b5 3F050000 		.4byte	.LASF16
 821 00b9 04       		.byte	0x4
 822 00ba 20       		.byte	0x20
 823 00bb 73000000 		.4byte	0x73
 824 00bf 03       		.uleb128 0x3
 825 00c0 46000000 		.4byte	.LASF17
 826 00c4 04       		.byte	0x4
 827 00c5 26       		.byte	0x26
 828 00c6 8C000000 		.4byte	0x8c
 829 00ca 05       		.uleb128 0x5
 830 00cb A9000000 		.4byte	0xa9
 831 00cf 05       		.uleb128 0x5
 832 00d0 B4000000 		.4byte	0xb4
 833 00d4 03       		.uleb128 0x3
 834 00d5 F4050000 		.4byte	.LASF18
 835 00d9 05       		.byte	0x5
 836 00da 45       		.byte	0x45
 837 00db B4000000 		.4byte	0xb4
 838 00df 03       		.uleb128 0x3
 839 00e0 99020000 		.4byte	.LASF19
 840 00e4 05       		.byte	0x5
 841 00e5 48       		.byte	0x48
 842 00e6 9E000000 		.4byte	0x9e
 843 00ea 03       		.uleb128 0x3
ARM GAS  /tmp/ccHNlLx5.s 			page 37


 844 00eb 82010000 		.4byte	.LASF20
 845 00ef 05       		.byte	0x5
 846 00f0 49       		.byte	0x49
 847 00f1 9E000000 		.4byte	0x9e
 848 00f5 03       		.uleb128 0x3
 849 00f6 63040000 		.4byte	.LASF21
 850 00fa 05       		.byte	0x5
 851 00fb 4A       		.byte	0x4a
 852 00fc 9E000000 		.4byte	0x9e
 853 0100 03       		.uleb128 0x3
 854 0101 82040000 		.4byte	.LASF22
 855 0105 05       		.byte	0x5
 856 0106 4C       		.byte	0x4c
 857 0107 B4000000 		.4byte	0xb4
 858 010b 03       		.uleb128 0x3
 859 010c 87020000 		.4byte	.LASF23
 860 0110 05       		.byte	0x5
 861 0111 4D       		.byte	0x4d
 862 0112 A9000000 		.4byte	0xa9
 863 0116 03       		.uleb128 0x3
 864 0117 AF020000 		.4byte	.LASF24
 865 011b 05       		.byte	0x5
 866 011c 4F       		.byte	0x4f
 867 011d B4000000 		.4byte	0xb4
 868 0121 03       		.uleb128 0x3
 869 0122 DF030000 		.4byte	.LASF25
 870 0126 05       		.byte	0x5
 871 0127 51       		.byte	0x51
 872 0128 A9000000 		.4byte	0xa9
 873 012c 03       		.uleb128 0x3
 874 012d BA050000 		.4byte	.LASF26
 875 0131 06       		.byte	0x6
 876 0132 33       		.byte	0x33
 877 0133 B4000000 		.4byte	0xb4
 878 0137 03       		.uleb128 0x3
 879 0138 AA050000 		.4byte	.LASF27
 880 013c 06       		.byte	0x6
 881 013d 3F       		.byte	0x3f
 882 013e 42010000 		.4byte	0x142
 883 0142 06       		.uleb128 0x6
 884 0143 73020000 		.4byte	.LASF47
 885 0147 44       		.byte	0x44
 886 0148 07       		.byte	0x7
 887 0149 C2       		.byte	0xc2
 888 014a 2F020000 		.4byte	0x22f
 889 014e 07       		.uleb128 0x7
 890 014f EE040000 		.4byte	.LASF28
 891 0153 07       		.byte	0x7
 892 0154 C3       		.byte	0xc3
 893 0155 3A020000 		.4byte	0x23a
 894 0159 00       		.byte	0
 895 015a 07       		.uleb128 0x7
 896 015b 7B040000 		.4byte	.LASF29
 897 015f 07       		.byte	0x7
 898 0160 C5       		.byte	0xc5
 899 0161 3A020000 		.4byte	0x23a
 900 0165 04       		.byte	0x4
ARM GAS  /tmp/ccHNlLx5.s 			page 38


 901 0166 07       		.uleb128 0x7
 902 0167 1E010000 		.4byte	.LASF30
 903 016b 07       		.byte	0x7
 904 016c C7       		.byte	0xc7
 905 016d 00010000 		.4byte	0x100
 906 0171 08       		.byte	0x8
 907 0172 07       		.uleb128 0x7
 908 0173 79060000 		.4byte	.LASF31
 909 0177 07       		.byte	0x7
 910 0178 C8       		.byte	0xc8
 911 0179 49050000 		.4byte	0x549
 912 017d 0C       		.byte	0xc
 913 017e 07       		.uleb128 0x7
 914 017f 8B010000 		.4byte	.LASF32
 915 0183 07       		.byte	0x7
 916 0184 CA       		.byte	0xca
 917 0185 3A020000 		.4byte	0x23a
 918 0189 10       		.byte	0x10
 919 018a 07       		.uleb128 0x7
 920 018b F1030000 		.4byte	.LASF33
 921 018f 07       		.byte	0x7
 922 0190 CB       		.byte	0xcb
 923 0191 3A020000 		.4byte	0x23a
 924 0195 14       		.byte	0x14
 925 0196 07       		.uleb128 0x7
 926 0197 42060000 		.4byte	.LASF34
 927 019b 07       		.byte	0x7
 928 019c D2       		.byte	0xd2
 929 019d C8060000 		.4byte	0x6c8
 930 01a1 18       		.byte	0x18
 931 01a2 07       		.uleb128 0x7
 932 01a3 CF040000 		.4byte	.LASF35
 933 01a7 07       		.byte	0x7
 934 01a8 DD       		.byte	0xdd
 935 01a9 EA000000 		.4byte	0xea
 936 01ad 1C       		.byte	0x1c
 937 01ae 07       		.uleb128 0x7
 938 01af F5040000 		.4byte	.LASF36
 939 01b3 07       		.byte	0x7
 940 01b4 E1       		.byte	0xe1
 941 01b5 DF000000 		.4byte	0xdf
 942 01b9 1D       		.byte	0x1d
 943 01ba 07       		.uleb128 0x7
 944 01bb 26060000 		.4byte	.LASF37
 945 01bf 07       		.byte	0x7
 946 01c0 E6       		.byte	0xe6
 947 01c1 F5000000 		.4byte	0xf5
 948 01c5 1E       		.byte	0x1e
 949 01c6 08       		.uleb128 0x8
 950 01c7 705F7500 		.ascii	"p_u\000"
 951 01cb 07       		.byte	0x7
 952 01cc 3101     		.2byte	0x131
 953 01ce 03060000 		.4byte	0x603
 954 01d2 20       		.byte	0x20
 955 01d3 09       		.uleb128 0x9
 956 01d4 91030000 		.4byte	.LASF38
 957 01d8 07       		.byte	0x7
ARM GAS  /tmp/ccHNlLx5.s 			page 39


 958 01d9 3601     		.2byte	0x136
 959 01db 40020000 		.4byte	0x240
 960 01df 24       		.byte	0x24
 961 01e0 09       		.uleb128 0x9
 962 01e1 1B020000 		.4byte	.LASF39
 963 01e5 07       		.byte	0x7
 964 01e6 3C01     		.2byte	0x13c
 965 01e8 64020000 		.4byte	0x264
 966 01ec 28       		.byte	0x28
 967 01ed 09       		.uleb128 0x9
 968 01ee 58060000 		.4byte	.LASF40
 969 01f2 07       		.byte	0x7
 970 01f3 4001     		.2byte	0x140
 971 01f5 0B010000 		.4byte	0x10b
 972 01f9 30       		.byte	0x30
 973 01fa 09       		.uleb128 0x9
 974 01fb 34050000 		.4byte	.LASF41
 975 01ff 07       		.byte	0x7
 976 0200 4601     		.2byte	0x146
 977 0202 16010000 		.4byte	0x116
 978 0206 34       		.byte	0x34
 979 0207 09       		.uleb128 0x9
 980 0208 BB040000 		.4byte	.LASF42
 981 020c 07       		.byte	0x7
 982 020d 4D01     		.2byte	0x14d
 983 020f C2060000 		.4byte	0x6c2
 984 0213 38       		.byte	0x38
 985 0214 09       		.uleb128 0x9
 986 0215 C4050000 		.4byte	.LASF43
 987 0219 07       		.byte	0x7
 988 021a 5101     		.2byte	0x151
 989 021c 00010000 		.4byte	0x100
 990 0220 3C       		.byte	0x3c
 991 0221 09       		.uleb128 0x9
 992 0222 46010000 		.4byte	.LASF44
 993 0226 07       		.byte	0x7
 994 0227 5801     		.2byte	0x158
 995 0229 17030000 		.4byte	0x317
 996 022d 40       		.byte	0x40
 997 022e 00       		.byte	0
 998 022f 03       		.uleb128 0x3
 999 0230 A4030000 		.4byte	.LASF45
 1000 0234 06       		.byte	0x6
 1001 0235 44       		.byte	0x44
 1002 0236 3A020000 		.4byte	0x23a
 1003 023a 0A       		.uleb128 0xa
 1004 023b 04       		.byte	0x4
 1005 023c 37010000 		.4byte	0x137
 1006 0240 03       		.uleb128 0x3
 1007 0241 49060000 		.4byte	.LASF46
 1008 0245 06       		.byte	0x6
 1009 0246 49       		.byte	0x49
 1010 0247 4B020000 		.4byte	0x24b
 1011 024b 06       		.uleb128 0x6
 1012 024c 60050000 		.4byte	.LASF48
 1013 0250 04       		.byte	0x4
 1014 0251 07       		.byte	0x7
ARM GAS  /tmp/ccHNlLx5.s 			page 40


 1015 0252 B0       		.byte	0xb0
 1016 0253 64020000 		.4byte	0x264
 1017 0257 07       		.uleb128 0x7
 1018 0258 EE040000 		.4byte	.LASF28
 1019 025c 07       		.byte	0x7
 1020 025d B1       		.byte	0xb1
 1021 025e 3A020000 		.4byte	0x23a
 1022 0262 00       		.byte	0
 1023 0263 00       		.byte	0
 1024 0264 03       		.uleb128 0x3
 1025 0265 0D060000 		.4byte	.LASF49
 1026 0269 06       		.byte	0x6
 1027 026a 50       		.byte	0x50
 1028 026b 6F020000 		.4byte	0x26f
 1029 026f 06       		.uleb128 0x6
 1030 0270 F5000000 		.4byte	.LASF50
 1031 0274 08       		.byte	0x8
 1032 0275 07       		.byte	0x7
 1033 0276 B7       		.byte	0xb7
 1034 0277 94020000 		.4byte	0x294
 1035 027b 07       		.uleb128 0x7
 1036 027c EE040000 		.4byte	.LASF28
 1037 0280 07       		.byte	0x7
 1038 0281 B8       		.byte	0xb8
 1039 0282 3A020000 		.4byte	0x23a
 1040 0286 00       		.byte	0
 1041 0287 07       		.uleb128 0x7
 1042 0288 7B040000 		.4byte	.LASF29
 1043 028c 07       		.byte	0x7
 1044 028d B9       		.byte	0xb9
 1045 028e 3A020000 		.4byte	0x23a
 1046 0292 04       		.byte	0x4
 1047 0293 00       		.byte	0
 1048 0294 03       		.uleb128 0x3
 1049 0295 00000000 		.4byte	.LASF51
 1050 0299 06       		.byte	0x6
 1051 029a 57       		.byte	0x57
 1052 029b 9F020000 		.4byte	0x29f
 1053 029f 0B       		.uleb128 0xb
 1054 02a0 A1020000 		.4byte	.LASF52
 1055 02a4 1C       		.byte	0x1c
 1056 02a5 07       		.byte	0x7
 1057 02a6 9001     		.2byte	0x190
 1058 02a8 FB020000 		.4byte	0x2fb
 1059 02ac 09       		.uleb128 0x9
 1060 02ad 4F050000 		.4byte	.LASF53
 1061 02b1 07       		.byte	0x7
 1062 02b2 9101     		.2byte	0x191
 1063 02b4 64020000 		.4byte	0x264
 1064 02b8 00       		.byte	0
 1065 02b9 09       		.uleb128 0x9
 1066 02ba D7040000 		.4byte	.LASF54
 1067 02be 07       		.byte	0x7
 1068 02bf 9201     		.2byte	0x192
 1069 02c1 00010000 		.4byte	0x100
 1070 02c5 08       		.byte	0x8
 1071 02c6 09       		.uleb128 0x9
ARM GAS  /tmp/ccHNlLx5.s 			page 41


 1072 02c7 F9030000 		.4byte	.LASF55
 1073 02cb 07       		.byte	0x7
 1074 02cc 9401     		.2byte	0x194
 1075 02ce 49050000 		.4byte	0x549
 1076 02d2 0C       		.byte	0xc
 1077 02d3 09       		.uleb128 0x9
 1078 02d4 AC010000 		.4byte	.LASF56
 1079 02d8 07       		.byte	0x7
 1080 02d9 9701     		.2byte	0x197
 1081 02db 3A020000 		.4byte	0x23a
 1082 02df 10       		.byte	0x10
 1083 02e0 09       		.uleb128 0x9
 1084 02e1 3C040000 		.4byte	.LASF57
 1085 02e5 07       		.byte	0x7
 1086 02e6 9801     		.2byte	0x198
 1087 02e8 3A020000 		.4byte	0x23a
 1088 02ec 14       		.byte	0x14
 1089 02ed 09       		.uleb128 0x9
 1090 02ee 32040000 		.4byte	.LASF58
 1091 02f2 07       		.byte	0x7
 1092 02f3 9B01     		.2byte	0x19b
 1093 02f5 3A020000 		.4byte	0x23a
 1094 02f9 18       		.byte	0x18
 1095 02fa 00       		.byte	0
 1096 02fb 03       		.uleb128 0x3
 1097 02fc CF050000 		.4byte	.LASF59
 1098 0300 06       		.byte	0x6
 1099 0301 5C       		.byte	0x5c
 1100 0302 06030000 		.4byte	0x306
 1101 0306 0A       		.uleb128 0xa
 1102 0307 04       		.byte	0x4
 1103 0308 0C030000 		.4byte	0x30c
 1104 030c 0C       		.uleb128 0xc
 1105 030d 17030000 		.4byte	0x317
 1106 0311 0D       		.uleb128 0xd
 1107 0312 17030000 		.4byte	0x317
 1108 0316 00       		.byte	0
 1109 0317 0E       		.uleb128 0xe
 1110 0318 04       		.byte	0x4
 1111 0319 03       		.uleb128 0x3
 1112 031a 6B040000 		.4byte	.LASF60
 1113 031e 06       		.byte	0x6
 1114 031f 61       		.byte	0x61
 1115 0320 24030000 		.4byte	0x324
 1116 0324 0B       		.uleb128 0xb
 1117 0325 16050000 		.4byte	.LASF61
 1118 0329 14       		.byte	0x14
 1119 032a 07       		.byte	0x7
 1120 032b 6B01     		.2byte	0x16b
 1121 032d 73030000 		.4byte	0x373
 1122 0331 09       		.uleb128 0x9
 1123 0332 0C020000 		.4byte	.LASF62
 1124 0336 07       		.byte	0x7
 1125 0337 6C01     		.2byte	0x16c
 1126 0339 DA060000 		.4byte	0x6da
 1127 033d 00       		.byte	0
 1128 033e 09       		.uleb128 0x9
ARM GAS  /tmp/ccHNlLx5.s 			page 42


 1129 033f C2010000 		.4byte	.LASF63
 1130 0343 07       		.byte	0x7
 1131 0344 6D01     		.2byte	0x16d
 1132 0346 DA060000 		.4byte	0x6da
 1133 034a 04       		.byte	0x4
 1134 034b 09       		.uleb128 0x9
 1135 034c 57050000 		.4byte	.LASF64
 1136 0350 07       		.byte	0x7
 1137 0351 6E01     		.2byte	0x16e
 1138 0353 2C010000 		.4byte	0x12c
 1139 0357 08       		.byte	0x8
 1140 0358 09       		.uleb128 0x9
 1141 0359 7F060000 		.4byte	.LASF65
 1142 035d 07       		.byte	0x7
 1143 035e 6F01     		.2byte	0x16f
 1144 0360 FB020000 		.4byte	0x2fb
 1145 0364 0C       		.byte	0xc
 1146 0365 09       		.uleb128 0x9
 1147 0366 FC050000 		.4byte	.LASF66
 1148 036a 07       		.byte	0x7
 1149 036b 7101     		.2byte	0x171
 1150 036d 17030000 		.4byte	0x317
 1151 0371 10       		.byte	0x10
 1152 0372 00       		.byte	0
 1153 0373 03       		.uleb128 0x3
 1154 0374 D2000000 		.4byte	.LASF67
 1155 0378 06       		.byte	0x6
 1156 0379 66       		.byte	0x66
 1157 037a 7E030000 		.4byte	0x37e
 1158 037e 0B       		.uleb128 0xb
 1159 037f C2030000 		.4byte	.LASF68
 1160 0383 10       		.byte	0x10
 1161 0384 07       		.byte	0x7
 1162 0385 7B01     		.2byte	0x17b
 1163 0387 C0030000 		.4byte	0x3c0
 1164 038b 09       		.uleb128 0x9
 1165 038c 0C020000 		.4byte	.LASF62
 1166 0390 07       		.byte	0x7
 1167 0391 7C01     		.2byte	0x17c
 1168 0393 DA060000 		.4byte	0x6da
 1169 0397 00       		.byte	0
 1170 0398 09       		.uleb128 0x9
 1171 0399 C2010000 		.4byte	.LASF63
 1172 039d 07       		.byte	0x7
 1173 039e 7E01     		.2byte	0x17e
 1174 03a0 DA060000 		.4byte	0x6da
 1175 03a4 04       		.byte	0x4
 1176 03a5 09       		.uleb128 0x9
 1177 03a6 57050000 		.4byte	.LASF64
 1178 03aa 07       		.byte	0x7
 1179 03ab 8001     		.2byte	0x180
 1180 03ad 2C010000 		.4byte	0x12c
 1181 03b1 08       		.byte	0x8
 1182 03b2 09       		.uleb128 0x9
 1183 03b3 E5030000 		.4byte	.LASF69
 1184 03b7 07       		.byte	0x7
 1185 03b8 8801     		.2byte	0x188
ARM GAS  /tmp/ccHNlLx5.s 			page 43


 1186 03ba 2C010000 		.4byte	0x12c
 1187 03be 0C       		.byte	0xc
 1188 03bf 00       		.byte	0
 1189 03c0 03       		.uleb128 0x3
 1190 03c1 7E000000 		.4byte	.LASF70
 1191 03c5 06       		.byte	0x6
 1192 03c6 6B       		.byte	0x6b
 1193 03c7 CB030000 		.4byte	0x3cb
 1194 03cb 0B       		.uleb128 0xb
 1195 03cc 8A040000 		.4byte	.LASF71
 1196 03d0 04       		.byte	0x4
 1197 03d1 07       		.byte	0x7
 1198 03d2 A201     		.2byte	0x1a2
 1199 03d4 E6030000 		.4byte	0x3e6
 1200 03d8 09       		.uleb128 0x9
 1201 03d9 E3050000 		.4byte	.LASF72
 1202 03dd 07       		.byte	0x7
 1203 03de AA01     		.2byte	0x1aa
 1204 03e0 E0060000 		.4byte	0x6e0
 1205 03e4 00       		.byte	0
 1206 03e5 00       		.byte	0
 1207 03e6 03       		.uleb128 0x3
 1208 03e7 8D020000 		.4byte	.LASF73
 1209 03eb 06       		.byte	0x6
 1210 03ec 70       		.byte	0x70
 1211 03ed F1030000 		.4byte	0x3f1
 1212 03f1 0F       		.uleb128 0xf
 1213 03f2 FD040000 		.4byte	.LASF74
 1214 03f6 5001     		.2byte	0x150
 1215 03f8 07       		.byte	0x7
 1216 03f9 C201     		.2byte	0x1c2
 1217 03fb 4D040000 		.4byte	0x44d
 1218 03ff 09       		.uleb128 0x9
 1219 0400 2D060000 		.4byte	.LASF75
 1220 0404 07       		.byte	0x7
 1221 0405 C601     		.2byte	0x1c6
 1222 0407 94020000 		.4byte	0x294
 1223 040b 00       		.byte	0
 1224 040c 09       		.uleb128 0x9
 1225 040d 56010000 		.4byte	.LASF76
 1226 0411 07       		.byte	0x7
 1227 0412 CA01     		.2byte	0x1ca
 1228 0414 73030000 		.4byte	0x373
 1229 0418 1C       		.byte	0x1c
 1230 0419 08       		.uleb128 0x8
 1231 041a 64626700 		.ascii	"dbg\000"
 1232 041e 07       		.byte	0x7
 1233 041f CE01     		.2byte	0x1ce
 1234 0421 C0030000 		.4byte	0x3c0
 1235 0425 2C       		.byte	0x2c
 1236 0426 09       		.uleb128 0x9
 1237 0427 C7000000 		.4byte	.LASF77
 1238 042b 07       		.byte	0x7
 1239 042c D201     		.2byte	0x1d2
 1240 042e 37010000 		.4byte	0x137
 1241 0432 30       		.byte	0x30
 1242 0433 08       		.uleb128 0x8
ARM GAS  /tmp/ccHNlLx5.s 			page 44


 1243 0434 746D00   		.ascii	"tm\000"
 1244 0437 07       		.byte	0x7
 1245 0438 D701     		.2byte	0x1d7
 1246 043a F8050000 		.4byte	0x5f8
 1247 043e 74       		.byte	0x74
 1248 043f 09       		.uleb128 0x9
 1249 0440 D7010000 		.4byte	.LASF78
 1250 0444 07       		.byte	0x7
 1251 0445 E301     		.2byte	0x1e3
 1252 0447 E5060000 		.4byte	0x6e5
 1253 044b 78       		.byte	0x78
 1254 044c 00       		.byte	0
 1255 044d 04       		.uleb128 0x4
 1256 044e 04       		.byte	0x4
 1257 044f 07       		.byte	0x7
 1258 0450 9B030000 		.4byte	.LASF79
 1259 0454 10       		.uleb128 0x10
 1260 0455 B4000000 		.4byte	0xb4
 1261 0459 64040000 		.4byte	0x464
 1262 045d 11       		.uleb128 0x11
 1263 045e 4D040000 		.4byte	0x44d
 1264 0462 01       		.byte	0x1
 1265 0463 00       		.byte	0
 1266 0464 10       		.uleb128 0x10
 1267 0465 B4000000 		.4byte	0xb4
 1268 0469 74040000 		.4byte	0x474
 1269 046d 11       		.uleb128 0x11
 1270 046e 4D040000 		.4byte	0x44d
 1271 0472 03       		.byte	0x3
 1272 0473 00       		.byte	0
 1273 0474 12       		.uleb128 0x12
 1274 0475 18       		.byte	0x18
 1275 0476 08       		.byte	0x8
 1276 0477 CC01     		.2byte	0x1cc
 1277 0479 CB040000 		.4byte	0x4cb
 1278 047d 08       		.uleb128 0x8
 1279 047e 494D5200 		.ascii	"IMR\000"
 1280 0482 08       		.byte	0x8
 1281 0483 CE01     		.2byte	0x1ce
 1282 0485 CF000000 		.4byte	0xcf
 1283 0489 00       		.byte	0
 1284 048a 08       		.uleb128 0x8
 1285 048b 454D5200 		.ascii	"EMR\000"
 1286 048f 08       		.byte	0x8
 1287 0490 CF01     		.2byte	0x1cf
 1288 0492 CF000000 		.4byte	0xcf
 1289 0496 04       		.byte	0x4
 1290 0497 09       		.uleb128 0x9
 1291 0498 4F040000 		.4byte	.LASF80
 1292 049c 08       		.byte	0x8
 1293 049d D001     		.2byte	0x1d0
 1294 049f CF000000 		.4byte	0xcf
 1295 04a3 08       		.byte	0x8
 1296 04a4 09       		.uleb128 0x9
 1297 04a5 B6040000 		.4byte	.LASF81
 1298 04a9 08       		.byte	0x8
 1299 04aa D101     		.2byte	0x1d1
ARM GAS  /tmp/ccHNlLx5.s 			page 45


 1300 04ac CF000000 		.4byte	0xcf
 1301 04b0 0C       		.byte	0xc
 1302 04b1 09       		.uleb128 0x9
 1303 04b2 8D000000 		.4byte	.LASF82
 1304 04b6 08       		.byte	0x8
 1305 04b7 D201     		.2byte	0x1d2
 1306 04b9 CF000000 		.4byte	0xcf
 1307 04bd 10       		.byte	0x10
 1308 04be 08       		.uleb128 0x8
 1309 04bf 505200   		.ascii	"PR\000"
 1310 04c2 08       		.byte	0x8
 1311 04c3 D301     		.2byte	0x1d3
 1312 04c5 CF000000 		.4byte	0xcf
 1313 04c9 14       		.byte	0x14
 1314 04ca 00       		.byte	0
 1315 04cb 13       		.uleb128 0x13
 1316 04cc 5E060000 		.4byte	.LASF83
 1317 04d0 08       		.byte	0x8
 1318 04d1 D401     		.2byte	0x1d4
 1319 04d3 74040000 		.4byte	0x474
 1320 04d7 12       		.uleb128 0x12
 1321 04d8 24       		.byte	0x24
 1322 04d9 08       		.byte	0x8
 1323 04da 3202     		.2byte	0x232
 1324 04dc 22050000 		.4byte	0x522
 1325 04e0 09       		.uleb128 0x9
 1326 04e1 93000000 		.4byte	.LASF84
 1327 04e5 08       		.byte	0x8
 1328 04e6 3402     		.2byte	0x234
 1329 04e8 CF000000 		.4byte	0xcf
 1330 04ec 00       		.byte	0
 1331 04ed 08       		.uleb128 0x8
 1332 04ee 504D4300 		.ascii	"PMC\000"
 1333 04f2 08       		.byte	0x8
 1334 04f3 3502     		.2byte	0x235
 1335 04f5 CF000000 		.4byte	0xcf
 1336 04f9 04       		.byte	0x4
 1337 04fa 09       		.uleb128 0x9
 1338 04fb 87060000 		.4byte	.LASF85
 1339 04ff 08       		.byte	0x8
 1340 0500 3602     		.2byte	0x236
 1341 0502 22050000 		.4byte	0x522
 1342 0506 08       		.byte	0x8
 1343 0507 09       		.uleb128 0x9
 1344 0508 DE040000 		.4byte	.LASF86
 1345 050c 08       		.byte	0x8
 1346 050d 3702     		.2byte	0x237
 1347 050f 54040000 		.4byte	0x454
 1348 0513 18       		.byte	0x18
 1349 0514 09       		.uleb128 0x9
 1350 0515 26020000 		.4byte	.LASF87
 1351 0519 08       		.byte	0x8
 1352 051a 3802     		.2byte	0x238
 1353 051c CF000000 		.4byte	0xcf
 1354 0520 20       		.byte	0x20
 1355 0521 00       		.byte	0
 1356 0522 05       		.uleb128 0x5
ARM GAS  /tmp/ccHNlLx5.s 			page 46


 1357 0523 64040000 		.4byte	0x464
 1358 0527 13       		.uleb128 0x13
 1359 0528 54040000 		.4byte	.LASF88
 1360 052c 08       		.byte	0x8
 1361 052d 3902     		.2byte	0x239
 1362 052f D7040000 		.4byte	0x4d7
 1363 0533 03       		.uleb128 0x3
 1364 0534 B9010000 		.4byte	.LASF89
 1365 0538 09       		.byte	0x9
 1366 0539 65       		.byte	0x65
 1367 053a 17030000 		.4byte	0x317
 1368 053e 03       		.uleb128 0x3
 1369 053f C5020000 		.4byte	.LASF90
 1370 0543 09       		.byte	0x9
 1371 0544 6D       		.byte	0x6d
 1372 0545 BF000000 		.4byte	0xbf
 1373 0549 06       		.uleb128 0x6
 1374 054a 40020000 		.4byte	.LASF91
 1375 054e 04       		.byte	0x4
 1376 054f 09       		.byte	0x9
 1377 0550 89       		.byte	0x89
 1378 0551 62050000 		.4byte	0x562
 1379 0555 14       		.uleb128 0x14
 1380 0556 72313300 		.ascii	"r13\000"
 1381 055a 09       		.byte	0x9
 1382 055b 8A       		.byte	0x8a
 1383 055c DD050000 		.4byte	0x5dd
 1384 0560 00       		.byte	0
 1385 0561 00       		.byte	0
 1386 0562 06       		.uleb128 0x6
 1387 0563 72000000 		.4byte	.LASF92
 1388 0567 24       		.byte	0x24
 1389 0568 0A       		.byte	0xa
 1390 0569 F4       		.byte	0xf4
 1391 056a DD050000 		.4byte	0x5dd
 1392 056e 08       		.uleb128 0x8
 1393 056f 723400   		.ascii	"r4\000"
 1394 0572 0A       		.byte	0xa
 1395 0573 0701     		.2byte	0x107
 1396 0575 33050000 		.4byte	0x533
 1397 0579 00       		.byte	0
 1398 057a 08       		.uleb128 0x8
 1399 057b 723500   		.ascii	"r5\000"
 1400 057e 0A       		.byte	0xa
 1401 057f 0801     		.2byte	0x108
 1402 0581 33050000 		.4byte	0x533
 1403 0585 04       		.byte	0x4
 1404 0586 08       		.uleb128 0x8
 1405 0587 723600   		.ascii	"r6\000"
 1406 058a 0A       		.byte	0xa
 1407 058b 0901     		.2byte	0x109
 1408 058d 33050000 		.4byte	0x533
 1409 0591 08       		.byte	0x8
 1410 0592 08       		.uleb128 0x8
 1411 0593 723700   		.ascii	"r7\000"
 1412 0596 0A       		.byte	0xa
 1413 0597 0A01     		.2byte	0x10a
ARM GAS  /tmp/ccHNlLx5.s 			page 47


 1414 0599 33050000 		.4byte	0x533
 1415 059d 0C       		.byte	0xc
 1416 059e 08       		.uleb128 0x8
 1417 059f 723800   		.ascii	"r8\000"
 1418 05a2 0A       		.byte	0xa
 1419 05a3 0B01     		.2byte	0x10b
 1420 05a5 33050000 		.4byte	0x533
 1421 05a9 10       		.byte	0x10
 1422 05aa 08       		.uleb128 0x8
 1423 05ab 723900   		.ascii	"r9\000"
 1424 05ae 0A       		.byte	0xa
 1425 05af 0C01     		.2byte	0x10c
 1426 05b1 33050000 		.4byte	0x533
 1427 05b5 14       		.byte	0x14
 1428 05b6 08       		.uleb128 0x8
 1429 05b7 72313000 		.ascii	"r10\000"
 1430 05bb 0A       		.byte	0xa
 1431 05bc 0D01     		.2byte	0x10d
 1432 05be 33050000 		.4byte	0x533
 1433 05c2 18       		.byte	0x18
 1434 05c3 08       		.uleb128 0x8
 1435 05c4 72313100 		.ascii	"r11\000"
 1436 05c8 0A       		.byte	0xa
 1437 05c9 0E01     		.2byte	0x10e
 1438 05cb 33050000 		.4byte	0x533
 1439 05cf 1C       		.byte	0x1c
 1440 05d0 08       		.uleb128 0x8
 1441 05d1 6C7200   		.ascii	"lr\000"
 1442 05d4 0A       		.byte	0xa
 1443 05d5 0F01     		.2byte	0x10f
 1444 05d7 33050000 		.4byte	0x533
 1445 05db 20       		.byte	0x20
 1446 05dc 00       		.byte	0
 1447 05dd 0A       		.uleb128 0xa
 1448 05de 04       		.byte	0x4
 1449 05df 62050000 		.4byte	0x562
 1450 05e3 15       		.uleb128 0x15
 1451 05e4 04       		.byte	0x4
 1452 05e5 0B       		.byte	0xb
 1453 05e6 38       		.byte	0x38
 1454 05e7 F8050000 		.4byte	0x5f8
 1455 05eb 07       		.uleb128 0x7
 1456 05ec ED050000 		.4byte	.LASF93
 1457 05f0 0B       		.byte	0xb
 1458 05f1 3C       		.byte	0x3c
 1459 05f2 D4000000 		.4byte	0xd4
 1460 05f6 00       		.byte	0
 1461 05f7 00       		.byte	0
 1462 05f8 03       		.uleb128 0x3
 1463 05f9 16040000 		.4byte	.LASF94
 1464 05fd 0B       		.byte	0xb
 1465 05fe 3D       		.byte	0x3d
 1466 05ff E3050000 		.4byte	0x5e3
 1467 0603 16       		.uleb128 0x16
 1468 0604 04       		.byte	0x4
 1469 0605 07       		.byte	0x7
 1470 0606 FA       		.byte	0xfa
ARM GAS  /tmp/ccHNlLx5.s 			page 48


 1471 0607 60060000 		.4byte	0x660
 1472 060b 17       		.uleb128 0x17
 1473 060c 07050000 		.4byte	.LASF95
 1474 0610 07       		.byte	0x7
 1475 0611 0101     		.2byte	0x101
 1476 0613 0B010000 		.4byte	0x10b
 1477 0617 17       		.uleb128 0x17
 1478 0618 BE000000 		.4byte	.LASF96
 1479 061c 07       		.byte	0x7
 1480 061d 0801     		.2byte	0x108
 1481 061f 0B010000 		.4byte	0x10b
 1482 0623 17       		.uleb128 0x17
 1483 0624 3B060000 		.4byte	.LASF97
 1484 0628 07       		.byte	0x7
 1485 0629 0F01     		.2byte	0x10f
 1486 062b 17030000 		.4byte	0x317
 1487 062f 17       		.uleb128 0x17
 1488 0630 D9030000 		.4byte	.LASF98
 1489 0634 07       		.byte	0x7
 1490 0635 1601     		.2byte	0x116
 1491 0637 60060000 		.4byte	0x660
 1492 063b 17       		.uleb128 0x17
 1493 063c 14020000 		.4byte	.LASF99
 1494 0640 07       		.byte	0x7
 1495 0641 1E01     		.2byte	0x11e
 1496 0643 8B060000 		.4byte	0x68b
 1497 0647 17       		.uleb128 0x17
 1498 0648 48050000 		.4byte	.LASF100
 1499 064c 07       		.byte	0x7
 1500 064d 2701     		.2byte	0x127
 1501 064f C2060000 		.4byte	0x6c2
 1502 0653 17       		.uleb128 0x17
 1503 0654 E7040000 		.4byte	.LASF101
 1504 0658 07       		.byte	0x7
 1505 0659 2F01     		.2byte	0x12f
 1506 065b 16010000 		.4byte	0x116
 1507 065f 00       		.byte	0
 1508 0660 0A       		.uleb128 0xa
 1509 0661 04       		.byte	0x4
 1510 0662 2F020000 		.4byte	0x22f
 1511 0666 06       		.uleb128 0x6
 1512 0667 27050000 		.4byte	.LASF102
 1513 066b 0C       		.byte	0xc
 1514 066c 0C       		.byte	0xc
 1515 066d 34       		.byte	0x34
 1516 066e 8B060000 		.4byte	0x68b
 1517 0672 07       		.uleb128 0x7
 1518 0673 93010000 		.4byte	.LASF103
 1519 0677 0C       		.byte	0xc
 1520 0678 35       		.byte	0x35
 1521 0679 64020000 		.4byte	0x264
 1522 067d 00       		.byte	0
 1523 067e 07       		.uleb128 0x7
 1524 067f 3A020000 		.4byte	.LASF104
 1525 0683 0C       		.byte	0xc
 1526 0684 37       		.byte	0x37
 1527 0685 21010000 		.4byte	0x121
ARM GAS  /tmp/ccHNlLx5.s 			page 49


 1528 0689 08       		.byte	0x8
 1529 068a 00       		.byte	0
 1530 068b 0A       		.uleb128 0xa
 1531 068c 04       		.byte	0x4
 1532 068d 66060000 		.4byte	0x666
 1533 0691 06       		.uleb128 0x6
 1534 0692 1D060000 		.4byte	.LASF105
 1535 0696 10       		.byte	0x10
 1536 0697 0D       		.byte	0xd
 1537 0698 39       		.byte	0x39
 1538 0699 C2060000 		.4byte	0x6c2
 1539 069d 07       		.uleb128 0x7
 1540 069e 4E010000 		.4byte	.LASF106
 1541 06a2 0D       		.byte	0xd
 1542 06a3 3A       		.byte	0x3a
 1543 06a4 64020000 		.4byte	0x264
 1544 06a8 00       		.byte	0
 1545 06a9 07       		.uleb128 0x7
 1546 06aa 71060000 		.4byte	.LASF107
 1547 06ae 0D       		.byte	0xd
 1548 06af 3C       		.byte	0x3c
 1549 06b0 3A020000 		.4byte	0x23a
 1550 06b4 08       		.byte	0x8
 1551 06b5 07       		.uleb128 0x7
 1552 06b6 B3050000 		.4byte	.LASF108
 1553 06ba 0D       		.byte	0xd
 1554 06bb 3E       		.byte	0x3e
 1555 06bc 00070000 		.4byte	0x700
 1556 06c0 0C       		.byte	0xc
 1557 06c1 00       		.byte	0
 1558 06c2 0A       		.uleb128 0xa
 1559 06c3 04       		.byte	0x4
 1560 06c4 91060000 		.4byte	0x691
 1561 06c8 0A       		.uleb128 0xa
 1562 06c9 04       		.byte	0x4
 1563 06ca CE060000 		.4byte	0x6ce
 1564 06ce 18       		.uleb128 0x18
 1565 06cf D3060000 		.4byte	0x6d3
 1566 06d3 04       		.uleb128 0x4
 1567 06d4 01       		.byte	0x1
 1568 06d5 08       		.byte	0x8
 1569 06d6 8B050000 		.4byte	.LASF109
 1570 06da 0A       		.uleb128 0xa
 1571 06db 04       		.byte	0x4
 1572 06dc 19030000 		.4byte	0x319
 1573 06e0 05       		.uleb128 0x5
 1574 06e1 C8060000 		.4byte	0x6c8
 1575 06e5 10       		.uleb128 0x10
 1576 06e6 3E050000 		.4byte	0x53e
 1577 06ea F5060000 		.4byte	0x6f5
 1578 06ee 11       		.uleb128 0x11
 1579 06ef 4D040000 		.4byte	0x44d
 1580 06f3 1A       		.byte	0x1a
 1581 06f4 00       		.byte	0
 1582 06f5 03       		.uleb128 0x3
 1583 06f6 CF010000 		.4byte	.LASF110
 1584 06fa 0D       		.byte	0xd
ARM GAS  /tmp/ccHNlLx5.s 			page 50


 1585 06fb 34       		.byte	0x34
 1586 06fc 91060000 		.4byte	0x691
 1587 0700 0A       		.uleb128 0xa
 1588 0701 04       		.byte	0x4
 1589 0702 F5060000 		.4byte	0x6f5
 1590 0706 04       		.uleb128 0x4
 1591 0707 01       		.byte	0x1
 1592 0708 02       		.byte	0x2
 1593 0709 9A040000 		.4byte	.LASF111
 1594 070d 19       		.uleb128 0x19
 1595 070e 01       		.byte	0x1
 1596 070f 0E       		.byte	0xe
 1597 0710 3F       		.byte	0x3f
 1598 0711 28070000 		.4byte	0x728
 1599 0715 1A       		.uleb128 0x1a
 1600 0716 27040000 		.4byte	.LASF112
 1601 071a 00       		.sleb128 0
 1602 071b 1A       		.uleb128 0x1a
 1603 071c 82050000 		.4byte	.LASF113
 1604 0720 01       		.sleb128 1
 1605 0721 1A       		.uleb128 0x1a
 1606 0722 D0020000 		.4byte	.LASF114
 1607 0726 02       		.sleb128 2
 1608 0727 00       		.byte	0
 1609 0728 03       		.uleb128 0x3
 1610 0729 B7030000 		.4byte	.LASF115
 1611 072d 0E       		.byte	0xe
 1612 072e 43       		.byte	0x43
 1613 072f 0D070000 		.4byte	0x70d
 1614 0733 03       		.uleb128 0x3
 1615 0734 03060000 		.4byte	.LASF116
 1616 0738 0E       		.byte	0xe
 1617 0739 48       		.byte	0x48
 1618 073a 3E070000 		.4byte	0x73e
 1619 073e 06       		.uleb128 0x6
 1620 073f 03060000 		.4byte	.LASF116
 1621 0743 08       		.byte	0x8
 1622 0744 0F       		.byte	0xf
 1623 0745 71       		.byte	0x71
 1624 0746 63070000 		.4byte	0x763
 1625 074a 07       		.uleb128 0x7
 1626 074b 6A010000 		.4byte	.LASF117
 1627 074f 0F       		.byte	0xf
 1628 0750 75       		.byte	0x75
 1629 0751 28070000 		.4byte	0x728
 1630 0755 00       		.byte	0
 1631 0756 07       		.uleb128 0x7
 1632 0757 95050000 		.4byte	.LASF118
 1633 075b 0F       		.byte	0xf
 1634 075c 79       		.byte	0x79
 1635 075d F0070000 		.4byte	0x7f0
 1636 0761 04       		.byte	0x4
 1637 0762 00       		.byte	0
 1638 0763 03       		.uleb128 0x3
 1639 0764 65000000 		.4byte	.LASF119
 1640 0768 0F       		.byte	0xf
 1641 0769 47       		.byte	0x47
ARM GAS  /tmp/ccHNlLx5.s 			page 51


 1642 076a B4000000 		.4byte	0xb4
 1643 076e 03       		.uleb128 0x3
 1644 076f 9C050000 		.4byte	.LASF120
 1645 0773 0F       		.byte	0xf
 1646 0774 4F       		.byte	0x4f
 1647 0775 79070000 		.4byte	0x779
 1648 0779 0A       		.uleb128 0xa
 1649 077a 04       		.byte	0x4
 1650 077b 7F070000 		.4byte	0x77f
 1651 077f 0C       		.uleb128 0xc
 1652 0780 8F070000 		.4byte	0x78f
 1653 0784 0D       		.uleb128 0xd
 1654 0785 8F070000 		.4byte	0x78f
 1655 0789 0D       		.uleb128 0xd
 1656 078a 63070000 		.4byte	0x763
 1657 078e 00       		.byte	0
 1658 078f 0A       		.uleb128 0xa
 1659 0790 04       		.byte	0x4
 1660 0791 33070000 		.4byte	0x733
 1661 0795 15       		.uleb128 0x15
 1662 0796 08       		.byte	0x8
 1663 0797 0F       		.byte	0xf
 1664 0798 54       		.byte	0x54
 1665 0799 B5070000 		.4byte	0x7b5
 1666 079d 07       		.uleb128 0x7
 1667 079e 90050000 		.4byte	.LASF121
 1668 07a2 0F       		.byte	0xf
 1669 07a3 58       		.byte	0x58
 1670 07a4 B4000000 		.4byte	0xb4
 1671 07a8 00       		.byte	0
 1672 07a9 14       		.uleb128 0x14
 1673 07aa 636200   		.ascii	"cb\000"
 1674 07ad 0F       		.byte	0xf
 1675 07ae 5F       		.byte	0x5f
 1676 07af 6E070000 		.4byte	0x76e
 1677 07b3 04       		.byte	0x4
 1678 07b4 00       		.byte	0
 1679 07b5 03       		.uleb128 0x3
 1680 07b6 9B010000 		.4byte	.LASF122
 1681 07ba 0F       		.byte	0xf
 1682 07bb 60       		.byte	0x60
 1683 07bc 95070000 		.4byte	0x795
 1684 07c0 15       		.uleb128 0x15
 1685 07c1 B8       		.byte	0xb8
 1686 07c2 0F       		.byte	0xf
 1687 07c3 66       		.byte	0x66
 1688 07c4 D5070000 		.4byte	0x7d5
 1689 07c8 07       		.uleb128 0x7
 1690 07c9 70010000 		.4byte	.LASF123
 1691 07cd 0F       		.byte	0xf
 1692 07ce 6A       		.byte	0x6a
 1693 07cf D5070000 		.4byte	0x7d5
 1694 07d3 00       		.byte	0
 1695 07d4 00       		.byte	0
 1696 07d5 10       		.uleb128 0x10
 1697 07d6 B5070000 		.4byte	0x7b5
 1698 07da E5070000 		.4byte	0x7e5
ARM GAS  /tmp/ccHNlLx5.s 			page 52


 1699 07de 11       		.uleb128 0x11
 1700 07df 4D040000 		.4byte	0x44d
 1701 07e3 16       		.byte	0x16
 1702 07e4 00       		.byte	0
 1703 07e5 03       		.uleb128 0x3
 1704 07e6 7D020000 		.4byte	.LASF124
 1705 07ea 0F       		.byte	0xf
 1706 07eb 6C       		.byte	0x6c
 1707 07ec C0070000 		.4byte	0x7c0
 1708 07f0 0A       		.uleb128 0xa
 1709 07f1 04       		.byte	0x4
 1710 07f2 F6070000 		.4byte	0x7f6
 1711 07f6 18       		.uleb128 0x18
 1712 07f7 E5070000 		.4byte	0x7e5
 1713 07fb 1B       		.uleb128 0x1b
 1714 07fc 5D010000 		.4byte	.LASF125
 1715 0800 01       		.byte	0x1
 1716 0801 41       		.byte	0x41
 1717 0802 00000000 		.4byte	.LFB260
 1718 0806 0C000000 		.4byte	.LFE260-.LFB260
 1719 080a 01       		.uleb128 0x1
 1720 080b 9C       		.byte	0x9c
 1721 080c 24080000 		.4byte	0x824
 1722 0810 1C       		.uleb128 0x1c
 1723 0811 06000000 		.4byte	.LVL0
 1724 0815 75090000 		.4byte	0x975
 1725 0819 1D       		.uleb128 0x1d
 1726 081a 01       		.uleb128 0x1
 1727 081b 50       		.byte	0x50
 1728 081c 05       		.uleb128 0x5
 1729 081d 03       		.byte	0x3
 1730 081e 00000000 		.4byte	.LANCHOR0
 1731 0822 00       		.byte	0
 1732 0823 00       		.byte	0
 1733 0824 1B       		.uleb128 0x1b
 1734 0825 B1000000 		.4byte	.LASF126
 1735 0829 01       		.byte	0x1
 1736 082a 63       		.byte	0x63
 1737 082b 00000000 		.4byte	.LFB262
 1738 082f 24000000 		.4byte	.LFE262-.LFB262
 1739 0833 01       		.uleb128 0x1
 1740 0834 9C       		.byte	0x9c
 1741 0835 52080000 		.4byte	0x852
 1742 0839 1E       		.uleb128 0x1e
 1743 083a 33010000 		.4byte	.LASF128
 1744 083e 01       		.byte	0x1
 1745 083f 63       		.byte	0x63
 1746 0840 8F070000 		.4byte	0x78f
 1747 0844 00000000 		.4byte	.LLST0
 1748 0848 1F       		.uleb128 0x1f
 1749 0849 1C000000 		.4byte	.LVL4
 1750 084d 86090000 		.4byte	0x986
 1751 0851 00       		.byte	0
 1752 0852 1B       		.uleb128 0x1b
 1753 0853 FF030000 		.4byte	.LASF127
 1754 0857 01       		.byte	0x1
 1755 0858 78       		.byte	0x78
ARM GAS  /tmp/ccHNlLx5.s 			page 53


 1756 0859 00000000 		.4byte	.LFB263
 1757 085d A0000000 		.4byte	.LFE263-.LFB263
 1758 0861 01       		.uleb128 0x1
 1759 0862 9C       		.byte	0x9c
 1760 0863 BB080000 		.4byte	0x8bb
 1761 0867 1E       		.uleb128 0x1e
 1762 0868 33010000 		.4byte	.LASF128
 1763 086c 01       		.byte	0x1
 1764 086d 78       		.byte	0x78
 1765 086e 8F070000 		.4byte	0x78f
 1766 0872 3A000000 		.4byte	.LLST1
 1767 0876 1E       		.uleb128 0x1e
 1768 0877 0E050000 		.4byte	.LASF129
 1769 087b 01       		.byte	0x1
 1770 087c 78       		.byte	0x78
 1771 087d 63070000 		.4byte	0x763
 1772 0881 74000000 		.4byte	.LLST2
 1773 0885 20       		.uleb128 0x20
 1774 0886 4C000000 		.4byte	.LBB2
 1775 088a 2A000000 		.4byte	.LBE2-.LBB2
 1776 088e 21       		.uleb128 0x21
 1777 088f 6E00     		.ascii	"n\000"
 1778 0891 01       		.byte	0x1
 1779 0892 7C       		.byte	0x7c
 1780 0893 B4000000 		.4byte	0xb4
 1781 0897 AE000000 		.4byte	.LLST3
 1782 089b 22       		.uleb128 0x22
 1783 089c B4010000 		.4byte	.LASF130
 1784 08a0 01       		.byte	0x1
 1785 08a1 7D       		.byte	0x7d
 1786 08a2 B4000000 		.4byte	0xb4
 1787 08a6 C5000000 		.4byte	.LLST4
 1788 08aa 22       		.uleb128 0x22
 1789 08ab CA010000 		.4byte	.LASF131
 1790 08af 01       		.byte	0x1
 1791 08b0 7E       		.byte	0x7e
 1792 08b1 B4000000 		.4byte	0xb4
 1793 08b5 F1000000 		.4byte	.LLST5
 1794 08b9 00       		.byte	0
 1795 08ba 00       		.byte	0
 1796 08bb 1B       		.uleb128 0x1b
 1797 08bc 06010000 		.4byte	.LASF132
 1798 08c0 01       		.byte	0x1
 1799 08c1 C1       		.byte	0xc1
 1800 08c2 00000000 		.4byte	.LFB264
 1801 08c6 2C000000 		.4byte	.LFE264-.LFB264
 1802 08ca 01       		.uleb128 0x1
 1803 08cb 9C       		.byte	0x9c
 1804 08cc EF080000 		.4byte	0x8ef
 1805 08d0 1E       		.uleb128 0x1e
 1806 08d1 33010000 		.4byte	.LASF128
 1807 08d5 01       		.byte	0x1
 1808 08d6 C1       		.byte	0xc1
 1809 08d7 8F070000 		.4byte	0x78f
 1810 08db 27010000 		.4byte	.LLST6
 1811 08df 1E       		.uleb128 0x1e
 1812 08e0 0E050000 		.4byte	.LASF129
ARM GAS  /tmp/ccHNlLx5.s 			page 54


 1813 08e4 01       		.byte	0x1
 1814 08e5 C1       		.byte	0xc1
 1815 08e6 63070000 		.4byte	0x763
 1816 08ea 48010000 		.4byte	.LLST7
 1817 08ee 00       		.byte	0
 1818 08ef 1B       		.uleb128 0x1b
 1819 08f0 2C020000 		.4byte	.LASF133
 1820 08f4 01       		.byte	0x1
 1821 08f5 4E       		.byte	0x4e
 1822 08f6 00000000 		.4byte	.LFB261
 1823 08fa 3A000000 		.4byte	.LFE261-.LFB261
 1824 08fe 01       		.uleb128 0x1
 1825 08ff 9C       		.byte	0x9c
 1826 0900 4D090000 		.4byte	0x94d
 1827 0904 1E       		.uleb128 0x1e
 1828 0905 33010000 		.4byte	.LASF128
 1829 0909 01       		.byte	0x1
 1830 090a 4E       		.byte	0x4e
 1831 090b 8F070000 		.4byte	0x78f
 1832 090f 69010000 		.4byte	.LLST8
 1833 0913 21       		.uleb128 0x21
 1834 0914 6900     		.ascii	"i\000"
 1835 0916 01       		.byte	0x1
 1836 0917 4F       		.byte	0x4f
 1837 0918 33000000 		.4byte	0x33
 1838 091c C9010000 		.4byte	.LLST9
 1839 0920 1F       		.uleb128 0x1f
 1840 0921 14000000 		.4byte	.LVL20
 1841 0925 52080000 		.4byte	0x852
 1842 0929 23       		.uleb128 0x23
 1843 092a 2E000000 		.4byte	.LVL24
 1844 092e BB080000 		.4byte	0x8bb
 1845 0932 43090000 		.4byte	0x943
 1846 0936 1D       		.uleb128 0x1d
 1847 0937 01       		.uleb128 0x1
 1848 0938 51       		.byte	0x51
 1849 0939 02       		.uleb128 0x2
 1850 093a 74       		.byte	0x74
 1851 093b 7F       		.sleb128 -1
 1852 093c 1D       		.uleb128 0x1d
 1853 093d 01       		.uleb128 0x1
 1854 093e 50       		.byte	0x50
 1855 093f 02       		.uleb128 0x2
 1856 0940 75       		.byte	0x75
 1857 0941 00       		.sleb128 0
 1858 0942 00       		.byte	0
 1859 0943 1F       		.uleb128 0x1f
 1860 0944 38000000 		.4byte	.LVL26
 1861 0948 8D090000 		.4byte	0x98d
 1862 094c 00       		.byte	0
 1863 094d 24       		.uleb128 0x24
 1864 094e E8000000 		.4byte	.LASF134
 1865 0952 10       		.byte	0x10
 1866 0953 A706     		.2byte	0x6a7
 1867 0955 CA000000 		.4byte	0xca
 1868 0959 25       		.uleb128 0x25
 1869 095a 636800   		.ascii	"ch\000"
ARM GAS  /tmp/ccHNlLx5.s 			page 55


 1870 095d 07       		.byte	0x7
 1871 095e 0902     		.2byte	0x209
 1872 0960 E6030000 		.4byte	0x3e6
 1873 0964 26       		.uleb128 0x26
 1874 0965 6B060000 		.4byte	.LASF135
 1875 0969 01       		.byte	0x1
 1876 096a 2A       		.byte	0x2a
 1877 096b 33070000 		.4byte	0x733
 1878 096f 05       		.uleb128 0x5
 1879 0970 03       		.byte	0x3
 1880 0971 00000000 		.4byte	EXTD1
 1881 0975 27       		.uleb128 0x27
 1882 0976 38010000 		.4byte	.LASF140
 1883 097a 0E       		.byte	0xe
 1884 097b 86       		.byte	0x86
 1885 097c 86090000 		.4byte	0x986
 1886 0980 0D       		.uleb128 0xd
 1887 0981 8F070000 		.4byte	0x78f
 1888 0985 00       		.byte	0
 1889 0986 28       		.uleb128 0x28
 1890 0987 E6010000 		.4byte	.LASF136
 1891 098b 11       		.byte	0x11
 1892 098c A1       		.byte	0xa1
 1893 098d 28       		.uleb128 0x28
 1894 098e 5B020000 		.4byte	.LASF137
 1895 0992 11       		.byte	0x11
 1896 0993 A0       		.byte	0xa0
 1897 0994 00       		.byte	0
 1898              		.section	.debug_abbrev,"",%progbits
 1899              	.Ldebug_abbrev0:
 1900 0000 01       		.uleb128 0x1
 1901 0001 11       		.uleb128 0x11
 1902 0002 01       		.byte	0x1
 1903 0003 25       		.uleb128 0x25
 1904 0004 0E       		.uleb128 0xe
 1905 0005 13       		.uleb128 0x13
 1906 0006 0B       		.uleb128 0xb
 1907 0007 03       		.uleb128 0x3
 1908 0008 0E       		.uleb128 0xe
 1909 0009 55       		.uleb128 0x55
 1910 000a 17       		.uleb128 0x17
 1911 000b 11       		.uleb128 0x11
 1912 000c 01       		.uleb128 0x1
 1913 000d 10       		.uleb128 0x10
 1914 000e 17       		.uleb128 0x17
 1915 000f 00       		.byte	0
 1916 0010 00       		.byte	0
 1917 0011 02       		.uleb128 0x2
 1918 0012 24       		.uleb128 0x24
 1919 0013 00       		.byte	0
 1920 0014 0B       		.uleb128 0xb
 1921 0015 0B       		.uleb128 0xb
 1922 0016 3E       		.uleb128 0x3e
 1923 0017 0B       		.uleb128 0xb
 1924 0018 03       		.uleb128 0x3
 1925 0019 08       		.uleb128 0x8
 1926 001a 00       		.byte	0
ARM GAS  /tmp/ccHNlLx5.s 			page 56


 1927 001b 00       		.byte	0
 1928 001c 03       		.uleb128 0x3
 1929 001d 16       		.uleb128 0x16
 1930 001e 00       		.byte	0
 1931 001f 03       		.uleb128 0x3
 1932 0020 0E       		.uleb128 0xe
 1933 0021 3A       		.uleb128 0x3a
 1934 0022 0B       		.uleb128 0xb
 1935 0023 3B       		.uleb128 0x3b
 1936 0024 0B       		.uleb128 0xb
 1937 0025 49       		.uleb128 0x49
 1938 0026 13       		.uleb128 0x13
 1939 0027 00       		.byte	0
 1940 0028 00       		.byte	0
 1941 0029 04       		.uleb128 0x4
 1942 002a 24       		.uleb128 0x24
 1943 002b 00       		.byte	0
 1944 002c 0B       		.uleb128 0xb
 1945 002d 0B       		.uleb128 0xb
 1946 002e 3E       		.uleb128 0x3e
 1947 002f 0B       		.uleb128 0xb
 1948 0030 03       		.uleb128 0x3
 1949 0031 0E       		.uleb128 0xe
 1950 0032 00       		.byte	0
 1951 0033 00       		.byte	0
 1952 0034 05       		.uleb128 0x5
 1953 0035 35       		.uleb128 0x35
 1954 0036 00       		.byte	0
 1955 0037 49       		.uleb128 0x49
 1956 0038 13       		.uleb128 0x13
 1957 0039 00       		.byte	0
 1958 003a 00       		.byte	0
 1959 003b 06       		.uleb128 0x6
 1960 003c 13       		.uleb128 0x13
 1961 003d 01       		.byte	0x1
 1962 003e 03       		.uleb128 0x3
 1963 003f 0E       		.uleb128 0xe
 1964 0040 0B       		.uleb128 0xb
 1965 0041 0B       		.uleb128 0xb
 1966 0042 3A       		.uleb128 0x3a
 1967 0043 0B       		.uleb128 0xb
 1968 0044 3B       		.uleb128 0x3b
 1969 0045 0B       		.uleb128 0xb
 1970 0046 01       		.uleb128 0x1
 1971 0047 13       		.uleb128 0x13
 1972 0048 00       		.byte	0
 1973 0049 00       		.byte	0
 1974 004a 07       		.uleb128 0x7
 1975 004b 0D       		.uleb128 0xd
 1976 004c 00       		.byte	0
 1977 004d 03       		.uleb128 0x3
 1978 004e 0E       		.uleb128 0xe
 1979 004f 3A       		.uleb128 0x3a
 1980 0050 0B       		.uleb128 0xb
 1981 0051 3B       		.uleb128 0x3b
 1982 0052 0B       		.uleb128 0xb
 1983 0053 49       		.uleb128 0x49
ARM GAS  /tmp/ccHNlLx5.s 			page 57


 1984 0054 13       		.uleb128 0x13
 1985 0055 38       		.uleb128 0x38
 1986 0056 0B       		.uleb128 0xb
 1987 0057 00       		.byte	0
 1988 0058 00       		.byte	0
 1989 0059 08       		.uleb128 0x8
 1990 005a 0D       		.uleb128 0xd
 1991 005b 00       		.byte	0
 1992 005c 03       		.uleb128 0x3
 1993 005d 08       		.uleb128 0x8
 1994 005e 3A       		.uleb128 0x3a
 1995 005f 0B       		.uleb128 0xb
 1996 0060 3B       		.uleb128 0x3b
 1997 0061 05       		.uleb128 0x5
 1998 0062 49       		.uleb128 0x49
 1999 0063 13       		.uleb128 0x13
 2000 0064 38       		.uleb128 0x38
 2001 0065 0B       		.uleb128 0xb
 2002 0066 00       		.byte	0
 2003 0067 00       		.byte	0
 2004 0068 09       		.uleb128 0x9
 2005 0069 0D       		.uleb128 0xd
 2006 006a 00       		.byte	0
 2007 006b 03       		.uleb128 0x3
 2008 006c 0E       		.uleb128 0xe
 2009 006d 3A       		.uleb128 0x3a
 2010 006e 0B       		.uleb128 0xb
 2011 006f 3B       		.uleb128 0x3b
 2012 0070 05       		.uleb128 0x5
 2013 0071 49       		.uleb128 0x49
 2014 0072 13       		.uleb128 0x13
 2015 0073 38       		.uleb128 0x38
 2016 0074 0B       		.uleb128 0xb
 2017 0075 00       		.byte	0
 2018 0076 00       		.byte	0
 2019 0077 0A       		.uleb128 0xa
 2020 0078 0F       		.uleb128 0xf
 2021 0079 00       		.byte	0
 2022 007a 0B       		.uleb128 0xb
 2023 007b 0B       		.uleb128 0xb
 2024 007c 49       		.uleb128 0x49
 2025 007d 13       		.uleb128 0x13
 2026 007e 00       		.byte	0
 2027 007f 00       		.byte	0
 2028 0080 0B       		.uleb128 0xb
 2029 0081 13       		.uleb128 0x13
 2030 0082 01       		.byte	0x1
 2031 0083 03       		.uleb128 0x3
 2032 0084 0E       		.uleb128 0xe
 2033 0085 0B       		.uleb128 0xb
 2034 0086 0B       		.uleb128 0xb
 2035 0087 3A       		.uleb128 0x3a
 2036 0088 0B       		.uleb128 0xb
 2037 0089 3B       		.uleb128 0x3b
 2038 008a 05       		.uleb128 0x5
 2039 008b 01       		.uleb128 0x1
 2040 008c 13       		.uleb128 0x13
ARM GAS  /tmp/ccHNlLx5.s 			page 58


 2041 008d 00       		.byte	0
 2042 008e 00       		.byte	0
 2043 008f 0C       		.uleb128 0xc
 2044 0090 15       		.uleb128 0x15
 2045 0091 01       		.byte	0x1
 2046 0092 27       		.uleb128 0x27
 2047 0093 19       		.uleb128 0x19
 2048 0094 01       		.uleb128 0x1
 2049 0095 13       		.uleb128 0x13
 2050 0096 00       		.byte	0
 2051 0097 00       		.byte	0
 2052 0098 0D       		.uleb128 0xd
 2053 0099 05       		.uleb128 0x5
 2054 009a 00       		.byte	0
 2055 009b 49       		.uleb128 0x49
 2056 009c 13       		.uleb128 0x13
 2057 009d 00       		.byte	0
 2058 009e 00       		.byte	0
 2059 009f 0E       		.uleb128 0xe
 2060 00a0 0F       		.uleb128 0xf
 2061 00a1 00       		.byte	0
 2062 00a2 0B       		.uleb128 0xb
 2063 00a3 0B       		.uleb128 0xb
 2064 00a4 00       		.byte	0
 2065 00a5 00       		.byte	0
 2066 00a6 0F       		.uleb128 0xf
 2067 00a7 13       		.uleb128 0x13
 2068 00a8 01       		.byte	0x1
 2069 00a9 03       		.uleb128 0x3
 2070 00aa 0E       		.uleb128 0xe
 2071 00ab 0B       		.uleb128 0xb
 2072 00ac 05       		.uleb128 0x5
 2073 00ad 3A       		.uleb128 0x3a
 2074 00ae 0B       		.uleb128 0xb
 2075 00af 3B       		.uleb128 0x3b
 2076 00b0 05       		.uleb128 0x5
 2077 00b1 01       		.uleb128 0x1
 2078 00b2 13       		.uleb128 0x13
 2079 00b3 00       		.byte	0
 2080 00b4 00       		.byte	0
 2081 00b5 10       		.uleb128 0x10
 2082 00b6 01       		.uleb128 0x1
 2083 00b7 01       		.byte	0x1
 2084 00b8 49       		.uleb128 0x49
 2085 00b9 13       		.uleb128 0x13
 2086 00ba 01       		.uleb128 0x1
 2087 00bb 13       		.uleb128 0x13
 2088 00bc 00       		.byte	0
 2089 00bd 00       		.byte	0
 2090 00be 11       		.uleb128 0x11
 2091 00bf 21       		.uleb128 0x21
 2092 00c0 00       		.byte	0
 2093 00c1 49       		.uleb128 0x49
 2094 00c2 13       		.uleb128 0x13
 2095 00c3 2F       		.uleb128 0x2f
 2096 00c4 0B       		.uleb128 0xb
 2097 00c5 00       		.byte	0
ARM GAS  /tmp/ccHNlLx5.s 			page 59


 2098 00c6 00       		.byte	0
 2099 00c7 12       		.uleb128 0x12
 2100 00c8 13       		.uleb128 0x13
 2101 00c9 01       		.byte	0x1
 2102 00ca 0B       		.uleb128 0xb
 2103 00cb 0B       		.uleb128 0xb
 2104 00cc 3A       		.uleb128 0x3a
 2105 00cd 0B       		.uleb128 0xb
 2106 00ce 3B       		.uleb128 0x3b
 2107 00cf 05       		.uleb128 0x5
 2108 00d0 01       		.uleb128 0x1
 2109 00d1 13       		.uleb128 0x13
 2110 00d2 00       		.byte	0
 2111 00d3 00       		.byte	0
 2112 00d4 13       		.uleb128 0x13
 2113 00d5 16       		.uleb128 0x16
 2114 00d6 00       		.byte	0
 2115 00d7 03       		.uleb128 0x3
 2116 00d8 0E       		.uleb128 0xe
 2117 00d9 3A       		.uleb128 0x3a
 2118 00da 0B       		.uleb128 0xb
 2119 00db 3B       		.uleb128 0x3b
 2120 00dc 05       		.uleb128 0x5
 2121 00dd 49       		.uleb128 0x49
 2122 00de 13       		.uleb128 0x13
 2123 00df 00       		.byte	0
 2124 00e0 00       		.byte	0
 2125 00e1 14       		.uleb128 0x14
 2126 00e2 0D       		.uleb128 0xd
 2127 00e3 00       		.byte	0
 2128 00e4 03       		.uleb128 0x3
 2129 00e5 08       		.uleb128 0x8
 2130 00e6 3A       		.uleb128 0x3a
 2131 00e7 0B       		.uleb128 0xb
 2132 00e8 3B       		.uleb128 0x3b
 2133 00e9 0B       		.uleb128 0xb
 2134 00ea 49       		.uleb128 0x49
 2135 00eb 13       		.uleb128 0x13
 2136 00ec 38       		.uleb128 0x38
 2137 00ed 0B       		.uleb128 0xb
 2138 00ee 00       		.byte	0
 2139 00ef 00       		.byte	0
 2140 00f0 15       		.uleb128 0x15
 2141 00f1 13       		.uleb128 0x13
 2142 00f2 01       		.byte	0x1
 2143 00f3 0B       		.uleb128 0xb
 2144 00f4 0B       		.uleb128 0xb
 2145 00f5 3A       		.uleb128 0x3a
 2146 00f6 0B       		.uleb128 0xb
 2147 00f7 3B       		.uleb128 0x3b
 2148 00f8 0B       		.uleb128 0xb
 2149 00f9 01       		.uleb128 0x1
 2150 00fa 13       		.uleb128 0x13
 2151 00fb 00       		.byte	0
 2152 00fc 00       		.byte	0
 2153 00fd 16       		.uleb128 0x16
 2154 00fe 17       		.uleb128 0x17
ARM GAS  /tmp/ccHNlLx5.s 			page 60


 2155 00ff 01       		.byte	0x1
 2156 0100 0B       		.uleb128 0xb
 2157 0101 0B       		.uleb128 0xb
 2158 0102 3A       		.uleb128 0x3a
 2159 0103 0B       		.uleb128 0xb
 2160 0104 3B       		.uleb128 0x3b
 2161 0105 0B       		.uleb128 0xb
 2162 0106 01       		.uleb128 0x1
 2163 0107 13       		.uleb128 0x13
 2164 0108 00       		.byte	0
 2165 0109 00       		.byte	0
 2166 010a 17       		.uleb128 0x17
 2167 010b 0D       		.uleb128 0xd
 2168 010c 00       		.byte	0
 2169 010d 03       		.uleb128 0x3
 2170 010e 0E       		.uleb128 0xe
 2171 010f 3A       		.uleb128 0x3a
 2172 0110 0B       		.uleb128 0xb
 2173 0111 3B       		.uleb128 0x3b
 2174 0112 05       		.uleb128 0x5
 2175 0113 49       		.uleb128 0x49
 2176 0114 13       		.uleb128 0x13
 2177 0115 00       		.byte	0
 2178 0116 00       		.byte	0
 2179 0117 18       		.uleb128 0x18
 2180 0118 26       		.uleb128 0x26
 2181 0119 00       		.byte	0
 2182 011a 49       		.uleb128 0x49
 2183 011b 13       		.uleb128 0x13
 2184 011c 00       		.byte	0
 2185 011d 00       		.byte	0
 2186 011e 19       		.uleb128 0x19
 2187 011f 04       		.uleb128 0x4
 2188 0120 01       		.byte	0x1
 2189 0121 0B       		.uleb128 0xb
 2190 0122 0B       		.uleb128 0xb
 2191 0123 3A       		.uleb128 0x3a
 2192 0124 0B       		.uleb128 0xb
 2193 0125 3B       		.uleb128 0x3b
 2194 0126 0B       		.uleb128 0xb
 2195 0127 01       		.uleb128 0x1
 2196 0128 13       		.uleb128 0x13
 2197 0129 00       		.byte	0
 2198 012a 00       		.byte	0
 2199 012b 1A       		.uleb128 0x1a
 2200 012c 28       		.uleb128 0x28
 2201 012d 00       		.byte	0
 2202 012e 03       		.uleb128 0x3
 2203 012f 0E       		.uleb128 0xe
 2204 0130 1C       		.uleb128 0x1c
 2205 0131 0D       		.uleb128 0xd
 2206 0132 00       		.byte	0
 2207 0133 00       		.byte	0
 2208 0134 1B       		.uleb128 0x1b
 2209 0135 2E       		.uleb128 0x2e
 2210 0136 01       		.byte	0x1
 2211 0137 3F       		.uleb128 0x3f
ARM GAS  /tmp/ccHNlLx5.s 			page 61


 2212 0138 19       		.uleb128 0x19
 2213 0139 03       		.uleb128 0x3
 2214 013a 0E       		.uleb128 0xe
 2215 013b 3A       		.uleb128 0x3a
 2216 013c 0B       		.uleb128 0xb
 2217 013d 3B       		.uleb128 0x3b
 2218 013e 0B       		.uleb128 0xb
 2219 013f 27       		.uleb128 0x27
 2220 0140 19       		.uleb128 0x19
 2221 0141 11       		.uleb128 0x11
 2222 0142 01       		.uleb128 0x1
 2223 0143 12       		.uleb128 0x12
 2224 0144 06       		.uleb128 0x6
 2225 0145 40       		.uleb128 0x40
 2226 0146 18       		.uleb128 0x18
 2227 0147 9742     		.uleb128 0x2117
 2228 0149 19       		.uleb128 0x19
 2229 014a 01       		.uleb128 0x1
 2230 014b 13       		.uleb128 0x13
 2231 014c 00       		.byte	0
 2232 014d 00       		.byte	0
 2233 014e 1C       		.uleb128 0x1c
 2234 014f 898201   		.uleb128 0x4109
 2235 0152 01       		.byte	0x1
 2236 0153 11       		.uleb128 0x11
 2237 0154 01       		.uleb128 0x1
 2238 0155 9542     		.uleb128 0x2115
 2239 0157 19       		.uleb128 0x19
 2240 0158 31       		.uleb128 0x31
 2241 0159 13       		.uleb128 0x13
 2242 015a 00       		.byte	0
 2243 015b 00       		.byte	0
 2244 015c 1D       		.uleb128 0x1d
 2245 015d 8A8201   		.uleb128 0x410a
 2246 0160 00       		.byte	0
 2247 0161 02       		.uleb128 0x2
 2248 0162 18       		.uleb128 0x18
 2249 0163 9142     		.uleb128 0x2111
 2250 0165 18       		.uleb128 0x18
 2251 0166 00       		.byte	0
 2252 0167 00       		.byte	0
 2253 0168 1E       		.uleb128 0x1e
 2254 0169 05       		.uleb128 0x5
 2255 016a 00       		.byte	0
 2256 016b 03       		.uleb128 0x3
 2257 016c 0E       		.uleb128 0xe
 2258 016d 3A       		.uleb128 0x3a
 2259 016e 0B       		.uleb128 0xb
 2260 016f 3B       		.uleb128 0x3b
 2261 0170 0B       		.uleb128 0xb
 2262 0171 49       		.uleb128 0x49
 2263 0172 13       		.uleb128 0x13
 2264 0173 02       		.uleb128 0x2
 2265 0174 17       		.uleb128 0x17
 2266 0175 00       		.byte	0
 2267 0176 00       		.byte	0
 2268 0177 1F       		.uleb128 0x1f
ARM GAS  /tmp/ccHNlLx5.s 			page 62


 2269 0178 898201   		.uleb128 0x4109
 2270 017b 00       		.byte	0
 2271 017c 11       		.uleb128 0x11
 2272 017d 01       		.uleb128 0x1
 2273 017e 31       		.uleb128 0x31
 2274 017f 13       		.uleb128 0x13
 2275 0180 00       		.byte	0
 2276 0181 00       		.byte	0
 2277 0182 20       		.uleb128 0x20
 2278 0183 0B       		.uleb128 0xb
 2279 0184 01       		.byte	0x1
 2280 0185 11       		.uleb128 0x11
 2281 0186 01       		.uleb128 0x1
 2282 0187 12       		.uleb128 0x12
 2283 0188 06       		.uleb128 0x6
 2284 0189 00       		.byte	0
 2285 018a 00       		.byte	0
 2286 018b 21       		.uleb128 0x21
 2287 018c 34       		.uleb128 0x34
 2288 018d 00       		.byte	0
 2289 018e 03       		.uleb128 0x3
 2290 018f 08       		.uleb128 0x8
 2291 0190 3A       		.uleb128 0x3a
 2292 0191 0B       		.uleb128 0xb
 2293 0192 3B       		.uleb128 0x3b
 2294 0193 0B       		.uleb128 0xb
 2295 0194 49       		.uleb128 0x49
 2296 0195 13       		.uleb128 0x13
 2297 0196 02       		.uleb128 0x2
 2298 0197 17       		.uleb128 0x17
 2299 0198 00       		.byte	0
 2300 0199 00       		.byte	0
 2301 019a 22       		.uleb128 0x22
 2302 019b 34       		.uleb128 0x34
 2303 019c 00       		.byte	0
 2304 019d 03       		.uleb128 0x3
 2305 019e 0E       		.uleb128 0xe
 2306 019f 3A       		.uleb128 0x3a
 2307 01a0 0B       		.uleb128 0xb
 2308 01a1 3B       		.uleb128 0x3b
 2309 01a2 0B       		.uleb128 0xb
 2310 01a3 49       		.uleb128 0x49
 2311 01a4 13       		.uleb128 0x13
 2312 01a5 02       		.uleb128 0x2
 2313 01a6 17       		.uleb128 0x17
 2314 01a7 00       		.byte	0
 2315 01a8 00       		.byte	0
 2316 01a9 23       		.uleb128 0x23
 2317 01aa 898201   		.uleb128 0x4109
 2318 01ad 01       		.byte	0x1
 2319 01ae 11       		.uleb128 0x11
 2320 01af 01       		.uleb128 0x1
 2321 01b0 31       		.uleb128 0x31
 2322 01b1 13       		.uleb128 0x13
 2323 01b2 01       		.uleb128 0x1
 2324 01b3 13       		.uleb128 0x13
 2325 01b4 00       		.byte	0
ARM GAS  /tmp/ccHNlLx5.s 			page 63


 2326 01b5 00       		.byte	0
 2327 01b6 24       		.uleb128 0x24
 2328 01b7 34       		.uleb128 0x34
 2329 01b8 00       		.byte	0
 2330 01b9 03       		.uleb128 0x3
 2331 01ba 0E       		.uleb128 0xe
 2332 01bb 3A       		.uleb128 0x3a
 2333 01bc 0B       		.uleb128 0xb
 2334 01bd 3B       		.uleb128 0x3b
 2335 01be 05       		.uleb128 0x5
 2336 01bf 49       		.uleb128 0x49
 2337 01c0 13       		.uleb128 0x13
 2338 01c1 3F       		.uleb128 0x3f
 2339 01c2 19       		.uleb128 0x19
 2340 01c3 3C       		.uleb128 0x3c
 2341 01c4 19       		.uleb128 0x19
 2342 01c5 00       		.byte	0
 2343 01c6 00       		.byte	0
 2344 01c7 25       		.uleb128 0x25
 2345 01c8 34       		.uleb128 0x34
 2346 01c9 00       		.byte	0
 2347 01ca 03       		.uleb128 0x3
 2348 01cb 08       		.uleb128 0x8
 2349 01cc 3A       		.uleb128 0x3a
 2350 01cd 0B       		.uleb128 0xb
 2351 01ce 3B       		.uleb128 0x3b
 2352 01cf 05       		.uleb128 0x5
 2353 01d0 49       		.uleb128 0x49
 2354 01d1 13       		.uleb128 0x13
 2355 01d2 3F       		.uleb128 0x3f
 2356 01d3 19       		.uleb128 0x19
 2357 01d4 3C       		.uleb128 0x3c
 2358 01d5 19       		.uleb128 0x19
 2359 01d6 00       		.byte	0
 2360 01d7 00       		.byte	0
 2361 01d8 26       		.uleb128 0x26
 2362 01d9 34       		.uleb128 0x34
 2363 01da 00       		.byte	0
 2364 01db 03       		.uleb128 0x3
 2365 01dc 0E       		.uleb128 0xe
 2366 01dd 3A       		.uleb128 0x3a
 2367 01de 0B       		.uleb128 0xb
 2368 01df 3B       		.uleb128 0x3b
 2369 01e0 0B       		.uleb128 0xb
 2370 01e1 49       		.uleb128 0x49
 2371 01e2 13       		.uleb128 0x13
 2372 01e3 3F       		.uleb128 0x3f
 2373 01e4 19       		.uleb128 0x19
 2374 01e5 02       		.uleb128 0x2
 2375 01e6 18       		.uleb128 0x18
 2376 01e7 00       		.byte	0
 2377 01e8 00       		.byte	0
 2378 01e9 27       		.uleb128 0x27
 2379 01ea 2E       		.uleb128 0x2e
 2380 01eb 01       		.byte	0x1
 2381 01ec 3F       		.uleb128 0x3f
 2382 01ed 19       		.uleb128 0x19
ARM GAS  /tmp/ccHNlLx5.s 			page 64


 2383 01ee 03       		.uleb128 0x3
 2384 01ef 0E       		.uleb128 0xe
 2385 01f0 3A       		.uleb128 0x3a
 2386 01f1 0B       		.uleb128 0xb
 2387 01f2 3B       		.uleb128 0x3b
 2388 01f3 0B       		.uleb128 0xb
 2389 01f4 27       		.uleb128 0x27
 2390 01f5 19       		.uleb128 0x19
 2391 01f6 3C       		.uleb128 0x3c
 2392 01f7 19       		.uleb128 0x19
 2393 01f8 01       		.uleb128 0x1
 2394 01f9 13       		.uleb128 0x13
 2395 01fa 00       		.byte	0
 2396 01fb 00       		.byte	0
 2397 01fc 28       		.uleb128 0x28
 2398 01fd 2E       		.uleb128 0x2e
 2399 01fe 00       		.byte	0
 2400 01ff 3F       		.uleb128 0x3f
 2401 0200 19       		.uleb128 0x19
 2402 0201 03       		.uleb128 0x3
 2403 0202 0E       		.uleb128 0xe
 2404 0203 3A       		.uleb128 0x3a
 2405 0204 0B       		.uleb128 0xb
 2406 0205 3B       		.uleb128 0x3b
 2407 0206 0B       		.uleb128 0xb
 2408 0207 27       		.uleb128 0x27
 2409 0208 19       		.uleb128 0x19
 2410 0209 3C       		.uleb128 0x3c
 2411 020a 19       		.uleb128 0x19
 2412 020b 00       		.byte	0
 2413 020c 00       		.byte	0
 2414 020d 00       		.byte	0
 2415              		.section	.debug_loc,"",%progbits
 2416              	.Ldebug_loc0:
 2417              	.LLST0:
 2418 0000 00000000 		.4byte	.LVL1
 2419 0004 08000000 		.4byte	.LVL2
 2420 0008 0100     		.2byte	0x1
 2421 000a 50       		.byte	0x50
 2422 000b 08000000 		.4byte	.LVL2
 2423 000f 18000000 		.4byte	.LVL3
 2424 0013 0400     		.2byte	0x4
 2425 0015 F3       		.byte	0xf3
 2426 0016 01       		.uleb128 0x1
 2427 0017 50       		.byte	0x50
 2428 0018 9F       		.byte	0x9f
 2429 0019 18000000 		.4byte	.LVL3
 2430 001d 1B000000 		.4byte	.LVL4-1
 2431 0021 0100     		.2byte	0x1
 2432 0023 50       		.byte	0x50
 2433 0024 1B000000 		.4byte	.LVL4-1
 2434 0028 24000000 		.4byte	.LFE262
 2435 002c 0400     		.2byte	0x4
 2436 002e F3       		.byte	0xf3
 2437 002f 01       		.uleb128 0x1
 2438 0030 50       		.byte	0x50
 2439 0031 9F       		.byte	0x9f
ARM GAS  /tmp/ccHNlLx5.s 			page 65


 2440 0032 00000000 		.4byte	0
 2441 0036 00000000 		.4byte	0
 2442              	.LLST1:
 2443 003a 00000000 		.4byte	.LVL5
 2444 003e 0C000000 		.4byte	.LVL6
 2445 0042 0100     		.2byte	0x1
 2446 0044 50       		.byte	0x50
 2447 0045 0C000000 		.4byte	.LVL6
 2448 0049 48000000 		.4byte	.LVL8
 2449 004d 0400     		.2byte	0x4
 2450 004f F3       		.byte	0xf3
 2451 0050 01       		.uleb128 0x1
 2452 0051 50       		.byte	0x50
 2453 0052 9F       		.byte	0x9f
 2454 0053 48000000 		.4byte	.LVL8
 2455 0057 5A000000 		.4byte	.LVL9
 2456 005b 0100     		.2byte	0x1
 2457 005d 50       		.byte	0x50
 2458 005e 5A000000 		.4byte	.LVL9
 2459 0062 A0000000 		.4byte	.LFE263
 2460 0066 0400     		.2byte	0x4
 2461 0068 F3       		.byte	0xf3
 2462 0069 01       		.uleb128 0x1
 2463 006a 50       		.byte	0x50
 2464 006b 9F       		.byte	0x9f
 2465 006c 00000000 		.4byte	0
 2466 0070 00000000 		.4byte	0
 2467              	.LLST2:
 2468 0074 00000000 		.4byte	.LVL5
 2469 0078 28000000 		.4byte	.LVL7
 2470 007c 0100     		.2byte	0x1
 2471 007e 51       		.byte	0x51
 2472 007f 28000000 		.4byte	.LVL7
 2473 0083 48000000 		.4byte	.LVL8
 2474 0087 0400     		.2byte	0x4
 2475 0089 F3       		.byte	0xf3
 2476 008a 01       		.uleb128 0x1
 2477 008b 51       		.byte	0x51
 2478 008c 9F       		.byte	0x9f
 2479 008d 48000000 		.4byte	.LVL8
 2480 0091 8A000000 		.4byte	.LVL13
 2481 0095 0100     		.2byte	0x1
 2482 0097 51       		.byte	0x51
 2483 0098 8A000000 		.4byte	.LVL13
 2484 009c A0000000 		.4byte	.LFE263
 2485 00a0 0400     		.2byte	0x4
 2486 00a2 F3       		.byte	0xf3
 2487 00a3 01       		.uleb128 0x1
 2488 00a4 51       		.byte	0x51
 2489 00a5 9F       		.byte	0x9f
 2490 00a6 00000000 		.4byte	0
 2491 00aa 00000000 		.4byte	0
 2492              	.LLST3:
 2493 00ae 48000000 		.4byte	.LVL8
 2494 00b2 7A000000 		.4byte	.LVL12
 2495 00b6 0500     		.2byte	0x5
 2496 00b8 71       		.byte	0x71
ARM GAS  /tmp/ccHNlLx5.s 			page 66


 2497 00b9 00       		.sleb128 0
 2498 00ba 32       		.byte	0x32
 2499 00bb 25       		.byte	0x25
 2500 00bc 9F       		.byte	0x9f
 2501 00bd 00000000 		.4byte	0
 2502 00c1 00000000 		.4byte	0
 2503              	.LLST4:
 2504 00c5 62000000 		.4byte	.LVL10
 2505 00c9 72000000 		.4byte	.LVL11
 2506 00cd 0600     		.2byte	0x6
 2507 00cf 3F       		.byte	0x3f
 2508 00d0 74       		.byte	0x74
 2509 00d1 00       		.sleb128 0
 2510 00d2 24       		.byte	0x24
 2511 00d3 20       		.byte	0x20
 2512 00d4 9F       		.byte	0x9f
 2513 00d5 72000000 		.4byte	.LVL11
 2514 00d9 7A000000 		.4byte	.LVL12
 2515 00dd 0A00     		.2byte	0xa
 2516 00df 3F       		.byte	0x3f
 2517 00e0 71       		.byte	0x71
 2518 00e1 00       		.sleb128 0
 2519 00e2 33       		.byte	0x33
 2520 00e3 1A       		.byte	0x1a
 2521 00e4 32       		.byte	0x32
 2522 00e5 24       		.byte	0x24
 2523 00e6 24       		.byte	0x24
 2524 00e7 20       		.byte	0x20
 2525 00e8 9F       		.byte	0x9f
 2526 00e9 00000000 		.4byte	0
 2527 00ed 00000000 		.4byte	0
 2528              	.LLST5:
 2529 00f1 62000000 		.4byte	.LVL10
 2530 00f5 72000000 		.4byte	.LVL11
 2531 00f9 0B00     		.2byte	0xb
 2532 00fb 70       		.byte	0x70
 2533 00fc 00       		.sleb128 0
 2534 00fd 08       		.byte	0x8
 2535 00fe F0       		.byte	0xf0
 2536 00ff 1A       		.byte	0x1a
 2537 0100 34       		.byte	0x34
 2538 0101 25       		.byte	0x25
 2539 0102 74       		.byte	0x74
 2540 0103 00       		.sleb128 0
 2541 0104 24       		.byte	0x24
 2542 0105 9F       		.byte	0x9f
 2543 0106 72000000 		.4byte	.LVL11
 2544 010a 7A000000 		.4byte	.LVL12
 2545 010e 0F00     		.2byte	0xf
 2546 0110 70       		.byte	0x70
 2547 0111 00       		.sleb128 0
 2548 0112 08       		.byte	0x8
 2549 0113 F0       		.byte	0xf0
 2550 0114 1A       		.byte	0x1a
 2551 0115 34       		.byte	0x34
 2552 0116 25       		.byte	0x25
 2553 0117 71       		.byte	0x71
ARM GAS  /tmp/ccHNlLx5.s 			page 67


 2554 0118 00       		.sleb128 0
 2555 0119 33       		.byte	0x33
 2556 011a 1A       		.byte	0x1a
 2557 011b 32       		.byte	0x32
 2558 011c 24       		.byte	0x24
 2559 011d 24       		.byte	0x24
 2560 011e 9F       		.byte	0x9f
 2561 011f 00000000 		.4byte	0
 2562 0123 00000000 		.4byte	0
 2563              	.LLST6:
 2564 0127 00000000 		.4byte	.LVL14
 2565 012b 06000000 		.4byte	.LVL15
 2566 012f 0100     		.2byte	0x1
 2567 0131 50       		.byte	0x50
 2568 0132 06000000 		.4byte	.LVL15
 2569 0136 2C000000 		.4byte	.LFE264
 2570 013a 0400     		.2byte	0x4
 2571 013c F3       		.byte	0xf3
 2572 013d 01       		.uleb128 0x1
 2573 013e 50       		.byte	0x50
 2574 013f 9F       		.byte	0x9f
 2575 0140 00000000 		.4byte	0
 2576 0144 00000000 		.4byte	0
 2577              	.LLST7:
 2578 0148 00000000 		.4byte	.LVL14
 2579 014c 0A000000 		.4byte	.LVL16
 2580 0150 0100     		.2byte	0x1
 2581 0152 51       		.byte	0x51
 2582 0153 0A000000 		.4byte	.LVL16
 2583 0157 2C000000 		.4byte	.LFE264
 2584 015b 0400     		.2byte	0x4
 2585 015d F3       		.byte	0xf3
 2586 015e 01       		.uleb128 0x1
 2587 015f 51       		.byte	0x51
 2588 0160 9F       		.byte	0x9f
 2589 0161 00000000 		.4byte	0
 2590 0165 00000000 		.4byte	0
 2591              	.LLST8:
 2592 0169 00000000 		.4byte	.LVL17
 2593 016d 0A000000 		.4byte	.LVL18
 2594 0171 0100     		.2byte	0x1
 2595 0173 50       		.byte	0x50
 2596 0174 0A000000 		.4byte	.LVL18
 2597 0178 0E000000 		.4byte	.LVL19
 2598 017c 0100     		.2byte	0x1
 2599 017e 55       		.byte	0x55
 2600 017f 0E000000 		.4byte	.LVL19
 2601 0183 13000000 		.4byte	.LVL20-1
 2602 0187 0100     		.2byte	0x1
 2603 0189 50       		.byte	0x50
 2604 018a 13000000 		.4byte	.LVL20-1
 2605 018e 28000000 		.4byte	.LVL22
 2606 0192 0100     		.2byte	0x1
 2607 0194 55       		.byte	0x55
 2608 0195 28000000 		.4byte	.LVL22
 2609 0199 2D000000 		.4byte	.LVL24-1
 2610 019d 0100     		.2byte	0x1
ARM GAS  /tmp/ccHNlLx5.s 			page 68


 2611 019f 50       		.byte	0x50
 2612 01a0 2D000000 		.4byte	.LVL24-1
 2613 01a4 34000000 		.4byte	.LVL25
 2614 01a8 0100     		.2byte	0x1
 2615 01aa 55       		.byte	0x55
 2616 01ab 34000000 		.4byte	.LVL25
 2617 01af 37000000 		.4byte	.LVL26-1
 2618 01b3 0100     		.2byte	0x1
 2619 01b5 50       		.byte	0x50
 2620 01b6 37000000 		.4byte	.LVL26-1
 2621 01ba 3A000000 		.4byte	.LFE261
 2622 01be 0100     		.2byte	0x1
 2623 01c0 55       		.byte	0x55
 2624 01c1 00000000 		.4byte	0
 2625 01c5 00000000 		.4byte	0
 2626              	.LLST9:
 2627 01c9 0A000000 		.4byte	.LVL18
 2628 01cd 0E000000 		.4byte	.LVL19
 2629 01d1 0200     		.2byte	0x2
 2630 01d3 30       		.byte	0x30
 2631 01d4 9F       		.byte	0x9f
 2632 01d5 0E000000 		.4byte	.LVL19
 2633 01d9 13000000 		.4byte	.LVL20-1
 2634 01dd 0100     		.2byte	0x1
 2635 01df 51       		.byte	0x51
 2636 01e0 13000000 		.4byte	.LVL20-1
 2637 01e4 14000000 		.4byte	.LVL20
 2638 01e8 0300     		.2byte	0x3
 2639 01ea 74       		.byte	0x74
 2640 01eb 7F       		.sleb128 -1
 2641 01ec 9F       		.byte	0x9f
 2642 01ed 14000000 		.4byte	.LVL20
 2643 01f1 2A000000 		.4byte	.LVL23
 2644 01f5 0100     		.2byte	0x1
 2645 01f7 54       		.byte	0x54
 2646 01f8 2A000000 		.4byte	.LVL23
 2647 01fc 2D000000 		.4byte	.LVL24-1
 2648 0200 0100     		.2byte	0x1
 2649 0202 51       		.byte	0x51
 2650 0203 2D000000 		.4byte	.LVL24-1
 2651 0207 2E000000 		.4byte	.LVL24
 2652 020b 0300     		.2byte	0x3
 2653 020d 74       		.byte	0x74
 2654 020e 7F       		.sleb128 -1
 2655 020f 9F       		.byte	0x9f
 2656 0210 2E000000 		.4byte	.LVL24
 2657 0214 34000000 		.4byte	.LVL25
 2658 0218 0100     		.2byte	0x1
 2659 021a 54       		.byte	0x54
 2660 021b 00000000 		.4byte	0
 2661 021f 00000000 		.4byte	0
 2662              		.section	.debug_aranges,"",%progbits
 2663 0000 3C000000 		.4byte	0x3c
 2664 0004 0200     		.2byte	0x2
 2665 0006 00000000 		.4byte	.Ldebug_info0
 2666 000a 04       		.byte	0x4
 2667 000b 00       		.byte	0
ARM GAS  /tmp/ccHNlLx5.s 			page 69


 2668 000c 0000     		.2byte	0
 2669 000e 0000     		.2byte	0
 2670 0010 00000000 		.4byte	.LFB260
 2671 0014 0C000000 		.4byte	.LFE260-.LFB260
 2672 0018 00000000 		.4byte	.LFB262
 2673 001c 24000000 		.4byte	.LFE262-.LFB262
 2674 0020 00000000 		.4byte	.LFB263
 2675 0024 A0000000 		.4byte	.LFE263-.LFB263
 2676 0028 00000000 		.4byte	.LFB264
 2677 002c 2C000000 		.4byte	.LFE264-.LFB264
 2678 0030 00000000 		.4byte	.LFB261
 2679 0034 3A000000 		.4byte	.LFE261-.LFB261
 2680 0038 00000000 		.4byte	0
 2681 003c 00000000 		.4byte	0
 2682              		.section	.debug_ranges,"",%progbits
 2683              	.Ldebug_ranges0:
 2684 0000 00000000 		.4byte	.LFB260
 2685 0004 0C000000 		.4byte	.LFE260
 2686 0008 00000000 		.4byte	.LFB262
 2687 000c 24000000 		.4byte	.LFE262
 2688 0010 00000000 		.4byte	.LFB263
 2689 0014 A0000000 		.4byte	.LFE263
 2690 0018 00000000 		.4byte	.LFB264
 2691 001c 2C000000 		.4byte	.LFE264
 2692 0020 00000000 		.4byte	.LFB261
 2693 0024 3A000000 		.4byte	.LFE261
 2694 0028 00000000 		.4byte	0
 2695 002c 00000000 		.4byte	0
 2696              		.section	.debug_line,"",%progbits
 2697              	.Ldebug_line0:
 2698 0000 27030000 		.section	.debug_str,"MS",%progbits,1
 2698      02008502 
 2698      00000201 
 2698      FB0E0D00 
 2698      01010101 
 2699              	.LASF51:
 2700 0000 72656164 		.ascii	"ready_list_t\000"
 2700      795F6C69 
 2700      73745F74 
 2700      00
 2701              	.LASF2:
 2702 000d 73697A65 		.ascii	"size_t\000"
 2702      5F7400
 2703              	.LASF139:
 2704 0014 2F757372 		.ascii	"/usr/src/chibios/os/hal/ports/STM32/LLD/ext_lld.c\000"
 2704      2F737263 
 2704      2F636869 
 2704      62696F73 
 2704      2F6F732F 
 2705              	.LASF17:
 2706 0046 75696E74 		.ascii	"uint64_t\000"
 2706      36345F74 
 2706      00
 2707              	.LASF1:
 2708 004f 7369676E 		.ascii	"signed char\000"
 2708      65642063 
 2708      68617200 
ARM GAS  /tmp/ccHNlLx5.s 			page 70


 2709              	.LASF3:
 2710 005b 5F5F7569 		.ascii	"__uint8_t\000"
 2710      6E74385F 
 2710      7400
 2711              	.LASF119:
 2712 0065 65787063 		.ascii	"expchannel_t\000"
 2712      68616E6E 
 2712      656C5F74 
 2712      00
 2713              	.LASF92:
 2714 0072 706F7274 		.ascii	"port_intctx\000"
 2714      5F696E74 
 2714      63747800 
 2715              	.LASF70:
 2716 007e 73797374 		.ascii	"system_debug_t\000"
 2716      656D5F64 
 2716      65627567 
 2716      5F7400
 2717              	.LASF82:
 2718 008d 53574945 		.ascii	"SWIER\000"
 2718      5200
 2719              	.LASF84:
 2720 0093 4D454D52 		.ascii	"MEMRMP\000"
 2720      4D5000
 2721              	.LASF13:
 2722 009a 6C6F6E67 		.ascii	"long long unsigned int\000"
 2722      206C6F6E 
 2722      6720756E 
 2722      7369676E 
 2722      65642069 
 2723              	.LASF126:
 2724 00b1 6578745F 		.ascii	"ext_lld_stop\000"
 2724      6C6C645F 
 2724      73746F70 
 2724      00
 2725              	.LASF96:
 2726 00be 65786974 		.ascii	"exitcode\000"
 2726      636F6465 
 2726      00
 2727              	.LASF77:
 2728 00c7 6D61696E 		.ascii	"mainthread\000"
 2728      74687265 
 2728      616400
 2729              	.LASF67:
 2730 00d2 76697274 		.ascii	"virtual_timers_list_t\000"
 2730      75616C5F 
 2730      74696D65 
 2730      72735F6C 
 2730      6973745F 
 2731              	.LASF134:
 2732 00e8 49544D5F 		.ascii	"ITM_RxBuffer\000"
 2732      52784275 
 2732      66666572 
 2732      00
 2733              	.LASF50:
 2734 00f5 63685F74 		.ascii	"ch_threads_queue\000"
 2734      68726561 
ARM GAS  /tmp/ccHNlLx5.s 			page 71


 2734      64735F71 
 2734      75657565 
 2734      00
 2735              	.LASF132:
 2736 0106 6578745F 		.ascii	"ext_lld_channel_disable\000"
 2736      6C6C645F 
 2736      6368616E 
 2736      6E656C5F 
 2736      64697361 
 2737              	.LASF30:
 2738 011e 705F7072 		.ascii	"p_prio\000"
 2738      696F00
 2739              	.LASF11:
 2740 0125 6C6F6E67 		.ascii	"long long int\000"
 2740      206C6F6E 
 2740      6720696E 
 2740      7400
 2741              	.LASF128:
 2742 0133 65787470 		.ascii	"extp\000"
 2742      00
 2743              	.LASF140:
 2744 0138 6578744F 		.ascii	"extObjectInit\000"
 2744      626A6563 
 2744      74496E69 
 2744      7400
 2745              	.LASF44:
 2746 0146 705F6D70 		.ascii	"p_mpool\000"
 2746      6F6F6C00 
 2747              	.LASF106:
 2748 014e 6D5F7175 		.ascii	"m_queue\000"
 2748      65756500 
 2749              	.LASF76:
 2750 0156 76746C69 		.ascii	"vtlist\000"
 2750      737400
 2751              	.LASF125:
 2752 015d 6578745F 		.ascii	"ext_lld_init\000"
 2752      6C6C645F 
 2752      696E6974 
 2752      00
 2753              	.LASF117:
 2754 016a 73746174 		.ascii	"state\000"
 2754      6500
 2755              	.LASF123:
 2756 0170 6368616E 		.ascii	"channels\000"
 2756      6E656C73 
 2756      00
 2757              	.LASF8:
 2758 0179 6C6F6E67 		.ascii	"long int\000"
 2758      20696E74 
 2758      00
 2759              	.LASF20:
 2760 0182 74737461 		.ascii	"tstate_t\000"
 2760      74655F74 
 2760      00
 2761              	.LASF32:
 2762 018b 705F6E65 		.ascii	"p_newer\000"
 2762      77657200 
ARM GAS  /tmp/ccHNlLx5.s 			page 72


 2763              	.LASF103:
 2764 0193 735F7175 		.ascii	"s_queue\000"
 2764      65756500 
 2765              	.LASF122:
 2766 019b 45585443 		.ascii	"EXTChannelConfig\000"
 2766      68616E6E 
 2766      656C436F 
 2766      6E666967 
 2766      00
 2767              	.LASF56:
 2768 01ac 725F6E65 		.ascii	"r_newer\000"
 2768      77657200 
 2769              	.LASF130:
 2770 01b4 6D61736B 		.ascii	"mask\000"
 2770      00
 2771              	.LASF89:
 2772 01b9 72656761 		.ascii	"regarm_t\000"
 2772      726D5F74 
 2772      00
 2773              	.LASF63:
 2774 01c2 76745F70 		.ascii	"vt_prev\000"
 2774      72657600 
 2775              	.LASF131:
 2776 01ca 706F7274 		.ascii	"port\000"
 2776      00
 2777              	.LASF110:
 2778 01cf 6D757465 		.ascii	"mutex_t\000"
 2778      785F7400 
 2779              	.LASF78:
 2780 01d7 69646C65 		.ascii	"idle_thread_wa\000"
 2780      5F746872 
 2780      6561645F 
 2780      776100
 2781              	.LASF136:
 2782 01e6 6578745F 		.ascii	"ext_lld_exti_irq_disable\000"
 2782      6C6C645F 
 2782      65787469 
 2782      5F697271 
 2782      5F646973 
 2783              	.LASF0:
 2784 01ff 756E7369 		.ascii	"unsigned int\000"
 2784      676E6564 
 2784      20696E74 
 2784      00
 2785              	.LASF62:
 2786 020c 76745F6E 		.ascii	"vt_next\000"
 2786      65787400 
 2787              	.LASF99:
 2788 0214 77747365 		.ascii	"wtsemp\000"
 2788      6D7000
 2789              	.LASF39:
 2790 021b 705F6D73 		.ascii	"p_msgqueue\000"
 2790      67717565 
 2790      756500
 2791              	.LASF87:
 2792 0226 434D5043 		.ascii	"CMPCR\000"
 2792      5200
ARM GAS  /tmp/ccHNlLx5.s 			page 73


 2793              	.LASF133:
 2794 022c 6578745F 		.ascii	"ext_lld_start\000"
 2794      6C6C645F 
 2794      73746172 
 2794      7400
 2795              	.LASF104:
 2796 023a 735F636E 		.ascii	"s_cnt\000"
 2796      7400
 2797              	.LASF91:
 2798 0240 636F6E74 		.ascii	"context\000"
 2798      65787400 
 2799              	.LASF6:
 2800 0248 73686F72 		.ascii	"short unsigned int\000"
 2800      7420756E 
 2800      7369676E 
 2800      65642069 
 2800      6E7400
 2801              	.LASF137:
 2802 025b 6578745F 		.ascii	"ext_lld_exti_irq_enable\000"
 2802      6C6C645F 
 2802      65787469 
 2802      5F697271 
 2802      5F656E61 
 2803              	.LASF47:
 2804 0273 63685F74 		.ascii	"ch_thread\000"
 2804      68726561 
 2804      6400
 2805              	.LASF124:
 2806 027d 45585443 		.ascii	"EXTConfig\000"
 2806      6F6E6669 
 2806      6700
 2807              	.LASF23:
 2808 0287 6D73675F 		.ascii	"msg_t\000"
 2808      7400
 2809              	.LASF73:
 2810 028d 63685F73 		.ascii	"ch_system_t\000"
 2810      79737465 
 2810      6D5F7400 
 2811              	.LASF19:
 2812 0299 746D6F64 		.ascii	"tmode_t\000"
 2812      655F7400 
 2813              	.LASF52:
 2814 02a1 63685F72 		.ascii	"ch_ready_list\000"
 2814      65616479 
 2814      5F6C6973 
 2814      7400
 2815              	.LASF24:
 2816 02af 6576656E 		.ascii	"eventmask_t\000"
 2816      746D6173 
 2816      6B5F7400 
 2817              	.LASF7:
 2818 02bb 5F5F696E 		.ascii	"__int32_t\000"
 2818      7433325F 
 2818      7400
 2819              	.LASF90:
 2820 02c5 73746B61 		.ascii	"stkalign_t\000"
 2820      6C69676E 
ARM GAS  /tmp/ccHNlLx5.s 			page 74


 2820      5F7400
 2821              	.LASF114:
 2822 02d0 4558545F 		.ascii	"EXT_ACTIVE\000"
 2822      41435449 
 2822      564500
 2823              	.LASF138:
 2824 02db 474E5520 		.ascii	"GNU C 4.8.4 20141219 (release) -mcpu=cortex-m4 -mno"
 2824      4320342E 
 2824      382E3420 
 2824      32303134 
 2824      31323139 
 2825 030e 2D746875 		.ascii	"-thumb-interwork -mthumb -ggdb -O2 -fomit-frame-poi"
 2825      6D622D69 
 2825      6E746572 
 2825      776F726B 
 2825      202D6D74 
 2826 0341 6E746572 		.ascii	"nter -falign-functions=16 -ffunction-sections -fdat"
 2826      202D6661 
 2826      6C69676E 
 2826      2D66756E 
 2826      6374696F 
 2827 0374 612D7365 		.ascii	"a-sections -fno-common -flto\000"
 2827      6374696F 
 2827      6E73202D 
 2827      666E6F2D 
 2827      636F6D6D 
 2828              	.LASF38:
 2829 0391 705F7761 		.ascii	"p_waiting\000"
 2829      6974696E 
 2829      6700
 2830              	.LASF79:
 2831 039b 73697A65 		.ascii	"sizetype\000"
 2831      74797065 
 2831      00
 2832              	.LASF45:
 2833 03a4 74687265 		.ascii	"thread_reference_t\000"
 2833      61645F72 
 2833      65666572 
 2833      656E6365 
 2833      5F7400
 2834              	.LASF115:
 2835 03b7 65787473 		.ascii	"extstate_t\000"
 2835      74617465 
 2835      5F7400
 2836              	.LASF68:
 2837 03c2 63685F76 		.ascii	"ch_virtual_timers_list\000"
 2837      69727475 
 2837      616C5F74 
 2837      696D6572 
 2837      735F6C69 
 2838              	.LASF98:
 2839 03d9 77747472 		.ascii	"wttrp\000"
 2839      7000
 2840              	.LASF25:
 2841 03df 636E745F 		.ascii	"cnt_t\000"
 2841      7400
 2842              	.LASF69:
ARM GAS  /tmp/ccHNlLx5.s 			page 75


 2843 03e5 76745F6C 		.ascii	"vt_lasttime\000"
 2843      61737474 
 2843      696D6500 
 2844              	.LASF33:
 2845 03f1 705F6F6C 		.ascii	"p_older\000"
 2845      64657200 
 2846              	.LASF55:
 2847 03f9 725F6374 		.ascii	"r_ctx\000"
 2847      7800
 2848              	.LASF127:
 2849 03ff 6578745F 		.ascii	"ext_lld_channel_enable\000"
 2849      6C6C645F 
 2849      6368616E 
 2849      6E656C5F 
 2849      656E6162 
 2850              	.LASF94:
 2851 0416 746D5F63 		.ascii	"tm_calibration_t\000"
 2851      616C6962 
 2851      72617469 
 2851      6F6E5F74 
 2851      00
 2852              	.LASF112:
 2853 0427 4558545F 		.ascii	"EXT_UNINIT\000"
 2853      554E494E 
 2853      495400
 2854              	.LASF58:
 2855 0432 725F6375 		.ascii	"r_current\000"
 2855      7272656E 
 2855      7400
 2856              	.LASF57:
 2857 043c 725F6F6C 		.ascii	"r_older\000"
 2857      64657200 
 2858              	.LASF12:
 2859 0444 5F5F7569 		.ascii	"__uint64_t\000"
 2859      6E743634 
 2859      5F7400
 2860              	.LASF80:
 2861 044f 52545352 		.ascii	"RTSR\000"
 2861      00
 2862              	.LASF88:
 2863 0454 53595343 		.ascii	"SYSCFG_TypeDef\000"
 2863      46475F54 
 2863      79706544 
 2863      656600
 2864              	.LASF21:
 2865 0463 74726566 		.ascii	"trefs_t\000"
 2865      735F7400 
 2866              	.LASF60:
 2867 046b 76697274 		.ascii	"virtual_timer_t\000"
 2867      75616C5F 
 2867      74696D65 
 2867      725F7400 
 2868              	.LASF29:
 2869 047b 705F7072 		.ascii	"p_prev\000"
 2869      657600
 2870              	.LASF22:
 2871 0482 74707269 		.ascii	"tprio_t\000"
ARM GAS  /tmp/ccHNlLx5.s 			page 76


 2871      6F5F7400 
 2872              	.LASF71:
 2873 048a 63685F73 		.ascii	"ch_system_debug\000"
 2873      79737465 
 2873      6D5F6465 
 2873      62756700 
 2874              	.LASF111:
 2875 049a 5F426F6F 		.ascii	"_Bool\000"
 2875      6C00
 2876              	.LASF15:
 2877 04a0 696E7433 		.ascii	"int32_t\000"
 2877      325F7400 
 2878              	.LASF4:
 2879 04a8 756E7369 		.ascii	"unsigned char\000"
 2879      676E6564 
 2879      20636861 
 2879      7200
 2880              	.LASF81:
 2881 04b6 46545352 		.ascii	"FTSR\000"
 2881      00
 2882              	.LASF42:
 2883 04bb 705F6D74 		.ascii	"p_mtxlist\000"
 2883      786C6973 
 2883      7400
 2884              	.LASF5:
 2885 04c5 73686F72 		.ascii	"short int\000"
 2885      7420696E 
 2885      7400
 2886              	.LASF35:
 2887 04cf 705F7374 		.ascii	"p_state\000"
 2887      61746500 
 2888              	.LASF54:
 2889 04d7 725F7072 		.ascii	"r_prio\000"
 2889      696F00
 2890              	.LASF86:
 2891 04de 52455345 		.ascii	"RESERVED\000"
 2891      52564544 
 2891      00
 2892              	.LASF101:
 2893 04e7 65776D61 		.ascii	"ewmask\000"
 2893      736B00
 2894              	.LASF28:
 2895 04ee 705F6E65 		.ascii	"p_next\000"
 2895      787400
 2896              	.LASF36:
 2897 04f5 705F666C 		.ascii	"p_flags\000"
 2897      61677300 
 2898              	.LASF74:
 2899 04fd 63685F73 		.ascii	"ch_system\000"
 2899      79737465 
 2899      6D00
 2900              	.LASF95:
 2901 0507 7264796D 		.ascii	"rdymsg\000"
 2901      736700
 2902              	.LASF129:
 2903 050e 6368616E 		.ascii	"channel\000"
 2903      6E656C00 
ARM GAS  /tmp/ccHNlLx5.s 			page 77


 2904              	.LASF61:
 2905 0516 63685F76 		.ascii	"ch_virtual_timer\000"
 2905      69727475 
 2905      616C5F74 
 2905      696D6572 
 2905      00
 2906              	.LASF102:
 2907 0527 63685F73 		.ascii	"ch_semaphore\000"
 2907      656D6170 
 2907      686F7265 
 2907      00
 2908              	.LASF41:
 2909 0534 705F6570 		.ascii	"p_epending\000"
 2909      656E6469 
 2909      6E6700
 2910              	.LASF16:
 2911 053f 75696E74 		.ascii	"uint32_t\000"
 2911      33325F74 
 2911      00
 2912              	.LASF100:
 2913 0548 77746D74 		.ascii	"wtmtxp\000"
 2913      787000
 2914              	.LASF53:
 2915 054f 725F7175 		.ascii	"r_queue\000"
 2915      65756500 
 2916              	.LASF64:
 2917 0557 76745F64 		.ascii	"vt_delta\000"
 2917      656C7461 
 2917      00
 2918              	.LASF48:
 2919 0560 63685F74 		.ascii	"ch_threads_list\000"
 2919      68726561 
 2919      64735F6C 
 2919      69737400 
 2920              	.LASF10:
 2921 0570 6C6F6E67 		.ascii	"long unsigned int\000"
 2921      20756E73 
 2921      69676E65 
 2921      6420696E 
 2921      7400
 2922              	.LASF113:
 2923 0582 4558545F 		.ascii	"EXT_STOP\000"
 2923      53544F50 
 2923      00
 2924              	.LASF109:
 2925 058b 63686172 		.ascii	"char\000"
 2925      00
 2926              	.LASF121:
 2927 0590 6D6F6465 		.ascii	"mode\000"
 2927      00
 2928              	.LASF118:
 2929 0595 636F6E66 		.ascii	"config\000"
 2929      696700
 2930              	.LASF120:
 2931 059c 65787463 		.ascii	"extcallback_t\000"
 2931      616C6C62 
 2931      61636B5F 
ARM GAS  /tmp/ccHNlLx5.s 			page 78


 2931      7400
 2932              	.LASF27:
 2933 05aa 74687265 		.ascii	"thread_t\000"
 2933      61645F74 
 2933      00
 2934              	.LASF108:
 2935 05b3 6D5F6E65 		.ascii	"m_next\000"
 2935      787400
 2936              	.LASF26:
 2937 05ba 73797374 		.ascii	"systime_t\000"
 2937      696D655F 
 2937      7400
 2938              	.LASF43:
 2939 05c4 705F7265 		.ascii	"p_realprio\000"
 2939      616C7072 
 2939      696F00
 2940              	.LASF59:
 2941 05cf 76746675 		.ascii	"vtfunc_t\000"
 2941      6E635F74 
 2941      00
 2942              	.LASF9:
 2943 05d8 5F5F7569 		.ascii	"__uint32_t\000"
 2943      6E743332 
 2943      5F7400
 2944              	.LASF72:
 2945 05e3 70616E69 		.ascii	"panic_msg\000"
 2945      635F6D73 
 2945      6700
 2946              	.LASF93:
 2947 05ed 6F666673 		.ascii	"offset\000"
 2947      657400
 2948              	.LASF18:
 2949 05f4 7274636E 		.ascii	"rtcnt_t\000"
 2949      745F7400 
 2950              	.LASF66:
 2951 05fc 76745F70 		.ascii	"vt_par\000"
 2951      617200
 2952              	.LASF116:
 2953 0603 45585444 		.ascii	"EXTDriver\000"
 2953      72697665 
 2953      7200
 2954              	.LASF49:
 2955 060d 74687265 		.ascii	"threads_queue_t\000"
 2955      6164735F 
 2955      71756575 
 2955      655F7400 
 2956              	.LASF105:
 2957 061d 63685F6D 		.ascii	"ch_mutex\000"
 2957      75746578 
 2957      00
 2958              	.LASF37:
 2959 0626 705F7265 		.ascii	"p_refs\000"
 2959      667300
 2960              	.LASF75:
 2961 062d 726C6973 		.ascii	"rlist\000"
 2961      7400
 2962              	.LASF14:
ARM GAS  /tmp/ccHNlLx5.s 			page 79


 2963 0633 75696E74 		.ascii	"uint8_t\000"
 2963      385F7400 
 2964              	.LASF97:
 2965 063b 77746F62 		.ascii	"wtobjp\000"
 2965      6A7000
 2966              	.LASF34:
 2967 0642 705F6E61 		.ascii	"p_name\000"
 2967      6D6500
 2968              	.LASF46:
 2969 0649 74687265 		.ascii	"threads_list_t\000"
 2969      6164735F 
 2969      6C697374 
 2969      5F7400
 2970              	.LASF40:
 2971 0658 705F6D73 		.ascii	"p_msg\000"
 2971      6700
 2972              	.LASF83:
 2973 065e 45585449 		.ascii	"EXTI_TypeDef\000"
 2973      5F547970 
 2973      65446566 
 2973      00
 2974              	.LASF135:
 2975 066b 45585444 		.ascii	"EXTD1\000"
 2975      3100
 2976              	.LASF107:
 2977 0671 6D5F6F77 		.ascii	"m_owner\000"
 2977      6E657200 
 2978              	.LASF31:
 2979 0679 705F6374 		.ascii	"p_ctx\000"
 2979      7800
 2980              	.LASF65:
 2981 067f 76745F66 		.ascii	"vt_func\000"
 2981      756E6300 
 2982              	.LASF85:
 2983 0687 45585449 		.ascii	"EXTICR\000"
 2983      435200
 2984              		.comm	__gnu_lto_v1,1,1
 2985              		.ident	"GCC: (4.8.4-1+11-1) 4.8.4 20141219 (release)"
ARM GAS  /tmp/ccHNlLx5.s 			page 80


DEFINED SYMBOLS
                            *ABS*:00000000 ext_lld.c
     /tmp/ccHNlLx5.s:372    .text.ext_lld_init:00000000 $t
     /tmp/ccHNlLx5.s:378    .text.ext_lld_init:00000000 ext_lld_init
     /tmp/ccHNlLx5.s:393    .text.ext_lld_init:00000008 $d
     /tmp/ccHNlLx5.s:398    .text.ext_lld_stop:00000000 $t
     /tmp/ccHNlLx5.s:404    .text.ext_lld_stop:00000000 ext_lld_stop
     /tmp/ccHNlLx5.s:442    .text.ext_lld_stop:00000020 $d
     /tmp/ccHNlLx5.s:447    .text.ext_lld_channel_enable:00000000 $t
     /tmp/ccHNlLx5.s:453    .text.ext_lld_channel_enable:00000000 ext_lld_channel_enable
     /tmp/ccHNlLx5.s:579    .text.ext_lld_channel_enable:0000009c $d
     /tmp/ccHNlLx5.s:584    .text.ext_lld_channel_disable:00000000 $t
     /tmp/ccHNlLx5.s:590    .text.ext_lld_channel_disable:00000000 ext_lld_channel_disable
     /tmp/ccHNlLx5.s:626    .text.ext_lld_channel_disable:00000028 $d
     /tmp/ccHNlLx5.s:631    .text.ext_lld_start:00000000 $t
     /tmp/ccHNlLx5.s:637    .text.ext_lld_start:00000000 ext_lld_start
     /tmp/ccHNlLx5.s:711    .bss.EXTD1:00000000 EXTD1
     /tmp/ccHNlLx5.s:707    .bss.EXTD1:00000000 $d
                            *COM*:00000001 __gnu_lto_v1
                     .debug_frame:00000010 $d

UNDEFINED SYMBOLS
extObjectInit
ext_lld_exti_irq_disable
ext_lld_exti_irq_enable
