ARM GAS  /tmp/ccD0WOaa.s 			page 1


   1              		.syntax unified
   2              		.cpu cortex-m4
   3              		.fpu softvfp
   4              		.eabi_attribute 20, 1
   5              		.eabi_attribute 21, 1
   6              		.eabi_attribute 23, 3
   7              		.eabi_attribute 24, 1
   8              		.eabi_attribute 25, 1
   9              		.eabi_attribute 26, 1
  10              		.eabi_attribute 30, 2
  11              		.eabi_attribute 34, 1
  12              		.eabi_attribute 18, 4
  13              		.thumb
  14              		.file	"hal.c"
  15              		.text
  16              	.Ltext0:
  17              		.section	.gnu.lto_.jmpfuncs.b8100a5c18c797f2,"",%progbits
  18 0000 789C6362 		.ascii	"x\234cb`b\300\006\024\2404#B\210\221\251\232\341W\303"
  18      6062C006 
  18      14A03423 
  18      428891A9 
  18      9AE157C3 
  19 0014 8C06814C 		.ascii	"\214\006\201LF\206\\\2308\000A\340\004\036"
  19      46865C98 
  19      380041E0 
  19      041E
  20              		.text
  21              		.section	.gnu.lto_.inline.b8100a5c18c797f2,"",%progbits
  22 0000 789C6362 		.ascii	"x\234cb`b\300\006<\2404#\003\003\337s \011R\305\266"
  22      6062C006 
  22      3CA03423 
  22      0303DF73 
  22      200952C5 
  23 0015 401EAC98 		.ascii	"@\036\254\230\221\2138\202\211\033\244\037\314d\000"
  23      918B3882 
  23      891BA41F 
  23      CC6400
  24 0024 0094CD02 		.ascii	"\000\224\315\002~"
  24      7E
  25              		.text
  26              		.section	.gnu.lto_.pureconst.b8100a5c18c797f2,"",%progbits
  27 0000 789C6362 		.ascii	"x\234cb`b`f\200\000F\006\011\000\000\203\000!"
  27      60626066 
  27      80004606 
  27      09000083 
  27      0021
  28              		.text
  29              		.section	.gnu.lto_halInit.b8100a5c18c797f2,"",%progbits
  30 0000 789C6362 		.ascii	"x\234cb`b@\007\222@|\217\221\201A\005H32302M8\307\300"
  30      60624007 
  30      92407C8F 
  30      91814105 
  30      48333233 
  31 001a D0C8C1C4 		.ascii	"\320\310\301\304\310\010b002\32431\326G2\202\325\256"
  31      C8086230 
  31      3032D433 
  31      31D64732 
ARM GAS  /tmp/ccD0WOaa.s 			page 2


  31      82D5AE
  32 002d 673AF0E0 		.ascii	"g:\360\340\377\377u\0376>\234\315(\304\003\024`ehih"
  32      FFFF751F 
  32      363E9CCD 
  32      28C40314 
  32      60656869 
  33 0042 98A0C0C0 		.ascii	"\230\240\300\300\220\014V\020\002$A\272B\031\231@4\363"
  33      900C5610 
  33      022441BA 
  33      42199940 
  33      34F3
  34 0054 7986E607 		.ascii	"y\206\346\007\377\354\022\031\0272\262\002e\253\031"
  34      FFEC1219 
  34      1732B202 
  34      65AB19
  35 0063 7E357434 		.ascii	"~5t4\010d2\002UC\314\313\004\321\347\031Z\036t&c(bJ"
  35      08643202 
  35      5543CCCB 
  35      04D1E719 
  35      5A1E7426 
  36 007b 66843816 		.ascii	"f\2048\026$\"\221\311\310\234\313\310\000U\224\311\310"
  36      242291C9 
  36      C89CCBC8 
  36      005594C9 
  36      C8
  37 008c 02D2D6FC 		.ascii	"\002\322\326\374\240\3770\0336\303\231\221\015o^0\227"
  37      A0FF301B 
  37      36C39991 
  37      0D6F5E30 
  37      97
  38 009d 199B2216 		.ascii	"\031\233\"\026TE\373\261*bEQ\364\340\324b\254\366\261"
  38      5445FBB1 
  38      2A624551 
  38      F4E0D462 
  38      ACF6B1
  39 00b0 A1AABA87 		.ascii	"\241\252\272\207\335U\354\250\026\276\301j!\007\252"
  39      DD55ECA8 
  39      16BEC16A 
  39      2107AA
  40 00bf 515DADEC 		.ascii	"Q]\255\354\330Tq\242\252\232\271\024\253\205\\\010U"
  40      D85471A2 
  40      AA9AB914 
  40      AB855C08 
  40      55
  41 00d0 17191A1F 		.ascii	"\027\031\032\037\314V\205)\202\200\020\240\0040\222"
  41      CC568529 
  41      828010A0 
  41      043092
  42 00df 4081ACA4 		.ascii	"@\201\254\244_Z\\\244_\\\224\254\237\234\221\231\224"
  42      5F5A5CA4 
  42      5F5C94AC 
  42      9F9C9199 
  42      94
  43 00f0 995FAC0F 		.ascii	"\231_\254\017D\031\2119`! \255\227\314\000\000\324\231"
  43      44198939 
  43      602120AD 
  43      97CC0000 
ARM GAS  /tmp/ccD0WOaa.s 			page 3


  43      D499
  44 0102 7F90     		.ascii	"\177\220"
  45              		.text
  46              		.section	.gnu.lto_.symbol_nodes.b8100a5c18c797f2,"",%progbits
  47 0000 789C45CF 		.ascii	"x\234E\317;\016\3020\020\204\341\3618o\016\301Q'\222"
  47      3B0EC230 
  47      1084E1F1 
  47      386F0EC1 
  47      512792
  48 0013 21843727 		.ascii	"!\2047'\240\311Q\322\347\014\240\264\224\324\010c\020"
  48      A0C951D2 
  48      E70CA0B4 
  48      94D40863 
  48      10
  49 0024 BBCDB7FF 		.ascii	"\273\315\267\377vK\020O\374\206+\012\270L\200t\355]"
  49      764B104F 
  49      FC862B0A 
  49      B84C8074 
  49      ED5D
  50 0036 BE61DCE0 		.ascii	"\276a\334\340\316\224\373^\333\326\271\023E\253#\345"
  50      CE94FB5E 
  50      DBD6B913 
  50      45AB23E5 
  51 0046 AD0E5466 		.ascii	"\255\016Tf\265\247r\253\035UXm\251\322\252\247*\253"
  51      B5A772AB 
  51      1D55586D 
  51      A9D2AAA7 
  51      2AAB
  52 0058 8EAAADD6 		.ascii	"\216\252\255\326T\363/\217\005\302\355\025m0$k\214\311"
  52      54F32F8F 
  52      05C2ED15 
  52      6D30246B 
  52      8CC9
  53 006a 0A73B244 		.ascii	"\012s\262D\270\177,0$s\214\311\014s\322#t\217\245\217"
  53      B87F2C30 
  53      24738CC9 
  53      0C73D223 
  53      748FA58F 
  54 007e 6F0F51BC 		.ascii	"o\017Q\274\001I;G)"
  54      01493B47 
  54      29
  55              		.text
  56              		.section	.gnu.lto_.refs.b8100a5c18c797f2,"",%progbits
  57 0000 789C6362 		.ascii	"x\234cb`b`e\200\000F\006&F\006\000\000\237\000\016"
  57      60626065 
  57      80004606 
  57      26460600 
  57      009F000E 
  58              		.text
  59              		.section	.gnu.lto_.decls.b8100a5c18c797f2,"",%progbits
  60 0000 789CA597 		.ascii	"x\234\245\227qL\023W\034\307\337k\241\320\321\351B2"
  60      714C1357 
  60      1CC7DF6B 
  60      A1D0D1E9 
  60      4232
  61 0012 33932554 		.ascii	"3\223%T\022\314f\324Kp\177\270d1q\240H\306\006\231s"
  61      12CC66D4 
ARM GAS  /tmp/ccD0WOaa.s 			page 4


  61      4B707FB8 
  61      643171A0 
  61      48C60699 
  62 0027 717F5D8E 		.ascii	"q\177]\216\266H\223\3226\275\353\204\277\366\324\205"
  62      B64893D2 
  62      36BDEB84 
  62      BFF6D485 
  63 0037 31FF3045 		.ascii	"1\3770E\3066\015!e\302\006\211\333\214\311\010Qb:\230"
  63      C6360D21 
  63      65C20689 
  63      DB8CC908 
  63      51623A98 
  64 004b 19CEC870 		.ascii	"\031\316\310pQ\347pj\007Ld:(\333\037Sc\306~\357\335"
  64      51E7706A 
  64      074C643A 
  64      28DB1F53 
  64      63C67EEF 
  65 0060 95DED177 		.ascii	"\225\336\321wrd\027~\357w\364~\277\317\357\373\336\373"
  65      7264177E 
  65      EF77F47E 
  65      BFCFEFFB 
  65      DEFB
  66 0072 DDF56A43 		.ascii	"\335\365jC64\210\020Z\200\343\033\027B{\354\010>Ah\033"
  66      36348810 
  66      5A80E31B 
  66      17427BEC 
  66      083E4168 
  67 0087 1806EB42 		.ascii	"\030\006\353B\352Q\000v\005\354:\3308\330\257`\267\300"
  67      EA510076 
  67      05EC3AD8 
  67      38D8AF60 
  67      B7C0
  68 0099 92601360 		.ascii	"\222`\023`S`w\300\356\202\335\327rg\221\361\240\371"
  68      536077C0 
  68      EE82DDD7 
  68      726791F1 
  68      A0F9
  69 00ab B96029B0 		.ascii	"\271`)\260\253`\363\032\177fI\215\373\032\347\216\306"
  69      AB60F31A 
  69      7F66498D 
  69      FB1AE78E 
  69      C6
  70 00bc 9DD0EADC 		.ascii	"\235\320\352\334\322\352\216k:x5\012\320aB\016\222x"
  70      D2EA8E6B 
  70      3A78350A 
  70      D061420E 
  70      9278
  71 00ce 33D935B2 		.ascii	"3\3315\262\252\020\265\0228\342\204\340\221U\010\355"
  71      AA10B512 
  71      38E284E0 
  71      915508ED 
  72 00de C5125EE5 		.ascii	"\305\022^\345D\311\325\354\314\345D\217)\241\004u\023"
  72      44C9D5EC 
  72      CCE5448F 
  72      29A10475 
  72      13
  73 00ef 124B9E5F 		.ascii	"\022K\236_XKr\264\004\267y\264\204O\340\022\264|\034"
ARM GAS  /tmp/ccD0WOaa.s 			page 5


  73      584B72B4 
  73      04B779B4 
  73      844FE012 
  73      B47C1C
  74 0102 8DECC185 		.ascii	"\215\354\301\205h\003\352\203\300\030h*2\350dUI\342"
  74      6803EA83 
  74      C018682A 
  74      32E86455 
  74      49E2
  75 0114 EF5117C9 		.ascii	"\357Q\027\311Q#i\306\347x\003\342\034\353P\234\006?"
  75      512369C6 
  75      E77803E2 
  75      1CEB509C 
  75      063F
  76 0126 1CEDC024 		.ascii	"\034\355\300$>\204y\325q\272\372\363\213SJ\\\036\305"
  76      3E8479D5 
  76      71BAFAF3 
  76      8B534A5C 
  76      1EC5
  77 0138 6E09F741 		.ascii	"n\011\367A\274\015\225a\003~Y\004Us\0222\325$Mm\233"
  77      BC0D9561 
  77      037E5904 
  77      55731232 
  77      D5244D6D 
  78 014d AAF6A405 		.ascii	"\252\366\244\005\265\007\023\237\214v\254\245j\235\250"
  78      B507139F 
  78      8C76ACA5 
  78      6A9DA8
  79 015c 25B3238B 		.ascii	"%\263#\213\325\334\351b9\231-\270\331\334\275\221\220"
  79      D5DCE962 
  79      39992DB8 
  79      D9DCBD91 
  79      90
  80 016d 7C097F0D 		.ascii	"|\011\177\015I6\324d\224l\235\323\376\303w\255\370\020"
  80      4936D464 
  80      946C9DD3 
  80      FEC377AD 
  80      F810
  81 017f 6CBA844F 		.ascii	"l\272\204O3\322)lDI8\317\251W\314\376O\007P\036\273"
  81      33D2296C 
  81      444938CF 
  81      A957CCFE 
  81      4F07501E 
  82 0194 AC9DD03B 		.ascii	"\254\235\320;c5Zi\270\015\235eE\351Z\361\244j\247\352"
  82      63355A69 
  82      B80D9D65 
  82      45E95AF1 
  82      A46AA7EA 
  83 01a8 A10518D6 		.ascii	"\241\005\030\326/\331=y\001\223\243\256\364j|\273b\234"
  83      2FD93D79 
  83      0193A3AE 
  83      F46A7CBB 
  83      629C
  84 01ba DBB01D9D 		.ascii	"\333\260\035\235\243\256\230\224\206\215X\201\345\233"
  84      A3AE9894 
  84      868D5881 
  84      E59B
ARM GAS  /tmp/ccD0WOaa.s 			page 6


  85 01c8 6A4B9CD6 		.ascii	"jK\234\326\303\306V\0143*\353\327\303\256Y\201=c\256"
  85      C3C6560C 
  85      332AEBD7 
  85      C3AE5981 
  85      3D63AE
  86 01db EC8C1E36 		.ascii	"\354\214\0366\276b\230Q\3319=\354\266\025\330s\034e"
  86      BE629851 
  86      D9393DEC 
  86      B615D873 
  86      1C65
  87 01ed BC437F73 		.ascii	"\274C\177sI\370Kx\244H\370+\274\016\306~6\016\260\361"
  87      49F84B78 
  87      A448F82B 
  87      BC0EC67E 
  87      360EB0F1 
  88 0201 0C1B07D9 		.ascii	"\014\033\007\331x\216\215\011\030\027\017\033\232b\232"
  88      788E8D09 
  88      18170F1B 
  88      9A629A
  89 0210 7A329A8C 		.ascii	"z2\232\2147\361rMF\022\261j:A\365\021q\317\022\3140"
  89      37F1724D 
  89      4612B16A 
  89      3A41F511 
  89      71CF12CC 
  90 0225 43B701F6 		.ascii	"C\267\001\366\251\016\366\227%\330Vse\247t\260\207\226"
  90      A90EF697 
  90      25D85673 
  90      65A774B0 
  90      8796
  91 0237 6035E6CA 		.ascii	"`5\346\312\006t0b\263\002\013\233+\033\323\301>\260"
  91      06743062 
  91      B3020B9B 
  91      2B1BD3C1 
  91      3EB0
  92 0249 046BC1E6 		.ascii	"\004k\301\346\322\256\353hG,\321z\261\271\266\224\216"
  92      D2AEEB68 
  92      472CD17A 
  92      B1B9B694 
  92      8E
  93 025a D66E8996 		.ascii	"\326n\211\226x\202\266\007:Z\207%Z\222\247M\327\365"
  93      7882B607 
  93      3A5A8725 
  93      5A92A74D 
  93      D7F5
  94 026c 6ABF7FC1 		.ascii	"j\277\177\301\372\275\227u\3640\033\317\263\361{6^`"
  94      FABD9775 
  94      F4301BCF 
  94      B3F17B36 
  94      5E60
  95 027e E345365E 		.ascii	"\343E6^b\343\217l\274l\354\375\023\266\245\017u\365"
  95      62E38F6C 
  95      BC6CECFD 
  95      13B6A50F 
  95      75F5
  96 0290 5B5457AD 		.ascii	"[TW\255g\361\036C\377\267\036\357\236\247\320.\\\220"
  96      67F11E43 
  96      FFB71EEF 
ARM GAS  /tmp/ccD0WOaa.s 			page 7


  96      9EA7D02E 
  96      5C90
  97 02a2 0E29429D 		.ascii	"\016)B\235$\236L\236m\033t\034#\211\367\311\302\302"
  97      249E4C9E 
  97      6D1B741C 
  97      2389F7C9 
  97      C2C2
  98 02b4 7B680D6A 		.ascii	"{h\015jgo \315\360m\244Hx\333\263\246\240\253x\215v"
  98      676F20CD 
  98      F06DA448 
  98      78DBB3A6 
  98      A0AB788D 
  99 02c9 465FC1D4 		.ascii	"F_\301\324)\216-\231\"B\353Q\017\345\221^bg4\032\177"
  99      298E2D99 
  99      2242EB51 
  99      0FE5915E 
  99      6267341A 
 100 02de 051B5E2D 		.ascii	"\005\033^-$|\015\333\364\037P]\311Xr\376\343\237\017"
 100      247C0DDB 
 100      F41F505D 
 100      C95872FE 
 100      E39F0F
 101 02f1 E0D643F1 		.ascii	"\340\326C\361\021\222\242\337PjE\033\3727\253\206\012"
 101      1192A2DF 
 101      506A451B 
 101      FA37AB86 
 101      0A
 102 0302 F9850B39 		.ascii	"\371\205\0139~\374\322\306cdH\235\\\0321d\347#np\021"
 102      7EFCD2C6 
 102      6364489D 
 102      5C1A3164 
 102      E7236E70 
 103 0317 039DFFD8 		.ascii	"\003\235\377\330\263\020\217L\0207\271\210\217&RG8S"
 103      B3108F4C 
 103      1037B988 
 103      8F265247 
 103      3853
 104 0329 E9CBE143 		.ascii	"\351\313\341Cns!?M\246*\263t\3340A\374\306\3271\375"
 104      6E73213F 
 104      4DA62AB3 
 104      74DC3041 
 104      FCC6D731 
 105 033e E0B52CC4 		.ascii	"\340\265,\304\207\271|\304$_\305\037w_\310B\014\230"
 105      87B97CC4 
 105      245FC51F 
 105      775FC842 
 105      0C98
 106 0350 207EE722 		.ascii	" ~\347\"b\263\251\242,\304\264\011b\232\213\230\232"
 106      62B3A9A2 
 106      2CC4B409 
 106      629A8B98 
 106      9A
 107 0361 BB885B8E 		.ascii	"\273\210[\216\222\307\013\013\366\025\264\354\214\326"
 107      92C70B0B 
 107      F615B4EC 
 107      8CD6
 108 036f B276F68B 		.ascii	"\262v\366\213A\273\0312\375\213h\013\317\231\350\270"
ARM GAS  /tmp/ccD0WOaa.s 			page 8


 108      41BB1932 
 108      FD8B680B 
 108      CF99E8B8 
 109 037f C7D5F168 		.ascii	"\307\325\361hn\3540n\313\332\330~\007\037\362\247\021"
 109      6EEC306E 
 109      CBDAD87E 
 109      071FF2A7 
 109      11
 110 0390 528CBA48 		.ascii	"R\214\272H\012\336\344g\207\355\007\350z\320\371`\220"
 110      0ADEE467 
 110      87ED07E8 
 110      7AD0F960 
 110      90
 111 03a1 FC197B80 		.ascii	"\374\031{\200\015/B\314\337\330\3472@\303\017\011U\210"
 111      0D2F42CC 
 111      DFD8E732 
 111      40C30F09 
 111      5588
 112 03b3 D93AA432 		.ascii	"\331:\2442\317\200%Y3O\310\232\317d\241\227\205\250"
 112      CF802559 
 112      334FC89A 
 112      CF64A197 
 112      85A8
 113 03c5 1C11E488 		.ascii	"\034\021\344\210G\360\324\373k\375!Y\200\277z) \204"
 113      47F0D4FB 
 113      6BFD2159 
 113      80BF7A29 
 113      2084
 114 03d7 43114516 		.ascii	"C\021E\026v\277\365\372\226R\241\252\252\\\250\250\251"
 114      76BFF5FA 
 114      9652A1AA 
 114      AA5CA8A8 
 114      A9
 115 03e8 AC7EB754 		.ascii	"\254~\267T\010K\0011\020\360n\256G\216\2127\366\270"
 115      084B0131 
 115      10F06EAE 
 115      478E8A37 
 115      F6B8
 116 03fa CB50A1AC 		.ascii	"\313P\241\2544l)\025\367\205\375!Q\366)\321\260\250"
 116      346C2915 
 116      F785FD21 
 116      51F629D1 
 116      B0A8
 117 040c 1433A63F 		.ascii	"\0243\246?\350\011D\275>!\350\333\037\360\327\012r\223"
 117      E80944BD 
 117      3E21E8DB 
 117      1FF0D70A 
 117      7293
 118 041e 2C88B2E2 		.ascii	",\210\262\342\365\007\025H\316\217\202\2074e\023/\266"
 118      F5071548 
 118      CE8F8287 
 118      3465132F 
 118      B6
 119 042f 41023141 		.ascii	"A\0021A\237 z}uR4\240\210JS\330'C\332S\242\230N\314"
 119      9F207A7D 
 119      755234A0 
 119      884A53D8 
ARM GAS  /tmp/ccD0WOaa.s 			page 9


 119      2743DA53 
 120 0447 6D08797D 		.ascii	"m\010y}\021G\210^\212\344\205\344\260\317\347\215\344"
 120      1147885E 
 120      8AE485E4 
 120      B0CFE78D 
 120      E4
 121 0458 86A3616F 		.ascii	"\206\243ao\304\036\362Fr\244\272H\200\016\365\216\232"
 121      C41EF246 
 121      72A4BA48 
 121      800EF58E 
 121      9A
 122 0469 EDE59222 		.ascii	"\355\345\222\"9j^U]\231\352\312U\267Cu;UW\241\272]\252"
 122      396A5E55 
 122      5D99EACA 
 122      55B74375 
 122      3B5557A1 
 123 0480 ABA4CE59 		.ascii	"\253\244\316Y\263\275\252,\024\254\363\357+6[*\372\021"
 123      B3BDAA2C 
 123      14ACF3EF 
 123      2B365B2A 
 123      FA11
 124 0492 F8CD1E94 		.ascii	"\370\315\036\224\007\2562\350WJ\314B\323\023\225\351"
 124      07AE32E8 
 124      574ACC42 
 124      D31395E9 
 125 04a2 22386485 		.ascii	"\"8d\205\006\277b\026\\\033\222\"^\272\007\"\333\206"
 125      06BF6216 
 125      5C1B9222 
 125      5EBA0722 
 125      DB86
 126 04b4 9D2F89E5 		.ascii	"\235/\211\345\225\273\313\252\337\336\361\346;\3525"
 126      95BBCBAA 
 126      DFDEF1E6 
 126      3BEA35
 127 04c3 6038D909 		.ascii	"`8\331\011\305lZ\266\246/\342\207\335\213\312\265\220"
 127      C56C5AB6 
 127      A62FE287 
 127      DD8BCAB5 
 127      90
 128 04d4 97277BA3 		.ascii	"\227'{\2434k\375rYZ88\032\376\242\265\"lr^K\374\360"
 128      346BFD72 
 128      595A3838 
 128      1AFEA2B5 
 128      226C725E 
 129 04eb FE06CA07 		.ascii	"\376\006\312\007g)\334\327HW.\017\234\245p\217\024\244"
 129      6729DCD7 
 129      48572E0F 
 129      9CA5708F 
 129      14A4
 130 04fd E1E068F8 		.ascii	"\341\340h\370\323\242\326\276\242\037\376\333j\245\365"
 130      D3A2D6BE 
 130      A21FFEDB 
 130      6AA5F5
 131 050c B5956F6C 		.ascii	"\265\225ol\244W\264\316w\325\353(\205\024\231\356S\017"
 131      A457B4CE 
 131      77D5EB28 
 131      851499EE 
ARM GAS  /tmp/ccD0WOaa.s 			page 10


 131      530F
 132 051e 6B94FF00 		.ascii	"k\224\377\000\014a\263\230"
 132      0C61B398 
 133              		.text
 134              		.section	.gnu.lto_.symtab.b8100a5c18c797f2,"",%progbits
 135 0000 68616C49 		.ascii	"halInit\000\000\000\000\000\000\000\000\000\000\000"
 135      6E697400 
 135      00000000 
 135      00000000 
 135      0000
 136 0012 00D40000 		.ascii	"\000\324\000\000\000pal_default_config\000\000\002\000"
 136      0070616C 
 136      5F646566 
 136      61756C74 
 136      5F636F6E 
 137 002d 00000000 		.ascii	"\000\000\000\000\000\000\000\000\356\000\000\000stI"
 137      00000000 
 137      EE000000 
 137      737449
 138 003c 6E697400 		.ascii	"nit\000\000\002\000\000\000\000\000\000\000\000\000"
 138      00020000 
 138      00000000 
 138      000000
 139 004b D8000000 		.ascii	"\330\000\000\000boardInit\000\000\002\000\000\000\000"
 139      626F6172 
 139      64496E69 
 139      74000002 
 139      00000000 
 140 005f 00000000 		.ascii	"\000\000\000\000\000\332\000\000\000sduInit\000\000"
 140      00DA0000 
 140      00736475 
 140      496E6974 
 140      0000
 141 0071 02000000 		.ascii	"\002\000\000\000\000\000\000\000\000\000\334\000\000"
 141      00000000 
 141      0000DC00 
 141      00
 142 007e 00757362 		.ascii	"\000usbInit\000\000\002\000\000\000\000\000\000\000"
 142      496E6974 
 142      00000200 
 142      00000000 
 142      0000
 143 0090 0000DE00 		.ascii	"\000\000\336\000\000\000sdInit\000\000\002\000\000\000"
 143      00007364 
 143      496E6974 
 143      00000200 
 143      0000
 144 00a2 00000000 		.ascii	"\000\000\000\000\000\000\340\000\000\000pwmInit\000"
 144      0000E000 
 144      00007077 
 144      6D496E69 
 144      7400
 145 00b4 00020000 		.ascii	"\000\002\000\000\000\000\000\000\000\000\000\342\000"
 145      00000000 
 145      000000E2 
 145      00
 146 00c1 00006578 		.ascii	"\000\000extInit\000\000\002\000\000\000\000\000\000"
ARM GAS  /tmp/ccD0WOaa.s 			page 11


 146      74496E69 
 146      74000002 
 146      00000000 
 146      0000
 147 00d3 000000E4 		.ascii	"\000\000\000\344\000\000\000canInit\000\000\002\000"
 147      00000063 
 147      616E496E 
 147      69740000 
 147      0200
 148 00e5 00000000 		.ascii	"\000\000\000\000\000\000\000\000\346\000\000\000_pa"
 148      00000000 
 148      E6000000 
 148      5F7061
 149 00f4 6C5F6C6C 		.ascii	"l_lld_init\000\000\002\000\000\000\000\000\000\000\000"
 149      645F696E 
 149      69740000 
 149      02000000 
 149      00000000 
 150 0109 00E80000 		.ascii	"\000\350\000\000\000hal_lld_init\000\000\002\000\000"
 150      0068616C 
 150      5F6C6C64 
 150      5F696E69 
 150      74000002 
 151 011f 00000000 		.ascii	"\000\000\000\000\000\000\000\354\000\000\000"
 151      000000EC 
 151      000000
 152              		.text
 153              		.section	.gnu.lto_.opts,"",%progbits
 154 0000 272D6D63 		.ascii	"'-mcpu=cortex-m4' '-mno-thumb-interwork' '-mthumb' "
 154      70753D63 
 154      6F727465 
 154      782D6D34 
 154      2720272D 
 155 0033 272D6767 		.ascii	"'-ggdb' '-O2' '-fomit-frame-pointer' '-falign-funct"
 155      64622720 
 155      272D4F32 
 155      2720272D 
 155      666F6D69 
 156 0066 696F6E73 		.ascii	"ions=16' '-ffunction-sections' '-fdata-sections' '-"
 156      3D313627 
 156      20272D66 
 156      66756E63 
 156      74696F6E 
 157 0099 666E6F2D 		.ascii	"fno-common' '-flto'\000"
 157      636F6D6D 
 157      6F6E2720 
 157      272D666C 
 157      746F2700 
 158              		.text
 159              		.cfi_sections	.debug_frame
 160              		.section	.text.halInit,"ax",%progbits
 161              		.align	2
 162              		.p2align 4,,15
 163              		.global	halInit
 164              		.thumb
 165              		.thumb_func
 166              		.type	halInit, %function
ARM GAS  /tmp/ccD0WOaa.s 			page 12


 167              	halInit:
 168              	.LFB260:
 169              		.file 1 "/usr/src/chibios/os/hal/src/hal.c"
 170              		.loc 1 56 0
 171              		.cfi_startproc
 172              		@ args = 0, pretend = 0, frame = 0
 173              		@ frame_needed = 0, uses_anonymous_args = 0
 174 0000 08B5     		push	{r3, lr}
 175              		.cfi_def_cfa_offset 8
 176              		.cfi_offset 3, -8
 177              		.cfi_offset 14, -4
 178              		.loc 1 62 0
 179 0002 FFF7FEFF 		bl	hal_lld_init
 180              	.LVL0:
 181              		.loc 1 65 0
 182 0006 0A48     		ldr	r0, .L2
 183 0008 FFF7FEFF 		bl	_pal_lld_init
 184              	.LVL1:
 185              		.loc 1 71 0
 186 000c FFF7FEFF 		bl	canInit
 187              	.LVL2:
 188              		.loc 1 77 0
 189 0010 FFF7FEFF 		bl	extInit
 190              	.LVL3:
 191              		.loc 1 95 0
 192 0014 FFF7FEFF 		bl	pwmInit
 193              	.LVL4:
 194              		.loc 1 98 0
 195 0018 FFF7FEFF 		bl	sdInit
 196              	.LVL5:
 197              		.loc 1 110 0
 198 001c FFF7FEFF 		bl	usbInit
 199              	.LVL6:
 200              		.loc 1 116 0
 201 0020 FFF7FEFF 		bl	sduInit
 202              	.LVL7:
 203              		.loc 1 130 0
 204 0024 FFF7FEFF 		bl	boardInit
 205              	.LVL8:
 206              		.loc 1 139 0
 207 0028 BDE80840 		pop	{r3, lr}
 208              		.loc 1 137 0
 209 002c FFF7FEBF 		b	stInit
 210              	.LVL9:
 211              	.L3:
 212              		.align	2
 213              	.L2:
 214 0030 00000000 		.word	pal_default_config
 215              		.cfi_endproc
 216              	.LFE260:
 217              		.size	halInit, .-halInit
 218              		.text
 219              	.Letext0:
 220              		.file 2 "/usr/include/newlib/machine/_default_types.h"
 221              		.file 3 "/usr/include/newlib/sys/_stdint.h"
 222              		.file 4 "/usr/src/chibios/os/rt/ports/ARMCMx/compilers/GCC/chtypes.h"
 223              		.file 5 "/usr/src/chibios/os/rt/include/chsystypes.h"
ARM GAS  /tmp/ccD0WOaa.s 			page 13


 224              		.file 6 "/usr/src/chibios/os/rt/include/chschd.h"
 225              		.file 7 "/usr/src/chibios/os/rt/ports/ARMCMx/chcore.h"
 226              		.file 8 "/usr/src/chibios/os/rt/ports/ARMCMx/chcore_v7m.h"
 227              		.file 9 "/usr/src/chibios/os/rt/include/chtm.h"
 228              		.file 10 "/usr/src/chibios/os/rt/include/chsem.h"
 229              		.file 11 "/usr/src/chibios/os/rt/include/chmtx.h"
 230              		.file 12 "/usr/src/chibios/os/hal/ports/STM32/LLD/GPIOv2/pal_lld.h"
 231              		.file 13 "/usr/src/chibios/os/ext/CMSIS/include/core_cm4.h"
 232              		.file 14 "/usr/src/chibios/os/hal/ports/STM32/STM32F4xx/hal_lld.h"
 233              		.file 15 "/usr/src/chibios/os/hal/include/can.h"
 234              		.file 16 "/usr/src/chibios/os/hal/include/ext.h"
 235              		.file 17 "/usr/src/chibios/os/hal/include/pwm.h"
 236              		.file 18 "/usr/src/chibios/os/hal/include/serial.h"
 237              		.file 19 "/usr/src/chibios/os/hal/include/usb.h"
 238              		.file 20 "/usr/src/chibios/os/hal/include/serial_usb.h"
 239              		.file 21 "/usr/src/chibios/os/hal/boards/ST_STM32F4_DISCOVERY/board.h"
 240              		.file 22 "/usr/src/chibios/os/hal/include/st.h"
 241              		.file 23 "/usr/src/chibios/os/hal/osal/rt/osal.h"
 242              		.section	.debug_info,"",%progbits
 243              	.Ldebug_info0:
 244 0000 00080000 		.4byte	0x800
 245 0004 0400     		.2byte	0x4
 246 0006 00000000 		.4byte	.Ldebug_abbrev0
 247 000a 04       		.byte	0x4
 248 000b 01       		.uleb128 0x1
 249 000c 60020000 		.4byte	.LASF130
 250 0010 01       		.byte	0x1
 251 0011 BB010000 		.4byte	.LASF131
 252 0015 00000000 		.4byte	.Ldebug_ranges0+0
 253 0019 00000000 		.4byte	0
 254 001d 00000000 		.4byte	.Ldebug_line0
 255 0021 02       		.uleb128 0x2
 256 0022 04       		.byte	0x4
 257 0023 05       		.byte	0x5
 258 0024 696E7400 		.ascii	"int\000"
 259 0028 03       		.uleb128 0x3
 260 0029 04       		.byte	0x4
 261 002a 07       		.byte	0x7
 262 002b 94010000 		.4byte	.LASF0
 263 002f 03       		.uleb128 0x3
 264 0030 01       		.byte	0x1
 265 0031 06       		.byte	0x6
 266 0032 EB000000 		.4byte	.LASF1
 267 0036 04       		.uleb128 0x4
 268 0037 45000000 		.4byte	.LASF5
 269 003b 02       		.byte	0x2
 270 003c 1D       		.byte	0x1d
 271 003d 41000000 		.4byte	0x41
 272 0041 03       		.uleb128 0x3
 273 0042 01       		.byte	0x1
 274 0043 08       		.byte	0x8
 275 0044 F5030000 		.4byte	.LASF2
 276 0048 03       		.uleb128 0x3
 277 0049 02       		.byte	0x2
 278 004a 05       		.byte	0x5
 279 004b 22040000 		.4byte	.LASF3
 280 004f 03       		.uleb128 0x3
ARM GAS  /tmp/ccD0WOaa.s 			page 14


 281 0050 02       		.byte	0x2
 282 0051 07       		.byte	0x7
 283 0052 EC010000 		.4byte	.LASF4
 284 0056 04       		.uleb128 0x4
 285 0057 44020000 		.4byte	.LASF6
 286 005b 02       		.byte	0x2
 287 005c 3F       		.byte	0x3f
 288 005d 61000000 		.4byte	0x61
 289 0061 03       		.uleb128 0x3
 290 0062 04       		.byte	0x4
 291 0063 05       		.byte	0x5
 292 0064 17010000 		.4byte	.LASF7
 293 0068 04       		.uleb128 0x4
 294 0069 10050000 		.4byte	.LASF8
 295 006d 02       		.byte	0x2
 296 006e 41       		.byte	0x41
 297 006f 73000000 		.4byte	0x73
 298 0073 03       		.uleb128 0x3
 299 0074 04       		.byte	0x4
 300 0075 07       		.byte	0x7
 301 0076 C3040000 		.4byte	.LASF9
 302 007a 03       		.uleb128 0x3
 303 007b 08       		.byte	0x8
 304 007c 05       		.byte	0x5
 305 007d DD000000 		.4byte	.LASF10
 306 0081 04       		.uleb128 0x4
 307 0082 9C030000 		.4byte	.LASF11
 308 0086 02       		.byte	0x2
 309 0087 5B       		.byte	0x5b
 310 0088 8C000000 		.4byte	0x8c
 311 008c 03       		.uleb128 0x3
 312 008d 08       		.byte	0x8
 313 008e 07       		.byte	0x7
 314 008f 71000000 		.4byte	.LASF12
 315 0093 04       		.uleb128 0x4
 316 0094 84050000 		.4byte	.LASF13
 317 0098 03       		.byte	0x3
 318 0099 14       		.byte	0x14
 319 009a 36000000 		.4byte	0x36
 320 009e 04       		.uleb128 0x4
 321 009f ED030000 		.4byte	.LASF14
 322 00a3 03       		.byte	0x3
 323 00a4 1F       		.byte	0x1f
 324 00a5 56000000 		.4byte	0x56
 325 00a9 04       		.uleb128 0x4
 326 00aa 92040000 		.4byte	.LASF15
 327 00ae 03       		.byte	0x3
 328 00af 20       		.byte	0x20
 329 00b0 68000000 		.4byte	0x68
 330 00b4 04       		.uleb128 0x4
 331 00b5 3C000000 		.4byte	.LASF16
 332 00b9 03       		.byte	0x3
 333 00ba 26       		.byte	0x26
 334 00bb 81000000 		.4byte	0x81
 335 00bf 05       		.uleb128 0x5
 336 00c0 9E000000 		.4byte	0x9e
 337 00c4 04       		.uleb128 0x4
ARM GAS  /tmp/ccD0WOaa.s 			page 15


 338 00c5 41050000 		.4byte	.LASF17
 339 00c9 04       		.byte	0x4
 340 00ca 45       		.byte	0x45
 341 00cb A9000000 		.4byte	0xa9
 342 00cf 04       		.uleb128 0x4
 343 00d0 22020000 		.4byte	.LASF18
 344 00d4 04       		.byte	0x4
 345 00d5 48       		.byte	0x48
 346 00d6 93000000 		.4byte	0x93
 347 00da 04       		.uleb128 0x4
 348 00db 27010000 		.4byte	.LASF19
 349 00df 04       		.byte	0x4
 350 00e0 49       		.byte	0x49
 351 00e1 93000000 		.4byte	0x93
 352 00e5 04       		.uleb128 0x4
 353 00e6 A7030000 		.4byte	.LASF20
 354 00ea 04       		.byte	0x4
 355 00eb 4A       		.byte	0x4a
 356 00ec 93000000 		.4byte	0x93
 357 00f0 04       		.uleb128 0x4
 358 00f1 CF030000 		.4byte	.LASF21
 359 00f5 04       		.byte	0x4
 360 00f6 4C       		.byte	0x4c
 361 00f7 A9000000 		.4byte	0xa9
 362 00fb 04       		.uleb128 0x4
 363 00fc 10020000 		.4byte	.LASF22
 364 0100 04       		.byte	0x4
 365 0101 4D       		.byte	0x4d
 366 0102 9E000000 		.4byte	0x9e
 367 0106 04       		.uleb128 0x4
 368 0107 38020000 		.4byte	.LASF23
 369 010b 04       		.byte	0x4
 370 010c 4F       		.byte	0x4f
 371 010d A9000000 		.4byte	0xa9
 372 0111 04       		.uleb128 0x4
 373 0112 8E010000 		.4byte	.LASF24
 374 0116 04       		.byte	0x4
 375 0117 51       		.byte	0x51
 376 0118 9E000000 		.4byte	0x9e
 377 011c 04       		.uleb128 0x4
 378 011d F2040000 		.4byte	.LASF25
 379 0121 05       		.byte	0x5
 380 0122 33       		.byte	0x33
 381 0123 A9000000 		.4byte	0xa9
 382 0127 04       		.uleb128 0x4
 383 0128 E2040000 		.4byte	.LASF26
 384 012c 05       		.byte	0x5
 385 012d 3F       		.byte	0x3f
 386 012e 32010000 		.4byte	0x132
 387 0132 06       		.uleb128 0x6
 388 0133 06020000 		.4byte	.LASF46
 389 0137 44       		.byte	0x44
 390 0138 06       		.byte	0x6
 391 0139 C2       		.byte	0xc2
 392 013a 1F020000 		.4byte	0x21f
 393 013e 07       		.uleb128 0x7
 394 013f 53040000 		.4byte	.LASF27
ARM GAS  /tmp/ccD0WOaa.s 			page 16


 395 0143 06       		.byte	0x6
 396 0144 C3       		.byte	0xc3
 397 0145 2A020000 		.4byte	0x22a
 398 0149 00       		.byte	0
 399 014a 07       		.uleb128 0x7
 400 014b BF030000 		.4byte	.LASF28
 401 014f 06       		.byte	0x6
 402 0150 C5       		.byte	0xc5
 403 0151 2A020000 		.4byte	0x22a
 404 0155 04       		.byte	0x4
 405 0156 07       		.uleb128 0x7
 406 0157 D6000000 		.4byte	.LASF29
 407 015b 06       		.byte	0x6
 408 015c C7       		.byte	0xc7
 409 015d F0000000 		.4byte	0xf0
 410 0161 08       		.byte	0x8
 411 0162 07       		.uleb128 0x7
 412 0163 E8050000 		.4byte	.LASF30
 413 0167 06       		.byte	0x6
 414 0168 C8       		.byte	0xc8
 415 0169 5A040000 		.4byte	0x45a
 416 016d 0C       		.byte	0xc
 417 016e 07       		.uleb128 0x7
 418 016f 40010000 		.4byte	.LASF31
 419 0173 06       		.byte	0x6
 420 0174 CA       		.byte	0xca
 421 0175 2A020000 		.4byte	0x22a
 422 0179 10       		.byte	0x10
 423 017a 07       		.uleb128 0x7
 424 017b 5F030000 		.4byte	.LASF32
 425 017f 06       		.byte	0x6
 426 0180 CB       		.byte	0xcb
 427 0181 2A020000 		.4byte	0x22a
 428 0185 14       		.byte	0x14
 429 0186 07       		.uleb128 0x7
 430 0187 93050000 		.4byte	.LASF33
 431 018b 06       		.byte	0x6
 432 018c D2       		.byte	0xd2
 433 018d D9050000 		.4byte	0x5d9
 434 0191 18       		.byte	0x18
 435 0192 07       		.uleb128 0x7
 436 0193 2C040000 		.4byte	.LASF34
 437 0197 06       		.byte	0x6
 438 0198 DD       		.byte	0xdd
 439 0199 DA000000 		.4byte	0xda
 440 019d 1C       		.byte	0x1c
 441 019e 07       		.uleb128 0x7
 442 019f 5A040000 		.4byte	.LASF35
 443 01a3 06       		.byte	0x6
 444 01a4 E1       		.byte	0xe1
 445 01a5 CF000000 		.4byte	0xcf
 446 01a9 1D       		.byte	0x1d
 447 01aa 07       		.uleb128 0x7
 448 01ab 69050000 		.4byte	.LASF36
 449 01af 06       		.byte	0x6
 450 01b0 E6       		.byte	0xe6
 451 01b1 E5000000 		.4byte	0xe5
ARM GAS  /tmp/ccD0WOaa.s 			page 17


 452 01b5 1E       		.byte	0x1e
 453 01b6 08       		.uleb128 0x8
 454 01b7 705F7500 		.ascii	"p_u\000"
 455 01bb 06       		.byte	0x6
 456 01bc 3101     		.2byte	0x131
 457 01be 14050000 		.4byte	0x514
 458 01c2 20       		.byte	0x20
 459 01c3 09       		.uleb128 0x9
 460 01c4 16030000 		.4byte	.LASF37
 461 01c8 06       		.byte	0x6
 462 01c9 3601     		.2byte	0x136
 463 01cb 30020000 		.4byte	0x230
 464 01cf 24       		.byte	0x24
 465 01d0 09       		.uleb128 0x9
 466 01d1 B0010000 		.4byte	.LASF38
 467 01d5 06       		.byte	0x6
 468 01d6 3C01     		.2byte	0x13c
 469 01d8 54020000 		.4byte	0x254
 470 01dc 28       		.byte	0x28
 471 01dd 09       		.uleb128 0x9
 472 01de B6050000 		.4byte	.LASF39
 473 01e2 06       		.byte	0x6
 474 01e3 4001     		.2byte	0x140
 475 01e5 FB000000 		.4byte	0xfb
 476 01e9 30       		.byte	0x30
 477 01ea 09       		.uleb128 0x9
 478 01eb 87040000 		.4byte	.LASF40
 479 01ef 06       		.byte	0x6
 480 01f0 4601     		.2byte	0x146
 481 01f2 06010000 		.4byte	0x106
 482 01f6 34       		.byte	0x34
 483 01f7 09       		.uleb128 0x9
 484 01f8 18040000 		.4byte	.LASF41
 485 01fc 06       		.byte	0x6
 486 01fd 4D01     		.2byte	0x14d
 487 01ff D3050000 		.4byte	0x5d3
 488 0203 38       		.byte	0x38
 489 0204 09       		.uleb128 0x9
 490 0205 FC040000 		.4byte	.LASF42
 491 0209 06       		.byte	0x6
 492 020a 5101     		.2byte	0x151
 493 020c F0000000 		.4byte	0xf0
 494 0210 3C       		.byte	0x3c
 495 0211 09       		.uleb128 0x9
 496 0212 F7000000 		.4byte	.LASF43
 497 0216 06       		.byte	0x6
 498 0217 5801     		.2byte	0x158
 499 0219 07030000 		.4byte	0x307
 500 021d 40       		.byte	0x40
 501 021e 00       		.byte	0
 502 021f 04       		.uleb128 0x4
 503 0220 29030000 		.4byte	.LASF44
 504 0224 05       		.byte	0x5
 505 0225 44       		.byte	0x44
 506 0226 2A020000 		.4byte	0x22a
 507 022a 0A       		.uleb128 0xa
 508 022b 04       		.byte	0x4
ARM GAS  /tmp/ccD0WOaa.s 			page 18


 509 022c 27010000 		.4byte	0x127
 510 0230 04       		.uleb128 0x4
 511 0231 A7050000 		.4byte	.LASF45
 512 0235 05       		.byte	0x5
 513 0236 49       		.byte	0x49
 514 0237 3B020000 		.4byte	0x23b
 515 023b 06       		.uleb128 0x6
 516 023c B3040000 		.4byte	.LASF47
 517 0240 04       		.byte	0x4
 518 0241 06       		.byte	0x6
 519 0242 B0       		.byte	0xb0
 520 0243 54020000 		.4byte	0x254
 521 0247 07       		.uleb128 0x7
 522 0248 53040000 		.4byte	.LASF27
 523 024c 06       		.byte	0x6
 524 024d B1       		.byte	0xb1
 525 024e 2A020000 		.4byte	0x22a
 526 0252 00       		.byte	0
 527 0253 00       		.byte	0
 528 0254 04       		.uleb128 0x4
 529 0255 50050000 		.4byte	.LASF48
 530 0259 05       		.byte	0x5
 531 025a 50       		.byte	0x50
 532 025b 5F020000 		.4byte	0x25f
 533 025f 06       		.uleb128 0x6
 534 0260 C5000000 		.4byte	.LASF49
 535 0264 08       		.byte	0x8
 536 0265 06       		.byte	0x6
 537 0266 B7       		.byte	0xb7
 538 0267 84020000 		.4byte	0x284
 539 026b 07       		.uleb128 0x7
 540 026c 53040000 		.4byte	.LASF27
 541 0270 06       		.byte	0x6
 542 0271 B8       		.byte	0xb8
 543 0272 2A020000 		.4byte	0x22a
 544 0276 00       		.byte	0
 545 0277 07       		.uleb128 0x7
 546 0278 BF030000 		.4byte	.LASF28
 547 027c 06       		.byte	0x6
 548 027d B9       		.byte	0xb9
 549 027e 2A020000 		.4byte	0x22a
 550 0282 04       		.byte	0x4
 551 0283 00       		.byte	0
 552 0284 04       		.uleb128 0x4
 553 0285 13000000 		.4byte	.LASF50
 554 0289 05       		.byte	0x5
 555 028a 57       		.byte	0x57
 556 028b 8F020000 		.4byte	0x28f
 557 028f 0B       		.uleb128 0xb
 558 0290 2A020000 		.4byte	.LASF51
 559 0294 1C       		.byte	0x1c
 560 0295 06       		.byte	0x6
 561 0296 9001     		.2byte	0x190
 562 0298 EB020000 		.4byte	0x2eb
 563 029c 09       		.uleb128 0x9
 564 029d A2040000 		.4byte	.LASF52
 565 02a1 06       		.byte	0x6
ARM GAS  /tmp/ccD0WOaa.s 			page 19


 566 02a2 9101     		.2byte	0x191
 567 02a4 54020000 		.4byte	0x254
 568 02a8 00       		.byte	0
 569 02a9 09       		.uleb128 0x9
 570 02aa 3E040000 		.4byte	.LASF53
 571 02ae 06       		.byte	0x6
 572 02af 9201     		.2byte	0x192
 573 02b1 F0000000 		.4byte	0xf0
 574 02b5 08       		.byte	0x8
 575 02b6 09       		.uleb128 0x9
 576 02b7 67030000 		.4byte	.LASF54
 577 02bb 06       		.byte	0x6
 578 02bc 9401     		.2byte	0x194
 579 02be 5A040000 		.4byte	0x45a
 580 02c2 0C       		.byte	0xc
 581 02c3 09       		.uleb128 0x9
 582 02c4 50010000 		.4byte	.LASF55
 583 02c8 06       		.byte	0x6
 584 02c9 9701     		.2byte	0x197
 585 02cb 2A020000 		.4byte	0x22a
 586 02cf 10       		.byte	0x10
 587 02d0 09       		.uleb128 0x9
 588 02d1 94030000 		.4byte	.LASF56
 589 02d5 06       		.byte	0x6
 590 02d6 9801     		.2byte	0x198
 591 02d8 2A020000 		.4byte	0x22a
 592 02dc 14       		.byte	0x14
 593 02dd 09       		.uleb128 0x9
 594 02de 8A030000 		.4byte	.LASF57
 595 02e2 06       		.byte	0x6
 596 02e3 9B01     		.2byte	0x19b
 597 02e5 2A020000 		.4byte	0x22a
 598 02e9 18       		.byte	0x18
 599 02ea 00       		.byte	0
 600 02eb 04       		.uleb128 0x4
 601 02ec 07050000 		.4byte	.LASF58
 602 02f0 05       		.byte	0x5
 603 02f1 5C       		.byte	0x5c
 604 02f2 F6020000 		.4byte	0x2f6
 605 02f6 0A       		.uleb128 0xa
 606 02f7 04       		.byte	0x4
 607 02f8 FC020000 		.4byte	0x2fc
 608 02fc 0C       		.uleb128 0xc
 609 02fd 07030000 		.4byte	0x307
 610 0301 0D       		.uleb128 0xd
 611 0302 07030000 		.4byte	0x307
 612 0306 00       		.byte	0
 613 0307 0E       		.uleb128 0xe
 614 0308 04       		.byte	0x4
 615 0309 04       		.uleb128 0x4
 616 030a AF030000 		.4byte	.LASF59
 617 030e 05       		.byte	0x5
 618 030f 61       		.byte	0x61
 619 0310 14030000 		.4byte	0x314
 620 0314 0B       		.uleb128 0xb
 621 0315 69040000 		.4byte	.LASF60
 622 0319 14       		.byte	0x14
ARM GAS  /tmp/ccD0WOaa.s 			page 20


 623 031a 06       		.byte	0x6
 624 031b 6B01     		.2byte	0x16b
 625 031d 63030000 		.4byte	0x363
 626 0321 09       		.uleb128 0x9
 627 0322 A1010000 		.4byte	.LASF61
 628 0326 06       		.byte	0x6
 629 0327 6C01     		.2byte	0x16c
 630 0329 EB050000 		.4byte	0x5eb
 631 032d 00       		.byte	0
 632 032e 09       		.uleb128 0x9
 633 032f 61010000 		.4byte	.LASF62
 634 0333 06       		.byte	0x6
 635 0334 6D01     		.2byte	0x16d
 636 0336 EB050000 		.4byte	0x5eb
 637 033a 04       		.byte	0x4
 638 033b 09       		.uleb128 0x9
 639 033c AA040000 		.4byte	.LASF63
 640 0340 06       		.byte	0x6
 641 0341 6E01     		.2byte	0x16e
 642 0343 1C010000 		.4byte	0x11c
 643 0347 08       		.byte	0x8
 644 0348 09       		.uleb128 0x9
 645 0349 EE050000 		.4byte	.LASF64
 646 034d 06       		.byte	0x6
 647 034e 6F01     		.2byte	0x16f
 648 0350 EB020000 		.4byte	0x2eb
 649 0354 0C       		.byte	0xc
 650 0355 09       		.uleb128 0x9
 651 0356 49050000 		.4byte	.LASF65
 652 035a 06       		.byte	0x6
 653 035b 7101     		.2byte	0x171
 654 035d 07030000 		.4byte	0x307
 655 0361 10       		.byte	0x10
 656 0362 00       		.byte	0
 657 0363 04       		.uleb128 0x4
 658 0364 A2000000 		.4byte	.LASF66
 659 0368 05       		.byte	0x5
 660 0369 66       		.byte	0x66
 661 036a 6E030000 		.4byte	0x36e
 662 036e 0B       		.uleb128 0xb
 663 036f 3C030000 		.4byte	.LASF67
 664 0373 10       		.byte	0x10
 665 0374 06       		.byte	0x6
 666 0375 7B01     		.2byte	0x17b
 667 0377 B0030000 		.4byte	0x3b0
 668 037b 09       		.uleb128 0x9
 669 037c A1010000 		.4byte	.LASF61
 670 0380 06       		.byte	0x6
 671 0381 7C01     		.2byte	0x17c
 672 0383 EB050000 		.4byte	0x5eb
 673 0387 00       		.byte	0
 674 0388 09       		.uleb128 0x9
 675 0389 61010000 		.4byte	.LASF62
 676 038d 06       		.byte	0x6
 677 038e 7E01     		.2byte	0x17e
 678 0390 EB050000 		.4byte	0x5eb
 679 0394 04       		.byte	0x4
ARM GAS  /tmp/ccD0WOaa.s 			page 21


 680 0395 09       		.uleb128 0x9
 681 0396 AA040000 		.4byte	.LASF63
 682 039a 06       		.byte	0x6
 683 039b 8001     		.2byte	0x180
 684 039d 1C010000 		.4byte	0x11c
 685 03a1 08       		.byte	0x8
 686 03a2 09       		.uleb128 0x9
 687 03a3 53030000 		.4byte	.LASF68
 688 03a7 06       		.byte	0x6
 689 03a8 8801     		.2byte	0x188
 690 03aa 1C010000 		.4byte	0x11c
 691 03ae 0C       		.byte	0xc
 692 03af 00       		.byte	0
 693 03b0 04       		.uleb128 0x4
 694 03b1 5B000000 		.4byte	.LASF69
 695 03b5 05       		.byte	0x5
 696 03b6 6B       		.byte	0x6b
 697 03b7 BB030000 		.4byte	0x3bb
 698 03bb 0B       		.uleb128 0xb
 699 03bc D7030000 		.4byte	.LASF70
 700 03c0 04       		.byte	0x4
 701 03c1 06       		.byte	0x6
 702 03c2 A201     		.2byte	0x1a2
 703 03c4 D6030000 		.4byte	0x3d6
 704 03c8 09       		.uleb128 0x9
 705 03c9 1B050000 		.4byte	.LASF71
 706 03cd 06       		.byte	0x6
 707 03ce AA01     		.2byte	0x1aa
 708 03d0 F1050000 		.4byte	0x5f1
 709 03d4 00       		.byte	0
 710 03d5 00       		.byte	0
 711 03d6 04       		.uleb128 0x4
 712 03d7 16020000 		.4byte	.LASF72
 713 03db 05       		.byte	0x5
 714 03dc 70       		.byte	0x70
 715 03dd E1030000 		.4byte	0x3e1
 716 03e1 0F       		.uleb128 0xf
 717 03e2 0D010000 		.4byte	.LASF73
 718 03e6 5001     		.2byte	0x150
 719 03e8 06       		.byte	0x6
 720 03e9 C201     		.2byte	0x1c2
 721 03eb 3D040000 		.4byte	0x43d
 722 03ef 09       		.uleb128 0x9
 723 03f0 7E050000 		.4byte	.LASF74
 724 03f4 06       		.byte	0x6
 725 03f5 C601     		.2byte	0x1c6
 726 03f7 84020000 		.4byte	0x284
 727 03fb 00       		.byte	0
 728 03fc 09       		.uleb128 0x9
 729 03fd 69010000 		.4byte	.LASF75
 730 0401 06       		.byte	0x6
 731 0402 CA01     		.2byte	0x1ca
 732 0404 63030000 		.4byte	0x363
 733 0408 1C       		.byte	0x1c
 734 0409 08       		.uleb128 0x8
 735 040a 64626700 		.ascii	"dbg\000"
 736 040e 06       		.byte	0x6
ARM GAS  /tmp/ccD0WOaa.s 			page 22


 737 040f CE01     		.2byte	0x1ce
 738 0411 B0030000 		.4byte	0x3b0
 739 0415 2C       		.byte	0x2c
 740 0416 09       		.uleb128 0x9
 741 0417 97000000 		.4byte	.LASF76
 742 041b 06       		.byte	0x6
 743 041c D201     		.2byte	0x1d2
 744 041e 27010000 		.4byte	0x127
 745 0422 30       		.byte	0x30
 746 0423 08       		.uleb128 0x8
 747 0424 746D00   		.ascii	"tm\000"
 748 0427 06       		.byte	0x6
 749 0428 D701     		.2byte	0x1d7
 750 042a 09050000 		.4byte	0x509
 751 042e 74       		.byte	0x74
 752 042f 09       		.uleb128 0x9
 753 0430 7F010000 		.4byte	.LASF77
 754 0434 06       		.byte	0x6
 755 0435 E301     		.2byte	0x1e3
 756 0437 F6050000 		.4byte	0x5f6
 757 043b 78       		.byte	0x78
 758 043c 00       		.byte	0
 759 043d 03       		.uleb128 0x3
 760 043e 04       		.byte	0x4
 761 043f 07       		.byte	0x7
 762 0440 20030000 		.4byte	.LASF78
 763 0444 04       		.uleb128 0x4
 764 0445 58010000 		.4byte	.LASF79
 765 0449 07       		.byte	0x7
 766 044a 65       		.byte	0x65
 767 044b 07030000 		.4byte	0x307
 768 044f 04       		.uleb128 0x4
 769 0450 55020000 		.4byte	.LASF80
 770 0454 07       		.byte	0x7
 771 0455 6D       		.byte	0x6d
 772 0456 B4000000 		.4byte	0xb4
 773 045a 06       		.uleb128 0x6
 774 045b 2C050000 		.4byte	.LASF81
 775 045f 04       		.byte	0x4
 776 0460 07       		.byte	0x7
 777 0461 89       		.byte	0x89
 778 0462 73040000 		.4byte	0x473
 779 0466 10       		.uleb128 0x10
 780 0467 72313300 		.ascii	"r13\000"
 781 046b 07       		.byte	0x7
 782 046c 8A       		.byte	0x8a
 783 046d EE040000 		.4byte	0x4ee
 784 0471 00       		.byte	0
 785 0472 00       		.byte	0
 786 0473 06       		.uleb128 0x6
 787 0474 4F000000 		.4byte	.LASF82
 788 0478 24       		.byte	0x24
 789 0479 08       		.byte	0x8
 790 047a F4       		.byte	0xf4
 791 047b EE040000 		.4byte	0x4ee
 792 047f 08       		.uleb128 0x8
 793 0480 723400   		.ascii	"r4\000"
ARM GAS  /tmp/ccD0WOaa.s 			page 23


 794 0483 08       		.byte	0x8
 795 0484 0701     		.2byte	0x107
 796 0486 44040000 		.4byte	0x444
 797 048a 00       		.byte	0
 798 048b 08       		.uleb128 0x8
 799 048c 723500   		.ascii	"r5\000"
 800 048f 08       		.byte	0x8
 801 0490 0801     		.2byte	0x108
 802 0492 44040000 		.4byte	0x444
 803 0496 04       		.byte	0x4
 804 0497 08       		.uleb128 0x8
 805 0498 723600   		.ascii	"r6\000"
 806 049b 08       		.byte	0x8
 807 049c 0901     		.2byte	0x109
 808 049e 44040000 		.4byte	0x444
 809 04a2 08       		.byte	0x8
 810 04a3 08       		.uleb128 0x8
 811 04a4 723700   		.ascii	"r7\000"
 812 04a7 08       		.byte	0x8
 813 04a8 0A01     		.2byte	0x10a
 814 04aa 44040000 		.4byte	0x444
 815 04ae 0C       		.byte	0xc
 816 04af 08       		.uleb128 0x8
 817 04b0 723800   		.ascii	"r8\000"
 818 04b3 08       		.byte	0x8
 819 04b4 0B01     		.2byte	0x10b
 820 04b6 44040000 		.4byte	0x444
 821 04ba 10       		.byte	0x10
 822 04bb 08       		.uleb128 0x8
 823 04bc 723900   		.ascii	"r9\000"
 824 04bf 08       		.byte	0x8
 825 04c0 0C01     		.2byte	0x10c
 826 04c2 44040000 		.4byte	0x444
 827 04c6 14       		.byte	0x14
 828 04c7 08       		.uleb128 0x8
 829 04c8 72313000 		.ascii	"r10\000"
 830 04cc 08       		.byte	0x8
 831 04cd 0D01     		.2byte	0x10d
 832 04cf 44040000 		.4byte	0x444
 833 04d3 18       		.byte	0x18
 834 04d4 08       		.uleb128 0x8
 835 04d5 72313100 		.ascii	"r11\000"
 836 04d9 08       		.byte	0x8
 837 04da 0E01     		.2byte	0x10e
 838 04dc 44040000 		.4byte	0x444
 839 04e0 1C       		.byte	0x1c
 840 04e1 08       		.uleb128 0x8
 841 04e2 6C7200   		.ascii	"lr\000"
 842 04e5 08       		.byte	0x8
 843 04e6 0F01     		.2byte	0x10f
 844 04e8 44040000 		.4byte	0x444
 845 04ec 20       		.byte	0x20
 846 04ed 00       		.byte	0
 847 04ee 0A       		.uleb128 0xa
 848 04ef 04       		.byte	0x4
 849 04f0 73040000 		.4byte	0x473
 850 04f4 11       		.uleb128 0x11
ARM GAS  /tmp/ccD0WOaa.s 			page 24


 851 04f5 04       		.byte	0x4
 852 04f6 09       		.byte	0x9
 853 04f7 38       		.byte	0x38
 854 04f8 09050000 		.4byte	0x509
 855 04fc 07       		.uleb128 0x7
 856 04fd 25050000 		.4byte	.LASF83
 857 0501 09       		.byte	0x9
 858 0502 3C       		.byte	0x3c
 859 0503 C4000000 		.4byte	0xc4
 860 0507 00       		.byte	0
 861 0508 00       		.byte	0
 862 0509 04       		.uleb128 0x4
 863 050a 6D030000 		.4byte	.LASF84
 864 050e 09       		.byte	0x9
 865 050f 3D       		.byte	0x3d
 866 0510 F4040000 		.4byte	0x4f4
 867 0514 12       		.uleb128 0x12
 868 0515 04       		.byte	0x4
 869 0516 06       		.byte	0x6
 870 0517 FA       		.byte	0xfa
 871 0518 71050000 		.4byte	0x571
 872 051c 13       		.uleb128 0x13
 873 051d 2D000000 		.4byte	.LASF85
 874 0521 06       		.byte	0x6
 875 0522 0101     		.2byte	0x101
 876 0524 FB000000 		.4byte	0xfb
 877 0528 13       		.uleb128 0x13
 878 0529 8E000000 		.4byte	.LASF86
 879 052d 06       		.byte	0x6
 880 052e 0801     		.2byte	0x108
 881 0530 FB000000 		.4byte	0xfb
 882 0534 13       		.uleb128 0x13
 883 0535 8C050000 		.4byte	.LASF87
 884 0539 06       		.byte	0x6
 885 053a 0F01     		.2byte	0x10f
 886 053c 07030000 		.4byte	0x307
 887 0540 13       		.uleb128 0x13
 888 0541 27000000 		.4byte	.LASF88
 889 0545 06       		.byte	0x6
 890 0546 1601     		.2byte	0x116
 891 0548 71050000 		.4byte	0x571
 892 054c 13       		.uleb128 0x13
 893 054d A9010000 		.4byte	.LASF89
 894 0551 06       		.byte	0x6
 895 0552 1E01     		.2byte	0x11e
 896 0554 9C050000 		.4byte	0x59c
 897 0558 13       		.uleb128 0x13
 898 0559 9B040000 		.4byte	.LASF90
 899 055d 06       		.byte	0x6
 900 055e 2701     		.2byte	0x127
 901 0560 D3050000 		.4byte	0x5d3
 902 0564 13       		.uleb128 0x13
 903 0565 4C040000 		.4byte	.LASF91
 904 0569 06       		.byte	0x6
 905 056a 2F01     		.2byte	0x12f
 906 056c 06010000 		.4byte	0x106
 907 0570 00       		.byte	0
ARM GAS  /tmp/ccD0WOaa.s 			page 25


 908 0571 0A       		.uleb128 0xa
 909 0572 04       		.byte	0x4
 910 0573 1F020000 		.4byte	0x21f
 911 0577 06       		.uleb128 0x6
 912 0578 7A040000 		.4byte	.LASF92
 913 057c 0C       		.byte	0xc
 914 057d 0A       		.byte	0xa
 915 057e 34       		.byte	0x34
 916 057f 9C050000 		.4byte	0x59c
 917 0583 07       		.uleb128 0x7
 918 0584 48010000 		.4byte	.LASF93
 919 0588 0A       		.byte	0xa
 920 0589 35       		.byte	0x35
 921 058a 54020000 		.4byte	0x254
 922 058e 00       		.byte	0
 923 058f 07       		.uleb128 0x7
 924 0590 9A050000 		.4byte	.LASF94
 925 0594 0A       		.byte	0xa
 926 0595 37       		.byte	0x37
 927 0596 11010000 		.4byte	0x111
 928 059a 08       		.byte	0x8
 929 059b 00       		.byte	0
 930 059c 0A       		.uleb128 0xa
 931 059d 04       		.byte	0x4
 932 059e 77050000 		.4byte	0x577
 933 05a2 06       		.uleb128 0x6
 934 05a3 60050000 		.4byte	.LASF95
 935 05a7 10       		.byte	0x10
 936 05a8 0B       		.byte	0xb
 937 05a9 39       		.byte	0x39
 938 05aa D3050000 		.4byte	0x5d3
 939 05ae 07       		.uleb128 0x7
 940 05af FF000000 		.4byte	.LASF96
 941 05b3 0B       		.byte	0xb
 942 05b4 3A       		.byte	0x3a
 943 05b5 54020000 		.4byte	0x254
 944 05b9 00       		.byte	0
 945 05ba 07       		.uleb128 0x7
 946 05bb CD050000 		.4byte	.LASF97
 947 05bf 0B       		.byte	0xb
 948 05c0 3C       		.byte	0x3c
 949 05c1 2A020000 		.4byte	0x22a
 950 05c5 08       		.byte	0x8
 951 05c6 07       		.uleb128 0x7
 952 05c7 EB040000 		.4byte	.LASF98
 953 05cb 0B       		.byte	0xb
 954 05cc 3E       		.byte	0x3e
 955 05cd 11060000 		.4byte	0x611
 956 05d1 0C       		.byte	0xc
 957 05d2 00       		.byte	0
 958 05d3 0A       		.uleb128 0xa
 959 05d4 04       		.byte	0x4
 960 05d5 A2050000 		.4byte	0x5a2
 961 05d9 0A       		.uleb128 0xa
 962 05da 04       		.byte	0x4
 963 05db DF050000 		.4byte	0x5df
 964 05df 14       		.uleb128 0x14
ARM GAS  /tmp/ccD0WOaa.s 			page 26


 965 05e0 E4050000 		.4byte	0x5e4
 966 05e4 03       		.uleb128 0x3
 967 05e5 01       		.byte	0x1
 968 05e6 08       		.byte	0x8
 969 05e7 D5040000 		.4byte	.LASF99
 970 05eb 0A       		.uleb128 0xa
 971 05ec 04       		.byte	0x4
 972 05ed 09030000 		.4byte	0x309
 973 05f1 05       		.uleb128 0x5
 974 05f2 D9050000 		.4byte	0x5d9
 975 05f6 15       		.uleb128 0x15
 976 05f7 4F040000 		.4byte	0x44f
 977 05fb 06060000 		.4byte	0x606
 978 05ff 16       		.uleb128 0x16
 979 0600 3D040000 		.4byte	0x43d
 980 0604 1A       		.byte	0x1a
 981 0605 00       		.byte	0
 982 0606 04       		.uleb128 0x4
 983 0607 70010000 		.4byte	.LASF100
 984 060b 0B       		.byte	0xb
 985 060c 34       		.byte	0x34
 986 060d A2050000 		.4byte	0x5a2
 987 0611 0A       		.uleb128 0xa
 988 0612 04       		.byte	0x4
 989 0613 06060000 		.4byte	0x606
 990 0617 03       		.uleb128 0x3
 991 0618 01       		.byte	0x1
 992 0619 02       		.byte	0x2
 993 061a E7030000 		.4byte	.LASF101
 994 061e 11       		.uleb128 0x11
 995 061f 1C       		.byte	0x1c
 996 0620 0C       		.byte	0xc
 997 0621 C1       		.byte	0xc1
 998 0622 7B060000 		.4byte	0x67b
 999 0626 07       		.uleb128 0x7
 1000 0627 07010000 		.4byte	.LASF102
 1001 062b 0C       		.byte	0xc
 1002 062c C3       		.byte	0xc3
 1003 062d A9000000 		.4byte	0xa9
 1004 0631 00       		.byte	0
 1005 0632 07       		.uleb128 0x7
 1006 0633 E5010000 		.4byte	.LASF103
 1007 0637 0C       		.byte	0xc
 1008 0638 C5       		.byte	0xc5
 1009 0639 A9000000 		.4byte	0xa9
 1010 063d 04       		.byte	0x4
 1011 063e 07       		.uleb128 0x7
 1012 063f DD010000 		.4byte	.LASF104
 1013 0643 0C       		.byte	0xc
 1014 0644 C7       		.byte	0xc7
 1015 0645 A9000000 		.4byte	0xa9
 1016 0649 08       		.byte	0x8
 1017 064a 07       		.uleb128 0x7
 1018 064b 88000000 		.4byte	.LASF105
 1019 064f 0C       		.byte	0xc
 1020 0650 C9       		.byte	0xc9
 1021 0651 A9000000 		.4byte	0xa9
ARM GAS  /tmp/ccD0WOaa.s 			page 27


 1022 0655 0C       		.byte	0xc
 1023 0656 10       		.uleb128 0x10
 1024 0657 6F647200 		.ascii	"odr\000"
 1025 065b 0C       		.byte	0xc
 1026 065c CB       		.byte	0xcb
 1027 065d A9000000 		.4byte	0xa9
 1028 0661 10       		.byte	0x10
 1029 0662 07       		.uleb128 0x7
 1030 0663 0B040000 		.4byte	.LASF106
 1031 0667 0C       		.byte	0xc
 1032 0668 CD       		.byte	0xcd
 1033 0669 A9000000 		.4byte	0xa9
 1034 066d 14       		.byte	0x14
 1035 066e 07       		.uleb128 0x7
 1036 066f 7E030000 		.4byte	.LASF107
 1037 0673 0C       		.byte	0xc
 1038 0674 CF       		.byte	0xcf
 1039 0675 A9000000 		.4byte	0xa9
 1040 0679 18       		.byte	0x18
 1041 067a 00       		.byte	0
 1042 067b 04       		.uleb128 0x4
 1043 067c 00000000 		.4byte	.LASF108
 1044 0680 0C       		.byte	0xc
 1045 0681 D0       		.byte	0xd0
 1046 0682 1E060000 		.4byte	0x61e
 1047 0686 11       		.uleb128 0x11
 1048 0687 FC       		.byte	0xfc
 1049 0688 0C       		.byte	0xc
 1050 0689 D9       		.byte	0xd9
 1051 068a FB060000 		.4byte	0x6fb
 1052 068e 07       		.uleb128 0x7
 1053 068f 45040000 		.4byte	.LASF109
 1054 0693 0C       		.byte	0xc
 1055 0694 DC       		.byte	0xdc
 1056 0695 7B060000 		.4byte	0x67b
 1057 0699 00       		.byte	0
 1058 069a 07       		.uleb128 0x7
 1059 069b 78010000 		.4byte	.LASF110
 1060 069f 0C       		.byte	0xc
 1061 06a0 E0       		.byte	0xe0
 1062 06a1 7B060000 		.4byte	0x67b
 1063 06a5 1C       		.byte	0x1c
 1064 06a6 07       		.uleb128 0x7
 1065 06a7 A0050000 		.4byte	.LASF111
 1066 06ab 0C       		.byte	0xc
 1067 06ac E4       		.byte	0xe4
 1068 06ad 7B060000 		.4byte	0x67b
 1069 06b1 38       		.byte	0x38
 1070 06b2 07       		.uleb128 0x7
 1071 06b3 83030000 		.4byte	.LASF112
 1072 06b7 0C       		.byte	0xc
 1073 06b8 E8       		.byte	0xe8
 1074 06b9 7B060000 		.4byte	0x67b
 1075 06bd 54       		.byte	0x54
 1076 06be 07       		.uleb128 0x7
 1077 06bf 20010000 		.4byte	.LASF113
 1078 06c3 0C       		.byte	0xc
ARM GAS  /tmp/ccD0WOaa.s 			page 28


 1079 06c4 EC       		.byte	0xec
 1080 06c5 7B060000 		.4byte	0x67b
 1081 06c9 70       		.byte	0x70
 1082 06ca 07       		.uleb128 0x7
 1083 06cb FF010000 		.4byte	.LASF114
 1084 06cf 0C       		.byte	0xc
 1085 06d0 F0       		.byte	0xf0
 1086 06d1 7B060000 		.4byte	0x67b
 1087 06d5 8C       		.byte	0x8c
 1088 06d6 07       		.uleb128 0x7
 1089 06d7 4E020000 		.4byte	.LASF115
 1090 06db 0C       		.byte	0xc
 1091 06dc F4       		.byte	0xf4
 1092 06dd 7B060000 		.4byte	0x67b
 1093 06e1 A8       		.byte	0xa8
 1094 06e2 07       		.uleb128 0x7
 1095 06e3 6A000000 		.4byte	.LASF116
 1096 06e7 0C       		.byte	0xc
 1097 06e8 F8       		.byte	0xf8
 1098 06e9 7B060000 		.4byte	0x67b
 1099 06ed C4       		.byte	0xc4
 1100 06ee 07       		.uleb128 0x7
 1101 06ef 62040000 		.4byte	.LASF117
 1102 06f3 0C       		.byte	0xc
 1103 06f4 FC       		.byte	0xfc
 1104 06f5 7B060000 		.4byte	0x67b
 1105 06f9 E0       		.byte	0xe0
 1106 06fa 00       		.byte	0
 1107 06fb 04       		.uleb128 0x4
 1108 06fc C3050000 		.4byte	.LASF118
 1109 0700 0C       		.byte	0xc
 1110 0701 FE       		.byte	0xfe
 1111 0702 86060000 		.4byte	0x686
 1112 0706 17       		.uleb128 0x17
 1113 0707 C6030000 		.4byte	.LASF132
 1114 070b 17       		.byte	0x17
 1115 070c C101     		.2byte	0x1c1
 1116 070e 03       		.byte	0x3
 1117 070f 18       		.uleb128 0x18
 1118 0710 38010000 		.4byte	.LASF133
 1119 0714 01       		.byte	0x1
 1120 0715 38       		.byte	0x38
 1121 0716 00000000 		.4byte	.LFB260
 1122 071a 34000000 		.4byte	.LFE260-.LFB260
 1123 071e 01       		.uleb128 0x1
 1124 071f 9C       		.byte	0x9c
 1125 0720 7F070000 		.4byte	0x77f
 1126 0724 19       		.uleb128 0x19
 1127 0725 06000000 		.4byte	.LVL0
 1128 0729 A7070000 		.4byte	0x7a7
 1129 072d 19       		.uleb128 0x19
 1130 072e 0C000000 		.4byte	.LVL1
 1131 0732 AF070000 		.4byte	0x7af
 1132 0736 19       		.uleb128 0x19
 1133 0737 10000000 		.4byte	.LVL2
 1134 073b C7070000 		.4byte	0x7c7
 1135 073f 19       		.uleb128 0x19
ARM GAS  /tmp/ccD0WOaa.s 			page 29


 1136 0740 14000000 		.4byte	.LVL3
 1137 0744 CE070000 		.4byte	0x7ce
 1138 0748 19       		.uleb128 0x19
 1139 0749 18000000 		.4byte	.LVL4
 1140 074d D5070000 		.4byte	0x7d5
 1141 0751 19       		.uleb128 0x19
 1142 0752 1C000000 		.4byte	.LVL5
 1143 0756 DD070000 		.4byte	0x7dd
 1144 075a 19       		.uleb128 0x19
 1145 075b 20000000 		.4byte	.LVL6
 1146 075f E5070000 		.4byte	0x7e5
 1147 0763 19       		.uleb128 0x19
 1148 0764 24000000 		.4byte	.LVL7
 1149 0768 ED070000 		.4byte	0x7ed
 1150 076c 19       		.uleb128 0x19
 1151 076d 28000000 		.4byte	.LVL8
 1152 0771 F4070000 		.4byte	0x7f4
 1153 0775 1A       		.uleb128 0x1a
 1154 0776 30000000 		.4byte	.LVL9
 1155 077a FC070000 		.4byte	0x7fc
 1156 077e 00       		.byte	0
 1157 077f 1B       		.uleb128 0x1b
 1158 0780 B8000000 		.4byte	.LASF119
 1159 0784 0D       		.byte	0xd
 1160 0785 A706     		.2byte	0x6a7
 1161 0787 BF000000 		.4byte	0xbf
 1162 078b 1C       		.uleb128 0x1c
 1163 078c 636800   		.ascii	"ch\000"
 1164 078f 06       		.byte	0x6
 1165 0790 0902     		.2byte	0x209
 1166 0792 D6030000 		.4byte	0x3d6
 1167 0796 1B       		.uleb128 0x1b
 1168 0797 D5050000 		.4byte	.LASF120
 1169 079b 0C       		.byte	0xc
 1170 079c DA01     		.2byte	0x1da
 1171 079e A2070000 		.4byte	0x7a2
 1172 07a2 14       		.uleb128 0x14
 1173 07a3 FB060000 		.4byte	0x6fb
 1174 07a7 1D       		.uleb128 0x1d
 1175 07a8 34050000 		.4byte	.LASF121
 1176 07ac 0E       		.byte	0xe
 1177 07ad 1206     		.2byte	0x612
 1178 07af 1E       		.uleb128 0x1e
 1179 07b0 70050000 		.4byte	.LASF134
 1180 07b4 0C       		.byte	0xc
 1181 07b5 DF01     		.2byte	0x1df
 1182 07b7 C1070000 		.4byte	0x7c1
 1183 07bb 0D       		.uleb128 0xd
 1184 07bc C1070000 		.4byte	0x7c1
 1185 07c0 00       		.byte	0
 1186 07c1 0A       		.uleb128 0xa
 1187 07c2 04       		.byte	0x4
 1188 07c3 A2070000 		.4byte	0x7a2
 1189 07c7 1F       		.uleb128 0x1f
 1190 07c8 34000000 		.4byte	.LASF122
 1191 07cc 0F       		.byte	0xf
 1192 07cd 7E       		.byte	0x7e
ARM GAS  /tmp/ccD0WOaa.s 			page 30


 1193 07ce 1F       		.uleb128 0x1f
 1194 07cf 10040000 		.4byte	.LASF123
 1195 07d3 10       		.byte	0x10
 1196 07d4 85       		.byte	0x85
 1197 07d5 1D       		.uleb128 0x1d
 1198 07d6 30010000 		.4byte	.LASF124
 1199 07da 11       		.byte	0x11
 1200 07db 1F01     		.2byte	0x11f
 1201 07dd 1D       		.uleb128 0x1d
 1202 07de BC050000 		.4byte	.LASF125
 1203 07e2 12       		.byte	0x12
 1204 07e3 0E01     		.2byte	0x10e
 1205 07e5 1D       		.uleb128 0x1d
 1206 07e6 DA040000 		.4byte	.LASF126
 1207 07ea 13       		.byte	0x13
 1208 07eb 3602     		.2byte	0x236
 1209 07ed 1F       		.uleb128 0x1f
 1210 07ee 03040000 		.4byte	.LASF127
 1211 07f2 14       		.byte	0x14
 1212 07f3 F6       		.byte	0xf6
 1213 07f4 1D       		.uleb128 0x1d
 1214 07f5 34040000 		.4byte	.LASF128
 1215 07f9 15       		.byte	0x15
 1216 07fa 0A05     		.2byte	0x50a
 1217 07fc 1F       		.uleb128 0x1f
 1218 07fd 20000000 		.4byte	.LASF129
 1219 0801 16       		.byte	0x16
 1220 0802 56       		.byte	0x56
 1221 0803 00       		.byte	0
 1222              		.section	.debug_abbrev,"",%progbits
 1223              	.Ldebug_abbrev0:
 1224 0000 01       		.uleb128 0x1
 1225 0001 11       		.uleb128 0x11
 1226 0002 01       		.byte	0x1
 1227 0003 25       		.uleb128 0x25
 1228 0004 0E       		.uleb128 0xe
 1229 0005 13       		.uleb128 0x13
 1230 0006 0B       		.uleb128 0xb
 1231 0007 03       		.uleb128 0x3
 1232 0008 0E       		.uleb128 0xe
 1233 0009 55       		.uleb128 0x55
 1234 000a 17       		.uleb128 0x17
 1235 000b 11       		.uleb128 0x11
 1236 000c 01       		.uleb128 0x1
 1237 000d 10       		.uleb128 0x10
 1238 000e 17       		.uleb128 0x17
 1239 000f 00       		.byte	0
 1240 0010 00       		.byte	0
 1241 0011 02       		.uleb128 0x2
 1242 0012 24       		.uleb128 0x24
 1243 0013 00       		.byte	0
 1244 0014 0B       		.uleb128 0xb
 1245 0015 0B       		.uleb128 0xb
 1246 0016 3E       		.uleb128 0x3e
 1247 0017 0B       		.uleb128 0xb
 1248 0018 03       		.uleb128 0x3
 1249 0019 08       		.uleb128 0x8
ARM GAS  /tmp/ccD0WOaa.s 			page 31


 1250 001a 00       		.byte	0
 1251 001b 00       		.byte	0
 1252 001c 03       		.uleb128 0x3
 1253 001d 24       		.uleb128 0x24
 1254 001e 00       		.byte	0
 1255 001f 0B       		.uleb128 0xb
 1256 0020 0B       		.uleb128 0xb
 1257 0021 3E       		.uleb128 0x3e
 1258 0022 0B       		.uleb128 0xb
 1259 0023 03       		.uleb128 0x3
 1260 0024 0E       		.uleb128 0xe
 1261 0025 00       		.byte	0
 1262 0026 00       		.byte	0
 1263 0027 04       		.uleb128 0x4
 1264 0028 16       		.uleb128 0x16
 1265 0029 00       		.byte	0
 1266 002a 03       		.uleb128 0x3
 1267 002b 0E       		.uleb128 0xe
 1268 002c 3A       		.uleb128 0x3a
 1269 002d 0B       		.uleb128 0xb
 1270 002e 3B       		.uleb128 0x3b
 1271 002f 0B       		.uleb128 0xb
 1272 0030 49       		.uleb128 0x49
 1273 0031 13       		.uleb128 0x13
 1274 0032 00       		.byte	0
 1275 0033 00       		.byte	0
 1276 0034 05       		.uleb128 0x5
 1277 0035 35       		.uleb128 0x35
 1278 0036 00       		.byte	0
 1279 0037 49       		.uleb128 0x49
 1280 0038 13       		.uleb128 0x13
 1281 0039 00       		.byte	0
 1282 003a 00       		.byte	0
 1283 003b 06       		.uleb128 0x6
 1284 003c 13       		.uleb128 0x13
 1285 003d 01       		.byte	0x1
 1286 003e 03       		.uleb128 0x3
 1287 003f 0E       		.uleb128 0xe
 1288 0040 0B       		.uleb128 0xb
 1289 0041 0B       		.uleb128 0xb
 1290 0042 3A       		.uleb128 0x3a
 1291 0043 0B       		.uleb128 0xb
 1292 0044 3B       		.uleb128 0x3b
 1293 0045 0B       		.uleb128 0xb
 1294 0046 01       		.uleb128 0x1
 1295 0047 13       		.uleb128 0x13
 1296 0048 00       		.byte	0
 1297 0049 00       		.byte	0
 1298 004a 07       		.uleb128 0x7
 1299 004b 0D       		.uleb128 0xd
 1300 004c 00       		.byte	0
 1301 004d 03       		.uleb128 0x3
 1302 004e 0E       		.uleb128 0xe
 1303 004f 3A       		.uleb128 0x3a
 1304 0050 0B       		.uleb128 0xb
 1305 0051 3B       		.uleb128 0x3b
 1306 0052 0B       		.uleb128 0xb
ARM GAS  /tmp/ccD0WOaa.s 			page 32


 1307 0053 49       		.uleb128 0x49
 1308 0054 13       		.uleb128 0x13
 1309 0055 38       		.uleb128 0x38
 1310 0056 0B       		.uleb128 0xb
 1311 0057 00       		.byte	0
 1312 0058 00       		.byte	0
 1313 0059 08       		.uleb128 0x8
 1314 005a 0D       		.uleb128 0xd
 1315 005b 00       		.byte	0
 1316 005c 03       		.uleb128 0x3
 1317 005d 08       		.uleb128 0x8
 1318 005e 3A       		.uleb128 0x3a
 1319 005f 0B       		.uleb128 0xb
 1320 0060 3B       		.uleb128 0x3b
 1321 0061 05       		.uleb128 0x5
 1322 0062 49       		.uleb128 0x49
 1323 0063 13       		.uleb128 0x13
 1324 0064 38       		.uleb128 0x38
 1325 0065 0B       		.uleb128 0xb
 1326 0066 00       		.byte	0
 1327 0067 00       		.byte	0
 1328 0068 09       		.uleb128 0x9
 1329 0069 0D       		.uleb128 0xd
 1330 006a 00       		.byte	0
 1331 006b 03       		.uleb128 0x3
 1332 006c 0E       		.uleb128 0xe
 1333 006d 3A       		.uleb128 0x3a
 1334 006e 0B       		.uleb128 0xb
 1335 006f 3B       		.uleb128 0x3b
 1336 0070 05       		.uleb128 0x5
 1337 0071 49       		.uleb128 0x49
 1338 0072 13       		.uleb128 0x13
 1339 0073 38       		.uleb128 0x38
 1340 0074 0B       		.uleb128 0xb
 1341 0075 00       		.byte	0
 1342 0076 00       		.byte	0
 1343 0077 0A       		.uleb128 0xa
 1344 0078 0F       		.uleb128 0xf
 1345 0079 00       		.byte	0
 1346 007a 0B       		.uleb128 0xb
 1347 007b 0B       		.uleb128 0xb
 1348 007c 49       		.uleb128 0x49
 1349 007d 13       		.uleb128 0x13
 1350 007e 00       		.byte	0
 1351 007f 00       		.byte	0
 1352 0080 0B       		.uleb128 0xb
 1353 0081 13       		.uleb128 0x13
 1354 0082 01       		.byte	0x1
 1355 0083 03       		.uleb128 0x3
 1356 0084 0E       		.uleb128 0xe
 1357 0085 0B       		.uleb128 0xb
 1358 0086 0B       		.uleb128 0xb
 1359 0087 3A       		.uleb128 0x3a
 1360 0088 0B       		.uleb128 0xb
 1361 0089 3B       		.uleb128 0x3b
 1362 008a 05       		.uleb128 0x5
 1363 008b 01       		.uleb128 0x1
ARM GAS  /tmp/ccD0WOaa.s 			page 33


 1364 008c 13       		.uleb128 0x13
 1365 008d 00       		.byte	0
 1366 008e 00       		.byte	0
 1367 008f 0C       		.uleb128 0xc
 1368 0090 15       		.uleb128 0x15
 1369 0091 01       		.byte	0x1
 1370 0092 27       		.uleb128 0x27
 1371 0093 19       		.uleb128 0x19
 1372 0094 01       		.uleb128 0x1
 1373 0095 13       		.uleb128 0x13
 1374 0096 00       		.byte	0
 1375 0097 00       		.byte	0
 1376 0098 0D       		.uleb128 0xd
 1377 0099 05       		.uleb128 0x5
 1378 009a 00       		.byte	0
 1379 009b 49       		.uleb128 0x49
 1380 009c 13       		.uleb128 0x13
 1381 009d 00       		.byte	0
 1382 009e 00       		.byte	0
 1383 009f 0E       		.uleb128 0xe
 1384 00a0 0F       		.uleb128 0xf
 1385 00a1 00       		.byte	0
 1386 00a2 0B       		.uleb128 0xb
 1387 00a3 0B       		.uleb128 0xb
 1388 00a4 00       		.byte	0
 1389 00a5 00       		.byte	0
 1390 00a6 0F       		.uleb128 0xf
 1391 00a7 13       		.uleb128 0x13
 1392 00a8 01       		.byte	0x1
 1393 00a9 03       		.uleb128 0x3
 1394 00aa 0E       		.uleb128 0xe
 1395 00ab 0B       		.uleb128 0xb
 1396 00ac 05       		.uleb128 0x5
 1397 00ad 3A       		.uleb128 0x3a
 1398 00ae 0B       		.uleb128 0xb
 1399 00af 3B       		.uleb128 0x3b
 1400 00b0 05       		.uleb128 0x5
 1401 00b1 01       		.uleb128 0x1
 1402 00b2 13       		.uleb128 0x13
 1403 00b3 00       		.byte	0
 1404 00b4 00       		.byte	0
 1405 00b5 10       		.uleb128 0x10
 1406 00b6 0D       		.uleb128 0xd
 1407 00b7 00       		.byte	0
 1408 00b8 03       		.uleb128 0x3
 1409 00b9 08       		.uleb128 0x8
 1410 00ba 3A       		.uleb128 0x3a
 1411 00bb 0B       		.uleb128 0xb
 1412 00bc 3B       		.uleb128 0x3b
 1413 00bd 0B       		.uleb128 0xb
 1414 00be 49       		.uleb128 0x49
 1415 00bf 13       		.uleb128 0x13
 1416 00c0 38       		.uleb128 0x38
 1417 00c1 0B       		.uleb128 0xb
 1418 00c2 00       		.byte	0
 1419 00c3 00       		.byte	0
 1420 00c4 11       		.uleb128 0x11
ARM GAS  /tmp/ccD0WOaa.s 			page 34


 1421 00c5 13       		.uleb128 0x13
 1422 00c6 01       		.byte	0x1
 1423 00c7 0B       		.uleb128 0xb
 1424 00c8 0B       		.uleb128 0xb
 1425 00c9 3A       		.uleb128 0x3a
 1426 00ca 0B       		.uleb128 0xb
 1427 00cb 3B       		.uleb128 0x3b
 1428 00cc 0B       		.uleb128 0xb
 1429 00cd 01       		.uleb128 0x1
 1430 00ce 13       		.uleb128 0x13
 1431 00cf 00       		.byte	0
 1432 00d0 00       		.byte	0
 1433 00d1 12       		.uleb128 0x12
 1434 00d2 17       		.uleb128 0x17
 1435 00d3 01       		.byte	0x1
 1436 00d4 0B       		.uleb128 0xb
 1437 00d5 0B       		.uleb128 0xb
 1438 00d6 3A       		.uleb128 0x3a
 1439 00d7 0B       		.uleb128 0xb
 1440 00d8 3B       		.uleb128 0x3b
 1441 00d9 0B       		.uleb128 0xb
 1442 00da 01       		.uleb128 0x1
 1443 00db 13       		.uleb128 0x13
 1444 00dc 00       		.byte	0
 1445 00dd 00       		.byte	0
 1446 00de 13       		.uleb128 0x13
 1447 00df 0D       		.uleb128 0xd
 1448 00e0 00       		.byte	0
 1449 00e1 03       		.uleb128 0x3
 1450 00e2 0E       		.uleb128 0xe
 1451 00e3 3A       		.uleb128 0x3a
 1452 00e4 0B       		.uleb128 0xb
 1453 00e5 3B       		.uleb128 0x3b
 1454 00e6 05       		.uleb128 0x5
 1455 00e7 49       		.uleb128 0x49
 1456 00e8 13       		.uleb128 0x13
 1457 00e9 00       		.byte	0
 1458 00ea 00       		.byte	0
 1459 00eb 14       		.uleb128 0x14
 1460 00ec 26       		.uleb128 0x26
 1461 00ed 00       		.byte	0
 1462 00ee 49       		.uleb128 0x49
 1463 00ef 13       		.uleb128 0x13
 1464 00f0 00       		.byte	0
 1465 00f1 00       		.byte	0
 1466 00f2 15       		.uleb128 0x15
 1467 00f3 01       		.uleb128 0x1
 1468 00f4 01       		.byte	0x1
 1469 00f5 49       		.uleb128 0x49
 1470 00f6 13       		.uleb128 0x13
 1471 00f7 01       		.uleb128 0x1
 1472 00f8 13       		.uleb128 0x13
 1473 00f9 00       		.byte	0
 1474 00fa 00       		.byte	0
 1475 00fb 16       		.uleb128 0x16
 1476 00fc 21       		.uleb128 0x21
 1477 00fd 00       		.byte	0
ARM GAS  /tmp/ccD0WOaa.s 			page 35


 1478 00fe 49       		.uleb128 0x49
 1479 00ff 13       		.uleb128 0x13
 1480 0100 2F       		.uleb128 0x2f
 1481 0101 0B       		.uleb128 0xb
 1482 0102 00       		.byte	0
 1483 0103 00       		.byte	0
 1484 0104 17       		.uleb128 0x17
 1485 0105 2E       		.uleb128 0x2e
 1486 0106 00       		.byte	0
 1487 0107 03       		.uleb128 0x3
 1488 0108 0E       		.uleb128 0xe
 1489 0109 3A       		.uleb128 0x3a
 1490 010a 0B       		.uleb128 0xb
 1491 010b 3B       		.uleb128 0x3b
 1492 010c 05       		.uleb128 0x5
 1493 010d 27       		.uleb128 0x27
 1494 010e 19       		.uleb128 0x19
 1495 010f 20       		.uleb128 0x20
 1496 0110 0B       		.uleb128 0xb
 1497 0111 00       		.byte	0
 1498 0112 00       		.byte	0
 1499 0113 18       		.uleb128 0x18
 1500 0114 2E       		.uleb128 0x2e
 1501 0115 01       		.byte	0x1
 1502 0116 3F       		.uleb128 0x3f
 1503 0117 19       		.uleb128 0x19
 1504 0118 03       		.uleb128 0x3
 1505 0119 0E       		.uleb128 0xe
 1506 011a 3A       		.uleb128 0x3a
 1507 011b 0B       		.uleb128 0xb
 1508 011c 3B       		.uleb128 0x3b
 1509 011d 0B       		.uleb128 0xb
 1510 011e 27       		.uleb128 0x27
 1511 011f 19       		.uleb128 0x19
 1512 0120 11       		.uleb128 0x11
 1513 0121 01       		.uleb128 0x1
 1514 0122 12       		.uleb128 0x12
 1515 0123 06       		.uleb128 0x6
 1516 0124 40       		.uleb128 0x40
 1517 0125 18       		.uleb128 0x18
 1518 0126 9742     		.uleb128 0x2117
 1519 0128 19       		.uleb128 0x19
 1520 0129 01       		.uleb128 0x1
 1521 012a 13       		.uleb128 0x13
 1522 012b 00       		.byte	0
 1523 012c 00       		.byte	0
 1524 012d 19       		.uleb128 0x19
 1525 012e 898201   		.uleb128 0x4109
 1526 0131 00       		.byte	0
 1527 0132 11       		.uleb128 0x11
 1528 0133 01       		.uleb128 0x1
 1529 0134 31       		.uleb128 0x31
 1530 0135 13       		.uleb128 0x13
 1531 0136 00       		.byte	0
 1532 0137 00       		.byte	0
 1533 0138 1A       		.uleb128 0x1a
 1534 0139 898201   		.uleb128 0x4109
ARM GAS  /tmp/ccD0WOaa.s 			page 36


 1535 013c 00       		.byte	0
 1536 013d 11       		.uleb128 0x11
 1537 013e 01       		.uleb128 0x1
 1538 013f 9542     		.uleb128 0x2115
 1539 0141 19       		.uleb128 0x19
 1540 0142 31       		.uleb128 0x31
 1541 0143 13       		.uleb128 0x13
 1542 0144 00       		.byte	0
 1543 0145 00       		.byte	0
 1544 0146 1B       		.uleb128 0x1b
 1545 0147 34       		.uleb128 0x34
 1546 0148 00       		.byte	0
 1547 0149 03       		.uleb128 0x3
 1548 014a 0E       		.uleb128 0xe
 1549 014b 3A       		.uleb128 0x3a
 1550 014c 0B       		.uleb128 0xb
 1551 014d 3B       		.uleb128 0x3b
 1552 014e 05       		.uleb128 0x5
 1553 014f 49       		.uleb128 0x49
 1554 0150 13       		.uleb128 0x13
 1555 0151 3F       		.uleb128 0x3f
 1556 0152 19       		.uleb128 0x19
 1557 0153 3C       		.uleb128 0x3c
 1558 0154 19       		.uleb128 0x19
 1559 0155 00       		.byte	0
 1560 0156 00       		.byte	0
 1561 0157 1C       		.uleb128 0x1c
 1562 0158 34       		.uleb128 0x34
 1563 0159 00       		.byte	0
 1564 015a 03       		.uleb128 0x3
 1565 015b 08       		.uleb128 0x8
 1566 015c 3A       		.uleb128 0x3a
 1567 015d 0B       		.uleb128 0xb
 1568 015e 3B       		.uleb128 0x3b
 1569 015f 05       		.uleb128 0x5
 1570 0160 49       		.uleb128 0x49
 1571 0161 13       		.uleb128 0x13
 1572 0162 3F       		.uleb128 0x3f
 1573 0163 19       		.uleb128 0x19
 1574 0164 3C       		.uleb128 0x3c
 1575 0165 19       		.uleb128 0x19
 1576 0166 00       		.byte	0
 1577 0167 00       		.byte	0
 1578 0168 1D       		.uleb128 0x1d
 1579 0169 2E       		.uleb128 0x2e
 1580 016a 00       		.byte	0
 1581 016b 3F       		.uleb128 0x3f
 1582 016c 19       		.uleb128 0x19
 1583 016d 03       		.uleb128 0x3
 1584 016e 0E       		.uleb128 0xe
 1585 016f 3A       		.uleb128 0x3a
 1586 0170 0B       		.uleb128 0xb
 1587 0171 3B       		.uleb128 0x3b
 1588 0172 05       		.uleb128 0x5
 1589 0173 27       		.uleb128 0x27
 1590 0174 19       		.uleb128 0x19
 1591 0175 3C       		.uleb128 0x3c
ARM GAS  /tmp/ccD0WOaa.s 			page 37


 1592 0176 19       		.uleb128 0x19
 1593 0177 00       		.byte	0
 1594 0178 00       		.byte	0
 1595 0179 1E       		.uleb128 0x1e
 1596 017a 2E       		.uleb128 0x2e
 1597 017b 01       		.byte	0x1
 1598 017c 3F       		.uleb128 0x3f
 1599 017d 19       		.uleb128 0x19
 1600 017e 03       		.uleb128 0x3
 1601 017f 0E       		.uleb128 0xe
 1602 0180 3A       		.uleb128 0x3a
 1603 0181 0B       		.uleb128 0xb
 1604 0182 3B       		.uleb128 0x3b
 1605 0183 05       		.uleb128 0x5
 1606 0184 27       		.uleb128 0x27
 1607 0185 19       		.uleb128 0x19
 1608 0186 3C       		.uleb128 0x3c
 1609 0187 19       		.uleb128 0x19
 1610 0188 01       		.uleb128 0x1
 1611 0189 13       		.uleb128 0x13
 1612 018a 00       		.byte	0
 1613 018b 00       		.byte	0
 1614 018c 1F       		.uleb128 0x1f
 1615 018d 2E       		.uleb128 0x2e
 1616 018e 00       		.byte	0
 1617 018f 3F       		.uleb128 0x3f
 1618 0190 19       		.uleb128 0x19
 1619 0191 03       		.uleb128 0x3
 1620 0192 0E       		.uleb128 0xe
 1621 0193 3A       		.uleb128 0x3a
 1622 0194 0B       		.uleb128 0xb
 1623 0195 3B       		.uleb128 0x3b
 1624 0196 0B       		.uleb128 0xb
 1625 0197 27       		.uleb128 0x27
 1626 0198 19       		.uleb128 0x19
 1627 0199 3C       		.uleb128 0x3c
 1628 019a 19       		.uleb128 0x19
 1629 019b 00       		.byte	0
 1630 019c 00       		.byte	0
 1631 019d 00       		.byte	0
 1632              		.section	.debug_aranges,"",%progbits
 1633 0000 1C000000 		.4byte	0x1c
 1634 0004 0200     		.2byte	0x2
 1635 0006 00000000 		.4byte	.Ldebug_info0
 1636 000a 04       		.byte	0x4
 1637 000b 00       		.byte	0
 1638 000c 0000     		.2byte	0
 1639 000e 0000     		.2byte	0
 1640 0010 00000000 		.4byte	.LFB260
 1641 0014 34000000 		.4byte	.LFE260-.LFB260
 1642 0018 00000000 		.4byte	0
 1643 001c 00000000 		.4byte	0
 1644              		.section	.debug_ranges,"",%progbits
 1645              	.Ldebug_ranges0:
 1646 0000 00000000 		.4byte	.LFB260
 1647 0004 34000000 		.4byte	.LFE260
 1648 0008 00000000 		.4byte	0
ARM GAS  /tmp/ccD0WOaa.s 			page 38


 1649 000c 00000000 		.4byte	0
 1650              		.section	.debug_line,"",%progbits
 1651              	.Ldebug_line0:
 1652 0000 0B030000 		.section	.debug_str,"MS",%progbits,1
 1652      0200E302 
 1652      00000201 
 1652      FB0E0D00 
 1652      01010101 
 1653              	.LASF108:
 1654 0000 73746D33 		.ascii	"stm32_gpio_setup_t\000"
 1654      325F6770 
 1654      696F5F73 
 1654      65747570 
 1654      5F7400
 1655              	.LASF50:
 1656 0013 72656164 		.ascii	"ready_list_t\000"
 1656      795F6C69 
 1656      73745F74 
 1656      00
 1657              	.LASF129:
 1658 0020 7374496E 		.ascii	"stInit\000"
 1658      697400
 1659              	.LASF88:
 1660 0027 77747472 		.ascii	"wttrp\000"
 1660      7000
 1661              	.LASF85:
 1662 002d 7264796D 		.ascii	"rdymsg\000"
 1662      736700
 1663              	.LASF122:
 1664 0034 63616E49 		.ascii	"canInit\000"
 1664      6E697400 
 1665              	.LASF16:
 1666 003c 75696E74 		.ascii	"uint64_t\000"
 1666      36345F74 
 1666      00
 1667              	.LASF5:
 1668 0045 5F5F7569 		.ascii	"__uint8_t\000"
 1668      6E74385F 
 1668      7400
 1669              	.LASF82:
 1670 004f 706F7274 		.ascii	"port_intctx\000"
 1670      5F696E74 
 1670      63747800 
 1671              	.LASF69:
 1672 005b 73797374 		.ascii	"system_debug_t\000"
 1672      656D5F64 
 1672      65627567 
 1672      5F7400
 1673              	.LASF116:
 1674 006a 50484461 		.ascii	"PHData\000"
 1674      746100
 1675              	.LASF12:
 1676 0071 6C6F6E67 		.ascii	"long long unsigned int\000"
 1676      206C6F6E 
 1676      6720756E 
 1676      7369676E 
 1676      65642069 
ARM GAS  /tmp/ccD0WOaa.s 			page 39


 1677              	.LASF105:
 1678 0088 70757064 		.ascii	"pupdr\000"
 1678      7200
 1679              	.LASF86:
 1680 008e 65786974 		.ascii	"exitcode\000"
 1680      636F6465 
 1680      00
 1681              	.LASF76:
 1682 0097 6D61696E 		.ascii	"mainthread\000"
 1682      74687265 
 1682      616400
 1683              	.LASF66:
 1684 00a2 76697274 		.ascii	"virtual_timers_list_t\000"
 1684      75616C5F 
 1684      74696D65 
 1684      72735F6C 
 1684      6973745F 
 1685              	.LASF119:
 1686 00b8 49544D5F 		.ascii	"ITM_RxBuffer\000"
 1686      52784275 
 1686      66666572 
 1686      00
 1687              	.LASF49:
 1688 00c5 63685F74 		.ascii	"ch_threads_queue\000"
 1688      68726561 
 1688      64735F71 
 1688      75657565 
 1688      00
 1689              	.LASF29:
 1690 00d6 705F7072 		.ascii	"p_prio\000"
 1690      696F00
 1691              	.LASF10:
 1692 00dd 6C6F6E67 		.ascii	"long long int\000"
 1692      206C6F6E 
 1692      6720696E 
 1692      7400
 1693              	.LASF1:
 1694 00eb 7369676E 		.ascii	"signed char\000"
 1694      65642063 
 1694      68617200 
 1695              	.LASF43:
 1696 00f7 705F6D70 		.ascii	"p_mpool\000"
 1696      6F6F6C00 
 1697              	.LASF96:
 1698 00ff 6D5F7175 		.ascii	"m_queue\000"
 1698      65756500 
 1699              	.LASF102:
 1700 0107 6D6F6465 		.ascii	"moder\000"
 1700      7200
 1701              	.LASF73:
 1702 010d 63685F73 		.ascii	"ch_system\000"
 1702      79737465 
 1702      6D00
 1703              	.LASF7:
 1704 0117 6C6F6E67 		.ascii	"long int\000"
 1704      20696E74 
 1704      00
ARM GAS  /tmp/ccD0WOaa.s 			page 40


 1705              	.LASF113:
 1706 0120 50454461 		.ascii	"PEData\000"
 1706      746100
 1707              	.LASF19:
 1708 0127 74737461 		.ascii	"tstate_t\000"
 1708      74655F74 
 1708      00
 1709              	.LASF124:
 1710 0130 70776D49 		.ascii	"pwmInit\000"
 1710      6E697400 
 1711              	.LASF133:
 1712 0138 68616C49 		.ascii	"halInit\000"
 1712      6E697400 
 1713              	.LASF31:
 1714 0140 705F6E65 		.ascii	"p_newer\000"
 1714      77657200 
 1715              	.LASF93:
 1716 0148 735F7175 		.ascii	"s_queue\000"
 1716      65756500 
 1717              	.LASF55:
 1718 0150 725F6E65 		.ascii	"r_newer\000"
 1718      77657200 
 1719              	.LASF79:
 1720 0158 72656761 		.ascii	"regarm_t\000"
 1720      726D5F74 
 1720      00
 1721              	.LASF62:
 1722 0161 76745F70 		.ascii	"vt_prev\000"
 1722      72657600 
 1723              	.LASF75:
 1724 0169 76746C69 		.ascii	"vtlist\000"
 1724      737400
 1725              	.LASF100:
 1726 0170 6D757465 		.ascii	"mutex_t\000"
 1726      785F7400 
 1727              	.LASF110:
 1728 0178 50424461 		.ascii	"PBData\000"
 1728      746100
 1729              	.LASF77:
 1730 017f 69646C65 		.ascii	"idle_thread_wa\000"
 1730      5F746872 
 1730      6561645F 
 1730      776100
 1731              	.LASF24:
 1732 018e 636E745F 		.ascii	"cnt_t\000"
 1732      7400
 1733              	.LASF0:
 1734 0194 756E7369 		.ascii	"unsigned int\000"
 1734      676E6564 
 1734      20696E74 
 1734      00
 1735              	.LASF61:
 1736 01a1 76745F6E 		.ascii	"vt_next\000"
 1736      65787400 
 1737              	.LASF89:
 1738 01a9 77747365 		.ascii	"wtsemp\000"
 1738      6D7000
ARM GAS  /tmp/ccD0WOaa.s 			page 41


 1739              	.LASF38:
 1740 01b0 705F6D73 		.ascii	"p_msgqueue\000"
 1740      67717565 
 1740      756500
 1741              	.LASF131:
 1742 01bb 2F757372 		.ascii	"/usr/src/chibios/os/hal/src/hal.c\000"
 1742      2F737263 
 1742      2F636869 
 1742      62696F73 
 1742      2F6F732F 
 1743              	.LASF104:
 1744 01dd 6F737065 		.ascii	"ospeedr\000"
 1744      65647200 
 1745              	.LASF103:
 1746 01e5 6F747970 		.ascii	"otyper\000"
 1746      657200
 1747              	.LASF4:
 1748 01ec 73686F72 		.ascii	"short unsigned int\000"
 1748      7420756E 
 1748      7369676E 
 1748      65642069 
 1748      6E7400
 1749              	.LASF114:
 1750 01ff 50464461 		.ascii	"PFData\000"
 1750      746100
 1751              	.LASF46:
 1752 0206 63685F74 		.ascii	"ch_thread\000"
 1752      68726561 
 1752      6400
 1753              	.LASF22:
 1754 0210 6D73675F 		.ascii	"msg_t\000"
 1754      7400
 1755              	.LASF72:
 1756 0216 63685F73 		.ascii	"ch_system_t\000"
 1756      79737465 
 1756      6D5F7400 
 1757              	.LASF18:
 1758 0222 746D6F64 		.ascii	"tmode_t\000"
 1758      655F7400 
 1759              	.LASF51:
 1760 022a 63685F72 		.ascii	"ch_ready_list\000"
 1760      65616479 
 1760      5F6C6973 
 1760      7400
 1761              	.LASF23:
 1762 0238 6576656E 		.ascii	"eventmask_t\000"
 1762      746D6173 
 1762      6B5F7400 
 1763              	.LASF6:
 1764 0244 5F5F696E 		.ascii	"__int32_t\000"
 1764      7433325F 
 1764      7400
 1765              	.LASF115:
 1766 024e 50474461 		.ascii	"PGData\000"
 1766      746100
 1767              	.LASF80:
 1768 0255 73746B61 		.ascii	"stkalign_t\000"
ARM GAS  /tmp/ccD0WOaa.s 			page 42


 1768      6C69676E 
 1768      5F7400
 1769              	.LASF130:
 1770 0260 474E5520 		.ascii	"GNU C 4.8.4 20141219 (release) -mcpu=cortex-m4 -mno"
 1770      4320342E 
 1770      382E3420 
 1770      32303134 
 1770      31323139 
 1771 0293 2D746875 		.ascii	"-thumb-interwork -mthumb -ggdb -O2 -fomit-frame-poi"
 1771      6D622D69 
 1771      6E746572 
 1771      776F726B 
 1771      202D6D74 
 1772 02c6 6E746572 		.ascii	"nter -falign-functions=16 -ffunction-sections -fdat"
 1772      202D6661 
 1772      6C69676E 
 1772      2D66756E 
 1772      6374696F 
 1773 02f9 612D7365 		.ascii	"a-sections -fno-common -flto\000"
 1773      6374696F 
 1773      6E73202D 
 1773      666E6F2D 
 1773      636F6D6D 
 1774              	.LASF37:
 1775 0316 705F7761 		.ascii	"p_waiting\000"
 1775      6974696E 
 1775      6700
 1776              	.LASF78:
 1777 0320 73697A65 		.ascii	"sizetype\000"
 1777      74797065 
 1777      00
 1778              	.LASF44:
 1779 0329 74687265 		.ascii	"thread_reference_t\000"
 1779      61645F72 
 1779      65666572 
 1779      656E6365 
 1779      5F7400
 1780              	.LASF67:
 1781 033c 63685F76 		.ascii	"ch_virtual_timers_list\000"
 1781      69727475 
 1781      616C5F74 
 1781      696D6572 
 1781      735F6C69 
 1782              	.LASF68:
 1783 0353 76745F6C 		.ascii	"vt_lasttime\000"
 1783      61737474 
 1783      696D6500 
 1784              	.LASF32:
 1785 035f 705F6F6C 		.ascii	"p_older\000"
 1785      64657200 
 1786              	.LASF54:
 1787 0367 725F6374 		.ascii	"r_ctx\000"
 1787      7800
 1788              	.LASF84:
 1789 036d 746D5F63 		.ascii	"tm_calibration_t\000"
 1789      616C6962 
 1789      72617469 
ARM GAS  /tmp/ccD0WOaa.s 			page 43


 1789      6F6E5F74 
 1789      00
 1790              	.LASF107:
 1791 037e 61667268 		.ascii	"afrh\000"
 1791      00
 1792              	.LASF112:
 1793 0383 50444461 		.ascii	"PDData\000"
 1793      746100
 1794              	.LASF57:
 1795 038a 725F6375 		.ascii	"r_current\000"
 1795      7272656E 
 1795      7400
 1796              	.LASF56:
 1797 0394 725F6F6C 		.ascii	"r_older\000"
 1797      64657200 
 1798              	.LASF11:
 1799 039c 5F5F7569 		.ascii	"__uint64_t\000"
 1799      6E743634 
 1799      5F7400
 1800              	.LASF20:
 1801 03a7 74726566 		.ascii	"trefs_t\000"
 1801      735F7400 
 1802              	.LASF59:
 1803 03af 76697274 		.ascii	"virtual_timer_t\000"
 1803      75616C5F 
 1803      74696D65 
 1803      725F7400 
 1804              	.LASF28:
 1805 03bf 705F7072 		.ascii	"p_prev\000"
 1805      657600
 1806              	.LASF132:
 1807 03c6 6F73616C 		.ascii	"osalInit\000"
 1807      496E6974 
 1807      00
 1808              	.LASF21:
 1809 03cf 74707269 		.ascii	"tprio_t\000"
 1809      6F5F7400 
 1810              	.LASF70:
 1811 03d7 63685F73 		.ascii	"ch_system_debug\000"
 1811      79737465 
 1811      6D5F6465 
 1811      62756700 
 1812              	.LASF101:
 1813 03e7 5F426F6F 		.ascii	"_Bool\000"
 1813      6C00
 1814              	.LASF14:
 1815 03ed 696E7433 		.ascii	"int32_t\000"
 1815      325F7400 
 1816              	.LASF2:
 1817 03f5 756E7369 		.ascii	"unsigned char\000"
 1817      676E6564 
 1817      20636861 
 1817      7200
 1818              	.LASF127:
 1819 0403 73647549 		.ascii	"sduInit\000"
 1819      6E697400 
 1820              	.LASF106:
ARM GAS  /tmp/ccD0WOaa.s 			page 44


 1821 040b 6166726C 		.ascii	"afrl\000"
 1821      00
 1822              	.LASF123:
 1823 0410 65787449 		.ascii	"extInit\000"
 1823      6E697400 
 1824              	.LASF41:
 1825 0418 705F6D74 		.ascii	"p_mtxlist\000"
 1825      786C6973 
 1825      7400
 1826              	.LASF3:
 1827 0422 73686F72 		.ascii	"short int\000"
 1827      7420696E 
 1827      7400
 1828              	.LASF34:
 1829 042c 705F7374 		.ascii	"p_state\000"
 1829      61746500 
 1830              	.LASF128:
 1831 0434 626F6172 		.ascii	"boardInit\000"
 1831      64496E69 
 1831      7400
 1832              	.LASF53:
 1833 043e 725F7072 		.ascii	"r_prio\000"
 1833      696F00
 1834              	.LASF109:
 1835 0445 50414461 		.ascii	"PAData\000"
 1835      746100
 1836              	.LASF91:
 1837 044c 65776D61 		.ascii	"ewmask\000"
 1837      736B00
 1838              	.LASF27:
 1839 0453 705F6E65 		.ascii	"p_next\000"
 1839      787400
 1840              	.LASF35:
 1841 045a 705F666C 		.ascii	"p_flags\000"
 1841      61677300 
 1842              	.LASF117:
 1843 0462 50494461 		.ascii	"PIData\000"
 1843      746100
 1844              	.LASF60:
 1845 0469 63685F76 		.ascii	"ch_virtual_timer\000"
 1845      69727475 
 1845      616C5F74 
 1845      696D6572 
 1845      00
 1846              	.LASF92:
 1847 047a 63685F73 		.ascii	"ch_semaphore\000"
 1847      656D6170 
 1847      686F7265 
 1847      00
 1848              	.LASF40:
 1849 0487 705F6570 		.ascii	"p_epending\000"
 1849      656E6469 
 1849      6E6700
 1850              	.LASF15:
 1851 0492 75696E74 		.ascii	"uint32_t\000"
 1851      33325F74 
 1851      00
ARM GAS  /tmp/ccD0WOaa.s 			page 45


 1852              	.LASF90:
 1853 049b 77746D74 		.ascii	"wtmtxp\000"
 1853      787000
 1854              	.LASF52:
 1855 04a2 725F7175 		.ascii	"r_queue\000"
 1855      65756500 
 1856              	.LASF63:
 1857 04aa 76745F64 		.ascii	"vt_delta\000"
 1857      656C7461 
 1857      00
 1858              	.LASF47:
 1859 04b3 63685F74 		.ascii	"ch_threads_list\000"
 1859      68726561 
 1859      64735F6C 
 1859      69737400 
 1860              	.LASF9:
 1861 04c3 6C6F6E67 		.ascii	"long unsigned int\000"
 1861      20756E73 
 1861      69676E65 
 1861      6420696E 
 1861      7400
 1862              	.LASF99:
 1863 04d5 63686172 		.ascii	"char\000"
 1863      00
 1864              	.LASF126:
 1865 04da 75736249 		.ascii	"usbInit\000"
 1865      6E697400 
 1866              	.LASF26:
 1867 04e2 74687265 		.ascii	"thread_t\000"
 1867      61645F74 
 1867      00
 1868              	.LASF98:
 1869 04eb 6D5F6E65 		.ascii	"m_next\000"
 1869      787400
 1870              	.LASF25:
 1871 04f2 73797374 		.ascii	"systime_t\000"
 1871      696D655F 
 1871      7400
 1872              	.LASF42:
 1873 04fc 705F7265 		.ascii	"p_realprio\000"
 1873      616C7072 
 1873      696F00
 1874              	.LASF58:
 1875 0507 76746675 		.ascii	"vtfunc_t\000"
 1875      6E635F74 
 1875      00
 1876              	.LASF8:
 1877 0510 5F5F7569 		.ascii	"__uint32_t\000"
 1877      6E743332 
 1877      5F7400
 1878              	.LASF71:
 1879 051b 70616E69 		.ascii	"panic_msg\000"
 1879      635F6D73 
 1879      6700
 1880              	.LASF83:
 1881 0525 6F666673 		.ascii	"offset\000"
 1881      657400
ARM GAS  /tmp/ccD0WOaa.s 			page 46


 1882              	.LASF81:
 1883 052c 636F6E74 		.ascii	"context\000"
 1883      65787400 
 1884              	.LASF121:
 1885 0534 68616C5F 		.ascii	"hal_lld_init\000"
 1885      6C6C645F 
 1885      696E6974 
 1885      00
 1886              	.LASF17:
 1887 0541 7274636E 		.ascii	"rtcnt_t\000"
 1887      745F7400 
 1888              	.LASF65:
 1889 0549 76745F70 		.ascii	"vt_par\000"
 1889      617200
 1890              	.LASF48:
 1891 0550 74687265 		.ascii	"threads_queue_t\000"
 1891      6164735F 
 1891      71756575 
 1891      655F7400 
 1892              	.LASF95:
 1893 0560 63685F6D 		.ascii	"ch_mutex\000"
 1893      75746578 
 1893      00
 1894              	.LASF36:
 1895 0569 705F7265 		.ascii	"p_refs\000"
 1895      667300
 1896              	.LASF134:
 1897 0570 5F70616C 		.ascii	"_pal_lld_init\000"
 1897      5F6C6C64 
 1897      5F696E69 
 1897      7400
 1898              	.LASF74:
 1899 057e 726C6973 		.ascii	"rlist\000"
 1899      7400
 1900              	.LASF13:
 1901 0584 75696E74 		.ascii	"uint8_t\000"
 1901      385F7400 
 1902              	.LASF87:
 1903 058c 77746F62 		.ascii	"wtobjp\000"
 1903      6A7000
 1904              	.LASF33:
 1905 0593 705F6E61 		.ascii	"p_name\000"
 1905      6D6500
 1906              	.LASF94:
 1907 059a 735F636E 		.ascii	"s_cnt\000"
 1907      7400
 1908              	.LASF111:
 1909 05a0 50434461 		.ascii	"PCData\000"
 1909      746100
 1910              	.LASF45:
 1911 05a7 74687265 		.ascii	"threads_list_t\000"
 1911      6164735F 
 1911      6C697374 
 1911      5F7400
 1912              	.LASF39:
 1913 05b6 705F6D73 		.ascii	"p_msg\000"
 1913      6700
ARM GAS  /tmp/ccD0WOaa.s 			page 47


 1914              	.LASF125:
 1915 05bc 7364496E 		.ascii	"sdInit\000"
 1915      697400
 1916              	.LASF118:
 1917 05c3 50414C43 		.ascii	"PALConfig\000"
 1917      6F6E6669 
 1917      6700
 1918              	.LASF97:
 1919 05cd 6D5F6F77 		.ascii	"m_owner\000"
 1919      6E657200 
 1920              	.LASF120:
 1921 05d5 70616C5F 		.ascii	"pal_default_config\000"
 1921      64656661 
 1921      756C745F 
 1921      636F6E66 
 1921      696700
 1922              	.LASF30:
 1923 05e8 705F6374 		.ascii	"p_ctx\000"
 1923      7800
 1924              	.LASF64:
 1925 05ee 76745F66 		.ascii	"vt_func\000"
 1925      756E6300 
 1926              		.comm	__gnu_lto_v1,1,1
 1927              		.ident	"GCC: (4.8.4-1+11-1) 4.8.4 20141219 (release)"
ARM GAS  /tmp/ccD0WOaa.s 			page 48


DEFINED SYMBOLS
                            *ABS*:00000000 hal.c
     /tmp/ccD0WOaa.s:161    .text.halInit:00000000 $t
     /tmp/ccD0WOaa.s:167    .text.halInit:00000000 halInit
     /tmp/ccD0WOaa.s:214    .text.halInit:00000030 $d
                            *COM*:00000001 __gnu_lto_v1
                     .debug_frame:00000010 $d

UNDEFINED SYMBOLS
hal_lld_init
_pal_lld_init
canInit
extInit
pwmInit
sdInit
usbInit
sduInit
boardInit
stInit
pal_default_config
