ARM GAS  /tmp/ccEOzueA.s 			page 1


   1              		.syntax unified
   2              		.cpu cortex-m4
   3              		.fpu softvfp
   4              		.eabi_attribute 20, 1
   5              		.eabi_attribute 21, 1
   6              		.eabi_attribute 23, 3
   7              		.eabi_attribute 24, 1
   8              		.eabi_attribute 25, 1
   9              		.eabi_attribute 26, 1
  10              		.eabi_attribute 30, 2
  11              		.eabi_attribute 34, 1
  12              		.eabi_attribute 18, 4
  13              		.thumb
  14              		.file	"nvic.c"
  15              		.text
  16              	.Ltext0:
  17              		.section	.gnu.lto_.jmpfuncs.d5349abe9c05aa41,"",%progbits
  18 0000 789C6362 		.ascii	"x\234cb`b\300\006\270\2404\013\0033##\02333#\003\000"
  18      6062C006 
  18      B8A0340B 
  18      03332323 
  18      13333323 
  19 0016 01F00021 		.ascii	"\001\360\000!"
  20              		.text
  21              		.section	.gnu.lto_.inline.d5349abe9c05aa41,"",%progbits
  22 0000 789C6D4C 		.ascii	"x\234mL\313\025\200 \014KK\205\352\305\021\330\300%"
  22      CB158020 
  22      0C4B4B85 
  22      EAC511D8 
  22      C025
  23 0012 5D84911C 		.ascii	"]\204\221\034\305\021LQy\036\354!}\371*\024\177\267"
  23      C5114C51 
  23      791EEC21 
  23      7DF92A14 
  23      7FB7
  24 0024 3FDF8065 		.ascii	"?\337\200e\026\025\011\022`\371\334\220[U\350\261\032"
  24      16150912 
  24      60F9DC90 
  24      5B55E8B1 
  24      1A
  25 0035 C89CAAD3 		.ascii	"\310\234\252\323\363\302TD\222\265zG\350Z\037QL&\322"
  25      F3C25444 
  25      92B57A47 
  25      E85A1F51 
  25      4C26D2
  26 0048 57127B9F 		.ascii	"W\022{\237\201PP\362[\035\346\250\342\002a/\015\002"
  26      815050F2 
  26      5B1DE6A8 
  26      E202612F 
  26      0D02
  27              		.text
  28              		.section	.gnu.lto_.pureconst.d5349abe9c05aa41,"",%progbits
  29 0000 789C6362 		.ascii	"x\234cb`b\340d\200\000\026\006)F)&)f)\000\002\326\000"
  29      6062E064 
  29      80001606 
  29      29462926 
  29      29662900 
ARM GAS  /tmp/ccEOzueA.s 			page 2


  30 0017 80       		.ascii	"\200"
  31              		.text
  32              		.section	.gnu.lto_nvicEnableVector.d5349abe9c05aa41,"",%progbits
  33 0000 789C9D91 		.ascii	"x\234\235\221\277K\303@\024\307\337\2734\346GQW\235"
  33      BF4BC340 
  33      14C7DFBB 
  33      34E64751 
  33      579D
  34 0012 2CBA0862 		.ascii	",\272\010b#\010\2128\211\223C\227RA\3076C\032\260\215"
  34      23088A38 
  34      89934397 
  34      5241C736 
  34      431AB08D 
  35 0026 342A6E4D 		.ascii	"4*nM\233n:tp\261:XD\004\361\307\037 H\351\346P\305\315"
  35      9B6E3A74 
  35      70B13A58 
  35      4404F1C7 
  35      1F2048E9 
  36 003e 498AAB20 		.ascii	"I\212\253 \342$(\304w\211\215T\304\301#\271{w\357\373"
  36      E22428C4 
  36      77898D54 
  36      C4C123B9 
  36      7B77EFFB 
  37 0052 DEF7731C 		.ascii	"\336\367s\034\003\006?\307 \375I:\236\241\025\005@V"
  37      03063FC7 
  37      20FD493A 
  37      9EA11505 
  37      4056
  38 0064 BD0128C9 		.ascii	"\275\001(\311\014\221\007\200PdX\\F.\305a\250;N\265"
  38      0C910780 
  38      5064585C 
  38      462EC561 
  38      A83B4EB5 
  39 0078 7DF4F8C6 		.ascii	"}\364\370\306vw\032\225\003\347\303\363\020M\244\266"
  39      76771A95 
  39      03E7C3F3 
  39      104DA4B6 
  40 0088 53083AC2 		.ascii	"S\010:\302\022m0\346/,\322\355s\301\032m\317\333\277"
  40      126D30E6 
  40      2F2CD2ED 
  40      73C11A6D 
  40      CFDBBF
  41 009b AD3D0C60 		.ascii	"\255=\014`/b\216\027\231(\010|\022i\213\022E\021\031"
  41      2F628E17 
  41      9928087C 
  41      12698B12 
  41      451119
  42 00ae D258271F 		.ascii	"\322X'\037\2056\240\322$R\251\010\025\262\215\001w\240"
  42      8536A0D2 
  42      2452A908 
  42      15B28D01 
  42      77A0
  43 00c0 91A299B3 		.ascii	"\221\242\231\263-\"\343\253\320\202\362\223\353\275"
  43      2D22E3AB 
  43      D082F293 
  43      EBBD
  44 00ce 631A0F49 		.ascii	"c\032\017In 3\220\024-p\317\204\316\221@\247\034\252"
ARM GAS  /tmp/ccEOzueA.s 			page 3


  44      6E203390 
  44      142D70CF 
  44      84CE9140 
  44      A71CAA
  45 00e1 8743B5A0 		.ascii	"\207C\265\240\271\020$\306\341\324\251\224\234iJ\214"
  45      B91024C6 
  45      E1D4A994 
  45      9C694A8C 
  46 00f1 C1090FFB 		.ascii	"\301\011\017\373M\224\366\240FR\231\353\025\247\351"
  46      4D94F6A0 
  46      465299EB 
  46      15A7E9
  47 0100 3A7DFE7D 		.ascii	":}\376}\024\377\026\031\014nc\370`A$\370f\347\356\361"
  47      14FF1619 
  47      0C6E63F8 
  47      604124F8 
  47      66E7EEF1 
  48 0114 F668C74F 		.ascii	"\366h\307O\242</\002\321\367+?\273W!\236\354\327R\305"
  48      A23C2F02 
  48      D1F72B3F 
  48      BB57219E 
  48      ECD752C5 
  49 0128 6588A718 		.ascii	"e\210\247\030\201\035\014A\000\356\276\206r\225'D\344"
  49      811D0C41 
  49      00EEBE86 
  49      72952744 
  49      E4
  50 0139 2A1FFDFA 		.ascii	"*\037\375\372%\332\005?k\242\372\015\037\375\033\036"
  50      25DA053F 
  50      6BA2FA0D 
  50      1FFD1B1E 
  51 0149 BF90A510 		.ascii	"\277\220\245\020^\015\232\336\323\223\376\277-\373\255"
  51      5E0D9ADE 
  51      D393FEBF 
  51      2DFBAD
  52 0158 ED1D94DA 		.ascii	"\355\035\224\332[#A\323\316H\021\001=\031\327Oj\353"
  52      5B2341D3 
  52      CE481101 
  52      3D19D74F 
  52      6AEB
  53 016a 7641B30B 		.ascii	"vA\263\013\272\246g\315\214i\331\032}\331\364\212\266"
  53      BAA667CD 
  53      8C69D91A 
  53      7DD9F48A 
  53      B6
  54 017b 6A15D66C 		.ascii	"j\025\326lM\267r9+\257\315%\023\363\211M-\277a\352q"
  54      4DB77239 
  54      2BAFCD25 
  54      13F3894D 
  54      2DBF61EA 
  55 0190 1D847C7C 		.ascii	"\035\204||\342\023\343\340\227\226"
  55      E213E3E0 
  55      9796
  56              		.text
  57              		.section	.gnu.lto_nvicDisableVector.d5349abe9c05aa41,"",%progbits
  58 0000 789C7D50 		.ascii	"x\234}P=K\003A\020\235\267\227\323DA\261\2642h#\210"
  58      3D4B0341 
ARM GAS  /tmp/ccEOzueA.s 			page 4


  58      109DB797 
  58      D34441B1 
  58      B4326823 
  59 0015 594450C4 		.ascii	"YDP\304J\254\323H\004-\223+\222\003\223\223\234\212"
  59      4AACD348 
  59      042D932B 
  59      92039393 
  59      9C8A
  60 0027 5D2E5EEC 		.ascii	"].^\354,RX\370\321\030\354B\374\000\033A\220\020\260"
  60      2C5258F8 
  60      D118EC42 
  60      FC001B41 
  60      9010B0
  61 003a B088E03F 		.ascii	"\260\210\340?\0106\202\205\2106)\204s\366\222S\264p"
  61      08368285 
  61      88362984 
  61      73F69253 
  61      B470
  62 004c B8DB999D 		.ascii	"\270\333\231\235\367\346\315\314\012\022\364\327\206"
  62      F7E6CDCC 
  62      0A12F4D7 
  62      86
  63 0059 F9BF03D1 		.ascii	"\371\277\003\321\034{h\004Q~ *\206\005\240\002\002\025"
  63      1C7B6804 
  63      517E202A 
  63      8605A002 
  63      0215
  64 006b 040AAB50 		.ascii	"\004\012\253PT\214R\305q\312\255\335\347\2668\334\257"
  64      548C52C5 
  64      71CAADDD 
  64      E7B638DC 
  64      AF
  65 007c 974E9C4F 		.ascii	"\227N\234O\317\003L\260\354\014\310\000\255\360\005"
  65      CF034CB0 
  65      EC0CC800 
  65      ADF005
  66 008b 51DF89D0 		.ascii	"Q\337\211\320\357>\027\242\336\362\274\332\325\345S"
  66      EF3E17A2 
  66      DEF2BCDA 
  66      D5E553
  67 009a 15431120 		.ascii	"\025C\021 \253\252Lh\032%Qa\345\020_H\347C\325\351T"
  67      ABAA4C68 
  67      1A255161 
  67      E5105F48 
  67      E743D5E9 
  68 00af E2465152 		.ascii	"\342FQR\232l\011>\3254\313\020\312kMr\317\335\217\275"
  68      9A6C093E 
  68      D534CB10 
  68      CA6B4D72 
  68      CFDD8FBD 
  69 00c3 F1244EA1 		.ascii	"\361$N\241S\032\"\015\250\236\\G\324\244\235W\367\026"
  69      531A220D 
  69      A89E5C47 
  69      D4A49D57 
  69      F716
  70 00d5 01A631A6 		.ascii	"\001\2461\246\222\356\215\026\244B\234\365\351#>\335"
  70      92EE8D16 
ARM GAS  /tmp/ccEOzueA.s 			page 5


  70      A4429CF5 
  70      E9233EDD 
  71 00e5 3D73DFBF 		.ascii	"=s\337\277\351\272\002BP,\2055\356\337\372;\320$\325"
  71      E9BA0242 
  71      502C8535 
  71      EEDFFA3B 
  71      D024D5
  72 00f8 9C52D199 		.ascii	"\234R\321\2317\241OPU\205\203&z\216\351\210\371\275"
  72      37A14F50 
  72      55858326 
  72      7A8EE988 
  72      F9BD
  73 010a AA28EC34 		.ascii	"\252(\3544\\g\300\337=\354o\234Bgs\236\217\202H\367"
  73      5C67C0DF 
  73      3DEC6F9C 
  73      4267739E 
  73      8F8248F7 
  74 011e 45AF0F5E 		.ascii	"E\257\017^\332\370%;k\"\362#\333\367\277,\272b]}\037"
  74      DAF8253B 
  74      6B22F223 
  74      DBF7BF2C 
  74      BA625D7D 
  75 0133 8BA8E091 		.ascii	"\213\250\340\221\212\255\352XG8\260\004\323\370\315"
  75      8AADEA58 
  75      4738B004 
  75      D3F8CD
  76 0142 D408D372 		.ascii	"\324\010\323r\323\316K;oH#c\246L\313\226\374e\222kr"
  76      D3CE4B3B 
  76      6F482363 
  76      A64CCB96 
  76      FC65926B 
  77 0157 DDCA6FD8 		.ascii	"\335\312o\330\322\260\262Y+'\027\226\342\213\361m\231"
  77      D2B0B259 
  77      2B271796 
  77      E28BF16D 
  77      99
  78 0168 DB328D98 		.ascii	"\3332\215\230AZ.6\365\005\363${\212"
  78      415A2E36 
  78      F505F324 
  78      7B8A
  79              		.text
  80              		.section	.gnu.lto_nvicSetSystemHandlerPriority.d5349abe9c05aa41,"",%progbits
  81 0000 789C6362 		.ascii	"x\234cb`b@\007\222@\374\001\210M\201\230\221\231\201"
  81      60624007 
  81      9240FC01 
  81      884D8198 
  81      919981
  82 0013 9169C239 		.ascii	"\221i\3029\006\206F\016&FF\020\203\201\221\241\236\211"
  82      0686460E 
  82      26464610 
  82      838191A1 
  82      9E89
  83 0025 B13E9211 		.ascii	"\261>\222\021\254v=\323\201\007\377\377\257\373\322"
  83      AC763DD3 
  83      8107FFFF 
  83      AFFBD2
  84 0034 76EC20E3 		.ascii	"v\354 \3439evF\306\\F\240\211\231\214\014\314 \202\025"
ARM GAS  /tmp/ccEOzueA.s 			page 6


  84      39657646 
  84      C65C46A0 
  84      89998C0C 
  84      CC208215 
  85 0048 C805A963 		.ascii	"\310\005\251cehih\230\240\220\313\010\264,\031\2541"
  85      65686968 
  85      98A090CB 
  85      08B42C19 
  85      AC31
  86 005a 0448824C 		.ascii	"\004H\202L\013\005\012\001i\346\263\014M\257\2337\367"
  86      0B050A01 
  86      69E6B30C 
  86      4DAF9B37 
  86      F7
  87 006b E926322E 		.ascii	"\351&2.ddeHgdJ\007i<\313\320\274\226\031&\304\014\024"
  87      64646548 
  87      67644A07 
  87      693CCBD0 
  87      BC961926 
  88 0082 8D60CC64 		.ascii	"\215`\314ddda\000\311\034\362\204H\3502\254ihil0\007"
  88      64646100 
  88      C91CF284 
  88      48E832AC 
  88      6968696C 
  89 0098 4A6833AC 		.ascii	"Jh3\254\0021y3\031\231f3\314\002*e\006\251gi\270\325"
  89      02317933 
  89      19996633 
  89      CC022A65 
  89      06A96769 
  90 00ae DCC0C700 		.ascii	"\334\300\307\000f\202\335\234\004q:\320HV\006\030\213"
  90      6682DD9C 
  90      04713AD0 
  90      48560618 
  90      8B
  91 00bf 9981E122 		.ascii	"\231\201\341\"C\343\203s\312\020Ca \004\350\012\240"
  91      43E38373 
  91      CA104361 
  91      2004E80A 
  91      A0
  92 00d0 F3406164 		.ascii	"\363@ad\254_Z\\\244_\\\224\254\237\234\221\231\224\231"
  92      AC5F5A5C 
  92      A45F5C94 
  92      AC9F9C91 
  92      999499
  93 00e3 5FAC0F44 		.ascii	"_\254\017D\031\2119\372\005\371E%\305\372\311\371\271"
  93      198939FA 
  93      05F94525 
  93      C5FAC9F9 
  93      B9
  94 00f4 B9F979FA 		.ascii	"\271\371y\372\216A\276\316\276\025\372ye\231\311z\311"
  94      8E41BECE 
  94      BE15FA79 
  94      6599C97A 
  94      C9
  95 0105 0C006B33 		.ascii	"\014\000k3J\225"
  95      4A95
  96              		.text
ARM GAS  /tmp/ccEOzueA.s 			page 7


  97              		.section	.gnu.lto_nvicClearPending.d5349abe9c05aa41,"",%progbits
  98 0000 789C5D50 		.ascii	"x\234]P1H\303P\020\275\367\177\222\352\2428:Yt\021\304"
  98      3148C350 
  98      10BDF77F 
  98      92EAA238 
  98      3A597411 
  99 0015 7E5010C4 		.ascii	"~P\020\304I\234\034\272H\005\035\333\014m\3006\322\250"
  99      499C1CBA 
  99      48051DDB 
  99      0C6DC036 
  99      D2A8
 100 0027 B8F5D774 		.ascii	"\270\365\327t\026\007\027u\261\270I\325\335.\245{Ew"
 100      16071775 
 100      B1B849D5 
 100      DD2EA57B 
 100      4577
 101 0039 872208C5 		.ascii	"\207\"\010\305\301\325E\210\367SS\320\343\347\337\375"
 101      C1D54588 
 101      F75353D0 
 101      E3E7DFFD 
 102 0049 77EFDE5D 		.ascii	"w\357\336]N\220\240\3776\315\237\006\321*{H\2028{\""
 102      4E90A0FF 
 102      36CD9F06 
 102      D12A7B48 
 102      82387B22 
 103 005d AA8F09C0 		.ascii	"\252\217\011\300\004\004\252\011\324va\250\230\245\246"
 103      0404AA09 
 103      D47661A8 
 103      98A5A6
 104 006c D667FDF7 		.ascii	"\326g\375\367\257gyq\336i\\\353\357(\002<\260\354\012"
 104      AF677971 
 104      DE695CEB 
 104      EF28023C 
 104      B0EC0A
 105 007f C805EDF0 		.ascii	"\310\005\355\360\003\351\330\011\353o\237\007\321\351"
 105      03E9D809 
 105      EB6F9F07 
 105      D1E9
 106 008d 47D16BBB 		.ascii	"G\321k\273\3656\300\3248P6U\036\244\244<\232\254l\361"
 106      F536C0D4 
 106      38503655 
 106      1EA4A43C 
 106      9AAC6CF1 
 107 00a1 836C7339 		.ascii	"\203ls9\006\346\012\233\032\334-MF\230-\307\267\031"
 107      06E60A9B 
 107      1ADC2D4D 
 107      46982DC7 
 107      B719
 108 00b3 691BC278 		.ascii	"i\033\302x\331\243\360>\214N\347\363\270\201ME\210\""
 108      D9A3F03E 
 108      8C4EE7F3 
 108      B8814D45 
 108      8822
 109 00c5 601A731D 		.ascii	"`\032s\035Q\217N>\303\017$9\3119\003\206m\231@\026\243"
 109      518F4E3E 
 109      C30F2439 
 109      C9390386 
ARM GAS  /tmp/ccEOzueA.s 			page 8


 109      6D994016 
 110 00da 317D26A6 		.ascii	"1}&\246\207w\243\214\035\3030\234_\241\307\221\220\303"
 110      8777A38C 
 110      1DC3309C 
 110      5FA1C791 
 110      90C3
 111 00ec 69037637 		.ascii	"i\003v7\207\310\"\265t\243\256\327<X\013tk\302I\017"
 111      87C822B5 
 111      74A3AED7 
 111      3C580B74 
 111      6BC2490F 
 112 0100 F6155DB2 		.ascii	"\366\025]\262\204ctR\272\033\352\211x#\251x\017\005"
 112      84637452 
 112      BA1BEA89 
 112      7823A978 
 112      0F05
 113 0112 0CF7C103 		.ascii	"\014\367\301\003S\0229D/T\357\017\346\206\242\211\345"
 113      53123944 
 113      2F54EF0F 
 113      E686A289 
 113      E5
 114 0123 7868FE53 		.ascii	"xh\376S\303[V\207AU\005UW\271%\257\340\371\201\342S"
 114      C35B5687 
 114      41550555 
 114      57B925AF 
 114      E0F981E2 
 115 0138 CAEFA97D 		.ascii	"\312\357\251}\277z\020(\327/\227\375\212Z\337\312nd"
 115      BF7A1028 
 115      D72F97FD 
 115      8A5ADFCA 
 115      6E64
 116 014a 8F55E5C8 		.ascii	"\217U\345\310s3.\311Jf\351\0072Mkx"
 116      73332EC9 
 116      4A66E907 
 116      324D6B78 
 117              		.text
 118              		.section	.gnu.lto_.symbol_nodes.d5349abe9c05aa41,"",%progbits
 119 0000 789C6362 		.ascii	"x\234cb`b\260c\200\002\246\026\246z\006\206\011\347"
 119      6062B063 
 119      8002A616 
 119      A67A0686 
 119      09E7
 120 0012 1818EAEB 		.ascii	"\030\030\352\353\347u02\2652\3253\"q\333\230\352\231"
 120      E7753032 
 120      B532D533 
 120      2271DB98 
 120      EA99
 121 0024 90B8ED4C 		.ascii	"\220\270\355L\365\314\010.\003\000?^\022w"
 121      F5CC082E 
 121      03003F5E 
 121      1277
 122              		.text
 123              		.section	.gnu.lto_.refs.d5349abe9c05aa41,"",%progbits
 124 0000 789C6362 		.ascii	"x\234cb`b`d\200\002\000\000F\000\006"
 124      60626064 
 124      80020000 
 124      460006
ARM GAS  /tmp/ccEOzueA.s 			page 9


 125              		.text
 126              		.section	.gnu.lto_.decls.d5349abe9c05aa41,"",%progbits
 127 0000 789CAD59 		.ascii	"x\234\255Yop\023\307\025\337=\311\330\012\256\003\231"
 127      6F7013C7 
 127      15DF3DC9 
 127      D80AAE03 
 127      99
 128 0011 24251D3A 		.ascii	"$%\035:8\231\246\323\311LQ\200dB\276d0\262\251\365\301"
 128      3899A6D3 
 128      C94C5180 
 128      6442BE64 
 128      30B2A9F5 
 129 0026 A94702B7 		.ascii	"\251G\002\267\345\2138\204Rk\306\226\031IN\302\267u"
 129      E58B3884 
 129      526BC696 
 129      19494EC2 
 129      B775
 130 0038 0C2D4DC2 		.ascii	"\014-M\302T\020\247q\323BejB3!\377\240d\014\311P\015"
 130      5410A771 
 130      D342656A 
 130      423321FF 
 130      A0640CC9 
 131 004e A52429CC 		.ascii	"\245$)\314\204?\301\006'\004\345O'M[\006B\011\201\214"
 131      843FC106 
 131      2704E54F 
 131      274D5B06 
 131      4209818C 
 132 0062 83FAF6E9 		.ascii	"\203\372\366\351\366\264w\272\225\3572\275\361>\355"
 132      F6B477BA 
 132      95EF32BD 
 132      F13EED
 133 0071 E9DEFBED 		.ascii	"\351\336\373\355\357\367vo\357\351\254\021\215<I\011"
 133      EFF7766F 
 133      EFE9AC11 
 133      8D3C4909 
 134 0081 29C1D1F7 		.ascii	")\301\321\367\035B\026i\204\324\021B\036 \225\303\017"
 134      1D421669 
 134      84D41142 
 134      1E2095C3 
 134      0F
 135 0092 6D04DA6E 		.ascii	"m\004\332nhc\320\016\220\352\203_o4|\233\214>\300\222"
 135      6863D00E 
 135      90EA835F 
 135      6F347C9B 
 135      8C3EC092 
 136 00a6 7A52C63B 		.ascii	"zR\306;\010\355mhG\241}\001\355$\264\023\320|\320\316"
 136      08ED6D68 
 136      47A17D01 
 136      ED24B413 
 136      D07CD0CE 
 137 00ba 43FB18DA 		.ascii	"C\373\030\332q#\206c\001\015\3622\264\027m\343p\016"
 137      71238663 
 137      010DF232 
 137      B4176DE3 
 137      700E
 138 00cc 336DE388 		.ascii	"3m\343\2101\004\246\030C\214\311\261\3363\306\241\006"
 138      3104A618 
ARM GAS  /tmp/ccEOzueA.s 			page 10


 138      438CC9B1 
 138      DE33C6A1 
 138      06
 139 00dd 06FF7CCD 		.ascii	"\006\377|\315\206=f\340P#\366\012\264k\320\026\320\362"
 139      863D66E0 
 139      5023F60A 
 139      B46BD016 
 139      D0F2
 140 00ef 77338DCF 		.ascii	"w3\215\3171\203\367\033\320\366C[H\2558<?\015\016\034"
 140      3183F71B 
 140      D0F6435B 
 140      48AD383C 
 140      3F0D0E1C 
 141 0103 EDFCA8A1 		.ascii	"\355\374\250\241\233\0321\374\263`\3434\217lc\371bq"
 141      9B1A31FC 
 141      B360E334 
 141      8F6C63F9 
 141      6271
 142 0115 C7B62394 		.ascii	"\307\266#\224maS\245\222\217\334J\236fp\344\177\301"
 142      6D6153A5 
 142      928FDC4A 
 142      9E6670E4 
 142      7FC1
 143 0127 18CDEAF4 		.ascii	"\030\315\352\364\201[\310O\251N\233\002\244\031;\215"
 143      815BC84F 
 143      A94E9B02 
 143      A4193B8D 
 144 0137 011C9810 		.ascii	"\001\034\230\020\235n\247\267b\317\207) \001\262\221"
 144      9D6EA7B7 
 144      62CF8729 
 144      2001B291 
 145 0147 B1C77860 		.ascii	"\261\307x`\373[\300\313)\352N2\312X\256xv\344#\215\261"
 145      FB5BC0CB 
 145      29EA4E32 
 145      CA58AE78 
 145      76E4238D 
 146 015c 069D8ED2 		.ascii	"\006\235\216\322\000\304\376\214\222\273\310\3630f\216"
 146      00C4FE8C 
 146      92BBC8F3 
 146      30668E
 147 016b B18376B5 		.ascii	"\261\203v\265\304\033\364\2367\017m\246\203@]\247\177"
 147      C41BF49E 
 147      370F6DA6 
 147      83405DA7 
 147      7F
 148 017c 42F06728 		.ascii	"B\360g(\005\252;\351]\006\224N\353\00324\236\013\007"
 148      05AA3BE9 
 148      5D06944E 
 148      EB033234 
 148      9E0B07
 149 018f 8E87978D 		.ascii	"\216\207\227\215\016_\2667\022\257\356F>\312\362\260"
 149      0E5FB637 
 149      12AFEE46 
 149      3ECAF2B0 
 150 019f B3C26702 		.ascii	"\263\302g\002hd\273\215\321\367\310\037\031\333\002"
 150      6864BB8D 
 150      D1F7C81F 
ARM GAS  /tmp/ccEOzueA.s 			page 11


 150      19DB02
 151 01ae 73307A1B 		.ascii	"s0z\033\313k\"){\320k\204\316sTk`\227C\331\276D\273"
 151      CB6B2229 
 151      7BD06B84 
 151      CE73546B 
 151      609743D9 
 152 01c5 08DBEB26 		.ascii	"\010\333\353&\214\220\357\223\035|\2227\261\015\263"
 152      8C90EF93 
 152      1D7C9237 
 152      B10DB3
 153 01d4 28CE3131 		.ascii	"(\31611\242,RwQ\255z\261\024\376|\27017P,\225\346\271"
 153      A22C5277 
 153      51AD7AB1 
 153      14FE7CB8 
 153      3137502C 
 154 01eb 5F297BAC 		.ascii	"_){\254+\245L\303\226\226\375\216iaO\011m:}\011\350"
 154      2BA54CC3 
 154      9696FD8E 
 154      69614F09 
 154      6D3A7D09 
 155 0200 E874F737 		.ascii	"\350t\3677\322\266\333\256m\257\243\266\313B[yuk\344"
 155      D2B6DBAE 
 155      6DAFA3B6 
 155      CB425B79 
 155      756BE4
 156 0213 A8332B29 		.ascii	"\2503+)\343\237\241\307\230\253\211\372\272\"\346\025"
 156      E39FA1C7 
 156      98AB89FA 
 156      BA22E615 
 157 0223 14334D98 		.ascii	"\0243M\230B\314\230]\314>G1\373\3374\305\354A1\237;"
 157      42CC985D 
 157      CC3E4731 
 157      FBDF34C5 
 157      EC41319F 
 158 0238 8BD96C4F 		.ascii	"\213\331lO\361\201o\304\352\200\235\325_\254\254\360"
 158      F1816FC4 
 158      EA809DD5 
 158      5FACACF0 
 159 0248 261E64C5 		.ascii	"&\036d\305\035l\316p\345&n\020\003\360\373^\354\017"
 159      1D6CCE70 
 159      E5266E10 
 159      03F0FB5E 
 159      EC0F
 160 025a AF9EE1FB 		.ascii	"\257\236\341\373\203q\327\327\012\320\351_\351\235`"
 160      8371D7D7 
 160      0AD0E95F 
 160      E99D60
 161 0269 A9F5A6A4 		.ascii	"\251\365\246\244\201J\247D\371\352zL\263Jw\201m\356"
 161      814AA744 
 161      F9EA7A4C 
 161      B34A7781 
 161      6DEE
 162 027b 28DB16E3 		.ascii	"(\333\026\343fu\030\247\373q\315\276\237P\333~2\015"
 162      667518A7 
 162      FB71CDBE 
 162      9F50DB7E 
 162      320D
ARM GAS  /tmp/ccEOzueA.s 			page 12


 163 028d 172FBEB3 		.ascii	"\027/\276\263I\216\347\271y\270I\247\007\341;\203&\273"
 163      498EE7B9 
 163      79B849A7 
 163      07E13B83 
 163      26BB
 164 029f 51F0BC58 		.ascii	"Q\360\274X\006\224\375\016\325\360\323\351\337\351\354"
 164      0694FD0E 
 164      D5F0D3E9 
 164      DFE9EC
 165 02ae 8A7E66EC 		.ascii	"\212~f\354\250\350\242\272w\217\030\372\214\257\315"
 165      A8E8A2BA 
 165      778F18FA 
 165      8CAFCD
 166 02bd CE056A51 		.ascii	"\316\005jQ\"\334\310Md3r\2216\352|\221\212\250\365s"
 166      22DCC84D 
 166      64337291 
 166      36EA7C91 
 166      8AA8F573 
 167 02d1 2B993D73 		.ascii	"+\231=s\342\\\033f\366(\275\0112{\330\226Y\027@|\340"
 167      E25C1B66 
 167      F628BD09 
 167      327BD896 
 167      5917407C 
 168 02e6 7720B81C 		.ascii	"w \270\034\206\260\254p|\274\221\371\313\337\023\013"
 168      86B0AC70 
 168      7CBC91F9 
 168      CBDF130B 
 169 02f6 A0E5B89D 		.ascii	"\240\345\270\235\344\331\372\201\302\251\361!\312\362"
 169      E4D9FA81 
 169      C2A9F121 
 169      CAF2
 170 0304 07A9C8E0 		.ascii	"\007\251\310\340[M\3062\255\365\254\321\351\016\\u\323"
 170      5B4DC632 
 170      ADF5ACD1 
 170      E90E5C75 
 170      D3
 171 0315 3F0AC444 		.ascii	"?\012\304Dh\"\274\3312_<\365\243\322|\331\334t\372\256"
 171      6822BCD9 
 171      325F3CF5 
 171      A3D27CD9 
 171      DC74FAAE 
 172 0329 E7E93AA5 		.ascii	"\347\351:\245\230\256z\313l\011/H\3731L;\317\226#\013"
 172      98AE7ACB 
 172      6C092F48 
 172      FB314C3B 
 172      CF96230B 
 173 033d 13478036 		.ascii	"\023G\2006\231\313\235\247\020\362=\336\225\323U\202"
 173      99CB9DA7 
 173      10F23DDE 
 173      95D35582 
 174 034d 6688F855 		.ascii	"f\210\370U\306\300\247=\013:\243\020\364m\"\024\234"
 174      C6C0A73D 
 174      0B3AA310 
 174      F46D2214 
 174      9C
 175 035e AA526019 		.ascii	"\252R`\031\326\222\322j\005\260\010N\203\002\235\236"
 175      D692D26A 
ARM GAS  /tmp/ccEOzueA.s 			page 13


 175      05B0084E 
 175      83029D9E 
 176 036e 006A1A39 		.ascii	"\000j\0329\347*\035\214\252\3631\211h\247\021\355\023"
 176      E72A1D8C 
 176      AAF33189 
 176      68A711ED 
 176      13
 177 037f 57D4F22A 		.ascii	"W\324\362*4\340\366\276\304\355\274;n\232\232\333\007"
 177      34E0F6BE 
 177      C4EDBC3B 
 177      6E9A9ADB 
 177      07
 178 0390 12B74BEE 		.ascii	"\022\267K\356\270\251\320\200\333E\211\333\224;n>5\267"
 178      B8A9D080 
 178      DB4589DB 
 178      943B6E3E 
 178      35B7
 179 03a2 4B12B701 		.ascii	"K\022\267\001\237+n*4\340vY\342\366D\025\232#7\277\232"
 179      9F2B6E2A 
 179      34E07659 
 179      E2F64415 
 179      9A2337BF 
 180 03b7 DB951A6B 		.ascii	"\333\225\032k\274I\000\024\305&\373/\317\213\374\337"
 180      BC490014 
 180      C526FB2F 
 180      CF8BFCDF 
 181 03c7 8A457E9F 		.ascii	"\212E~\237\271\310sU\032\254\343\212\224\250D@J\256"
 181      B9C87355 
 181      1AACE38A 
 181      94A84440 
 181      4AAE
 182 03d9 76BDB24A 		.ascii	"v\275\262J\247ocJ\236\255\202\263>+DNf\250s\362U\215"
 182      A76F634A 
 182      9EAD82B3 
 182      3E2B444E 
 182      66A873F2 
 183 03ef 9C8C98FB 		.ascii	"\234\214\230\373t\356fC\342E\317I\371\\\221\224\301"
 183      74EE6643 
 183      E245CF49 
 183      F95C9194 
 183      C1
 184 0400 3A332B5B 		.ascii	":3+[\253d\330F\026\232\352Ui\031,L\2157\362\245r\022"
 184      AB64D846 
 184      169AEA55 
 184      69192C4C 
 184      8D37F2A5 
 185 0416 1FEF3BED 		.ascii	"\037\357;\355\200\026V\"+s\035\320\234\016\371\351\244"
 185      80165622 
 185      2B731DD0 
 185      9C0EF9E9 
 185      A4
 186 0427 D363F8D0 		.ascii	"\323c\370\3208No\007;\201\366=\264g\321\236C\373!\332"
 186      384E6F07 
 186      3B81F63D 
 186      B467D19E 
 186      43FB21DA 
 187 043b 8FD1FE03 		.ascii	"\217\321\376\003\355\247h?C{\036\355\005\264\377\005"
ARM GAS  /tmp/ccEOzueA.s 			page 14


 187      EDA7683F 
 187      437B1EED 
 187      05B4FF05 
 188 044b 6B1E33C9 		.ascii	"k\0363\311\343\225\037H\345\007\252*\253_\320\231\""
 188      E3951F48 
 188      E507AA2A 
 188      AB5FD099 
 188      22
 189 045c 4A515EAC 		.ascii	"JQ^\254\022!\215U^\207\224^:\375\322\363\004_UL\260"
 189      12218D55 
 189      5E87945E 
 189      3AFDD2F3 
 189      045F554C 
 190 0471 49D0E2E5 		.ascii	"I\320\342\345T\020\024\315\212\355\311J\311V\370\303"
 190      541014CD 
 190      8AEDC94A 
 190      C956F8C3 
 191 0481 246DD6E9 		.ascii	"$m\326\3515\254*v\371\246\255*l |\314\251\252\242b\002"
 191      35AC2A76 
 191      F9A6AD2A 
 191      6C207CCC 
 191      A9AAA262 
 192 0496 8B8AA9E9 		.ascii	"\213\212\251\351\213\212\241\301\302\251\211\241\333"
 192      8B8AA1C1 
 192      C2A989A1 
 192      DB
 193 04a3 78516196 		.ascii	"xQa\226\022\205\377C)\001\277\355P\312T\355\265I\324"
 193      1285FF43 
 193      2901BFED 
 193      50CA54ED 
 193      B549D4
 194 04b6 0B7D7C42 		.ascii	"\013}|BZ\350\257{\006k\266\200\235\226\301\012n\300"
 194      5AE8AF7B 
 194      066BB680 
 194      9D96C10A 
 194      6EC0
 195 04c8 1AD4CC26 		.ascii	"\032\324\314&e\260\277y\006\2632{_\006;\342\006l\226"
 195      65B0BF79 
 195      06B3327B 
 195      5F063BE2 
 195      066C96
 196 04db 9AD90732 		.ascii	"\232\331\0072\330;\236\301df\360\274\374\011\337\200"
 196      D83B9EC1 
 196      6466F0BC 
 196      FC09DF80 
 197 04eb AFE0067C 		.ascii	"\257\340\006|\322\216e\271\237\214\356\0345\261K2\261"
 197      D28E65B9 
 197      9F8CEE1C 
 197      35B14B32 
 197      B1
 198 04fc 0937C49A 		.ascii	"\0117\304\232\325)\273,\203\235u\003\366\0035\263+2"
 198      D529BB2C 
 198      839D7503 
 198      F60335B3 
 198      2B32
 199 050e D8479EC1 		.ascii	"\330G\236\301\254\314\256\312`\237\272\001\273[\315"
 199      ACCCAECA 
ARM GAS  /tmp/ccEOzueA.s 			page 15


 199      609FBA01 
 199      BB5BCD
 200 051d EC2B19EC 		.ascii	"\354+\031\354?\236\301\254\314\246d\260Kn\300\026\253"
 200      3F9EC1AC 
 200      CCA664B0 
 200      4B6EC016 
 200      AB
 201 052e 995D97C1 		.ascii	"\231]\227\301\276\364\014&1\033\032(\344V\232\017\346"
 201      BEF40C26 
 201      311B1A28 
 201      E4569A0F 
 201      E6
 202 053f FC12BE05 		.ascii	"\374\022\276\005\227*\273\366\022\353\015dq\033U\272"
 202      972ABBF6 
 202      12EB0D64 
 202      711B55BA 
 203 054f E974ABE6 		.ascii	"\351t\253\346us\337\2469o\356\326\237\215\302\213W\220"
 203      7573DFA6 
 203      396FEED6 
 203      9F8DC28B 
 203      5790
 204 0561 76D91612 		.ascii	"v\331\026\022Fw\211\"\207\260\353n\231\304\034\2260"
 204      46778922 
 204      87B0EB6E 
 204      99C41C96 
 204      30
 205 0572 87CCEF22 		.ascii	"\207\314\357\"\207\355j\260!\031l\275g0\353\204\374"
 205      87ED6AB0 
 205      21196CBD 
 205      6730EB84 
 205      FC
 206 0583 66A5B552 		.ascii	"f\245\265R\222\346\203\231\345\312,yB\252\012*\233\233"
 206      92E68399 
 206      E5CA2C79 
 206      42AA0A2A 
 206      9B9B
 207 0595 4E9FF33C 		.ascii	"N\237\363<!;\025\023Ry\011'{\201\354\215v\331V\026F"
 207      213B1513 
 207      52790927 
 207      7B81EC8D 
 207      76D95616 
 208 05aa B75395C4 		.ascii	"\267S\225\304\201\302\260Zw\336\204\272\271\226n\273"
 208      81C2B05A 
 208      77DE84BA 
 208      B9966EBB 
 209 05ba 9B4E5FF0 		.ascii	"\233N_\360\254{\227B\267\337\242{WE\367&\273n+\013\243"
 209      AC7B9742 
 209      B7DFA27B 
 209      5745F726 
 209      BB6E2B0B 
 210 05cf BB4AA11B 		.ascii	"\273J\241\033\212\205gW\362\265\303\231\352t\022\337"
 210      8A856757 
 210      F2B5C399 
 210      EA7412DF 
 211 05df A84D07B6 		.ascii	"\250M\007\266V\261x`k\370\375\244\2645lq\263\0227:\375"
 211      56B17860 
 211      6BF8FDA4 
ARM GAS  /tmp/ccEOzueA.s 			page 16


 211      B4356C71 
 211      B312373A 
 212 05f4 9C743AE4 		.ascii	"\234t:\344:G\247_c!r\035\213\313\001\215\333A\264\033"
 212      3A47A75F 
 212      6321721D 
 212      8BCB018D 
 212      DB41B41B 
 213 0608 D0FE12ED 		.ascii	"\320\376\022\355\257\320>\201v\023\332_\243\335\214"
 213      AFD03E81 
 213      7613DA5F 
 213      A3DD8C
 214 0617 F629B44F 		.ascii	"\366)\264O\243}\006\355o\321\376\016m\036\355v\264\243"
 214      A37D06ED 
 214      6FD1FE0E 
 214      6D1EED76 
 214      B4A3
 215 0629 689F47FB 		.ascii	"h\237G\373\022\332\2275u9{\255F9\373\252fV\213w\220"
 215      12DA9735 
 215      75397BAD 
 215      4639FBAA 
 215      66568B77 
 216 063e 1176EC58 		.ascii	"\021v\354Xq\303\205a\272\261\310r\354z\251D+\305\253"
 216      71C38561 
 216      BAB1C872 
 216      EC7AA944 
 216      2BC5AB
 217 0651 F9C6AF50 		.ascii	"\371\306\257P\373\215\037\377/\204&\275\036\234\343"
 217      FB8D1FFF 
 217      2F8426BD 
 217      1E9CE3
 218 0660 ECABD3BD 		.ascii	"\354\253\323\275\032\317\327k\322\352*\367E\257\374"
 218      1ACFD76B 
 218      D2EA2AF7 
 218      45AFFC
 219 066f E271D8EF 		.ascii	"\342q\330\357\364\017\015\004\250\035j\014\372Os\271"
 219      F40F0D04 
 219      A81D6A0C 
 219      FA4F73B9 
 220 067f 7CD772A3 		.ascii	"|\327r\243\360j\234\273*\334t:\346\371F\331\247\270"
 220      F06A9CBB 
 220      2ADC743A 
 220      E6F946D9 
 220      A7B8
 221 0691 51E65A58 		.ascii	"Q\346ZX\357\253\334([\375\266W\337v\026\032y\316/J\352"
 221      EFABDC28 
 221      5BFDB657 
 221      DF76161A 
 221      79CE2F4A 
 222 06a6 1B786751 		.ascii	"\033xgQ\260?\223\016f\322\361`\274;\271:\331\227\011"
 222      B03F930E 
 222      66D2F160 
 222      BC3BB93A 
 222      D99709
 223 06b9 C25FB7DE 		.ascii	"\302_\267\336\023\\\333\227\316f\202\361\276\336\336"
 223      135CDB97 
 223      CE6682F1 
 223      BEDEDE
ARM GAS  /tmp/ccEOzueA.s 			page 17


 224 06c8 BE54B025 		.ascii	"\276T\260%\322\021\352x4\230z8\031\237\037'w`L2\025"
 224      D211EA78 
 224      34987A38 
 224      199F1F27 
 224      77604C32 
 225 06dd EFE95F93 		.ascii	"\357\351_\223\010\246\022\217\364$W\0073\3532\301X&"
 225      08A6128F 
 225      F4245707 
 225      33EB32C1 
 225      5826
 226 06ef BB2699CA 		.ascii	"\273&\231\312\316\357&\015\375\360\271ha,;\343G\017"
 226      CEEF260D 
 226      FDF0B968 
 226      612C3BE3 
 226      470F
 227 0701 AE680E91 		.ascii	"\256h\016\221\037:\205\364\3520f*\021\214\255I<\244"
 227      1F3A85F4 
 227      EA30662A 
 227      118CAD49 
 227      3CA4
 228 0713 F7F76463 		.ascii	"\367\367dc\331uk\023\031\210\276!\026\023\361\263\370"
 228      D9756B13 
 228      1988BE21 
 228      1613F1B3 
 228      F8
 229 0724 986D297D 		.ascii	"\230m)}uO\242+\021\317\366\245i\312\2776\235\354\233"
 229      754FA22B 
 229      11CFF6A5 
 229      69CABF36 
 229      9DEC9B
 230 0737 CDBF6F4D 		.ascii	"\315\277oMf*\027\346\362o\242\211lt]&\233\350m\327S"
 230      662A17E6 
 230      F26FA289 
 230      6C745D26 
 230      9BE86DD7 
 231 074c 6B7A12E9 		.ascii	"kz\022\351NpM'\263\353\352\273\313\347\010\027\352I"
 231      4E704D27 
 231      B3EBEABB 
 231      CBE70817 
 231      EA49
 232 075e E8E9CE44 		.ascii	"\350\351\316D\012\270\376\274\236\017\2648\226\015\224"
 232      0AB8FEBC 
 232      9E0FB438 
 232      960D94
 233 076d 8784DE02 		.ascii	"\207\204\336\002\247\214$\036\315\006C\035\321p\324"
 233      A78C241E 
 233      CD06431D 
 233      D170D4
 234 077c D410EF4B 		.ascii	"\324\020\357K'b\361\336{\200n\340\301\256p(\266\034"
 234      2762F1DE 
 234      7B806EE0 
 234      C1AE7028 
 234      B61C
 235 078e C8FBC3D1 		.ascii	"\310\373\303\321\266H \322\006\266\253\255\365n\177"
 235      B64820D2 
 235      06B6ABAD 
 235      F56E7F
ARM GAS  /tmp/ccEOzueA.s 			page 18


 236 079d 38D41669 		.ascii	"8\324\026i\210\224\317\026\300\305\316\312\305\205p"
 236      8894CF16 
 236      C0C5CECA 
 236      C58570
 237 07ac 513A5DE4 		.ascii	"Q:]\344\017\267,\255\234\336\243\205;\315\223{\375\321"
 237      0FB72CAD 
 237      9CDEA385 
 237      3BCD937B 
 237      FDD1
 238 07be E5E14843 		.ascii	"\345\341HC4\264\024\007\251\013u\256\010\267Bx4\342"
 238      34B41407 
 238      A90B75AE 
 238      08B74278 
 238      34E2
 239 07d0 EF5AFEE3 		.ascii	"\357Z\376\343H]K8\022\212\370\242\320B\374\263\275\263"
 239      485D4B38 
 239      128AF8A2 
 239      D042FCB3 
 239      BDB3
 240 07e2 2EDACE2F 		.ascii	".\332\316/\206\226\201i\347\246\025L]G\307\262\226\210"
 240      86968169 
 240      E7A6154C 
 240      5D47C7B2 
 240      9688
 241 07f4 7F29372D 		.ascii	"\177)7-p\356\353\\\026\361\265Bki\215\370\341Z\004\370"
 241      70EEEB5C 
 241      16F1B542 
 241      6B698DF8 
 241      E15A04F8 
 242 0808 B54400BC 		.ascii	"\265D\000\274%\024\361\307\273\365tC,\366P\177*\036"
 242      2514F1C7 
 242      BBF57443 
 242      2CF6507F 
 242      2A1E
 243 081a 8B7D4B74 		.ascii	"\213}Kt\346\337w\357\375\367\377\017\020\252i\266"
 243      E6DF77EF 
 243      FDF7FF0F 
 243      10AA69B6 
 244              		.text
 245              		.section	.gnu.lto_.symtab.d5349abe9c05aa41,"",%progbits
 246 0000 6E766963 		.ascii	"nvicEnableVector\000\000\000\000\000\000\000\000\000"
 246      456E6162 
 246      6C655665 
 246      63746F72 
 246      00000000 
 247 0019 000000A1 		.ascii	"\000\000\000\241\000\000\000nvicDisableVector\000\000"
 247      0000006E 
 247      76696344 
 247      69736162 
 247      6C655665 
 248 0033 00000000 		.ascii	"\000\000\000\000\000\000\000\000\000\000\262\000\000"
 248      00000000 
 248      0000B200 
 248      00
 249 0040 006E7669 		.ascii	"\000nvicSetSystemHandlerPriority\000\000\000\000\000"
 249      63536574 
 249      53797374 
ARM GAS  /tmp/ccEOzueA.s 			page 19


 249      656D4861 
 249      6E646C65 
 250 0062 00000000 		.ascii	"\000\000\000\000\000\000\000\270\000\000\000nvicCle"
 250      000000B8 
 250      0000006E 
 250      76696343 
 250      6C65
 251 0074 61725065 		.ascii	"arPending\000\000\000\000\000\000\000\000\000\000\000"
 251      6E64696E 
 251      67000000 
 251      00000000 
 251      00000000 
 252 0088 00BE0000 		.ascii	"\000\276\000\000\000"
 252      00
 253              		.text
 254              		.section	.gnu.lto_.opts,"",%progbits
 255 0000 272D6D63 		.ascii	"'-mcpu=cortex-m4' '-mno-thumb-interwork' '-mthumb' "
 255      70753D63 
 255      6F727465 
 255      782D6D34 
 255      2720272D 
 256 0033 272D6767 		.ascii	"'-ggdb' '-O2' '-fomit-frame-pointer' '-falign-funct"
 256      64622720 
 256      272D4F32 
 256      2720272D 
 256      666F6D69 
 257 0066 696F6E73 		.ascii	"ions=16' '-ffunction-sections' '-fdata-sections' '-"
 257      3D313627 
 257      20272D66 
 257      66756E63 
 257      74696F6E 
 258 0099 666E6F2D 		.ascii	"fno-common' '-flto'\000"
 258      636F6D6D 
 258      6F6E2720 
 258      272D666C 
 258      746F2700 
 259              		.text
 260              		.cfi_sections	.debug_frame
 261              		.section	.text.nvicEnableVector,"ax",%progbits
 262              		.align	2
 263              		.p2align 4,,15
 264              		.global	nvicEnableVector
 265              		.thumb
 266              		.thumb_func
 267              		.type	nvicEnableVector, %function
 268              	nvicEnableVector:
 269              	.LFB260:
 270              		.file 1 "/usr/src/chibios/os/hal/ports/common/ARMCMx/nvic.c"
 271              		.loc 1 57 0
 272              		.cfi_startproc
 273              		@ args = 0, pretend = 0, frame = 0
 274              		@ frame_needed = 0, uses_anonymous_args = 0
 275              		@ link register save eliminated.
 276              	.LVL0:
 277              		.loc 1 65 0
 278 0000 4309     		lsrs	r3, r0, #5
 279 0002 9B00     		lsls	r3, r3, #2
ARM GAS  /tmp/ccEOzueA.s 			page 20


 280              		.loc 1 63 0
 281 0004 00F16042 		add	r2, r0, #-536870912
 282 0008 03F16043 		add	r3, r3, #-536870912
 283              		.loc 1 57 0
 284 000c 10B4     		push	{r4}
 285              		.cfi_def_cfa_offset 4
 286              		.cfi_offset 4, -4
 287 000e 03F56143 		add	r3, r3, #57600
 288              		.loc 1 65 0
 289 0012 0124     		movs	r4, #1
 290              		.loc 1 63 0
 291 0014 0901     		lsls	r1, r1, #4
 292              	.LVL1:
 293 0016 02F56142 		add	r2, r2, #57600
 294              		.loc 1 65 0
 295 001a 00F01F00 		and	r0, r0, #31
 296              	.LVL2:
 297 001e 04FA00F0 		lsl	r0, r4, r0
 298              		.loc 1 63 0
 299 0022 C9B2     		uxtb	r1, r1
 300 0024 82F80013 		strb	r1, [r2, #768]
 301              		.loc 1 65 0
 302 0028 C3F88001 		str	r0, [r3, #384]
 303              		.loc 1 66 0
 304 002c 1860     		str	r0, [r3]
 305              		.loc 1 67 0
 306 002e 5DF8044B 		ldr	r4, [sp], #4
 307 0032 7047     		bx	lr
 308              		.cfi_endproc
 309              	.LFE260:
 310              		.size	nvicEnableVector, .-nvicEnableVector
 311              		.section	.text.nvicDisableVector,"ax",%progbits
 312              		.align	2
 313              		.p2align 4,,15
 314              		.global	nvicDisableVector
 315              		.thumb
 316              		.thumb_func
 317              		.type	nvicDisableVector, %function
 318              	nvicDisableVector:
 319              	.LFB261:
 320              		.loc 1 74 0
 321              		.cfi_startproc
 322              		@ args = 0, pretend = 0, frame = 0
 323              		@ frame_needed = 0, uses_anonymous_args = 0
 324              		@ link register save eliminated.
 325              	.LVL3:
 326              		.loc 1 76 0
 327 0000 084B     		ldr	r3, .L3
 328 0002 4109     		lsrs	r1, r0, #5
 329              		.loc 1 74 0
 330 0004 10B4     		push	{r4}
 331              		.cfi_def_cfa_offset 4
 332              		.cfi_offset 4, -4
 333              		.loc 1 76 0
 334 0006 00F01F02 		and	r2, r0, #31
 335 000a 2031     		adds	r1, r1, #32
 336 000c 0124     		movs	r4, #1
ARM GAS  /tmp/ccEOzueA.s 			page 21


 337              		.loc 1 80 0
 338 000e 1844     		add	r0, r0, r3
 339              	.LVL4:
 340              		.loc 1 76 0
 341 0010 9440     		lsls	r4, r4, r2
 342              		.loc 1 80 0
 343 0012 0022     		movs	r2, #0
 344              		.loc 1 76 0
 345 0014 43F82140 		str	r4, [r3, r1, lsl #2]
 346              		.loc 1 80 0
 347 0018 80F80023 		strb	r2, [r0, #768]
 348              		.loc 1 82 0
 349 001c 5DF8044B 		ldr	r4, [sp], #4
 350 0020 7047     		bx	lr
 351              	.L4:
 352 0022 00BF     		.align	2
 353              	.L3:
 354 0024 00E100E0 		.word	-536813312
 355              		.cfi_endproc
 356              	.LFE261:
 357              		.size	nvicDisableVector, .-nvicDisableVector
 358              		.section	.text.nvicSetSystemHandlerPriority,"ax",%progbits
 359              		.align	2
 360              		.p2align 4,,15
 361              		.global	nvicSetSystemHandlerPriority
 362              		.thumb
 363              		.thumb_func
 364              		.type	nvicSetSystemHandlerPriority, %function
 365              	nvicSetSystemHandlerPriority:
 366              	.LFB262:
 367              		.loc 1 90 0
 368              		.cfi_startproc
 369              		@ args = 0, pretend = 0, frame = 0
 370              		@ frame_needed = 0, uses_anonymous_args = 0
 371              		@ link register save eliminated.
 372              	.LVL5:
 373              		.loc 1 100 0
 374 0000 00F16040 		add	r0, r0, #-536870912
 375              	.LVL6:
 376 0004 00F56D40 		add	r0, r0, #60672
 377              	.LVL7:
 378 0008 0901     		lsls	r1, r1, #4
 379              	.LVL8:
 380 000a C9B2     		uxtb	r1, r1
 381 000c 0176     		strb	r1, [r0, #24]
 382 000e 7047     		bx	lr
 383              		.cfi_endproc
 384              	.LFE262:
 385              		.size	nvicSetSystemHandlerPriority, .-nvicSetSystemHandlerPriority
 386              		.section	.text.nvicClearPending,"ax",%progbits
 387              		.align	2
 388              		.p2align 4,,15
 389              		.global	nvicClearPending
 390              		.thumb
 391              		.thumb_func
 392              		.type	nvicClearPending, %function
 393              	nvicClearPending:
ARM GAS  /tmp/ccEOzueA.s 			page 22


 394              	.LFB263:
 395              		.loc 1 109 0
 396              		.cfi_startproc
 397              		@ args = 0, pretend = 0, frame = 0
 398              		@ frame_needed = 0, uses_anonymous_args = 0
 399              		@ link register save eliminated.
 400              	.LVL9:
 401              		.loc 1 111 0
 402 0000 4209     		lsrs	r2, r0, #5
 403 0002 6032     		adds	r2, r2, #96
 404 0004 00F01F00 		and	r0, r0, #31
 405              	.LVL10:
 406 0008 0121     		movs	r1, #1
 407 000a 034B     		ldr	r3, .L7
 408 000c 01FA00F0 		lsl	r0, r1, r0
 409 0010 43F82200 		str	r0, [r3, r2, lsl #2]
 410 0014 7047     		bx	lr
 411              	.L8:
 412 0016 00BF     		.align	2
 413              	.L7:
 414 0018 00E100E0 		.word	-536813312
 415              		.cfi_endproc
 416              	.LFE263:
 417              		.size	nvicClearPending, .-nvicClearPending
 418              		.text
 419              	.Letext0:
 420              		.file 2 "/usr/include/newlib/machine/_default_types.h"
 421              		.file 3 "/usr/include/newlib/sys/_stdint.h"
 422              		.file 4 "/usr/src/chibios/os/rt/ports/ARMCMx/compilers/GCC/chtypes.h"
 423              		.file 5 "/usr/src/chibios/os/rt/include/chsystypes.h"
 424              		.file 6 "/usr/src/chibios/os/rt/include/chschd.h"
 425              		.file 7 "/usr/src/chibios/os/ext/CMSIS/include/core_cm4.h"
 426              		.file 8 "/usr/src/chibios/os/rt/ports/ARMCMx/chcore.h"
 427              		.file 9 "/usr/src/chibios/os/rt/ports/ARMCMx/chcore_v7m.h"
 428              		.file 10 "/usr/src/chibios/os/rt/include/chtm.h"
 429              		.file 11 "/usr/src/chibios/os/rt/include/chsem.h"
 430              		.file 12 "/usr/src/chibios/os/rt/include/chmtx.h"
 431              		.section	.debug_info,"",%progbits
 432              	.Ldebug_info0:
 433 0000 C7090000 		.4byte	0x9c7
 434 0004 0400     		.2byte	0x4
 435 0006 00000000 		.4byte	.Ldebug_abbrev0
 436 000a 04       		.byte	0x4
 437 000b 01       		.uleb128 0x1
 438 000c 83020000 		.4byte	.LASF137
 439 0010 01       		.byte	0x1
 440 0011 5C000000 		.4byte	.LASF138
 441 0015 00000000 		.4byte	.Ldebug_ranges0+0
 442 0019 00000000 		.4byte	0
 443 001d 00000000 		.4byte	.Ldebug_line0
 444 0021 02       		.uleb128 0x2
 445 0022 04       		.byte	0x4
 446 0023 05       		.byte	0x5
 447 0024 696E7400 		.ascii	"int\000"
 448 0028 03       		.uleb128 0x3
 449 0029 04       		.byte	0x4
 450 002a 07       		.byte	0x7
ARM GAS  /tmp/ccEOzueA.s 			page 23


 451 002b CE010000 		.4byte	.LASF0
 452 002f 03       		.uleb128 0x3
 453 0030 01       		.byte	0x1
 454 0031 06       		.byte	0x6
 455 0032 17010000 		.4byte	.LASF1
 456 0036 04       		.uleb128 0x4
 457 0037 37000000 		.4byte	.LASF5
 458 003b 02       		.byte	0x2
 459 003c 1D       		.byte	0x1d
 460 003d 41000000 		.4byte	0x41
 461 0041 03       		.uleb128 0x3
 462 0042 01       		.byte	0x1
 463 0043 08       		.byte	0x8
 464 0044 35040000 		.4byte	.LASF2
 465 0048 03       		.uleb128 0x3
 466 0049 02       		.byte	0x2
 467 004a 05       		.byte	0x5
 468 004b 68040000 		.4byte	.LASF3
 469 004f 03       		.uleb128 0x3
 470 0050 02       		.byte	0x2
 471 0051 07       		.byte	0x7
 472 0052 BB040000 		.4byte	.LASF4
 473 0056 04       		.uleb128 0x4
 474 0057 66020000 		.4byte	.LASF6
 475 005b 02       		.byte	0x2
 476 005c 3F       		.byte	0x3f
 477 005d 61000000 		.4byte	0x61
 478 0061 03       		.uleb128 0x3
 479 0062 04       		.byte	0x4
 480 0063 05       		.byte	0x5
 481 0064 63010000 		.4byte	.LASF7
 482 0068 04       		.uleb128 0x4
 483 0069 81050000 		.4byte	.LASF8
 484 006d 02       		.byte	0x2
 485 006e 41       		.byte	0x41
 486 006f 73000000 		.4byte	0x73
 487 0073 03       		.uleb128 0x3
 488 0074 04       		.byte	0x4
 489 0075 07       		.byte	0x7
 490 0076 32050000 		.4byte	.LASF9
 491 007a 03       		.uleb128 0x3
 492 007b 08       		.byte	0x8
 493 007c 05       		.byte	0x5
 494 007d 09010000 		.4byte	.LASF10
 495 0081 04       		.uleb128 0x4
 496 0082 CD030000 		.4byte	.LASF11
 497 0086 02       		.byte	0x2
 498 0087 5B       		.byte	0x5b
 499 0088 8C000000 		.4byte	0x8c
 500 008c 03       		.uleb128 0x3
 501 008d 08       		.byte	0x8
 502 008e 07       		.byte	0x7
 503 008f 8F000000 		.4byte	.LASF12
 504 0093 04       		.uleb128 0x4
 505 0094 DF050000 		.4byte	.LASF13
 506 0098 03       		.byte	0x3
 507 0099 14       		.byte	0x14
ARM GAS  /tmp/ccEOzueA.s 			page 24


 508 009a 36000000 		.4byte	0x36
 509 009e 04       		.uleb128 0x4
 510 009f 2D040000 		.4byte	.LASF14
 511 00a3 03       		.byte	0x3
 512 00a4 1F       		.byte	0x1f
 513 00a5 56000000 		.4byte	0x56
 514 00a9 04       		.uleb128 0x4
 515 00aa 01050000 		.4byte	.LASF15
 516 00ae 03       		.byte	0x3
 517 00af 20       		.byte	0x20
 518 00b0 68000000 		.4byte	0x68
 519 00b4 04       		.uleb128 0x4
 520 00b5 2E000000 		.4byte	.LASF16
 521 00b9 03       		.byte	0x3
 522 00ba 26       		.byte	0x26
 523 00bb 81000000 		.4byte	0x81
 524 00bf 05       		.uleb128 0x5
 525 00c0 9E000000 		.4byte	0x9e
 526 00c4 05       		.uleb128 0x5
 527 00c5 A9000000 		.4byte	0xa9
 528 00c9 04       		.uleb128 0x4
 529 00ca A5050000 		.4byte	.LASF17
 530 00ce 04       		.byte	0x4
 531 00cf 45       		.byte	0x45
 532 00d0 A9000000 		.4byte	0xa9
 533 00d4 04       		.uleb128 0x4
 534 00d5 44020000 		.4byte	.LASF18
 535 00d9 04       		.byte	0x4
 536 00da 48       		.byte	0x48
 537 00db 93000000 		.4byte	0x93
 538 00df 04       		.uleb128 0x4
 539 00e0 6C010000 		.4byte	.LASF19
 540 00e4 04       		.byte	0x4
 541 00e5 49       		.byte	0x49
 542 00e6 93000000 		.4byte	0x93
 543 00ea 04       		.uleb128 0x4
 544 00eb D8030000 		.4byte	.LASF20
 545 00ef 04       		.byte	0x4
 546 00f0 4A       		.byte	0x4a
 547 00f1 93000000 		.4byte	0x93
 548 00f5 04       		.uleb128 0x4
 549 00f6 0F040000 		.4byte	.LASF21
 550 00fa 04       		.byte	0x4
 551 00fb 4C       		.byte	0x4c
 552 00fc A9000000 		.4byte	0xa9
 553 0100 04       		.uleb128 0x4
 554 0101 21020000 		.4byte	.LASF22
 555 0105 04       		.byte	0x4
 556 0106 4D       		.byte	0x4d
 557 0107 9E000000 		.4byte	0x9e
 558 010b 04       		.uleb128 0x4
 559 010c 5A020000 		.4byte	.LASF23
 560 0110 04       		.byte	0x4
 561 0111 4F       		.byte	0x4f
 562 0112 A9000000 		.4byte	0xa9
 563 0116 04       		.uleb128 0x4
 564 0117 C8010000 		.4byte	.LASF24
ARM GAS  /tmp/ccEOzueA.s 			page 25


 565 011b 04       		.byte	0x4
 566 011c 51       		.byte	0x51
 567 011d 9E000000 		.4byte	0x9e
 568 0121 04       		.uleb128 0x4
 569 0122 63050000 		.4byte	.LASF25
 570 0126 05       		.byte	0x5
 571 0127 33       		.byte	0x33
 572 0128 A9000000 		.4byte	0xa9
 573 012c 04       		.uleb128 0x4
 574 012d 53050000 		.4byte	.LASF26
 575 0131 05       		.byte	0x5
 576 0132 3F       		.byte	0x3f
 577 0133 37010000 		.4byte	0x137
 578 0137 06       		.uleb128 0x6
 579 0138 12020000 		.4byte	.LASF46
 580 013c 44       		.byte	0x44
 581 013d 06       		.byte	0x6
 582 013e C2       		.byte	0xc2
 583 013f 24020000 		.4byte	0x224
 584 0143 07       		.uleb128 0x7
 585 0144 AC040000 		.4byte	.LASF27
 586 0148 06       		.byte	0x6
 587 0149 C3       		.byte	0xc3
 588 014a 2F020000 		.4byte	0x22f
 589 014e 00       		.byte	0
 590 014f 07       		.uleb128 0x7
 591 0150 08040000 		.4byte	.LASF28
 592 0154 06       		.byte	0x6
 593 0155 C5       		.byte	0xc5
 594 0156 2F020000 		.4byte	0x22f
 595 015a 04       		.byte	0x4
 596 015b 07       		.uleb128 0x7
 597 015c EC000000 		.4byte	.LASF29
 598 0160 06       		.byte	0x6
 599 0161 C7       		.byte	0xc7
 600 0162 F5000000 		.4byte	0xf5
 601 0166 08       		.byte	0x8
 602 0167 07       		.uleb128 0x7
 603 0168 1C060000 		.4byte	.LASF30
 604 016c 06       		.byte	0x6
 605 016d C8       		.byte	0xc8
 606 016e 25070000 		.4byte	0x725
 607 0172 0C       		.byte	0xc
 608 0173 07       		.uleb128 0x7
 609 0174 75010000 		.4byte	.LASF31
 610 0178 06       		.byte	0x6
 611 0179 CA       		.byte	0xca
 612 017a 2F020000 		.4byte	0x22f
 613 017e 10       		.byte	0x10
 614 017f 07       		.uleb128 0x7
 615 0180 9C030000 		.4byte	.LASF32
 616 0184 06       		.byte	0x6
 617 0185 CB       		.byte	0xcb
 618 0186 2F020000 		.4byte	0x22f
 619 018a 14       		.byte	0x14
 620 018b 07       		.uleb128 0x7
 621 018c FC050000 		.4byte	.LASF33
ARM GAS  /tmp/ccEOzueA.s 			page 26


 622 0190 06       		.byte	0x6
 623 0191 D2       		.byte	0xd2
 624 0192 A4080000 		.4byte	0x8a4
 625 0196 18       		.byte	0x18
 626 0197 07       		.uleb128 0x7
 627 0198 56040000 		.4byte	.LASF34
 628 019c 06       		.byte	0x6
 629 019d DD       		.byte	0xdd
 630 019e DF000000 		.4byte	0xdf
 631 01a2 1C       		.byte	0x1c
 632 01a3 07       		.uleb128 0x7
 633 01a4 B3040000 		.4byte	.LASF35
 634 01a8 06       		.byte	0x6
 635 01a9 E1       		.byte	0xe1
 636 01aa D4000000 		.4byte	0xd4
 637 01ae 1D       		.byte	0x1d
 638 01af 07       		.uleb128 0x7
 639 01b0 CD050000 		.4byte	.LASF36
 640 01b4 06       		.byte	0x6
 641 01b5 E6       		.byte	0xe6
 642 01b6 EA000000 		.4byte	0xea
 643 01ba 1E       		.byte	0x1e
 644 01bb 08       		.uleb128 0x8
 645 01bc 705F7500 		.ascii	"p_u\000"
 646 01c0 06       		.byte	0x6
 647 01c1 3101     		.2byte	0x131
 648 01c3 DF070000 		.4byte	0x7df
 649 01c7 20       		.byte	0x20
 650 01c8 09       		.uleb128 0x9
 651 01c9 49030000 		.4byte	.LASF37
 652 01cd 06       		.byte	0x6
 653 01ce 3601     		.2byte	0x136
 654 01d0 35020000 		.4byte	0x235
 655 01d4 24       		.byte	0x24
 656 01d5 09       		.uleb128 0x9
 657 01d6 FC010000 		.4byte	.LASF38
 658 01da 06       		.byte	0x6
 659 01db 3C01     		.2byte	0x13c
 660 01dd 59020000 		.4byte	0x259
 661 01e1 28       		.byte	0x28
 662 01e2 09       		.uleb128 0x9
 663 01e3 03060000 		.4byte	.LASF39
 664 01e7 06       		.byte	0x6
 665 01e8 4001     		.2byte	0x140
 666 01ea 00010000 		.4byte	0x100
 667 01ee 30       		.byte	0x30
 668 01ef 09       		.uleb128 0x9
 669 01f0 EC040000 		.4byte	.LASF40
 670 01f4 06       		.byte	0x6
 671 01f5 4601     		.2byte	0x146
 672 01f7 0B010000 		.4byte	0x10b
 673 01fb 34       		.byte	0x34
 674 01fc 09       		.uleb128 0x9
 675 01fd 5E040000 		.4byte	.LASF41
 676 0201 06       		.byte	0x6
 677 0202 4D01     		.2byte	0x14d
 678 0204 9E080000 		.4byte	0x89e
ARM GAS  /tmp/ccEOzueA.s 			page 27


 679 0208 38       		.byte	0x38
 680 0209 09       		.uleb128 0x9
 681 020a 6D050000 		.4byte	.LASF42
 682 020e 06       		.byte	0x6
 683 020f 5101     		.2byte	0x151
 684 0211 F5000000 		.4byte	0xf5
 685 0215 3C       		.byte	0x3c
 686 0216 09       		.uleb128 0x9
 687 0217 23010000 		.4byte	.LASF43
 688 021b 06       		.byte	0x6
 689 021c 5801     		.2byte	0x158
 690 021e 0C030000 		.4byte	0x30c
 691 0222 40       		.byte	0x40
 692 0223 00       		.byte	0
 693 0224 04       		.uleb128 0x4
 694 0225 5C030000 		.4byte	.LASF44
 695 0229 05       		.byte	0x5
 696 022a 44       		.byte	0x44
 697 022b 2F020000 		.4byte	0x22f
 698 022f 0A       		.uleb128 0xa
 699 0230 04       		.byte	0x4
 700 0231 2C010000 		.4byte	0x12c
 701 0235 04       		.uleb128 0x4
 702 0236 00000000 		.4byte	.LASF45
 703 023a 05       		.byte	0x5
 704 023b 49       		.byte	0x49
 705 023c 40020000 		.4byte	0x240
 706 0240 06       		.uleb128 0x6
 707 0241 22050000 		.4byte	.LASF47
 708 0245 04       		.byte	0x4
 709 0246 06       		.byte	0x6
 710 0247 B0       		.byte	0xb0
 711 0248 59020000 		.4byte	0x259
 712 024c 07       		.uleb128 0x7
 713 024d AC040000 		.4byte	.LASF27
 714 0251 06       		.byte	0x6
 715 0252 B1       		.byte	0xb1
 716 0253 2F020000 		.4byte	0x22f
 717 0257 00       		.byte	0
 718 0258 00       		.byte	0
 719 0259 04       		.uleb128 0x4
 720 025a B4050000 		.4byte	.LASF48
 721 025e 05       		.byte	0x5
 722 025f 50       		.byte	0x50
 723 0260 64020000 		.4byte	0x264
 724 0264 06       		.uleb128 0x6
 725 0265 D6000000 		.4byte	.LASF49
 726 0269 08       		.byte	0x8
 727 026a 06       		.byte	0x6
 728 026b B7       		.byte	0xb7
 729 026c 89020000 		.4byte	0x289
 730 0270 07       		.uleb128 0x7
 731 0271 AC040000 		.4byte	.LASF27
 732 0275 06       		.byte	0x6
 733 0276 B8       		.byte	0xb8
 734 0277 2F020000 		.4byte	0x22f
 735 027b 00       		.byte	0
ARM GAS  /tmp/ccEOzueA.s 			page 28


 736 027c 07       		.uleb128 0x7
 737 027d 08040000 		.4byte	.LASF28
 738 0281 06       		.byte	0x6
 739 0282 B9       		.byte	0xb9
 740 0283 2F020000 		.4byte	0x22f
 741 0287 04       		.byte	0x4
 742 0288 00       		.byte	0
 743 0289 04       		.uleb128 0x4
 744 028a 14000000 		.4byte	.LASF50
 745 028e 05       		.byte	0x5
 746 028f 57       		.byte	0x57
 747 0290 94020000 		.4byte	0x294
 748 0294 0B       		.uleb128 0xb
 749 0295 4C020000 		.4byte	.LASF51
 750 0299 1C       		.byte	0x1c
 751 029a 06       		.byte	0x6
 752 029b 9001     		.2byte	0x190
 753 029d F0020000 		.4byte	0x2f0
 754 02a1 09       		.uleb128 0x9
 755 02a2 11050000 		.4byte	.LASF52
 756 02a6 06       		.byte	0x6
 757 02a7 9101     		.2byte	0x191
 758 02a9 59020000 		.4byte	0x259
 759 02ad 00       		.byte	0
 760 02ae 09       		.uleb128 0x9
 761 02af 9E040000 		.4byte	.LASF53
 762 02b3 06       		.byte	0x6
 763 02b4 9201     		.2byte	0x192
 764 02b6 F5000000 		.4byte	0xf5
 765 02ba 08       		.byte	0x8
 766 02bb 09       		.uleb128 0x9
 767 02bc A4030000 		.4byte	.LASF54
 768 02c0 06       		.byte	0x6
 769 02c1 9401     		.2byte	0x194
 770 02c3 25070000 		.4byte	0x725
 771 02c7 0C       		.byte	0xc
 772 02c8 09       		.uleb128 0x9
 773 02c9 8F010000 		.4byte	.LASF55
 774 02cd 06       		.byte	0x6
 775 02ce 9701     		.2byte	0x197
 776 02d0 2F020000 		.4byte	0x22f
 777 02d4 10       		.byte	0x10
 778 02d5 09       		.uleb128 0x9
 779 02d6 C5030000 		.4byte	.LASF56
 780 02da 06       		.byte	0x6
 781 02db 9801     		.2byte	0x198
 782 02dd 2F020000 		.4byte	0x22f
 783 02e1 14       		.byte	0x14
 784 02e2 09       		.uleb128 0x9
 785 02e3 44050000 		.4byte	.LASF57
 786 02e7 06       		.byte	0x6
 787 02e8 9B01     		.2byte	0x19b
 788 02ea 2F020000 		.4byte	0x22f
 789 02ee 18       		.byte	0x18
 790 02ef 00       		.byte	0
 791 02f0 04       		.uleb128 0x4
 792 02f1 78050000 		.4byte	.LASF58
ARM GAS  /tmp/ccEOzueA.s 			page 29


 793 02f5 05       		.byte	0x5
 794 02f6 5C       		.byte	0x5c
 795 02f7 FB020000 		.4byte	0x2fb
 796 02fb 0A       		.uleb128 0xa
 797 02fc 04       		.byte	0x4
 798 02fd 01030000 		.4byte	0x301
 799 0301 0C       		.uleb128 0xc
 800 0302 0C030000 		.4byte	0x30c
 801 0306 0D       		.uleb128 0xd
 802 0307 0C030000 		.4byte	0x30c
 803 030b 00       		.byte	0
 804 030c 0E       		.uleb128 0xe
 805 030d 04       		.byte	0x4
 806 030e 04       		.uleb128 0x4
 807 030f 39030000 		.4byte	.LASF59
 808 0313 05       		.byte	0x5
 809 0314 61       		.byte	0x61
 810 0315 19030000 		.4byte	0x319
 811 0319 0B       		.uleb128 0xb
 812 031a CE040000 		.4byte	.LASF60
 813 031e 14       		.byte	0x14
 814 031f 06       		.byte	0x6
 815 0320 6B01     		.2byte	0x16b
 816 0322 68030000 		.4byte	0x368
 817 0326 09       		.uleb128 0x9
 818 0327 DB010000 		.4byte	.LASF61
 819 032b 06       		.byte	0x6
 820 032c 6C01     		.2byte	0x16c
 821 032e B6080000 		.4byte	0x8b6
 822 0332 00       		.byte	0
 823 0333 09       		.uleb128 0x9
 824 0334 A0010000 		.4byte	.LASF62
 825 0338 06       		.byte	0x6
 826 0339 6D01     		.2byte	0x16d
 827 033b B6080000 		.4byte	0x8b6
 828 033f 04       		.byte	0x4
 829 0340 09       		.uleb128 0x9
 830 0341 19050000 		.4byte	.LASF63
 831 0345 06       		.byte	0x6
 832 0346 6E01     		.2byte	0x16e
 833 0348 21010000 		.4byte	0x121
 834 034c 08       		.byte	0x8
 835 034d 09       		.uleb128 0x9
 836 034e 22060000 		.4byte	.LASF64
 837 0352 06       		.byte	0x6
 838 0353 6F01     		.2byte	0x16f
 839 0355 F0020000 		.4byte	0x2f0
 840 0359 0C       		.byte	0xc
 841 035a 09       		.uleb128 0x9
 842 035b AD050000 		.4byte	.LASF65
 843 035f 06       		.byte	0x6
 844 0360 7101     		.2byte	0x171
 845 0362 0C030000 		.4byte	0x30c
 846 0366 10       		.byte	0x10
 847 0367 00       		.byte	0
 848 0368 04       		.uleb128 0x4
 849 0369 BA000000 		.4byte	.LASF66
ARM GAS  /tmp/ccEOzueA.s 			page 30


 850 036d 05       		.byte	0x5
 851 036e 66       		.byte	0x66
 852 036f 73030000 		.4byte	0x373
 853 0373 0B       		.uleb128 0xb
 854 0374 6F030000 		.4byte	.LASF67
 855 0378 10       		.byte	0x10
 856 0379 06       		.byte	0x6
 857 037a 7B01     		.2byte	0x17b
 858 037c B5030000 		.4byte	0x3b5
 859 0380 09       		.uleb128 0x9
 860 0381 DB010000 		.4byte	.LASF61
 861 0385 06       		.byte	0x6
 862 0386 7C01     		.2byte	0x17c
 863 0388 B6080000 		.4byte	0x8b6
 864 038c 00       		.byte	0
 865 038d 09       		.uleb128 0x9
 866 038e A0010000 		.4byte	.LASF62
 867 0392 06       		.byte	0x6
 868 0393 7E01     		.2byte	0x17e
 869 0395 B6080000 		.4byte	0x8b6
 870 0399 04       		.byte	0x4
 871 039a 09       		.uleb128 0x9
 872 039b 19050000 		.4byte	.LASF63
 873 039f 06       		.byte	0x6
 874 03a0 8001     		.2byte	0x180
 875 03a2 21010000 		.4byte	0x121
 876 03a6 08       		.byte	0x8
 877 03a7 09       		.uleb128 0x9
 878 03a8 90030000 		.4byte	.LASF68
 879 03ac 06       		.byte	0x6
 880 03ad 8801     		.2byte	0x188
 881 03af 21010000 		.4byte	0x121
 882 03b3 0C       		.byte	0xc
 883 03b4 00       		.byte	0
 884 03b5 04       		.uleb128 0x4
 885 03b6 4D000000 		.4byte	.LASF69
 886 03ba 05       		.byte	0x5
 887 03bb 6B       		.byte	0x6b
 888 03bc C0030000 		.4byte	0x3c0
 889 03c0 0B       		.uleb128 0xb
 890 03c1 17040000 		.4byte	.LASF70
 891 03c5 04       		.byte	0x4
 892 03c6 06       		.byte	0x6
 893 03c7 A201     		.2byte	0x1a2
 894 03c9 DB030000 		.4byte	0x3db
 895 03cd 09       		.uleb128 0x9
 896 03ce 8C050000 		.4byte	.LASF71
 897 03d2 06       		.byte	0x6
 898 03d3 AA01     		.2byte	0x1aa
 899 03d5 BC080000 		.4byte	0x8bc
 900 03d9 00       		.byte	0
 901 03da 00       		.byte	0
 902 03db 04       		.uleb128 0x4
 903 03dc 38020000 		.4byte	.LASF72
 904 03e0 05       		.byte	0x5
 905 03e1 70       		.byte	0x70
 906 03e2 E6030000 		.4byte	0x3e6
ARM GAS  /tmp/ccEOzueA.s 			page 31


 907 03e6 0F       		.uleb128 0xf
 908 03e7 59010000 		.4byte	.LASF73
 909 03eb 5001     		.2byte	0x150
 910 03ed 06       		.byte	0x6
 911 03ee C201     		.2byte	0x1c2
 912 03f0 42040000 		.4byte	0x442
 913 03f4 09       		.uleb128 0x9
 914 03f5 D9050000 		.4byte	.LASF74
 915 03f9 06       		.byte	0x6
 916 03fa C601     		.2byte	0x1c6
 917 03fc 89020000 		.4byte	0x289
 918 0400 00       		.byte	0
 919 0401 09       		.uleb128 0x9
 920 0402 52010000 		.4byte	.LASF75
 921 0406 06       		.byte	0x6
 922 0407 CA01     		.2byte	0x1ca
 923 0409 68030000 		.4byte	0x368
 924 040d 1C       		.byte	0x1c
 925 040e 08       		.uleb128 0x8
 926 040f 64626700 		.ascii	"dbg\000"
 927 0413 06       		.byte	0x6
 928 0414 CE01     		.2byte	0x1ce
 929 0416 B5030000 		.4byte	0x3b5
 930 041a 2C       		.byte	0x2c
 931 041b 09       		.uleb128 0x9
 932 041c AF000000 		.4byte	.LASF76
 933 0420 06       		.byte	0x6
 934 0421 D201     		.2byte	0x1d2
 935 0423 2C010000 		.4byte	0x12c
 936 0427 30       		.byte	0x30
 937 0428 08       		.uleb128 0x8
 938 0429 746D00   		.ascii	"tm\000"
 939 042c 06       		.byte	0x6
 940 042d D701     		.2byte	0x1d7
 941 042f D4070000 		.4byte	0x7d4
 942 0433 74       		.byte	0x74
 943 0434 09       		.uleb128 0x9
 944 0435 B9010000 		.4byte	.LASF77
 945 0439 06       		.byte	0x6
 946 043a E301     		.2byte	0x1e3
 947 043c C1080000 		.4byte	0x8c1
 948 0440 78       		.byte	0x78
 949 0441 00       		.byte	0
 950 0442 10       		.uleb128 0x10
 951 0443 040E     		.2byte	0xe04
 952 0445 07       		.byte	0x7
 953 0446 5001     		.2byte	0x150
 954 0448 FE040000 		.4byte	0x4fe
 955 044c 09       		.uleb128 0x9
 956 044d 72040000 		.4byte	.LASF78
 957 0451 07       		.byte	0x7
 958 0452 5201     		.2byte	0x152
 959 0454 15050000 		.4byte	0x515
 960 0458 00       		.byte	0
 961 0459 09       		.uleb128 0x9
 962 045a E0030000 		.4byte	.LASF79
 963 045e 07       		.byte	0x7
ARM GAS  /tmp/ccEOzueA.s 			page 32


 964 045f 5301     		.2byte	0x153
 965 0461 1A050000 		.4byte	0x51a
 966 0465 20       		.byte	0x20
 967 0466 09       		.uleb128 0x9
 968 0467 BB030000 		.4byte	.LASF80
 969 046b 07       		.byte	0x7
 970 046c 5401     		.2byte	0x154
 971 046e 2A050000 		.4byte	0x52a
 972 0472 80       		.byte	0x80
 973 0473 09       		.uleb128 0x9
 974 0474 E7050000 		.4byte	.LASF81
 975 0478 07       		.byte	0x7
 976 0479 5501     		.2byte	0x155
 977 047b 1A050000 		.4byte	0x51a
 978 047f A0       		.byte	0xa0
 979 0480 11       		.uleb128 0x11
 980 0481 E7000000 		.4byte	.LASF82
 981 0485 07       		.byte	0x7
 982 0486 5601     		.2byte	0x156
 983 0488 2F050000 		.4byte	0x52f
 984 048c 0001     		.2byte	0x100
 985 048e 11       		.uleb128 0x11
 986 048f EA030000 		.4byte	.LASF83
 987 0493 07       		.byte	0x7
 988 0494 5701     		.2byte	0x157
 989 0496 1A050000 		.4byte	0x51a
 990 049a 2001     		.2byte	0x120
 991 049c 11       		.uleb128 0x11
 992 049d 0F000000 		.4byte	.LASF84
 993 04a1 07       		.byte	0x7
 994 04a2 5801     		.2byte	0x158
 995 04a4 34050000 		.4byte	0x534
 996 04a8 8001     		.2byte	0x180
 997 04aa 11       		.uleb128 0x11
 998 04ab F4030000 		.4byte	.LASF85
 999 04af 07       		.byte	0x7
 1000 04b0 5901     		.2byte	0x159
 1001 04b2 1A050000 		.4byte	0x51a
 1002 04b6 A001     		.2byte	0x1a0
 1003 04b8 11       		.uleb128 0x11
 1004 04b9 8B030000 		.4byte	.LASF86
 1005 04bd 07       		.byte	0x7
 1006 04be 5A01     		.2byte	0x15a
 1007 04c0 39050000 		.4byte	0x539
 1008 04c4 0002     		.2byte	0x200
 1009 04c6 11       		.uleb128 0x11
 1010 04c7 FE030000 		.4byte	.LASF87
 1011 04cb 07       		.byte	0x7
 1012 04cc 5B01     		.2byte	0x15b
 1013 04ce 3E050000 		.4byte	0x53e
 1014 04d2 2002     		.2byte	0x220
 1015 04d4 12       		.uleb128 0x12
 1016 04d5 495000   		.ascii	"IP\000"
 1017 04d8 07       		.byte	0x7
 1018 04d9 5C01     		.2byte	0x15c
 1019 04db 5E050000 		.4byte	0x55e
 1020 04df 0003     		.2byte	0x300
ARM GAS  /tmp/ccEOzueA.s 			page 33


 1021 04e1 11       		.uleb128 0x11
 1022 04e2 F7040000 		.4byte	.LASF88
 1023 04e6 07       		.byte	0x7
 1024 04e7 5D01     		.2byte	0x15d
 1025 04e9 63050000 		.4byte	0x563
 1026 04ed F003     		.2byte	0x3f0
 1027 04ef 11       		.uleb128 0x11
 1028 04f0 F0050000 		.4byte	.LASF89
 1029 04f4 07       		.byte	0x7
 1030 04f5 5E01     		.2byte	0x15e
 1031 04f7 C4000000 		.4byte	0xc4
 1032 04fb 000E     		.2byte	0xe00
 1033 04fd 00       		.byte	0
 1034 04fe 13       		.uleb128 0x13
 1035 04ff A9000000 		.4byte	0xa9
 1036 0503 0E050000 		.4byte	0x50e
 1037 0507 14       		.uleb128 0x14
 1038 0508 0E050000 		.4byte	0x50e
 1039 050c 07       		.byte	0x7
 1040 050d 00       		.byte	0
 1041 050e 03       		.uleb128 0x3
 1042 050f 04       		.byte	0x4
 1043 0510 07       		.byte	0x7
 1044 0511 53030000 		.4byte	.LASF90
 1045 0515 05       		.uleb128 0x5
 1046 0516 FE040000 		.4byte	0x4fe
 1047 051a 13       		.uleb128 0x13
 1048 051b A9000000 		.4byte	0xa9
 1049 051f 2A050000 		.4byte	0x52a
 1050 0523 14       		.uleb128 0x14
 1051 0524 0E050000 		.4byte	0x50e
 1052 0528 17       		.byte	0x17
 1053 0529 00       		.byte	0
 1054 052a 05       		.uleb128 0x5
 1055 052b FE040000 		.4byte	0x4fe
 1056 052f 05       		.uleb128 0x5
 1057 0530 FE040000 		.4byte	0x4fe
 1058 0534 05       		.uleb128 0x5
 1059 0535 FE040000 		.4byte	0x4fe
 1060 0539 05       		.uleb128 0x5
 1061 053a FE040000 		.4byte	0x4fe
 1062 053e 13       		.uleb128 0x13
 1063 053f A9000000 		.4byte	0xa9
 1064 0543 4E050000 		.4byte	0x54e
 1065 0547 14       		.uleb128 0x14
 1066 0548 0E050000 		.4byte	0x50e
 1067 054c 37       		.byte	0x37
 1068 054d 00       		.byte	0
 1069 054e 13       		.uleb128 0x13
 1070 054f 93000000 		.4byte	0x93
 1071 0553 5E050000 		.4byte	0x55e
 1072 0557 14       		.uleb128 0x14
 1073 0558 0E050000 		.4byte	0x50e
 1074 055c EF       		.byte	0xef
 1075 055d 00       		.byte	0
 1076 055e 05       		.uleb128 0x5
 1077 055f 4E050000 		.4byte	0x54e
ARM GAS  /tmp/ccEOzueA.s 			page 34


 1078 0563 13       		.uleb128 0x13
 1079 0564 A9000000 		.4byte	0xa9
 1080 0568 74050000 		.4byte	0x574
 1081 056c 15       		.uleb128 0x15
 1082 056d 0E050000 		.4byte	0x50e
 1083 0571 8302     		.2byte	0x283
 1084 0573 00       		.byte	0
 1085 0574 16       		.uleb128 0x16
 1086 0575 77040000 		.4byte	.LASF91
 1087 0579 07       		.byte	0x7
 1088 057a 5F01     		.2byte	0x15f
 1089 057c 42040000 		.4byte	0x442
 1090 0580 17       		.uleb128 0x17
 1091 0581 8C       		.byte	0x8c
 1092 0582 07       		.byte	0x7
 1093 0583 7001     		.2byte	0x170
 1094 0585 9B060000 		.4byte	0x69b
 1095 0589 09       		.uleb128 0x9
 1096 058a D0000000 		.4byte	.LASF92
 1097 058e 07       		.byte	0x7
 1098 058f 7201     		.2byte	0x172
 1099 0591 9B060000 		.4byte	0x69b
 1100 0595 00       		.byte	0
 1101 0596 09       		.uleb128 0x9
 1102 0597 1C020000 		.4byte	.LASF93
 1103 059b 07       		.byte	0x7
 1104 059c 7301     		.2byte	0x173
 1105 059e C4000000 		.4byte	0xc4
 1106 05a2 04       		.byte	0x4
 1107 05a3 09       		.uleb128 0x9
 1108 05a4 07020000 		.4byte	.LASF94
 1109 05a8 07       		.byte	0x7
 1110 05a9 7401     		.2byte	0x174
 1111 05ab C4000000 		.4byte	0xc4
 1112 05af 08       		.byte	0x8
 1113 05b0 09       		.uleb128 0x9
 1114 05b1 27020000 		.4byte	.LASF95
 1115 05b5 07       		.byte	0x7
 1116 05b6 7501     		.2byte	0x175
 1117 05b8 C4000000 		.4byte	0xc4
 1118 05bc 0C       		.byte	0xc
 1119 05bd 08       		.uleb128 0x8
 1120 05be 53435200 		.ascii	"SCR\000"
 1121 05c2 07       		.byte	0x7
 1122 05c3 7601     		.2byte	0x176
 1123 05c5 C4000000 		.4byte	0xc4
 1124 05c9 10       		.byte	0x10
 1125 05ca 08       		.uleb128 0x8
 1126 05cb 43435200 		.ascii	"CCR\000"
 1127 05cf 07       		.byte	0x7
 1128 05d0 7701     		.2byte	0x177
 1129 05d2 C4000000 		.4byte	0xc4
 1130 05d6 14       		.byte	0x14
 1131 05d7 08       		.uleb128 0x8
 1132 05d8 53485000 		.ascii	"SHP\000"
 1133 05dc 07       		.byte	0x7
 1134 05dd 7801     		.2byte	0x178
ARM GAS  /tmp/ccEOzueA.s 			page 35


 1135 05df B0060000 		.4byte	0x6b0
 1136 05e3 18       		.byte	0x18
 1137 05e4 09       		.uleb128 0x9
 1138 05e5 43040000 		.4byte	.LASF96
 1139 05e9 07       		.byte	0x7
 1140 05ea 7901     		.2byte	0x179
 1141 05ec C4000000 		.4byte	0xc4
 1142 05f0 24       		.byte	0x24
 1143 05f1 09       		.uleb128 0x9
 1144 05f2 86030000 		.4byte	.LASF97
 1145 05f6 07       		.byte	0x7
 1146 05f7 7A01     		.2byte	0x17a
 1147 05f9 C4000000 		.4byte	0xc4
 1148 05fd 28       		.byte	0x28
 1149 05fe 09       		.uleb128 0x9
 1150 05ff 0F060000 		.4byte	.LASF98
 1151 0603 07       		.byte	0x7
 1152 0604 7B01     		.2byte	0x17b
 1153 0606 C4000000 		.4byte	0xc4
 1154 060a 2C       		.byte	0x2c
 1155 060b 09       		.uleb128 0x9
 1156 060c 2D020000 		.4byte	.LASF99
 1157 0610 07       		.byte	0x7
 1158 0611 7C01     		.2byte	0x17c
 1159 0613 C4000000 		.4byte	0xc4
 1160 0617 30       		.byte	0x30
 1161 0618 09       		.uleb128 0x9
 1162 0619 32020000 		.4byte	.LASF100
 1163 061d 07       		.byte	0x7
 1164 061e 7D01     		.2byte	0x17d
 1165 0620 C4000000 		.4byte	0xc4
 1166 0624 34       		.byte	0x34
 1167 0625 09       		.uleb128 0x9
 1168 0626 85010000 		.4byte	.LASF101
 1169 062a 07       		.byte	0x7
 1170 062b 7E01     		.2byte	0x17e
 1171 062d C4000000 		.4byte	0xc4
 1172 0631 38       		.byte	0x38
 1173 0632 09       		.uleb128 0x9
 1174 0633 8A010000 		.4byte	.LASF102
 1175 0637 07       		.byte	0x7
 1176 0638 7F01     		.2byte	0x17f
 1177 063a C4000000 		.4byte	0xc4
 1178 063e 3C       		.byte	0x3c
 1179 063f 08       		.uleb128 0x8
 1180 0640 50465200 		.ascii	"PFR\000"
 1181 0644 07       		.byte	0x7
 1182 0645 8001     		.2byte	0x180
 1183 0647 C5060000 		.4byte	0x6c5
 1184 064b 40       		.byte	0x40
 1185 064c 08       		.uleb128 0x8
 1186 064d 44465200 		.ascii	"DFR\000"
 1187 0651 07       		.byte	0x7
 1188 0652 8101     		.2byte	0x181
 1189 0654 9B060000 		.4byte	0x69b
 1190 0658 48       		.byte	0x48
 1191 0659 08       		.uleb128 0x8
ARM GAS  /tmp/ccEOzueA.s 			page 36


 1192 065a 41445200 		.ascii	"ADR\000"
 1193 065e 07       		.byte	0x7
 1194 065f 8201     		.2byte	0x182
 1195 0661 9B060000 		.4byte	0x69b
 1196 0665 4C       		.byte	0x4c
 1197 0666 09       		.uleb128 0x9
 1198 0667 D4050000 		.4byte	.LASF103
 1199 066b 07       		.byte	0x7
 1200 066c 8301     		.2byte	0x183
 1201 066e DF060000 		.4byte	0x6df
 1202 0672 50       		.byte	0x50
 1203 0673 09       		.uleb128 0x9
 1204 0674 04010000 		.4byte	.LASF104
 1205 0678 07       		.byte	0x7
 1206 0679 8401     		.2byte	0x184
 1207 067b F9060000 		.4byte	0x6f9
 1208 067f 60       		.byte	0x60
 1209 0680 09       		.uleb128 0x9
 1210 0681 E0030000 		.4byte	.LASF79
 1211 0685 07       		.byte	0x7
 1212 0686 8501     		.2byte	0x185
 1213 0688 E9060000 		.4byte	0x6e9
 1214 068c 74       		.byte	0x74
 1215 068d 09       		.uleb128 0x9
 1216 068e 09060000 		.4byte	.LASF105
 1217 0692 07       		.byte	0x7
 1218 0693 8601     		.2byte	0x186
 1219 0695 C4000000 		.4byte	0xc4
 1220 0699 88       		.byte	0x88
 1221 069a 00       		.byte	0
 1222 069b 18       		.uleb128 0x18
 1223 069c C4000000 		.4byte	0xc4
 1224 06a0 13       		.uleb128 0x13
 1225 06a1 93000000 		.4byte	0x93
 1226 06a5 B0060000 		.4byte	0x6b0
 1227 06a9 14       		.uleb128 0x14
 1228 06aa 0E050000 		.4byte	0x50e
 1229 06ae 0B       		.byte	0xb
 1230 06af 00       		.byte	0
 1231 06b0 05       		.uleb128 0x5
 1232 06b1 A0060000 		.4byte	0x6a0
 1233 06b5 13       		.uleb128 0x13
 1234 06b6 A9000000 		.4byte	0xa9
 1235 06ba C5060000 		.4byte	0x6c5
 1236 06be 14       		.uleb128 0x14
 1237 06bf 0E050000 		.4byte	0x50e
 1238 06c3 01       		.byte	0x1
 1239 06c4 00       		.byte	0
 1240 06c5 18       		.uleb128 0x18
 1241 06c6 CA060000 		.4byte	0x6ca
 1242 06ca 05       		.uleb128 0x5
 1243 06cb B5060000 		.4byte	0x6b5
 1244 06cf 13       		.uleb128 0x13
 1245 06d0 A9000000 		.4byte	0xa9
 1246 06d4 DF060000 		.4byte	0x6df
 1247 06d8 14       		.uleb128 0x14
 1248 06d9 0E050000 		.4byte	0x50e
ARM GAS  /tmp/ccEOzueA.s 			page 37


 1249 06dd 03       		.byte	0x3
 1250 06de 00       		.byte	0
 1251 06df 18       		.uleb128 0x18
 1252 06e0 E4060000 		.4byte	0x6e4
 1253 06e4 05       		.uleb128 0x5
 1254 06e5 CF060000 		.4byte	0x6cf
 1255 06e9 13       		.uleb128 0x13
 1256 06ea A9000000 		.4byte	0xa9
 1257 06ee F9060000 		.4byte	0x6f9
 1258 06f2 14       		.uleb128 0x14
 1259 06f3 0E050000 		.4byte	0x50e
 1260 06f7 04       		.byte	0x4
 1261 06f8 00       		.byte	0
 1262 06f9 18       		.uleb128 0x18
 1263 06fa FE060000 		.4byte	0x6fe
 1264 06fe 05       		.uleb128 0x5
 1265 06ff E9060000 		.4byte	0x6e9
 1266 0703 16       		.uleb128 0x16
 1267 0704 A8010000 		.4byte	.LASF106
 1268 0708 07       		.byte	0x7
 1269 0709 8701     		.2byte	0x187
 1270 070b 80050000 		.4byte	0x580
 1271 070f 04       		.uleb128 0x4
 1272 0710 97010000 		.4byte	.LASF107
 1273 0714 08       		.byte	0x8
 1274 0715 65       		.byte	0x65
 1275 0716 0C030000 		.4byte	0x30c
 1276 071a 04       		.uleb128 0x4
 1277 071b 70020000 		.4byte	.LASF108
 1278 071f 08       		.byte	0x8
 1279 0720 6D       		.byte	0x6d
 1280 0721 B4000000 		.4byte	0xb4
 1281 0725 06       		.uleb128 0x6
 1282 0726 9D050000 		.4byte	.LASF109
 1283 072a 04       		.byte	0x4
 1284 072b 08       		.byte	0x8
 1285 072c 89       		.byte	0x89
 1286 072d 3E070000 		.4byte	0x73e
 1287 0731 19       		.uleb128 0x19
 1288 0732 72313300 		.ascii	"r13\000"
 1289 0736 08       		.byte	0x8
 1290 0737 8A       		.byte	0x8a
 1291 0738 B9070000 		.4byte	0x7b9
 1292 073c 00       		.byte	0
 1293 073d 00       		.byte	0
 1294 073e 06       		.uleb128 0x6
 1295 073f 41000000 		.4byte	.LASF110
 1296 0743 24       		.byte	0x24
 1297 0744 09       		.byte	0x9
 1298 0745 F4       		.byte	0xf4
 1299 0746 B9070000 		.4byte	0x7b9
 1300 074a 08       		.uleb128 0x8
 1301 074b 723400   		.ascii	"r4\000"
 1302 074e 09       		.byte	0x9
 1303 074f 0701     		.2byte	0x107
 1304 0751 0F070000 		.4byte	0x70f
 1305 0755 00       		.byte	0
ARM GAS  /tmp/ccEOzueA.s 			page 38


 1306 0756 08       		.uleb128 0x8
 1307 0757 723500   		.ascii	"r5\000"
 1308 075a 09       		.byte	0x9
 1309 075b 0801     		.2byte	0x108
 1310 075d 0F070000 		.4byte	0x70f
 1311 0761 04       		.byte	0x4
 1312 0762 08       		.uleb128 0x8
 1313 0763 723600   		.ascii	"r6\000"
 1314 0766 09       		.byte	0x9
 1315 0767 0901     		.2byte	0x109
 1316 0769 0F070000 		.4byte	0x70f
 1317 076d 08       		.byte	0x8
 1318 076e 08       		.uleb128 0x8
 1319 076f 723700   		.ascii	"r7\000"
 1320 0772 09       		.byte	0x9
 1321 0773 0A01     		.2byte	0x10a
 1322 0775 0F070000 		.4byte	0x70f
 1323 0779 0C       		.byte	0xc
 1324 077a 08       		.uleb128 0x8
 1325 077b 723800   		.ascii	"r8\000"
 1326 077e 09       		.byte	0x9
 1327 077f 0B01     		.2byte	0x10b
 1328 0781 0F070000 		.4byte	0x70f
 1329 0785 10       		.byte	0x10
 1330 0786 08       		.uleb128 0x8
 1331 0787 723900   		.ascii	"r9\000"
 1332 078a 09       		.byte	0x9
 1333 078b 0C01     		.2byte	0x10c
 1334 078d 0F070000 		.4byte	0x70f
 1335 0791 14       		.byte	0x14
 1336 0792 08       		.uleb128 0x8
 1337 0793 72313000 		.ascii	"r10\000"
 1338 0797 09       		.byte	0x9
 1339 0798 0D01     		.2byte	0x10d
 1340 079a 0F070000 		.4byte	0x70f
 1341 079e 18       		.byte	0x18
 1342 079f 08       		.uleb128 0x8
 1343 07a0 72313100 		.ascii	"r11\000"
 1344 07a4 09       		.byte	0x9
 1345 07a5 0E01     		.2byte	0x10e
 1346 07a7 0F070000 		.4byte	0x70f
 1347 07ab 1C       		.byte	0x1c
 1348 07ac 08       		.uleb128 0x8
 1349 07ad 6C7200   		.ascii	"lr\000"
 1350 07b0 09       		.byte	0x9
 1351 07b1 0F01     		.2byte	0x10f
 1352 07b3 0F070000 		.4byte	0x70f
 1353 07b7 20       		.byte	0x20
 1354 07b8 00       		.byte	0
 1355 07b9 0A       		.uleb128 0xa
 1356 07ba 04       		.byte	0x4
 1357 07bb 3E070000 		.4byte	0x73e
 1358 07bf 1A       		.uleb128 0x1a
 1359 07c0 04       		.byte	0x4
 1360 07c1 0A       		.byte	0xa
 1361 07c2 38       		.byte	0x38
 1362 07c3 D4070000 		.4byte	0x7d4
ARM GAS  /tmp/ccEOzueA.s 			page 39


 1363 07c7 07       		.uleb128 0x7
 1364 07c8 96050000 		.4byte	.LASF111
 1365 07cc 0A       		.byte	0xa
 1366 07cd 3C       		.byte	0x3c
 1367 07ce C9000000 		.4byte	0xc9
 1368 07d2 00       		.byte	0
 1369 07d3 00       		.byte	0
 1370 07d4 04       		.uleb128 0x4
 1371 07d5 AA030000 		.4byte	.LASF112
 1372 07d9 0A       		.byte	0xa
 1373 07da 3D       		.byte	0x3d
 1374 07db BF070000 		.4byte	0x7bf
 1375 07df 1B       		.uleb128 0x1b
 1376 07e0 04       		.byte	0x4
 1377 07e1 06       		.byte	0x6
 1378 07e2 FA       		.byte	0xfa
 1379 07e3 3C080000 		.4byte	0x83c
 1380 07e7 1C       		.uleb128 0x1c
 1381 07e8 27000000 		.4byte	.LASF113
 1382 07ec 06       		.byte	0x6
 1383 07ed 0101     		.2byte	0x101
 1384 07ef 00010000 		.4byte	0x100
 1385 07f3 1C       		.uleb128 0x1c
 1386 07f4 A6000000 		.4byte	.LASF114
 1387 07f8 06       		.byte	0x6
 1388 07f9 0801     		.2byte	0x108
 1389 07fb 00010000 		.4byte	0x100
 1390 07ff 1C       		.uleb128 0x1c
 1391 0800 F5050000 		.4byte	.LASF115
 1392 0804 06       		.byte	0x6
 1393 0805 0F01     		.2byte	0x10f
 1394 0807 0C030000 		.4byte	0x30c
 1395 080b 1C       		.uleb128 0x1c
 1396 080c 21000000 		.4byte	.LASF116
 1397 0810 06       		.byte	0x6
 1398 0811 1601     		.2byte	0x116
 1399 0813 3C080000 		.4byte	0x83c
 1400 0817 1C       		.uleb128 0x1c
 1401 0818 F5010000 		.4byte	.LASF117
 1402 081c 06       		.byte	0x6
 1403 081d 1E01     		.2byte	0x11e
 1404 081f 67080000 		.4byte	0x867
 1405 0823 1C       		.uleb128 0x1c
 1406 0824 0A050000 		.4byte	.LASF118
 1407 0828 06       		.byte	0x6
 1408 0829 2701     		.2byte	0x127
 1409 082b 9E080000 		.4byte	0x89e
 1410 082f 1C       		.uleb128 0x1c
 1411 0830 A5040000 		.4byte	.LASF119
 1412 0834 06       		.byte	0x6
 1413 0835 2F01     		.2byte	0x12f
 1414 0837 0B010000 		.4byte	0x10b
 1415 083b 00       		.byte	0
 1416 083c 0A       		.uleb128 0xa
 1417 083d 04       		.byte	0x4
 1418 083e 24020000 		.4byte	0x224
 1419 0842 06       		.uleb128 0x6
ARM GAS  /tmp/ccEOzueA.s 			page 40


 1420 0843 DF040000 		.4byte	.LASF120
 1421 0847 0C       		.byte	0xc
 1422 0848 0B       		.byte	0xb
 1423 0849 34       		.byte	0x34
 1424 084a 67080000 		.4byte	0x867
 1425 084e 07       		.uleb128 0x7
 1426 084f 7D010000 		.4byte	.LASF121
 1427 0853 0B       		.byte	0xb
 1428 0854 35       		.byte	0x35
 1429 0855 59020000 		.4byte	0x259
 1430 0859 00       		.byte	0
 1431 085a 07       		.uleb128 0x7
 1432 085b 0C020000 		.4byte	.LASF122
 1433 085f 0B       		.byte	0xb
 1434 0860 37       		.byte	0x37
 1435 0861 16010000 		.4byte	0x116
 1436 0865 08       		.byte	0x8
 1437 0866 00       		.byte	0
 1438 0867 0A       		.uleb128 0xa
 1439 0868 04       		.byte	0x4
 1440 0869 42080000 		.4byte	0x842
 1441 086d 06       		.uleb128 0x6
 1442 086e C4050000 		.4byte	.LASF123
 1443 0872 10       		.byte	0x10
 1444 0873 0C       		.byte	0xc
 1445 0874 39       		.byte	0x39
 1446 0875 9E080000 		.4byte	0x89e
 1447 0879 07       		.uleb128 0x7
 1448 087a 2B010000 		.4byte	.LASF124
 1449 087e 0C       		.byte	0xc
 1450 087f 3A       		.byte	0x3a
 1451 0880 59020000 		.4byte	0x259
 1452 0884 00       		.byte	0
 1453 0885 07       		.uleb128 0x7
 1454 0886 14060000 		.4byte	.LASF125
 1455 088a 0C       		.byte	0xc
 1456 088b 3C       		.byte	0x3c
 1457 088c 2F020000 		.4byte	0x22f
 1458 0890 08       		.byte	0x8
 1459 0891 07       		.uleb128 0x7
 1460 0892 5C050000 		.4byte	.LASF126
 1461 0896 0C       		.byte	0xc
 1462 0897 3E       		.byte	0x3e
 1463 0898 DC080000 		.4byte	0x8dc
 1464 089c 0C       		.byte	0xc
 1465 089d 00       		.byte	0
 1466 089e 0A       		.uleb128 0xa
 1467 089f 04       		.byte	0x4
 1468 08a0 6D080000 		.4byte	0x86d
 1469 08a4 0A       		.uleb128 0xa
 1470 08a5 04       		.byte	0x4
 1471 08a6 AA080000 		.4byte	0x8aa
 1472 08aa 18       		.uleb128 0x18
 1473 08ab AF080000 		.4byte	0x8af
 1474 08af 03       		.uleb128 0x3
 1475 08b0 01       		.byte	0x1
 1476 08b1 08       		.byte	0x8
ARM GAS  /tmp/ccEOzueA.s 			page 41


 1477 08b2 4E050000 		.4byte	.LASF127
 1478 08b6 0A       		.uleb128 0xa
 1479 08b7 04       		.byte	0x4
 1480 08b8 0E030000 		.4byte	0x30e
 1481 08bc 05       		.uleb128 0x5
 1482 08bd A4080000 		.4byte	0x8a4
 1483 08c1 13       		.uleb128 0x13
 1484 08c2 1A070000 		.4byte	0x71a
 1485 08c6 D1080000 		.4byte	0x8d1
 1486 08ca 14       		.uleb128 0x14
 1487 08cb 0E050000 		.4byte	0x50e
 1488 08cf 1A       		.byte	0x1a
 1489 08d0 00       		.byte	0
 1490 08d1 04       		.uleb128 0x4
 1491 08d2 B1010000 		.4byte	.LASF128
 1492 08d6 0C       		.byte	0xc
 1493 08d7 34       		.byte	0x34
 1494 08d8 6D080000 		.4byte	0x86d
 1495 08dc 0A       		.uleb128 0xa
 1496 08dd 04       		.byte	0x4
 1497 08de D1080000 		.4byte	0x8d1
 1498 08e2 03       		.uleb128 0x3
 1499 08e3 01       		.byte	0x1
 1500 08e4 02       		.byte	0x2
 1501 08e5 27040000 		.4byte	.LASF129
 1502 08e9 1D       		.uleb128 0x1d
 1503 08ea F3000000 		.4byte	.LASF131
 1504 08ee 01       		.byte	0x1
 1505 08ef 39       		.byte	0x39
 1506 08f0 00000000 		.4byte	.LFB260
 1507 08f4 34000000 		.4byte	.LFE260-.LFB260
 1508 08f8 01       		.uleb128 0x1
 1509 08f9 9C       		.byte	0x9c
 1510 08fa 1B090000 		.4byte	0x91b
 1511 08fe 1E       		.uleb128 0x1e
 1512 08ff 6E00     		.ascii	"n\000"
 1513 0901 01       		.byte	0x1
 1514 0902 39       		.byte	0x39
 1515 0903 A9000000 		.4byte	0xa9
 1516 0907 00000000 		.4byte	.LLST0
 1517 090b 1F       		.uleb128 0x1f
 1518 090c C0030000 		.4byte	.LASF130
 1519 0910 01       		.byte	0x1
 1520 0911 39       		.byte	0x39
 1521 0912 A9000000 		.4byte	0xa9
 1522 0916 24000000 		.4byte	.LLST1
 1523 091a 00       		.byte	0
 1524 091b 1D       		.uleb128 0x1d
 1525 091c E3010000 		.4byte	.LASF132
 1526 0920 01       		.byte	0x1
 1527 0921 4A       		.byte	0x4a
 1528 0922 00000000 		.4byte	.LFB261
 1529 0926 28000000 		.4byte	.LFE261-.LFB261
 1530 092a 01       		.uleb128 0x1
 1531 092b 9C       		.byte	0x9c
 1532 092c 3E090000 		.4byte	0x93e
 1533 0930 1E       		.uleb128 0x1e
ARM GAS  /tmp/ccEOzueA.s 			page 42


 1534 0931 6E00     		.ascii	"n\000"
 1535 0933 01       		.byte	0x1
 1536 0934 4A       		.byte	0x4a
 1537 0935 A9000000 		.4byte	0xa9
 1538 0939 45000000 		.4byte	.LLST2
 1539 093d 00       		.byte	0
 1540 093e 1D       		.uleb128 0x1d
 1541 093f 81040000 		.4byte	.LASF133
 1542 0943 01       		.byte	0x1
 1543 0944 5A       		.byte	0x5a
 1544 0945 00000000 		.4byte	.LFB262
 1545 0949 10000000 		.4byte	.LFE262-.LFB262
 1546 094d 01       		.uleb128 0x1
 1547 094e 9C       		.byte	0x9c
 1548 094f 7B090000 		.4byte	0x97b
 1549 0953 1F       		.uleb128 0x1f
 1550 0954 7B020000 		.4byte	.LASF134
 1551 0958 01       		.byte	0x1
 1552 0959 5A       		.byte	0x5a
 1553 095a A9000000 		.4byte	0xa9
 1554 095e 69000000 		.4byte	.LLST3
 1555 0962 1F       		.uleb128 0x1f
 1556 0963 C0030000 		.4byte	.LASF130
 1557 0967 01       		.byte	0x1
 1558 0968 5A       		.byte	0x5a
 1559 0969 A9000000 		.4byte	0xa9
 1560 096d 9E000000 		.4byte	.LLST4
 1561 0971 20       		.uleb128 0x20
 1562 0972 33010000 		.4byte	.LASF139
 1563 0976 8B090000 		.4byte	0x98b
 1564 097a 00       		.byte	0
 1565 097b 13       		.uleb128 0x13
 1566 097c AF080000 		.4byte	0x8af
 1567 0980 8B090000 		.4byte	0x98b
 1568 0984 14       		.uleb128 0x14
 1569 0985 0E050000 		.4byte	0x50e
 1570 0989 1C       		.byte	0x1c
 1571 098a 00       		.byte	0
 1572 098b 18       		.uleb128 0x18
 1573 098c 7B090000 		.4byte	0x97b
 1574 0990 1D       		.uleb128 0x1d
 1575 0991 41010000 		.4byte	.LASF135
 1576 0995 01       		.byte	0x1
 1577 0996 6D       		.byte	0x6d
 1578 0997 00000000 		.4byte	.LFB263
 1579 099b 1C000000 		.4byte	.LFE263-.LFB263
 1580 099f 01       		.uleb128 0x1
 1581 09a0 9C       		.byte	0x9c
 1582 09a1 B3090000 		.4byte	0x9b3
 1583 09a5 1E       		.uleb128 0x1e
 1584 09a6 6E00     		.ascii	"n\000"
 1585 09a8 01       		.byte	0x1
 1586 09a9 6D       		.byte	0x6d
 1587 09aa A9000000 		.4byte	0xa9
 1588 09ae BF000000 		.4byte	.LLST5
 1589 09b2 00       		.byte	0
 1590 09b3 21       		.uleb128 0x21
ARM GAS  /tmp/ccEOzueA.s 			page 43


 1591 09b4 49040000 		.4byte	.LASF136
 1592 09b8 07       		.byte	0x7
 1593 09b9 A706     		.2byte	0x6a7
 1594 09bb BF000000 		.4byte	0xbf
 1595 09bf 22       		.uleb128 0x22
 1596 09c0 636800   		.ascii	"ch\000"
 1597 09c3 06       		.byte	0x6
 1598 09c4 0902     		.2byte	0x209
 1599 09c6 DB030000 		.4byte	0x3db
 1600 09ca 00       		.byte	0
 1601              		.section	.debug_abbrev,"",%progbits
 1602              	.Ldebug_abbrev0:
 1603 0000 01       		.uleb128 0x1
 1604 0001 11       		.uleb128 0x11
 1605 0002 01       		.byte	0x1
 1606 0003 25       		.uleb128 0x25
 1607 0004 0E       		.uleb128 0xe
 1608 0005 13       		.uleb128 0x13
 1609 0006 0B       		.uleb128 0xb
 1610 0007 03       		.uleb128 0x3
 1611 0008 0E       		.uleb128 0xe
 1612 0009 55       		.uleb128 0x55
 1613 000a 17       		.uleb128 0x17
 1614 000b 11       		.uleb128 0x11
 1615 000c 01       		.uleb128 0x1
 1616 000d 10       		.uleb128 0x10
 1617 000e 17       		.uleb128 0x17
 1618 000f 00       		.byte	0
 1619 0010 00       		.byte	0
 1620 0011 02       		.uleb128 0x2
 1621 0012 24       		.uleb128 0x24
 1622 0013 00       		.byte	0
 1623 0014 0B       		.uleb128 0xb
 1624 0015 0B       		.uleb128 0xb
 1625 0016 3E       		.uleb128 0x3e
 1626 0017 0B       		.uleb128 0xb
 1627 0018 03       		.uleb128 0x3
 1628 0019 08       		.uleb128 0x8
 1629 001a 00       		.byte	0
 1630 001b 00       		.byte	0
 1631 001c 03       		.uleb128 0x3
 1632 001d 24       		.uleb128 0x24
 1633 001e 00       		.byte	0
 1634 001f 0B       		.uleb128 0xb
 1635 0020 0B       		.uleb128 0xb
 1636 0021 3E       		.uleb128 0x3e
 1637 0022 0B       		.uleb128 0xb
 1638 0023 03       		.uleb128 0x3
 1639 0024 0E       		.uleb128 0xe
 1640 0025 00       		.byte	0
 1641 0026 00       		.byte	0
 1642 0027 04       		.uleb128 0x4
 1643 0028 16       		.uleb128 0x16
 1644 0029 00       		.byte	0
 1645 002a 03       		.uleb128 0x3
 1646 002b 0E       		.uleb128 0xe
 1647 002c 3A       		.uleb128 0x3a
ARM GAS  /tmp/ccEOzueA.s 			page 44


 1648 002d 0B       		.uleb128 0xb
 1649 002e 3B       		.uleb128 0x3b
 1650 002f 0B       		.uleb128 0xb
 1651 0030 49       		.uleb128 0x49
 1652 0031 13       		.uleb128 0x13
 1653 0032 00       		.byte	0
 1654 0033 00       		.byte	0
 1655 0034 05       		.uleb128 0x5
 1656 0035 35       		.uleb128 0x35
 1657 0036 00       		.byte	0
 1658 0037 49       		.uleb128 0x49
 1659 0038 13       		.uleb128 0x13
 1660 0039 00       		.byte	0
 1661 003a 00       		.byte	0
 1662 003b 06       		.uleb128 0x6
 1663 003c 13       		.uleb128 0x13
 1664 003d 01       		.byte	0x1
 1665 003e 03       		.uleb128 0x3
 1666 003f 0E       		.uleb128 0xe
 1667 0040 0B       		.uleb128 0xb
 1668 0041 0B       		.uleb128 0xb
 1669 0042 3A       		.uleb128 0x3a
 1670 0043 0B       		.uleb128 0xb
 1671 0044 3B       		.uleb128 0x3b
 1672 0045 0B       		.uleb128 0xb
 1673 0046 01       		.uleb128 0x1
 1674 0047 13       		.uleb128 0x13
 1675 0048 00       		.byte	0
 1676 0049 00       		.byte	0
 1677 004a 07       		.uleb128 0x7
 1678 004b 0D       		.uleb128 0xd
 1679 004c 00       		.byte	0
 1680 004d 03       		.uleb128 0x3
 1681 004e 0E       		.uleb128 0xe
 1682 004f 3A       		.uleb128 0x3a
 1683 0050 0B       		.uleb128 0xb
 1684 0051 3B       		.uleb128 0x3b
 1685 0052 0B       		.uleb128 0xb
 1686 0053 49       		.uleb128 0x49
 1687 0054 13       		.uleb128 0x13
 1688 0055 38       		.uleb128 0x38
 1689 0056 0B       		.uleb128 0xb
 1690 0057 00       		.byte	0
 1691 0058 00       		.byte	0
 1692 0059 08       		.uleb128 0x8
 1693 005a 0D       		.uleb128 0xd
 1694 005b 00       		.byte	0
 1695 005c 03       		.uleb128 0x3
 1696 005d 08       		.uleb128 0x8
 1697 005e 3A       		.uleb128 0x3a
 1698 005f 0B       		.uleb128 0xb
 1699 0060 3B       		.uleb128 0x3b
 1700 0061 05       		.uleb128 0x5
 1701 0062 49       		.uleb128 0x49
 1702 0063 13       		.uleb128 0x13
 1703 0064 38       		.uleb128 0x38
 1704 0065 0B       		.uleb128 0xb
ARM GAS  /tmp/ccEOzueA.s 			page 45


 1705 0066 00       		.byte	0
 1706 0067 00       		.byte	0
 1707 0068 09       		.uleb128 0x9
 1708 0069 0D       		.uleb128 0xd
 1709 006a 00       		.byte	0
 1710 006b 03       		.uleb128 0x3
 1711 006c 0E       		.uleb128 0xe
 1712 006d 3A       		.uleb128 0x3a
 1713 006e 0B       		.uleb128 0xb
 1714 006f 3B       		.uleb128 0x3b
 1715 0070 05       		.uleb128 0x5
 1716 0071 49       		.uleb128 0x49
 1717 0072 13       		.uleb128 0x13
 1718 0073 38       		.uleb128 0x38
 1719 0074 0B       		.uleb128 0xb
 1720 0075 00       		.byte	0
 1721 0076 00       		.byte	0
 1722 0077 0A       		.uleb128 0xa
 1723 0078 0F       		.uleb128 0xf
 1724 0079 00       		.byte	0
 1725 007a 0B       		.uleb128 0xb
 1726 007b 0B       		.uleb128 0xb
 1727 007c 49       		.uleb128 0x49
 1728 007d 13       		.uleb128 0x13
 1729 007e 00       		.byte	0
 1730 007f 00       		.byte	0
 1731 0080 0B       		.uleb128 0xb
 1732 0081 13       		.uleb128 0x13
 1733 0082 01       		.byte	0x1
 1734 0083 03       		.uleb128 0x3
 1735 0084 0E       		.uleb128 0xe
 1736 0085 0B       		.uleb128 0xb
 1737 0086 0B       		.uleb128 0xb
 1738 0087 3A       		.uleb128 0x3a
 1739 0088 0B       		.uleb128 0xb
 1740 0089 3B       		.uleb128 0x3b
 1741 008a 05       		.uleb128 0x5
 1742 008b 01       		.uleb128 0x1
 1743 008c 13       		.uleb128 0x13
 1744 008d 00       		.byte	0
 1745 008e 00       		.byte	0
 1746 008f 0C       		.uleb128 0xc
 1747 0090 15       		.uleb128 0x15
 1748 0091 01       		.byte	0x1
 1749 0092 27       		.uleb128 0x27
 1750 0093 19       		.uleb128 0x19
 1751 0094 01       		.uleb128 0x1
 1752 0095 13       		.uleb128 0x13
 1753 0096 00       		.byte	0
 1754 0097 00       		.byte	0
 1755 0098 0D       		.uleb128 0xd
 1756 0099 05       		.uleb128 0x5
 1757 009a 00       		.byte	0
 1758 009b 49       		.uleb128 0x49
 1759 009c 13       		.uleb128 0x13
 1760 009d 00       		.byte	0
 1761 009e 00       		.byte	0
ARM GAS  /tmp/ccEOzueA.s 			page 46


 1762 009f 0E       		.uleb128 0xe
 1763 00a0 0F       		.uleb128 0xf
 1764 00a1 00       		.byte	0
 1765 00a2 0B       		.uleb128 0xb
 1766 00a3 0B       		.uleb128 0xb
 1767 00a4 00       		.byte	0
 1768 00a5 00       		.byte	0
 1769 00a6 0F       		.uleb128 0xf
 1770 00a7 13       		.uleb128 0x13
 1771 00a8 01       		.byte	0x1
 1772 00a9 03       		.uleb128 0x3
 1773 00aa 0E       		.uleb128 0xe
 1774 00ab 0B       		.uleb128 0xb
 1775 00ac 05       		.uleb128 0x5
 1776 00ad 3A       		.uleb128 0x3a
 1777 00ae 0B       		.uleb128 0xb
 1778 00af 3B       		.uleb128 0x3b
 1779 00b0 05       		.uleb128 0x5
 1780 00b1 01       		.uleb128 0x1
 1781 00b2 13       		.uleb128 0x13
 1782 00b3 00       		.byte	0
 1783 00b4 00       		.byte	0
 1784 00b5 10       		.uleb128 0x10
 1785 00b6 13       		.uleb128 0x13
 1786 00b7 01       		.byte	0x1
 1787 00b8 0B       		.uleb128 0xb
 1788 00b9 05       		.uleb128 0x5
 1789 00ba 3A       		.uleb128 0x3a
 1790 00bb 0B       		.uleb128 0xb
 1791 00bc 3B       		.uleb128 0x3b
 1792 00bd 05       		.uleb128 0x5
 1793 00be 01       		.uleb128 0x1
 1794 00bf 13       		.uleb128 0x13
 1795 00c0 00       		.byte	0
 1796 00c1 00       		.byte	0
 1797 00c2 11       		.uleb128 0x11
 1798 00c3 0D       		.uleb128 0xd
 1799 00c4 00       		.byte	0
 1800 00c5 03       		.uleb128 0x3
 1801 00c6 0E       		.uleb128 0xe
 1802 00c7 3A       		.uleb128 0x3a
 1803 00c8 0B       		.uleb128 0xb
 1804 00c9 3B       		.uleb128 0x3b
 1805 00ca 05       		.uleb128 0x5
 1806 00cb 49       		.uleb128 0x49
 1807 00cc 13       		.uleb128 0x13
 1808 00cd 38       		.uleb128 0x38
 1809 00ce 05       		.uleb128 0x5
 1810 00cf 00       		.byte	0
 1811 00d0 00       		.byte	0
 1812 00d1 12       		.uleb128 0x12
 1813 00d2 0D       		.uleb128 0xd
 1814 00d3 00       		.byte	0
 1815 00d4 03       		.uleb128 0x3
 1816 00d5 08       		.uleb128 0x8
 1817 00d6 3A       		.uleb128 0x3a
 1818 00d7 0B       		.uleb128 0xb
ARM GAS  /tmp/ccEOzueA.s 			page 47


 1819 00d8 3B       		.uleb128 0x3b
 1820 00d9 05       		.uleb128 0x5
 1821 00da 49       		.uleb128 0x49
 1822 00db 13       		.uleb128 0x13
 1823 00dc 38       		.uleb128 0x38
 1824 00dd 05       		.uleb128 0x5
 1825 00de 00       		.byte	0
 1826 00df 00       		.byte	0
 1827 00e0 13       		.uleb128 0x13
 1828 00e1 01       		.uleb128 0x1
 1829 00e2 01       		.byte	0x1
 1830 00e3 49       		.uleb128 0x49
 1831 00e4 13       		.uleb128 0x13
 1832 00e5 01       		.uleb128 0x1
 1833 00e6 13       		.uleb128 0x13
 1834 00e7 00       		.byte	0
 1835 00e8 00       		.byte	0
 1836 00e9 14       		.uleb128 0x14
 1837 00ea 21       		.uleb128 0x21
 1838 00eb 00       		.byte	0
 1839 00ec 49       		.uleb128 0x49
 1840 00ed 13       		.uleb128 0x13
 1841 00ee 2F       		.uleb128 0x2f
 1842 00ef 0B       		.uleb128 0xb
 1843 00f0 00       		.byte	0
 1844 00f1 00       		.byte	0
 1845 00f2 15       		.uleb128 0x15
 1846 00f3 21       		.uleb128 0x21
 1847 00f4 00       		.byte	0
 1848 00f5 49       		.uleb128 0x49
 1849 00f6 13       		.uleb128 0x13
 1850 00f7 2F       		.uleb128 0x2f
 1851 00f8 05       		.uleb128 0x5
 1852 00f9 00       		.byte	0
 1853 00fa 00       		.byte	0
 1854 00fb 16       		.uleb128 0x16
 1855 00fc 16       		.uleb128 0x16
 1856 00fd 00       		.byte	0
 1857 00fe 03       		.uleb128 0x3
 1858 00ff 0E       		.uleb128 0xe
 1859 0100 3A       		.uleb128 0x3a
 1860 0101 0B       		.uleb128 0xb
 1861 0102 3B       		.uleb128 0x3b
 1862 0103 05       		.uleb128 0x5
 1863 0104 49       		.uleb128 0x49
 1864 0105 13       		.uleb128 0x13
 1865 0106 00       		.byte	0
 1866 0107 00       		.byte	0
 1867 0108 17       		.uleb128 0x17
 1868 0109 13       		.uleb128 0x13
 1869 010a 01       		.byte	0x1
 1870 010b 0B       		.uleb128 0xb
 1871 010c 0B       		.uleb128 0xb
 1872 010d 3A       		.uleb128 0x3a
 1873 010e 0B       		.uleb128 0xb
 1874 010f 3B       		.uleb128 0x3b
 1875 0110 05       		.uleb128 0x5
ARM GAS  /tmp/ccEOzueA.s 			page 48


 1876 0111 01       		.uleb128 0x1
 1877 0112 13       		.uleb128 0x13
 1878 0113 00       		.byte	0
 1879 0114 00       		.byte	0
 1880 0115 18       		.uleb128 0x18
 1881 0116 26       		.uleb128 0x26
 1882 0117 00       		.byte	0
 1883 0118 49       		.uleb128 0x49
 1884 0119 13       		.uleb128 0x13
 1885 011a 00       		.byte	0
 1886 011b 00       		.byte	0
 1887 011c 19       		.uleb128 0x19
 1888 011d 0D       		.uleb128 0xd
 1889 011e 00       		.byte	0
 1890 011f 03       		.uleb128 0x3
 1891 0120 08       		.uleb128 0x8
 1892 0121 3A       		.uleb128 0x3a
 1893 0122 0B       		.uleb128 0xb
 1894 0123 3B       		.uleb128 0x3b
 1895 0124 0B       		.uleb128 0xb
 1896 0125 49       		.uleb128 0x49
 1897 0126 13       		.uleb128 0x13
 1898 0127 38       		.uleb128 0x38
 1899 0128 0B       		.uleb128 0xb
 1900 0129 00       		.byte	0
 1901 012a 00       		.byte	0
 1902 012b 1A       		.uleb128 0x1a
 1903 012c 13       		.uleb128 0x13
 1904 012d 01       		.byte	0x1
 1905 012e 0B       		.uleb128 0xb
 1906 012f 0B       		.uleb128 0xb
 1907 0130 3A       		.uleb128 0x3a
 1908 0131 0B       		.uleb128 0xb
 1909 0132 3B       		.uleb128 0x3b
 1910 0133 0B       		.uleb128 0xb
 1911 0134 01       		.uleb128 0x1
 1912 0135 13       		.uleb128 0x13
 1913 0136 00       		.byte	0
 1914 0137 00       		.byte	0
 1915 0138 1B       		.uleb128 0x1b
 1916 0139 17       		.uleb128 0x17
 1917 013a 01       		.byte	0x1
 1918 013b 0B       		.uleb128 0xb
 1919 013c 0B       		.uleb128 0xb
 1920 013d 3A       		.uleb128 0x3a
 1921 013e 0B       		.uleb128 0xb
 1922 013f 3B       		.uleb128 0x3b
 1923 0140 0B       		.uleb128 0xb
 1924 0141 01       		.uleb128 0x1
 1925 0142 13       		.uleb128 0x13
 1926 0143 00       		.byte	0
 1927 0144 00       		.byte	0
 1928 0145 1C       		.uleb128 0x1c
 1929 0146 0D       		.uleb128 0xd
 1930 0147 00       		.byte	0
 1931 0148 03       		.uleb128 0x3
 1932 0149 0E       		.uleb128 0xe
ARM GAS  /tmp/ccEOzueA.s 			page 49


 1933 014a 3A       		.uleb128 0x3a
 1934 014b 0B       		.uleb128 0xb
 1935 014c 3B       		.uleb128 0x3b
 1936 014d 05       		.uleb128 0x5
 1937 014e 49       		.uleb128 0x49
 1938 014f 13       		.uleb128 0x13
 1939 0150 00       		.byte	0
 1940 0151 00       		.byte	0
 1941 0152 1D       		.uleb128 0x1d
 1942 0153 2E       		.uleb128 0x2e
 1943 0154 01       		.byte	0x1
 1944 0155 3F       		.uleb128 0x3f
 1945 0156 19       		.uleb128 0x19
 1946 0157 03       		.uleb128 0x3
 1947 0158 0E       		.uleb128 0xe
 1948 0159 3A       		.uleb128 0x3a
 1949 015a 0B       		.uleb128 0xb
 1950 015b 3B       		.uleb128 0x3b
 1951 015c 0B       		.uleb128 0xb
 1952 015d 27       		.uleb128 0x27
 1953 015e 19       		.uleb128 0x19
 1954 015f 11       		.uleb128 0x11
 1955 0160 01       		.uleb128 0x1
 1956 0161 12       		.uleb128 0x12
 1957 0162 06       		.uleb128 0x6
 1958 0163 40       		.uleb128 0x40
 1959 0164 18       		.uleb128 0x18
 1960 0165 9742     		.uleb128 0x2117
 1961 0167 19       		.uleb128 0x19
 1962 0168 01       		.uleb128 0x1
 1963 0169 13       		.uleb128 0x13
 1964 016a 00       		.byte	0
 1965 016b 00       		.byte	0
 1966 016c 1E       		.uleb128 0x1e
 1967 016d 05       		.uleb128 0x5
 1968 016e 00       		.byte	0
 1969 016f 03       		.uleb128 0x3
 1970 0170 08       		.uleb128 0x8
 1971 0171 3A       		.uleb128 0x3a
 1972 0172 0B       		.uleb128 0xb
 1973 0173 3B       		.uleb128 0x3b
 1974 0174 0B       		.uleb128 0xb
 1975 0175 49       		.uleb128 0x49
 1976 0176 13       		.uleb128 0x13
 1977 0177 02       		.uleb128 0x2
 1978 0178 17       		.uleb128 0x17
 1979 0179 00       		.byte	0
 1980 017a 00       		.byte	0
 1981 017b 1F       		.uleb128 0x1f
 1982 017c 05       		.uleb128 0x5
 1983 017d 00       		.byte	0
 1984 017e 03       		.uleb128 0x3
 1985 017f 0E       		.uleb128 0xe
 1986 0180 3A       		.uleb128 0x3a
 1987 0181 0B       		.uleb128 0xb
 1988 0182 3B       		.uleb128 0x3b
 1989 0183 0B       		.uleb128 0xb
ARM GAS  /tmp/ccEOzueA.s 			page 50


 1990 0184 49       		.uleb128 0x49
 1991 0185 13       		.uleb128 0x13
 1992 0186 02       		.uleb128 0x2
 1993 0187 17       		.uleb128 0x17
 1994 0188 00       		.byte	0
 1995 0189 00       		.byte	0
 1996 018a 20       		.uleb128 0x20
 1997 018b 34       		.uleb128 0x34
 1998 018c 00       		.byte	0
 1999 018d 03       		.uleb128 0x3
 2000 018e 0E       		.uleb128 0xe
 2001 018f 49       		.uleb128 0x49
 2002 0190 13       		.uleb128 0x13
 2003 0191 34       		.uleb128 0x34
 2004 0192 19       		.uleb128 0x19
 2005 0193 00       		.byte	0
 2006 0194 00       		.byte	0
 2007 0195 21       		.uleb128 0x21
 2008 0196 34       		.uleb128 0x34
 2009 0197 00       		.byte	0
 2010 0198 03       		.uleb128 0x3
 2011 0199 0E       		.uleb128 0xe
 2012 019a 3A       		.uleb128 0x3a
 2013 019b 0B       		.uleb128 0xb
 2014 019c 3B       		.uleb128 0x3b
 2015 019d 05       		.uleb128 0x5
 2016 019e 49       		.uleb128 0x49
 2017 019f 13       		.uleb128 0x13
 2018 01a0 3F       		.uleb128 0x3f
 2019 01a1 19       		.uleb128 0x19
 2020 01a2 3C       		.uleb128 0x3c
 2021 01a3 19       		.uleb128 0x19
 2022 01a4 00       		.byte	0
 2023 01a5 00       		.byte	0
 2024 01a6 22       		.uleb128 0x22
 2025 01a7 34       		.uleb128 0x34
 2026 01a8 00       		.byte	0
 2027 01a9 03       		.uleb128 0x3
 2028 01aa 08       		.uleb128 0x8
 2029 01ab 3A       		.uleb128 0x3a
 2030 01ac 0B       		.uleb128 0xb
 2031 01ad 3B       		.uleb128 0x3b
 2032 01ae 05       		.uleb128 0x5
 2033 01af 49       		.uleb128 0x49
 2034 01b0 13       		.uleb128 0x13
 2035 01b1 3F       		.uleb128 0x3f
 2036 01b2 19       		.uleb128 0x19
 2037 01b3 3C       		.uleb128 0x3c
 2038 01b4 19       		.uleb128 0x19
 2039 01b5 00       		.byte	0
 2040 01b6 00       		.byte	0
 2041 01b7 00       		.byte	0
 2042              		.section	.debug_loc,"",%progbits
 2043              	.Ldebug_loc0:
 2044              	.LLST0:
 2045 0000 00000000 		.4byte	.LVL0
 2046 0004 1E000000 		.4byte	.LVL2
ARM GAS  /tmp/ccEOzueA.s 			page 51


 2047 0008 0100     		.2byte	0x1
 2048 000a 50       		.byte	0x50
 2049 000b 1E000000 		.4byte	.LVL2
 2050 000f 34000000 		.4byte	.LFE260
 2051 0013 0700     		.2byte	0x7
 2052 0015 72       		.byte	0x72
 2053 0016 80BEFCFF 		.sleb128 536813312
 2053      01
 2054 001b 9F       		.byte	0x9f
 2055 001c 00000000 		.4byte	0
 2056 0020 00000000 		.4byte	0
 2057              	.LLST1:
 2058 0024 00000000 		.4byte	.LVL0
 2059 0028 16000000 		.4byte	.LVL1
 2060 002c 0100     		.2byte	0x1
 2061 002e 51       		.byte	0x51
 2062 002f 16000000 		.4byte	.LVL1
 2063 0033 34000000 		.4byte	.LFE260
 2064 0037 0400     		.2byte	0x4
 2065 0039 F3       		.byte	0xf3
 2066 003a 01       		.uleb128 0x1
 2067 003b 51       		.byte	0x51
 2068 003c 9F       		.byte	0x9f
 2069 003d 00000000 		.4byte	0
 2070 0041 00000000 		.4byte	0
 2071              	.LLST2:
 2072 0045 00000000 		.4byte	.LVL3
 2073 0049 10000000 		.4byte	.LVL4
 2074 004d 0100     		.2byte	0x1
 2075 004f 50       		.byte	0x50
 2076 0050 10000000 		.4byte	.LVL4
 2077 0054 28000000 		.4byte	.LFE261
 2078 0058 0700     		.2byte	0x7
 2079 005a 70       		.byte	0x70
 2080 005b 80BEFCFF 		.sleb128 536813312
 2080      01
 2081 0060 9F       		.byte	0x9f
 2082 0061 00000000 		.4byte	0
 2083 0065 00000000 		.4byte	0
 2084              	.LLST3:
 2085 0069 00000000 		.4byte	.LVL5
 2086 006d 04000000 		.4byte	.LVL6
 2087 0071 0100     		.2byte	0x1
 2088 0073 50       		.byte	0x50
 2089 0074 04000000 		.4byte	.LVL6
 2090 0078 08000000 		.4byte	.LVL7
 2091 007c 0700     		.2byte	0x7
 2092 007e 70       		.byte	0x70
 2093 007f 80808080 		.sleb128 536870912
 2093      02
 2094 0084 9F       		.byte	0x9f
 2095 0085 08000000 		.4byte	.LVL7
 2096 0089 10000000 		.4byte	.LFE262
 2097 008d 0700     		.2byte	0x7
 2098 008f 70       		.byte	0x70
 2099 0090 80A6FCFF 		.sleb128 536810240
 2099      01
ARM GAS  /tmp/ccEOzueA.s 			page 52


 2100 0095 9F       		.byte	0x9f
 2101 0096 00000000 		.4byte	0
 2102 009a 00000000 		.4byte	0
 2103              	.LLST4:
 2104 009e 00000000 		.4byte	.LVL5
 2105 00a2 0A000000 		.4byte	.LVL8
 2106 00a6 0100     		.2byte	0x1
 2107 00a8 51       		.byte	0x51
 2108 00a9 0A000000 		.4byte	.LVL8
 2109 00ad 10000000 		.4byte	.LFE262
 2110 00b1 0400     		.2byte	0x4
 2111 00b3 F3       		.byte	0xf3
 2112 00b4 01       		.uleb128 0x1
 2113 00b5 51       		.byte	0x51
 2114 00b6 9F       		.byte	0x9f
 2115 00b7 00000000 		.4byte	0
 2116 00bb 00000000 		.4byte	0
 2117              	.LLST5:
 2118 00bf 00000000 		.4byte	.LVL9
 2119 00c3 08000000 		.4byte	.LVL10
 2120 00c7 0100     		.2byte	0x1
 2121 00c9 50       		.byte	0x50
 2122 00ca 08000000 		.4byte	.LVL10
 2123 00ce 1C000000 		.4byte	.LFE263
 2124 00d2 0400     		.2byte	0x4
 2125 00d4 F3       		.byte	0xf3
 2126 00d5 01       		.uleb128 0x1
 2127 00d6 50       		.byte	0x50
 2128 00d7 9F       		.byte	0x9f
 2129 00d8 00000000 		.4byte	0
 2130 00dc 00000000 		.4byte	0
 2131              		.section	.debug_aranges,"",%progbits
 2132 0000 34000000 		.4byte	0x34
 2133 0004 0200     		.2byte	0x2
 2134 0006 00000000 		.4byte	.Ldebug_info0
 2135 000a 04       		.byte	0x4
 2136 000b 00       		.byte	0
 2137 000c 0000     		.2byte	0
 2138 000e 0000     		.2byte	0
 2139 0010 00000000 		.4byte	.LFB260
 2140 0014 34000000 		.4byte	.LFE260-.LFB260
 2141 0018 00000000 		.4byte	.LFB261
 2142 001c 28000000 		.4byte	.LFE261-.LFB261
 2143 0020 00000000 		.4byte	.LFB262
 2144 0024 10000000 		.4byte	.LFE262-.LFB262
 2145 0028 00000000 		.4byte	.LFB263
 2146 002c 1C000000 		.4byte	.LFE263-.LFB263
 2147 0030 00000000 		.4byte	0
 2148 0034 00000000 		.4byte	0
 2149              		.section	.debug_ranges,"",%progbits
 2150              	.Ldebug_ranges0:
 2151 0000 00000000 		.4byte	.LFB260
 2152 0004 34000000 		.4byte	.LFE260
 2153 0008 00000000 		.4byte	.LFB261
 2154 000c 28000000 		.4byte	.LFE261
 2155 0010 00000000 		.4byte	.LFB262
 2156 0014 10000000 		.4byte	.LFE262
ARM GAS  /tmp/ccEOzueA.s 			page 53


 2157 0018 00000000 		.4byte	.LFB263
 2158 001c 1C000000 		.4byte	.LFE263
 2159 0020 00000000 		.4byte	0
 2160 0024 00000000 		.4byte	0
 2161              		.section	.debug_line,"",%progbits
 2162              	.Ldebug_line0:
 2163 0000 0A020000 		.section	.debug_str,"MS",%progbits,1
 2163      0200AC01 
 2163      00000201 
 2163      FB0E0D00 
 2163      01010101 
 2164              	.LASF45:
 2165 0000 74687265 		.ascii	"threads_list_t\000"
 2165      6164735F 
 2165      6C697374 
 2165      5F7400
 2166              	.LASF84:
 2167 000f 49435052 		.ascii	"ICPR\000"
 2167      00
 2168              	.LASF50:
 2169 0014 72656164 		.ascii	"ready_list_t\000"
 2169      795F6C69 
 2169      73745F74 
 2169      00
 2170              	.LASF116:
 2171 0021 77747472 		.ascii	"wttrp\000"
 2171      7000
 2172              	.LASF113:
 2173 0027 7264796D 		.ascii	"rdymsg\000"
 2173      736700
 2174              	.LASF16:
 2175 002e 75696E74 		.ascii	"uint64_t\000"
 2175      36345F74 
 2175      00
 2176              	.LASF5:
 2177 0037 5F5F7569 		.ascii	"__uint8_t\000"
 2177      6E74385F 
 2177      7400
 2178              	.LASF110:
 2179 0041 706F7274 		.ascii	"port_intctx\000"
 2179      5F696E74 
 2179      63747800 
 2180              	.LASF69:
 2181 004d 73797374 		.ascii	"system_debug_t\000"
 2181      656D5F64 
 2181      65627567 
 2181      5F7400
 2182              	.LASF138:
 2183 005c 2F757372 		.ascii	"/usr/src/chibios/os/hal/ports/common/ARMCMx/nvic.c\000"
 2183      2F737263 
 2183      2F636869 
 2183      62696F73 
 2183      2F6F732F 
 2184              	.LASF12:
 2185 008f 6C6F6E67 		.ascii	"long long unsigned int\000"
 2185      206C6F6E 
 2185      6720756E 
ARM GAS  /tmp/ccEOzueA.s 			page 54


 2185      7369676E 
 2185      65642069 
 2186              	.LASF114:
 2187 00a6 65786974 		.ascii	"exitcode\000"
 2187      636F6465 
 2187      00
 2188              	.LASF76:
 2189 00af 6D61696E 		.ascii	"mainthread\000"
 2189      74687265 
 2189      616400
 2190              	.LASF66:
 2191 00ba 76697274 		.ascii	"virtual_timers_list_t\000"
 2191      75616C5F 
 2191      74696D65 
 2191      72735F6C 
 2191      6973745F 
 2192              	.LASF92:
 2193 00d0 43505549 		.ascii	"CPUID\000"
 2193      4400
 2194              	.LASF49:
 2195 00d6 63685F74 		.ascii	"ch_threads_queue\000"
 2195      68726561 
 2195      64735F71 
 2195      75657565 
 2195      00
 2196              	.LASF82:
 2197 00e7 49535052 		.ascii	"ISPR\000"
 2197      00
 2198              	.LASF29:
 2199 00ec 705F7072 		.ascii	"p_prio\000"
 2199      696F00
 2200              	.LASF131:
 2201 00f3 6E766963 		.ascii	"nvicEnableVector\000"
 2201      456E6162 
 2201      6C655665 
 2201      63746F72 
 2201      00
 2202              	.LASF104:
 2203 0104 49534152 		.ascii	"ISAR\000"
 2203      00
 2204              	.LASF10:
 2205 0109 6C6F6E67 		.ascii	"long long int\000"
 2205      206C6F6E 
 2205      6720696E 
 2205      7400
 2206              	.LASF1:
 2207 0117 7369676E 		.ascii	"signed char\000"
 2207      65642063 
 2207      68617200 
 2208              	.LASF43:
 2209 0123 705F6D70 		.ascii	"p_mpool\000"
 2209      6F6F6C00 
 2210              	.LASF124:
 2211 012b 6D5F7175 		.ascii	"m_queue\000"
 2211      65756500 
 2212              	.LASF139:
 2213 0133 5F5F6675 		.ascii	"__func__.7599\000"
ARM GAS  /tmp/ccEOzueA.s 			page 55


 2213      6E635F5F 
 2213      2E373539 
 2213      3900
 2214              	.LASF135:
 2215 0141 6E766963 		.ascii	"nvicClearPending\000"
 2215      436C6561 
 2215      7250656E 
 2215      64696E67 
 2215      00
 2216              	.LASF75:
 2217 0152 76746C69 		.ascii	"vtlist\000"
 2217      737400
 2218              	.LASF73:
 2219 0159 63685F73 		.ascii	"ch_system\000"
 2219      79737465 
 2219      6D00
 2220              	.LASF7:
 2221 0163 6C6F6E67 		.ascii	"long int\000"
 2221      20696E74 
 2221      00
 2222              	.LASF19:
 2223 016c 74737461 		.ascii	"tstate_t\000"
 2223      74655F74 
 2223      00
 2224              	.LASF31:
 2225 0175 705F6E65 		.ascii	"p_newer\000"
 2225      77657200 
 2226              	.LASF121:
 2227 017d 735F7175 		.ascii	"s_queue\000"
 2227      65756500 
 2228              	.LASF101:
 2229 0185 42464152 		.ascii	"BFAR\000"
 2229      00
 2230              	.LASF102:
 2231 018a 41465352 		.ascii	"AFSR\000"
 2231      00
 2232              	.LASF55:
 2233 018f 725F6E65 		.ascii	"r_newer\000"
 2233      77657200 
 2234              	.LASF107:
 2235 0197 72656761 		.ascii	"regarm_t\000"
 2235      726D5F74 
 2235      00
 2236              	.LASF62:
 2237 01a0 76745F70 		.ascii	"vt_prev\000"
 2237      72657600 
 2238              	.LASF106:
 2239 01a8 5343425F 		.ascii	"SCB_Type\000"
 2239      54797065 
 2239      00
 2240              	.LASF128:
 2241 01b1 6D757465 		.ascii	"mutex_t\000"
 2241      785F7400 
 2242              	.LASF77:
 2243 01b9 69646C65 		.ascii	"idle_thread_wa\000"
 2243      5F746872 
 2243      6561645F 
ARM GAS  /tmp/ccEOzueA.s 			page 56


 2243      776100
 2244              	.LASF24:
 2245 01c8 636E745F 		.ascii	"cnt_t\000"
 2245      7400
 2246              	.LASF0:
 2247 01ce 756E7369 		.ascii	"unsigned int\000"
 2247      676E6564 
 2247      20696E74 
 2247      00
 2248              	.LASF61:
 2249 01db 76745F6E 		.ascii	"vt_next\000"
 2249      65787400 
 2250              	.LASF132:
 2251 01e3 6E766963 		.ascii	"nvicDisableVector\000"
 2251      44697361 
 2251      626C6556 
 2251      6563746F 
 2251      7200
 2252              	.LASF117:
 2253 01f5 77747365 		.ascii	"wtsemp\000"
 2253      6D7000
 2254              	.LASF38:
 2255 01fc 705F6D73 		.ascii	"p_msgqueue\000"
 2255      67717565 
 2255      756500
 2256              	.LASF94:
 2257 0207 56544F52 		.ascii	"VTOR\000"
 2257      00
 2258              	.LASF122:
 2259 020c 735F636E 		.ascii	"s_cnt\000"
 2259      7400
 2260              	.LASF46:
 2261 0212 63685F74 		.ascii	"ch_thread\000"
 2261      68726561 
 2261      6400
 2262              	.LASF93:
 2263 021c 49435352 		.ascii	"ICSR\000"
 2263      00
 2264              	.LASF22:
 2265 0221 6D73675F 		.ascii	"msg_t\000"
 2265      7400
 2266              	.LASF95:
 2267 0227 41495243 		.ascii	"AIRCR\000"
 2267      5200
 2268              	.LASF99:
 2269 022d 44465352 		.ascii	"DFSR\000"
 2269      00
 2270              	.LASF100:
 2271 0232 4D4D4641 		.ascii	"MMFAR\000"
 2271      5200
 2272              	.LASF72:
 2273 0238 63685F73 		.ascii	"ch_system_t\000"
 2273      79737465 
 2273      6D5F7400 
 2274              	.LASF18:
 2275 0244 746D6F64 		.ascii	"tmode_t\000"
 2275      655F7400 
ARM GAS  /tmp/ccEOzueA.s 			page 57


 2276              	.LASF51:
 2277 024c 63685F72 		.ascii	"ch_ready_list\000"
 2277      65616479 
 2277      5F6C6973 
 2277      7400
 2278              	.LASF23:
 2279 025a 6576656E 		.ascii	"eventmask_t\000"
 2279      746D6173 
 2279      6B5F7400 
 2280              	.LASF6:
 2281 0266 5F5F696E 		.ascii	"__int32_t\000"
 2281      7433325F 
 2281      7400
 2282              	.LASF108:
 2283 0270 73746B61 		.ascii	"stkalign_t\000"
 2283      6C69676E 
 2283      5F7400
 2284              	.LASF134:
 2285 027b 68616E64 		.ascii	"handler\000"
 2285      6C657200 
 2286              	.LASF137:
 2287 0283 474E5520 		.ascii	"GNU C 4.8.4 20141219 (release) -mcpu=cortex-m4 -mno"
 2287      4320342E 
 2287      382E3420 
 2287      32303134 
 2287      31323139 
 2288 02b6 2D746875 		.ascii	"-thumb-interwork -mthumb -ggdb -O2 -fomit-frame-poi"
 2288      6D622D69 
 2288      6E746572 
 2288      776F726B 
 2288      202D6D74 
 2289 02e9 6E746572 		.ascii	"nter -falign-functions=16 -ffunction-sections -fdat"
 2289      202D6661 
 2289      6C69676E 
 2289      2D66756E 
 2289      6374696F 
 2290 031c 612D7365 		.ascii	"a-sections -fno-common -flto\000"
 2290      6374696F 
 2290      6E73202D 
 2290      666E6F2D 
 2290      636F6D6D 
 2291              	.LASF59:
 2292 0339 76697274 		.ascii	"virtual_timer_t\000"
 2292      75616C5F 
 2292      74696D65 
 2292      725F7400 
 2293              	.LASF37:
 2294 0349 705F7761 		.ascii	"p_waiting\000"
 2294      6974696E 
 2294      6700
 2295              	.LASF90:
 2296 0353 73697A65 		.ascii	"sizetype\000"
 2296      74797065 
 2296      00
 2297              	.LASF44:
 2298 035c 74687265 		.ascii	"thread_reference_t\000"
 2298      61645F72 
ARM GAS  /tmp/ccEOzueA.s 			page 58


 2298      65666572 
 2298      656E6365 
 2298      5F7400
 2299              	.LASF67:
 2300 036f 63685F76 		.ascii	"ch_virtual_timers_list\000"
 2300      69727475 
 2300      616C5F74 
 2300      696D6572 
 2300      735F6C69 
 2301              	.LASF97:
 2302 0386 43465352 		.ascii	"CFSR\000"
 2302      00
 2303              	.LASF86:
 2304 038b 49414252 		.ascii	"IABR\000"
 2304      00
 2305              	.LASF68:
 2306 0390 76745F6C 		.ascii	"vt_lasttime\000"
 2306      61737474 
 2306      696D6500 
 2307              	.LASF32:
 2308 039c 705F6F6C 		.ascii	"p_older\000"
 2308      64657200 
 2309              	.LASF54:
 2310 03a4 725F6374 		.ascii	"r_ctx\000"
 2310      7800
 2311              	.LASF112:
 2312 03aa 746D5F63 		.ascii	"tm_calibration_t\000"
 2312      616C6962 
 2312      72617469 
 2312      6F6E5F74 
 2312      00
 2313              	.LASF80:
 2314 03bb 49434552 		.ascii	"ICER\000"
 2314      00
 2315              	.LASF130:
 2316 03c0 7072696F 		.ascii	"prio\000"
 2316      00
 2317              	.LASF56:
 2318 03c5 725F6F6C 		.ascii	"r_older\000"
 2318      64657200 
 2319              	.LASF11:
 2320 03cd 5F5F7569 		.ascii	"__uint64_t\000"
 2320      6E743634 
 2320      5F7400
 2321              	.LASF20:
 2322 03d8 74726566 		.ascii	"trefs_t\000"
 2322      735F7400 
 2323              	.LASF79:
 2324 03e0 52455345 		.ascii	"RESERVED0\000"
 2324      52564544 
 2324      3000
 2325              	.LASF83:
 2326 03ea 52455345 		.ascii	"RESERVED2\000"
 2326      52564544 
 2326      3200
 2327              	.LASF85:
 2328 03f4 52455345 		.ascii	"RESERVED3\000"
ARM GAS  /tmp/ccEOzueA.s 			page 59


 2328      52564544 
 2328      3300
 2329              	.LASF87:
 2330 03fe 52455345 		.ascii	"RESERVED4\000"
 2330      52564544 
 2330      3400
 2331              	.LASF28:
 2332 0408 705F7072 		.ascii	"p_prev\000"
 2332      657600
 2333              	.LASF21:
 2334 040f 74707269 		.ascii	"tprio_t\000"
 2334      6F5F7400 
 2335              	.LASF70:
 2336 0417 63685F73 		.ascii	"ch_system_debug\000"
 2336      79737465 
 2336      6D5F6465 
 2336      62756700 
 2337              	.LASF129:
 2338 0427 5F426F6F 		.ascii	"_Bool\000"
 2338      6C00
 2339              	.LASF14:
 2340 042d 696E7433 		.ascii	"int32_t\000"
 2340      325F7400 
 2341              	.LASF2:
 2342 0435 756E7369 		.ascii	"unsigned char\000"
 2342      676E6564 
 2342      20636861 
 2342      7200
 2343              	.LASF96:
 2344 0443 53484353 		.ascii	"SHCSR\000"
 2344      5200
 2345              	.LASF136:
 2346 0449 49544D5F 		.ascii	"ITM_RxBuffer\000"
 2346      52784275 
 2346      66666572 
 2346      00
 2347              	.LASF34:
 2348 0456 705F7374 		.ascii	"p_state\000"
 2348      61746500 
 2349              	.LASF41:
 2350 045e 705F6D74 		.ascii	"p_mtxlist\000"
 2350      786C6973 
 2350      7400
 2351              	.LASF3:
 2352 0468 73686F72 		.ascii	"short int\000"
 2352      7420696E 
 2352      7400
 2353              	.LASF78:
 2354 0472 49534552 		.ascii	"ISER\000"
 2354      00
 2355              	.LASF91:
 2356 0477 4E564943 		.ascii	"NVIC_Type\000"
 2356      5F547970 
 2356      6500
 2357              	.LASF133:
 2358 0481 6E766963 		.ascii	"nvicSetSystemHandlerPriority\000"
 2358      53657453 
ARM GAS  /tmp/ccEOzueA.s 			page 60


 2358      79737465 
 2358      6D48616E 
 2358      646C6572 
 2359              	.LASF53:
 2360 049e 725F7072 		.ascii	"r_prio\000"
 2360      696F00
 2361              	.LASF119:
 2362 04a5 65776D61 		.ascii	"ewmask\000"
 2362      736B00
 2363              	.LASF27:
 2364 04ac 705F6E65 		.ascii	"p_next\000"
 2364      787400
 2365              	.LASF35:
 2366 04b3 705F666C 		.ascii	"p_flags\000"
 2366      61677300 
 2367              	.LASF4:
 2368 04bb 73686F72 		.ascii	"short unsigned int\000"
 2368      7420756E 
 2368      7369676E 
 2368      65642069 
 2368      6E7400
 2369              	.LASF60:
 2370 04ce 63685F76 		.ascii	"ch_virtual_timer\000"
 2370      69727475 
 2370      616C5F74 
 2370      696D6572 
 2370      00
 2371              	.LASF120:
 2372 04df 63685F73 		.ascii	"ch_semaphore\000"
 2372      656D6170 
 2372      686F7265 
 2372      00
 2373              	.LASF40:
 2374 04ec 705F6570 		.ascii	"p_epending\000"
 2374      656E6469 
 2374      6E6700
 2375              	.LASF88:
 2376 04f7 52455345 		.ascii	"RESERVED5\000"
 2376      52564544 
 2376      3500
 2377              	.LASF15:
 2378 0501 75696E74 		.ascii	"uint32_t\000"
 2378      33325F74 
 2378      00
 2379              	.LASF118:
 2380 050a 77746D74 		.ascii	"wtmtxp\000"
 2380      787000
 2381              	.LASF52:
 2382 0511 725F7175 		.ascii	"r_queue\000"
 2382      65756500 
 2383              	.LASF63:
 2384 0519 76745F64 		.ascii	"vt_delta\000"
 2384      656C7461 
 2384      00
 2385              	.LASF47:
 2386 0522 63685F74 		.ascii	"ch_threads_list\000"
 2386      68726561 
ARM GAS  /tmp/ccEOzueA.s 			page 61


 2386      64735F6C 
 2386      69737400 
 2387              	.LASF9:
 2388 0532 6C6F6E67 		.ascii	"long unsigned int\000"
 2388      20756E73 
 2388      69676E65 
 2388      6420696E 
 2388      7400
 2389              	.LASF57:
 2390 0544 725F6375 		.ascii	"r_current\000"
 2390      7272656E 
 2390      7400
 2391              	.LASF127:
 2392 054e 63686172 		.ascii	"char\000"
 2392      00
 2393              	.LASF26:
 2394 0553 74687265 		.ascii	"thread_t\000"
 2394      61645F74 
 2394      00
 2395              	.LASF126:
 2396 055c 6D5F6E65 		.ascii	"m_next\000"
 2396      787400
 2397              	.LASF25:
 2398 0563 73797374 		.ascii	"systime_t\000"
 2398      696D655F 
 2398      7400
 2399              	.LASF42:
 2400 056d 705F7265 		.ascii	"p_realprio\000"
 2400      616C7072 
 2400      696F00
 2401              	.LASF58:
 2402 0578 76746675 		.ascii	"vtfunc_t\000"
 2402      6E635F74 
 2402      00
 2403              	.LASF8:
 2404 0581 5F5F7569 		.ascii	"__uint32_t\000"
 2404      6E743332 
 2404      5F7400
 2405              	.LASF71:
 2406 058c 70616E69 		.ascii	"panic_msg\000"
 2406      635F6D73 
 2406      6700
 2407              	.LASF111:
 2408 0596 6F666673 		.ascii	"offset\000"
 2408      657400
 2409              	.LASF109:
 2410 059d 636F6E74 		.ascii	"context\000"
 2410      65787400 
 2411              	.LASF17:
 2412 05a5 7274636E 		.ascii	"rtcnt_t\000"
 2412      745F7400 
 2413              	.LASF65:
 2414 05ad 76745F70 		.ascii	"vt_par\000"
 2414      617200
 2415              	.LASF48:
 2416 05b4 74687265 		.ascii	"threads_queue_t\000"
 2416      6164735F 
ARM GAS  /tmp/ccEOzueA.s 			page 62


 2416      71756575 
 2416      655F7400 
 2417              	.LASF123:
 2418 05c4 63685F6D 		.ascii	"ch_mutex\000"
 2418      75746578 
 2418      00
 2419              	.LASF36:
 2420 05cd 705F7265 		.ascii	"p_refs\000"
 2420      667300
 2421              	.LASF103:
 2422 05d4 4D4D4652 		.ascii	"MMFR\000"
 2422      00
 2423              	.LASF74:
 2424 05d9 726C6973 		.ascii	"rlist\000"
 2424      7400
 2425              	.LASF13:
 2426 05df 75696E74 		.ascii	"uint8_t\000"
 2426      385F7400 
 2427              	.LASF81:
 2428 05e7 52534552 		.ascii	"RSERVED1\000"
 2428      56454431 
 2428      00
 2429              	.LASF89:
 2430 05f0 53544952 		.ascii	"STIR\000"
 2430      00
 2431              	.LASF115:
 2432 05f5 77746F62 		.ascii	"wtobjp\000"
 2432      6A7000
 2433              	.LASF33:
 2434 05fc 705F6E61 		.ascii	"p_name\000"
 2434      6D6500
 2435              	.LASF39:
 2436 0603 705F6D73 		.ascii	"p_msg\000"
 2436      6700
 2437              	.LASF105:
 2438 0609 43504143 		.ascii	"CPACR\000"
 2438      5200
 2439              	.LASF98:
 2440 060f 48465352 		.ascii	"HFSR\000"
 2440      00
 2441              	.LASF125:
 2442 0614 6D5F6F77 		.ascii	"m_owner\000"
 2442      6E657200 
 2443              	.LASF30:
 2444 061c 705F6374 		.ascii	"p_ctx\000"
 2444      7800
 2445              	.LASF64:
 2446 0622 76745F66 		.ascii	"vt_func\000"
 2446      756E6300 
 2447              		.comm	__gnu_lto_v1,1,1
 2448              		.ident	"GCC: (4.8.4-1+11-1) 4.8.4 20141219 (release)"
ARM GAS  /tmp/ccEOzueA.s 			page 63


DEFINED SYMBOLS
                            *ABS*:00000000 nvic.c
     /tmp/ccEOzueA.s:262    .text.nvicEnableVector:00000000 $t
     /tmp/ccEOzueA.s:268    .text.nvicEnableVector:00000000 nvicEnableVector
     /tmp/ccEOzueA.s:312    .text.nvicDisableVector:00000000 $t
     /tmp/ccEOzueA.s:318    .text.nvicDisableVector:00000000 nvicDisableVector
     /tmp/ccEOzueA.s:354    .text.nvicDisableVector:00000024 $d
     /tmp/ccEOzueA.s:359    .text.nvicSetSystemHandlerPriority:00000000 $t
     /tmp/ccEOzueA.s:365    .text.nvicSetSystemHandlerPriority:00000000 nvicSetSystemHandlerPriority
     /tmp/ccEOzueA.s:387    .text.nvicClearPending:00000000 $t
     /tmp/ccEOzueA.s:393    .text.nvicClearPending:00000000 nvicClearPending
     /tmp/ccEOzueA.s:414    .text.nvicClearPending:00000018 $d
                            *COM*:00000001 __gnu_lto_v1
                     .debug_frame:00000010 $d

NO UNDEFINED SYMBOLS
