ARM GAS  /tmp/ccEOzueA.s 			page 1


   1              		.syntax unified
   2              		.cpu cortex-m4
   3              		.fpu softvfp
   4              		.eabi_attribute 20, 1
   5              		.eabi_attribute 21, 1
   6              		.eabi_attribute 23, 3
   7              		.eabi_attribute 24, 1
   8              		.eabi_attribute 25, 1
   9              		.eabi_attribute 26, 1
  10              		.eabi_attribute 30, 2
  11              		.eabi_attribute 34, 1
  12              		.eabi_attribute 18, 4
  13              		.thumb
  14              		.file	"nvic.c"
  15              		.text
  16              	.Ltext0:
  17              		.section	.gnu.lto_.jmpfuncs.d5349abe9c05aa41,"",%progbits
  18 0000 789C6362 		.ascii	"x\234cb`b\300\006\270\2404\013\0033##\02333#\003\000"
  18      6062C006 
  18      B8A0340B 
  18      03332323 
  18      13333323 
  19 0016 01F00021 		.ascii	"\001\360\000!"
  20              		.text
  21              		.section	.gnu.lto_.inline.d5349abe9c05aa41,"",%progbits
  22 0000 789C6D4C 		.ascii	"x\234mL\313\025\200 \014KK\205\352\305\021\330\300%"
  22      CB158020 
  22      0C4B4B85 
  22      EAC511D8 
  22      C025
  23 0012 5D84911C 		.ascii	"]\204\221\034\305\021LQy\036\354!}\371*\024\177\267"
  23      C5114C51 
  23      791EEC21 
  23      7DF92A14 
  23      7FB7
  24 0024 3FDF8065 		.ascii	"?\337\200e\026\025\011\022`\371\334\220[U\350\261\032"
  24      16150912 
  24      60F9DC90 
  24      5B55E8B1 
  24      1A
  25 0035 C89CAAD3 		.ascii	"\310\234\252\323\363\302TD\222\265zG\350Z\037QL&\322"
  25      F3C25444 
  25      92B57A47 
  25      E85A1F51 
  25      4C26D2
  26 0048 57127B9F 		.ascii	"W\022{\237\201PP\362[\035\346\250\342\002a/\015\002"
  26      815050F2 
  26      5B1DE6A8 
  26      E202612F 
  26      0D02
  27              		.text
  28              		.section	.gnu.lto_.pureconst.d5349abe9c05aa41,"",%progbits
  29 0000 789C6362 		.ascii	"x\234cb`b\340d\200\000\026\006)F)&)f)\000\002\326\000"
  29      6062E064 
  29      80001606 
  29      29462926 
  29      29662900 
ARM GAS  /tmp/ccEOzueA.s 			page 2


  30 0017 80       		.ascii	"\200"
  31              		.text
  32              		.section	.gnu.lto_nvicEnableVector.d5349abe9c05aa41,"",%progbits
  33 0000 789C9D91 		.ascii	"x\234\235\221\277K\303@\024\307\337\2734\346GQW\235"
  33      BF4BC340 
  33      14C7DFBB 
  33      34E64751 
  33      579D
  34 0012 2CBA0862 		.ascii	",\272\010b#\010\2128\211\223C\227RA\3076C\032\260\215"
  34      23088A38 
  34      89934397 
  34      5241C736 
  34      431AB08D 
  35 0026 342A6E4D 		.ascii	"4*nM\233n:tp\261:XD\004\361\307\037 H\351\346P\305\315"
  35      9B6E3A74 
  35      70B13A58 
  35      4404F1C7 
  35      1F2048E9 
  36 003e 498AAB20 		.ascii	"I\212\253 \342$(\304w\211\215T\304\301#\271{w\357\373"
  36      E22428C4 
  36      77898D54 
  36      C4C123B9 
  36      7B77EFFB 
  37 0052 DEF7731C 		.ascii	"\336\367s\034\003\006?\307 \375I:\236\241\025\005@V"
  37      03063FC7 
  37      20FD493A 
  37      9EA11505 
  37      4056
  38 0064 BD0128C9 		.ascii	"\275\001(\311\014\221\007\200PdX\\F.\305a\250;N\265"
  38      0C910780 
  38      5064585C 
  38      462EC561 
  38      A83B4EB5 
  39 0078 7DF4F8C6 		.ascii	"}\364\370\306vw\032\225\003\347\303\363\020M\244\266"
  39      76771A95 
  39      03E7C3F3 
  39      104DA4B6 
  40 0088 53083AC2 		.ascii	"S\010:\302\022m0\346/,\322\355s\301\032m\317\333\277"
  40      126D30E6 
  40      2F2CD2ED 
  40      73C11A6D 
  40      CFDBBF
  41 009b AD3D0C60 		.ascii	"\255=\014`/b\216\027\231(\010|\022i\213\022E\021\031"
  41      2F628E17 
  41      9928087C 
  41      12698B12 
  41      451119
  42 00ae D258271F 		.ascii	"\322X'\037\2056\240\322$R\251\010\025\262\215\001w\240"
  42      8536A0D2 
  42      2452A908 
  42      15B28D01 
  42      77A0
  43 00c0 91A299B3 		.ascii	"\221\242\231\263-\"\343\253\320\202\362\223\353\275"
  43      2D22E3AB 
  43      D082F293 
  43      EBBD
  44 00ce 631A0F49 		.ascii	"c\032\017In 3\220\024-p\317\204\316\221@\247\034\252"
ARM GAS  /tmp/ccEOzueA.s 			page 3


  44      6E203390 
  44      142D70CF 
  44      84CE9140 
  44      A71CAA
  45 00e1 8743B5A0 		.ascii	"\207C\265\240\271\020$\306\341\324\251\224\234iJ\214"
  45      B91024C6 
  45      E1D4A994 
  45      9C694A8C 
  46 00f1 C1090FFB 		.ascii	"\301\011\017\373M\224\366\240FR\231\353\025\247\351"
  46      4D94F6A0 
  46      465299EB 
  46      15A7E9
  47 0100 3A7DFE7D 		.ascii	":}\376}\024\377\026\031\014nc\370`A$\370f\347\356\361"
  47      14FF1619 
  47      0C6E63F8 
  47      604124F8 
  47      66E7EEF1 
  48 0114 F668C74F 		.ascii	"\366h\307O\242</\002\321\367+?\273W!\236\354\327R\305"
  48      A23C2F02 
  48      D1F72B3F 
  48      BB57219E 
  48      ECD752C5 
  49 0128 6588A718 		.ascii	"e\210\247\030\201\035\014A\000\356\276\206r\225'D\344"
  49      811D0C41 
  49      00EEBE86 
  49      72952744 
  49      E4
  50 0139 2A1FFDFA 		.ascii	"*\037\375\372%\332\005?k\242\372\015\037\375\033\036"
  50      25DA053F 
  50      6BA2FA0D 
  50      1FFD1B1E 
  51 0149 BF90A510 		.ascii	"\277\220\245\020^\015\232\336\323\223\376\277-\373\255"
  51      5E0D9ADE 
  51      D393FEBF 
  51      2DFBAD
  52 0158 ED1D94DA 		.ascii	"\355\035\224\332[#A\323\316H\021\001=\031\327Oj\353"
  52      5B2341D3 
  52      CE481101 
  52      3D19D74F 
  52      6AEB
  53 016a 7641B30B 		.ascii	"vA\263\013\272\246g\315\214i\331\032}\331\364\212\266"
  53      BAA667CD 
  53      8C69D91A 
  53      7DD9F48A 
  53      B6
  54 017b 6A15D66C 		.ascii	"j\025\326lM\267r9+\257\315%\023\363\211M-\277a\352q"
  54      4DB77239 
  54      2BAFCD25 
  54      13F3894D 
  54      2DBF61EA 
  55 0190 1D847C7C 		.ascii	"\035\204||\342\023\343\340\227\226"
  55      E213E3E0 
  55      9796
  56              		.text
  57              		.section	.gnu.lto_nvicDisableVector.d5349abe9c05aa41,"",%progbits
  58 0000 789C7D50 		.ascii	"x\234}P=K\003A\020\235\267\227\323DA\261\2642h#\210"
  58      3D4B0341 
ARM GAS  /tmp/ccEOzueA.s 			page 4


  58      109DB797 
  58      D34441B1 
  58      B4326823 
  59 0015 594450C4 		.ascii	"YDP\304J\254\323H\004-\223+\222\003\223\223\234\212"
  59      4AACD348 
  59      042D932B 
  59      92039393 
  59      9C8A
  60 0027 5D2E5EEC 		.ascii	"].^\354,RX\370\321\030\354B\374\000\033A\220\020\260"
  60      2C5258F8 
  60      D118EC42 
  60      FC001B41 
  60      9010B0
  61 003a B088E03F 		.ascii	"\260\210\340?\0106\202\205\2106)\204s\366\222S\264p"
  61      08368285 
  61      88362984 
  61      73F69253 
  61      B470
  62 004c B8DB999D 		.ascii	"\270\333\231\235\367\346\315\314\012\022\364\327\206"
  62      F7E6CDCC 
  62      0A12F4D7 
  62      86
  63 0059 F9BF03D1 		.ascii	"\371\277\003\321\034{h\004Q~ *\206\005\240\002\002\025"
  63      1C7B6804 
  63      517E202A 
  63      8605A002 
  63      0215
  64 006b 040AAB50 		.ascii	"\004\012\253PT\214R\305q\312\255\335\347\2668\334\257"
  64      548C52C5 
  64      71CAADDD 
  64      E7B638DC 
  64      AF
  65 007c 974E9C4F 		.ascii	"\227N\234O\317\003L\260\354\014\310\000\255\360\005"
  65      CF034CB0 
  65      EC0CC800 
  65      ADF005
  66 008b 51DF89D0 		.ascii	"Q\337\211\320\357>\027\242\336\362\274\332\325\345S"
  66      EF3E17A2 
  66      DEF2BCDA 
  66      D5E553
  67 009a 15431120 		.ascii	"\025C\021 \253\252Lh\032%Qa\345\020_H\347C\325\351T"
  67      ABAA4C68 
  67      1A255161 
  67      E5105F48 
  67      E743D5E9 
  68 00af E2465152 		.ascii	"\342FQR\232l\011>\3254\313\020\312kMr\317\335\217\275"
  68      9A6C093E 
  68      D534CB10 
  68      CA6B4D72 
  68      CFDD8FBD 
  69 00c3 F1244EA1 		.ascii	"\361$N\241S\032\"\015\250\236\\G\324\244\235W\367\026"
  69      531A220D 
  69      A89E5C47 
  69      D4A49D57 
  69      F716
  70 00d5 01A631A6 		.ascii	"\001\2461\246\222\356\215\026\244B\234\365\351#>\335"
  70      92EE8D16 
ARM GAS  /tmp/ccEOzueA.s 			page 5


  70      A4429CF5 
  70      E9233EDD 
  71 00e5 3D73DFBF 		.ascii	"=s\337\277\351\272\002BP,\2055\356\337\372;\320$\325"
  71      E9BA0242 
  71      502C8535 
  71      EEDFFA3B 
  71      D024D5
  72 00f8 9C52D199 		.ascii	"\234R\321\2317\241OPU\205\203&z\216\351\210\371\275"
  72      37A14F50 
  72      55858326 
  72      7A8EE988 
  72      F9BD
  73 010a AA28EC34 		.ascii	"\252(\3544\\g\300\337=\354o\234Bgs\236\217\202H\367"
  73      5C67C0DF 
  73      3DEC6F9C 
  73      4267739E 
  73      8F8248F7 
  74 011e 45AF0F5E 		.ascii	"E\257\017^\332\370%;k\"\362#\333\367\277,\272b]}\037"
  74      DAF8253B 
  74      6B22F223 
  74      DBF7BF2C 
  74      BA625D7D 
  75 0133 8BA8E091 		.ascii	"\213\250\340\221\212\255\352XG8\260\004\323\370\315"
  75      8AADEA58 
  75      4738B004 
  75      D3F8CD
  76 0142 D408D372 		.ascii	"\324\010\323r\323\316K;oH#c\246L\313\226\374e\222kr"
  76      D3CE4B3B 
  76      6F482363 
  76      A64CCB96 
  76      FC65926B 
  77 0157 DDCA6FD8 		.ascii	"\335\312o\330\322\260\262Y+'\027\226\342\213\361m\231"
  77      D2B0B259 
  77      2B271796 
  77      E28BF16D 
  77      99
  78 0168 DB328D98 		.ascii	"\3332\215\230AZ.6\365\005\363${\212"
  78      415A2E36 
  78      F505F324 
  78      7B8A
  79              		.text
  80              		.section	.gnu.lto_nvicSetSystemHandlerPriority.d5349abe9c05aa41,"",%progbits
  81 0000 789C6362 		.ascii	"x\234cb`b@\007\222@\374\001\210M\201\230\221\231\201"
  81      60624007 
  81      9240FC01 
  81      884D8198 
  81      919981
  82 0013 9169C239 		.ascii	"\221i\3029\006\206F\016&FF\020\203\201\221\241\236\211"
  82      0686460E 
  82      26464610 
  82      838191A1 
  82      9E89
  83 0025 B13E9211 		.ascii	"\261>\222\021\254v=\323\201\007\377\377\257\373\322"
  83      AC763DD3 
  83      8107FFFF 
  83      AFFBD2
  84 0034 76EC20E3 		.ascii	"v\354 \3439evF\306\\F\240\211\231\214\014\314 \202\025"
ARM GAS  /tmp/ccEOzueA.s 			page 6


  84      39657646 
  84      C65C46A0 
  84      89998C0C 
  84      CC208215 
  85 0048 C805A963 		.ascii	"\310\005\251cehih\230\240\220\313\010\264,\031\2541"
  85      65686968 
  85      98A090CB 
  85      08B42C19 
  85      AC31
  86 005a 0448824C 		.ascii	"\004H\202L\013\005\012\001i\346\263\014M\257\2337\367"
  86      0B050A01 
  86      69E6B30C 
  86      4DAF9B37 
  86      F7
  87 006b E926322E 		.ascii	"\351&2.ddeHgdJ\007i<\313\320\274\226\031&\304\014\024"
  87      64646548 
  87      67644A07 
  87      693CCBD0 
  87      BC961926 
  88 0082 8D60CC64 		.ascii	"\215`\314ddda\000\311\034\362\204H\3502\254ihil0\007"
  88      64646100 
  88      C91CF284 
  88      48E832AC 
  88      6968696C 
  89 0098 4A6833AC 		.ascii	"Jh3\254\0021y3\031\231f3\314\002*e\006\251gi\270\325"
  89      02317933 
  89      19996633 
  89      CC022A65 
  89      06A96769 
  90 00ae DCC0C700 		.ascii	"\334\300\307\000f\202\335\234\004q:\320HV\006\030\213"
  90      6682DD9C 
  90      04713AD0 
  90      48560618 
  90      8B
  91 00bf 9981E122 		.ascii	"\231\201\341\"C\343\203s\312\020Ca \004\350\012\240"
  91      43E38373 
  91      CA104361 
  91      2004E80A 
  91      A0
  92 00d0 F3406164 		.ascii	"\363@ad\254_Z\\\244_\\\224\254\237\234\221\231\224\231"
  92      AC5F5A5C 
  92      A45F5C94 
  92      AC9F9C91 
  92      999499
  93 00e3 5FAC0F44 		.ascii	"_\254\017D\031\2119\372\005\371E%\305\372\311\371\271"
  93      198939FA 
  93      05F94525 
  93      C5FAC9F9 
  93      B9
  94 00f4 B9F979FA 		.ascii	"\271\371y\372\216A\276\316\276\025\372ye\231\311z\311"
  94      8E41BECE 
  94      BE15FA79 
  94      6599C97A 
  94      C9
  95 0105 0C006B33 		.ascii	"\014\000k3J\225"
  95      4A95
  96              		.text
ARM GAS  /tmp/ccEOzueA.s 			page 7


  97              		.section	.gnu.lto_nvicClearPending.d5349abe9c05aa41,"",%progbits
  98 0000 789C5D50 		.ascii	"x\234]P1H\303P\020\275\367\177\222\352\2428:Yt\021\304"
  98      3148C350 
  98      10BDF77F 
  98      92EAA238 
  98      3A597411 
  99 0015 7E5010C4 		.ascii	"~P\020\304I\234\034\272H\005\035\333\014m\3006\322\250"
  99      499C1CBA 
  99      48051DDB 
  99      0C6DC036 
  99      D2A8
 100 0027 B8F5D774 		.ascii	"\270\365\327t\026\007\027u\261\270I\325\335.\245{Ew"
 100      16071775 
 100      B1B849D5 
 100      DD2EA57B 
 100      4577
 101 0039 872208C5 		.ascii	"\207\"\010\305\301\325E\210\367SS\320\343\347\337\375"
 101      C1D54588 
 101      F75353D0 
 101      E3E7DFFD 
 102 0049 77EFDE5D 		.ascii	"w\357\336]N\220\240\3776\315\237\006\321*{H\2028{\""
 102      4E90A0FF 
 102      36CD9F06 
 102      D12A7B48 
 102      82387B22 
 103 005d AA8F09C0 		.ascii	"\252\217\011\300\004\004\252\011\324va\250\230\245\246"
 103      0404AA09 
 103      D47661A8 
 103      98A5A6
 104 006c D667FDF7 		.ascii	"\326g\375\367\257gyq\336i\\\353\357(\002<\260\354\012"
 104      AF677971 
 104      DE695CEB 
 104      EF28023C 
 104      B0EC0A
 105 007f C805EDF0 		.ascii	"\310\005\355\360\003\351\330\011\353o\237\007\321\351"
 105      03E9D809 
 105      EB6F9F07 
 105      D1E9
 106 008d 47D16BBB 		.ascii	"G\321k\273\3656\300\3248P6U\036\244\244<\232\254l\361"
 106      F536C0D4 
 106      38503655 
 106      1EA4A43C 
 106      9AAC6CF1 
 107 00a1 836C7339 		.ascii	"\203ls9\006\346\012\233\032\334-MF\230-\307\267\031"
 107      06E60A9B 
 107      1ADC2D4D 
 107      46982DC7 
 107      B719
 108 00b3 691BC278 		.ascii	"i\033\302x\331\243\360>\214N\347\363\270\201ME\210\""
 108      D9A3F03E 
 108      8C4EE7F3 
 108      B8814D45 
 108      8822
 109 00c5 601A731D 		.ascii	"`\032s\035Q\217N>\303\017$9\3119\003\206m\231@\026\243"
 109      518F4E3E 
 109      C30F2439 
 109      C9390386 
ARM GAS  /tmp/ccEOzueA.s 			page 8


 109      6D994016 
 110 00da 317D26A6 		.ascii	"1}&\246\207w\243\214\035\3030\234_\241\307\221\220\303"
 110      8777A38C 
 110      1DC3309C 
 110      5FA1C791 
 110      90C3
 111 00ec 69037637 		.ascii	"i\003v7\207\310\"\265t\243\256\327<X\013tk\302I\017"
 111      87C822B5 
 111      74A3AED7 
 111      3C580B74 
 111      6BC2490F 
 112 0100 F6155DB2 		.ascii	"\366\025]\262\204ctR\272\033\352\211x#\251x\017\005"
 112      84637452 
 112      BA1BEA89 
 112      7823A978 
 112      0F05
 113 0112 0CF7C103 		.ascii	"\014\367\301\003S\0229D/T\357\017\346\206\242\211\345"
 113      53123944 
 113      2F54EF0F 
 113      E686A289 
 113      E5
 114 0123 7868FE53 		.ascii	"xh\376S\303[V\207AU\005UW\271%\257\340\371\201\342S"
 114      C35B5687 
 114      41550555 
 114      57B925AF 
 114      E0F981E2 
 115 0138 CAEFA97D 		.ascii	"\312\357\251}\277z\020(\327/\227\375\212Z\337\312nd"
 115      BF7A1028 
 115      D72F97FD 
 115      8A5ADFCA 
 115      6E64
 116 014a 8F55E5C8 		.ascii	"\217U\345\310s3.\311Jf\351\0072Mkx"
 116      73332EC9 
 116      4A66E907 
 116      324D6B78 
 117              		.text
 118              		.section	.gnu.lto_.symbol_nodes.d5349abe9c05aa41,"",%progbits
 119 0000 789C6362 		.ascii	"x\234cb`b\260c\200\002\246\026\246z\006\206\011\347"
 119      6062B063 
 119      8002A616 
 119      A67A0686 
 119      09E7
 120 0012 1818EAEB 		.ascii	"\030\030\352\353\347u02\2652\3253\"q\333\230\352\231"
 120      E7753032 
 120      B532D533 
 120      2271DB98 
 120      EA99
 121 0024 90B8ED4C 		.ascii	"\220\270\355L\365\314\010.\003\000?^\022w"
 121      F5CC082E 
 121      03003F5E 
 121      1277
 122              		.text
 123              		.section	.gnu.lto_.refs.d5349abe9c05aa41,"",%progbits
 124 0000 789C6362 		.ascii	"x\234cb`b`d\200\002\000\000F\000\006"
 124      60626064 
 124      80020000 
 124      460006
ARM GAS  /tmp/ccEOzueA.s 			page 9


 125              		.text
 126              		.section	.gnu.lto_.decls.d5349abe9c05aa41,"",%progbits
 127 0000 789CAD59 		.ascii	"x\234\255Yop\023\307\025\337=\311\330\012\256\003\231"
 127      6F7013C7 
 127      15DF3DC9 
 127      D80AAE03 
 127      99
 128 0011 24251D3A 		.ascii	"$%\035:8\231\246\323\311LQ\200dB\276d0\262\251\365\301"
 128      3899A6D3 
 128      C94C5180 
 128      6442BE64 
 128      30B2A9F5 
 129 0026 A94702B7 		.ascii	"\251G\002\267\345\2138\204Rk\306\226\031IN\302\267u"
 129      E58B3884 
 129      526BC696 
 129      19494EC2 
 129      B775
 130 0038 0C2D4DC2 		.ascii	"\014-M\302T\020\247q\323BejB3!\377\240d\014\311P\015"
 130      5410A771 
 130      D342656A 
 130      423321FF 
 130      A0640CC9 
 131 004e A52429CC 		.ascii	"\245$)\314\204?\301\006'\004\345O'M[\006B\011\201\214"
 131      843FC106 
 131      2704E54F 
 131      274D5B06 
 131      4209818C 
 132 0062 83FAF6E9 		.ascii	"\203\372\366\351\366\264w\272\225\3572\275\361>\355"
 132      F6B477BA 
 132      95EF32BD 
 132      F13EED
 133 0071 E9DEFBED 		.ascii	"\351\336\373\355\357\367vo\357\351\254\021\215<I\011"
 133      EFF7766F 
 133      EFE9AC11 
 133      8D3C4909 
 134 0081 29C1D1F7 		.ascii	")\301\321\367\035B\026i\204\324\021B\036 \225\303\017"
 134      1D421669 
 134      84D41142 
 134      1E2095C3 
 134      0F
 135 0092 6D04DA6E 		.ascii	"m\004\332nhc\320\016\220\352\203_o4|\233\214>\300\222"
 135      6863D00E 
 135      90EA835F 
 135      6F347C9B 
 135      8C3EC092 
 136 00a6 7A52C63B 		.ascii	"zR\306;\010\355mhG\241}\001\355$\264\023\320|\320\316"
 136      08ED6D68 
 136      47A17D01 
 136      ED24B413 
 136      D07CD0CE 
 137 00ba 43FB18DA 		.ascii	"C\373\030\332q#\206c\001\015\3622\264\027m\343p\016"
 137      71238663 
 137      010DF232 
 137      B4176DE3 
 137      700E
 138 00cc 336DE388 		.ascii	"3m\343\2101\004\246\030C\214\311\261\3363\306\241\006"
 138      3104A618 
ARM GAS  /tmp/ccEOzueA.s 			page 10


 138      438CC9B1 
 138      DE33C6A1 
 138      06
 139 00dd 06FF7CCD 		.ascii	"\006\377|\315\206=f\340P#\366\012\264k\320\026\320\362"
 139      863D66E0 
 139      5023F60A 
 139      B46BD016 
 139      D0F2
 140 00ef 77338DCF 		.ascii	"w3\215\3171\203\367\033\320\366C[H\2558<?\015\016\034"
 140      3183F71B 
 140      D0F6435B 
 140      48AD383C 
 140      3F0D0E1C 
 141 0103 EDFCA8A1 		.ascii	"\355\374\250\241\233\0321\374\263`\3434\217lc\371bq"
 141      9B1A31FC 
 141      B360E334 
 141      8F6C63F9 
 141      6271
 142 0115 C7B62394 		.ascii	"\307\266#\224maS\245\222\217\334J\236fp\344\177\301"
 142      6D6153A5 
 142      928FDC4A 
 142      9E6670E4 
 142      7FC1
 143 0127 18CDEAF4 		.ascii	"\030\315\352\364\201[\310O\251N\233\002\244\031;\215"
 143      815BC84F 
 143      A94E9B02 
 143      A4193B8D 
 144 0137 011C9810 		.ascii	"\001\034\230\020\235n\247\267b\317\207) \001\262\221"
 144      9D6EA7B7 
 144      62CF8729 
 144      2001B291 
 145 0147 B1C77860 		.ascii	"\261\307x`\373[\300\313)\352N2\312X\256xv\344#\215\261"
 145      FB5BC0CB 
 145      29EA4E32 
 145      CA58AE78 
 145      76E4238D 
 146 015c 069D8ED2 		.ascii	"\006\235\216\322\000\304\376\214\222\273\310\3630f\216"
 146      00C4FE8C 
 146      92BBC8F3 
 146      30668E
 147 016b B18376B5 		.ascii	"\261\203v\265\304\033\364\2367\017m\246\203@]\247\177"
 147      C41BF49E 
 147      370F6DA6 
 147      83405DA7 
 147      7F
 148 017c 42F06728 		.ascii	"B\360g(\005\252;\351]\006\224N\353\00324\236\013\007"
 148      05AA3BE9 
 148      5D06944E 
 148      EB033234 
 148      9E0B07
 149 018f 8E87978D 		.ascii	"\216\207\227\215\016_\2667\022\257\356F>\312\362\260"
 149      0E5FB637 
 149      12AFEE46 
 149      3ECAF2B0 
 150 019f B3C26702 		.ascii	"\263\302g\002hd\273\215\321\367\310\037\031\333\002"
 150      6864BB8D 
 150      D1F7C81F 
ARM GAS  /tmp/ccEOzueA.s 			page 11


 150      19DB02
 151 01ae 73307A1B 		.ascii	"s0z\033\313k\"){\320k\204\316sTk`\227C\331\276D\273"
 151      CB6B2229 
 151      7BD06B84 
 151      CE73546B 
 151      609743D9 
 152 01c5 08DBEB26 		.ascii	"\010\333\353&\214\220\357\223\035|\2227\261\015\263"
 152      8C90EF93 
 152      1D7C9237 
 152      B10DB3
 153 01d4 28CE3131 		.ascii	"(\31611\242,RwQ\255z\261\024\376|\27017P,\225\346\271"
 153      A22C5277 
 153      51AD7AB1 
 153      14FE7CB8 
 153      3137502C 
 154 01eb 5F297BAC 		.ascii	"_){\254+\245L\303\226\226\375\216iaO\011m:}\011\350"
 154      2BA54CC3 
 154      9696FD8E 
 154      69614F09 
 154      6D3A7D09 
 155 0200 E874F737 		.ascii	"\350t\3677\322\266\333\256m\257\243\266\313B[yuk\344"
 155      D2B6DBAE 
 155      6DAFA3B6 
 155      CB425B79 
 155      756BE4
 156 0213 A8332B29 		.ascii	"\2503+)\343\237\241\307\230\253\211\372\272\"\346\025"
 156      E39FA1C7 
 156      98AB89FA 
 156      BA22E615 
 157 0223 14334D98 		.ascii	"\0243M\230B\314\230]\314>G1\373\3374\305\354A1\237;"
 157      42CC985D 
 157      CC3E4731 
 157      FBDF34C5 
 157      EC41319F 
 158 0238 8BD96C4F 		.ascii	"\213\331lO\361\201o\304\352\200\235\325_\254\254\360"
 158      F1816FC4 
 158      EA809DD5 
 158      5FACACF0 
 159 0248 261E64C5 		.ascii	"&\036d\305\035l\316p\345&n\020\003\360\373^\354\017"
 159      1D6CCE70 
 159      E5266E10 
 159      03F0FB5E 
 159      EC0F
 160 025a AF9EE1FB 		.ascii	"\257\236\341\373\203q\327\327\012\320\351_\351\235`"
 160      8371D7D7 
 160      0AD0E95F 
 160      E99D60
 161 0269 A9F5A6A4 		.ascii	"\251\365\246\244\201J\247D\371\352zL\263Jw\201m\356"
 161      814AA744 
 161      F9EA7A4C 
 161      B34A7781 
 161      6DEE
 162 027b 28DB16E3 		.ascii	"(\333\026\343fu\030\247\373q\315\276\237P\333~2\015"
 162      667518A7 
 162      FB71CDBE 
 162      9F50DB7E 
 162      320D
ARM GAS  /tmp/ccEOzueA.s 			page 12


 163 028d 172FBEB3 		.ascii	"\027/\276\263I\216\347\271y\270I\247\007\341;\203&\273"
 163      498EE7B9 
 163      79B849A7 
 163      07E13B83 
 163      26BB
 164 029f 51F0BC58 		.ascii	"Q\360\274X\006\224\375\016\325\360\323\351\337\351\354"
 164      0694FD0E 
 164      D5F0D3E9 
 164      DFE9EC
 165 02ae 8A7E66EC 		.ascii	"\212~f\354\250\350\242\272w\217\030\372\214\257\315"
 165      A8E8A2BA 
 165      778F18FA 
 165      8CAFCD
 166 02bd CE056A51 		.ascii	"\316\005jQ\"\334\310Md3r\2216\352|\221\212\250\365s"
 166      22DCC84D 
 166      64337291 
 166      36EA7C91 
 166      8AA8F573 
 167 02d1 2B993D73 		.ascii	"+\231=s\342\\\033f\366(\275\0112{\330\226Y\027@|\340"
 167      E25C1B66 
 167      F628BD09 
 167      327BD896 
 167      5917407C 
 168 02e6 7720B81C 		.ascii	"w \270\034\206\260\254p|\274\221\371\313\337\023\013"
 168      86B0AC70 
 168      7CBC91F9 
 168      CBDF130B 
 169 02f6 A0E5B89D 		.ascii	"\240\345\270\235\344\331\372\201\302\251\361!\312\362"
 169      E4D9FA81 
 169      C2A9F121 
 169      CAF2
 170 0304 07A9C8E0 		.ascii	"\007\251\310\340[M\3062\255\365\254\321\351\016\\u\323"
 170      5B4DC632 
 170      ADF5ACD1 
 170      E90E5C75 
 170      D3
 171 0315 3F0AC444 		.ascii	"?\012\304Dh\"\274\3312_<\365\243\322|\331\334t\372\256"
 171      6822BCD9 
 171      325F3CF5 
 171      A3D27CD9 
 171      DC74FAAE 
 172 0329 E7E93AA5 		.ascii	"\347\351:\245\230\256z\313l\011/H\3731L;\317\226#\013"
 172      98AE7ACB 
 172      6C092F48 
 172      FB314C3B 
 172      CF96230B 
 173 033d 13478036 		.ascii	"\023G\2006\231\313\235\247\020\362=\336\225\323U\202"
 173      99CB9DA7 
 173      10F23DDE 
 173      95D35582 
 174 034d 6688F855 		.ascii	"f\210\370U\306\300\247=\013:\243\020\364m\"\024\234"
 174      C6C0A73D 
 174      0B3AA310 
 174      F46D2214 
 174      9C
 175 035e AA526019 		.ascii	"\252R`\031\326\222\322j\005\260\010N\203\002\235\236"
 175      D692D26A 
ARM GAS  /tmp/ccEOzueA.s 			page 13


 175      05B0084E 
 175      83029D9E 
 176 036e 006A1A39 		.ascii	"\000j\0329\347*\035\214\252\3631\211h\247\021\355\023"
 176      E72A1D8C 
 176      AAF33189 
 176      68A711ED 
 176      13
 177 037f 57D4F22A 		.ascii	"W\324\362*4\340\366\276\304\355\274;n\232\232\333\007"
 177      34E0F6BE 
 177      C4EDBC3B 
 177      6E9A9ADB 
 177      07
 178 0390 12B74BEE 		.ascii	"\022\267K\356\270\251\320\200\333E\211\333\224;n>5\267"
 178      B8A9D080 
 178      DB4589DB 
 178      943B6E3E 
 178      35B7
 179 03a2 4B12B701 		.ascii	"K\022\267\001\237+n*4\340vY\342\366D\025\232#7\277\232"
 179      9F2B6E2A 
 179      34E07659 
 179      E2F64415 
 179      9A2337BF 
 180 03b7 DB951A6B 		.ascii	"\333\225\032k\274I\000\024\305&\373/\317\213\374\337"
 180      BC490014 
 180      C526FB2F 
 180      CF8BFCDF 
 181 03c7 8A457E9F 		.ascii	"\212E~\237\271\310sU\032\254\343\212\224\250D@J\256"
 181      B9C87355 
 181      1AACE38A 
 181      94A84440 
 181      4AAE
 182 03d9 76BDB24A 		.ascii	"v\275\262J\247ocJ\236\255\202\263>+DNf\250s\362U\215"
 182      A76F634A 
 182      9EAD82B3 
 182      3E2B444E 
 182      66A873F2 
 183 03ef 9C8C98FB 		.ascii	"\234\214\230\373t\356fC\342E\317I\371\\\221\224\301"
 183      74EE6643 
 183      E245CF49 
 183      F95C9194 
 183      C1
 184 0400 3A332B5B 		.ascii	":3+[\253d\330F\026\232\352Ui\031,L\2157\362\245r\022"
 184      AB64D846 
 184      169AEA55 
 184      69192C4C 
 184      8D37F2A5 
 185 0416 1FEF3BED 		.ascii	"\037\357;\355\200\026V\"+s\035\320\234\016\371\351\244"
 185      80165622 
 185      2B731DD0 
 185      9C0EF9E9 
 185      A4
 186 0427 D363F8D0 		.ascii	"\323c\370\3208No\007;\201\366=\264g\321\236C\373!\332"
 186      384E6F07 
 186      3B81F63D 
 186      B467D19E 
 186      43FB21DA 
 187 043b 8FD1FE03 		.ascii	"\217\321\376\003\355\247h?C{\036\355\005\264\377\005"
ARM GAS  /tmp/ccEOzueA.s 			page 14


 187      EDA7683F 
 187      437B1EED 
 187      05B4FF05 
 188 044b 6B1E33C9 		.ascii	"k\0363\311\343\225\037H\345\007\252*\253_\320\231\""
 188      E3951F48 
 188      E507AA2A 
 188      AB5FD099 
 188      22
 189 045c 4A515EAC 		.ascii	"JQ^\254\022!\215U^\207\224^:\375\322\363\004_UL\260"
 189      12218D55 
 189      5E87945E 
 189      3AFDD2F3 
 189      045F554C 
 190 0471 49D0E2E5 		.ascii	"I\320\342\345T\020\024\315\212\355\311J\311V\370\303"
 190      541014CD 
 190      8AEDC94A 
 190      C956F8C3 
 191 0481 246DD6E9 		.ascii	"$m\326\3515\254*v\371\246\255*l |\314\251\252\242b\002"
 191      35AC2A76 
 191      F9A6AD2A 
 191      6C207CCC 
 191      A9AAA262 
 192 0496 8B8AA9E9 		.ascii	"\213\212\251\351\213\212\241\301\302\251\211\241\333"
 192      8B8AA1C1 
 192      C2A989A1 
 192      DB
 193 04a3 78516196 		.ascii	"xQa\226\022\205\377C)\001\277\355P\312T\355\265I\324"
 193      1285FF43 
 193      2901BFED 
 193      50CA54ED 
 193      B549D4
 194 04b6 0B7D7C42 		.ascii	"\013}|BZ\350\257{\006k\266\200\235\226\301\012n\300"
 194      5AE8AF7B 
 194      066BB680 
 194      9D96C10A 
 194      6EC0
 195 04c8 1AD4CC26 		.ascii	"\032\324\314&e\260\277y\006\2632{_\006;\342\006l\226"
 195      65B0BF79 
 195      06B3327B 
 195      5F063BE2 
 195      066C96
 196 04db 9AD90732 		.ascii	"\232\331\0072\330;\236\301df\360\274\374\011\337\200"
 196      D83B9EC1 
 196      6466F0BC 
 196      FC09DF80 
 197 04eb AFE0067C 		.ascii	"\257\340\006|\322\216e\271\237\214\356\0345\261K2\261"
 197      D28E65B9 
 197      9F8CEE1C 
 197      35B14B32 
 197      B1
 198 04fc 0937C49A 		.ascii	"\0117\304\232\325)\273,\203\235u\003\366\0035\263+2"
 198      D529BB2C 
 198      839D7503 
 198      F60335B3 
 198      2B32
 199 050e D8479EC1 		.ascii	"\330G\236\301\254\314\256\312`\237\272\001\273[\315"
 199      ACCCAECA 
ARM GAS  /tmp/ccEOzueA.s 			page 15


 199      609FBA01 
 199      BB5BCD
 200 051d EC2B19EC 		.ascii	"\354+\031\354?\236\301\254\314\246d\260Kn\300\026\253"
 200      3F9EC1AC 
 200      CCA664B0 
 200      4B6EC016 
 200      AB
 201 052e 995D97C1 		.ascii	"\231]\227\301\276\364\014&1\033\032(\344V\232\017\346"
 201      BEF40C26 
 201      311B1A28 
 201      E4569A0F 
 201      E6
 202 053f FC12BE05 		.ascii	"\374\022\276\005\227*\273\366\022\353\015dq\033U\272"
 202      972ABBF6 
 202      12EB0D64 
 202      711B55BA 
 203 054f E974ABE6 		.ascii	"\351t\253\346us\337\2469o\356\326\237\215\302\213W\220"
 203      7573DFA6 
 203      396FEED6 
 203      9F8DC28B 
 203      5790
 204 0561 76D91612 		.ascii	"v\331\026\022Fw\211\"\207\260\353n\231\304\034\2260"
 204      46778922 
 204      87B0EB6E 
 204      99C41C96 
 204      30
 205 0572 87CCEF22 		.ascii	"\207\314\357\"\207\355j\260!\031l\275g0\353\204\374"
 205      87ED6AB0 
 205      21196CBD 
 205      6730EB84 
 205      FC
 206 0583 66A5B552 		.ascii	"f\245\265R\222\346\203\231\345\312,yB\252\012*\233\233"
 206      92E68399 
 206      E5CA2C79 
 206      42AA0A2A 
 206      9B9B
 207 0595 4E9FF33C 		.ascii	"N\237\363<!;\025\023Ry\011'{\201\354\215v\331V\026F"
 207      213B1513 
 207      52790927 
 207      7B81EC8D 
 207      76D95616 
 208 05aa B75395C4 		.ascii	"\267S\225\304\201\302\260Zw\336\204\272\271\226n\273"
 208      81C2B05A 
 208      77DE84BA 
 208      B9966EBB 
 209 05ba 9B4E5FF0 		.ascii	"\233N_\360\254{\227B\267\337\242{WE\367&\273n+\013\243"
 209      AC7B9742 
 209      B7DFA27B 
 209      5745F726 
 209      BB6E2B0B 
 210 05cf BB4AA11B 		.ascii	"\273J\241\033\212\205gW\362\265\303\231\352t\022\337"
 210      8A856757 
 210      F2B5C399 
 210      EA7412DF 
 211 05df A84D07B6 		.ascii	"\250M\007\266V\261x`k\370\375\244\2645lq\263\0227:\375"
 211      56B17860 
 211      6BF8FDA4 
ARM GAS  /tmp/ccEOzueA.s 			page 16


 211      B4356C71 
 211      B312373A 
 212 05f4 9C743AE4 		.ascii	"\234t:\344:G\247_c!r\035\213\313\001\215\333A\264\033"
 212      3A47A75F 
 212      6321721D 
 212      8BCB018D 
 212      DB41B41B 
 213 0608 D0FE12ED 		.ascii	"\320\376\022\355\257\320>\201v\023\332_\243\335\214"
 213      AFD03E81 
 213      7613DA5F 
 213      A3DD8C
 214 0617 F629B44F 		.ascii	"\366)\264O\243}\006\355o\321\376\016m\036\355v\264\243"
 214      A37D06ED 
 214      6FD1FE0E 
 214      6D1EED76 
 214      B4A3
 215 0629 689F47FB 		.ascii	"h\237G\373\022\332\2275u9{\255F9\373\252fV\213w\220"
 215      12DA9735 
 215      75397BAD 
 215      4639FBAA 
 215      66568B77 
 216 063e 1176EC58 		.ascii	"\021v\354Xq\303\205a\272\261\310r\354z\251D+\305\253"
 216      71C38561 
 216      BAB1C872 
 216      EC7AA944 
 216      2BC5AB
 217 0651 F9C6AF50 		.ascii	"\371\306\257P\373\215\037\377/\204&\275\036\234\343"
 217      FB8D1FFF 
 217      2F8426BD 
 217      1E9CE3
 218 0660 ECABD3BD 		.ascii	"\354\253\323\275\032\317\327k\322\352*\367E\257\374"
 218      1ACFD76B 
 218      D2EA2AF7 
 218      45AFFC
 219 066f E271D8EF 		.ascii	"\342q\330\357\364\017\015\004\250\035j\014\372Os\271"
 219      F40F0D04 
 219      A81D6A0C 
 219      FA4F73B9 
 220 067f 7CD772A3 		.ascii	"|\327r\243\360j\234\273*\334t:\346\371F\331\247\270"
 220      F06A9CBB 
 220      2ADC743A 
 220      E6F946D9 
 220      A7B8
 221 0691 51E65A58 		.ascii	"Q\346ZX\357\253\334([\375\266W\337v\026\032y\316/J\352"
 221      EFABDC28 
 221      5BFDB657 
 221      DF76161A 
 221      79CE2F4A 
 222 06a6 1B786751 		.ascii	"\033xgQ\260?\223\016f\322\361`\274;\271:\331\227\011"
 222      B03F930E 
 222      66D2F160 
 222      BC3BB93A 
 222      D99709
 223 06b9 C25FB7DE 		.ascii	"\302_\267\336\023\\\333\227\316f\202\361\276\336\336"
 223      135CDB97 
 223      CE6682F1 
 223      BEDEDE
ARM GAS  /tmp/ccEOzueA.s 			page 17


 224 06c8 BE54B025 		.ascii	"\276T\260%\322\021\352x4\230z8\031\237\037'w`L2\025"
 224      D211EA78 
 224      34987A38 
 224      199F1F27 
 224      77604C32 
 225 06dd EFE95F93 		.ascii	"\357\351_\223\010\246\022\217\364$W\0073\3532\301X&"
 225      08A6128F 
 225      F4245707 
 225      33EB32C1 
 225      5826
 226 06ef BB2699CA 		.ascii	"\273&\231\312\316\357&\015\375\360\271ha,;\343G\017"
 226      CEEF260D 
 226      FDF0B968 
 226      612C3BE3 
 226      470F
 227 0701 AE680E91 		.ascii	"\256h\016\221\037:\205\364\3520f*\021\214\255I<\244"
 227      1F3A85F4 
 227      EA30662A 
 227      118CAD49 
 227      3CA4
 228 0713 F7F76463 		.ascii	"\367\367dc\331uk\023\031\210\276!\026\023\361\263\370"
 228      D9756B13 
 228      1988BE21 
 228      1613F1B3 
 228      F8
 229 0724 986D297D 		.ascii	"\230m)}uO\242+\021\317\366\245i\312\2776\235\354\233"
 229      754FA22B 
 229      11CFF6A5 
 229      69CABF36 
 229      9DEC9B
 230 0737 CDBF6F4D 		.ascii	"\315\277oMf*\027\346\362o\242\211lt]&\233\350m\327S"
 230      662A17E6 
 230      F26FA289 
 230      6C745D26 
 230      9BE86DD7 
 231 074c 6B7A12E9 		.ascii	"kz\022\351NpM'\263\353\352\273\313\347\010\027\352I"
 231      4E704D27 
 231      B3EBEABB 
 231      CBE70817 
 231      EA49
 232 075e E8E9CE44 		.ascii	"\350\351\316D\012\270\376\274\236\017\2648\226\015\224"
 232      0AB8FEBC 
 232      9E0FB438 
 232      960D94
 233 076d 8784DE02 		.ascii	"\207\204\336\002\247\214$\036\315\006C\035\321p\324"
 233      A78C241E 
 233      CD06431D 
 233      D170D4
 234 077c D410EF4B 		.ascii	"\324\020\357K'b\361\336{\200n\340\301\256p(\266\034"
 234      2762F1DE 
 234      7B806EE0 
 234      C1AE7028 
 234      B61C
 235 078e C8FBC3D1 		.ascii	"\310\373\303\321\266H \322\006\266\253\255\365n\177"
 235      B64820D2 
 235      06B6ABAD 
 235      F56E7F
ARM GAS  /tmp/ccEOzueA.s 			page 18


 236 079d 38D41669 		.ascii	"8\324\026i\210\224\317\026\300\305\316\312\305\205p"
 236      8894CF16 
 236      C0C5CECA 
 236      C58570
 237 07ac 513A5DE4 		.ascii	"Q:]\344\017\267,\255\234\336\243\205;\315\223{\375\321"
 237      0FB72CAD 
 237      9CDEA385 
 237      3BCD937B 
 237      FDD1
 238 07be E5E14843 		.ascii	"\345\341HC4\264\024\007\251\013u\256\010\267Bx4\342"
 238      34B41407 
 238      A90B75AE 
 238      08B74278 
 238      34E2
 239 07d0 EF5AFEE3 		.ascii	"\357Z\376\343H]K8\022\212\370\242\320B\374\263\275\263"
 239      485D4B38 
 239      128AF8A2 
 239      D042FCB3 
 239      BDB3
 240 07e2 2EDACE2F 		.ascii	".\332\316/\206\226\201i\347\246\025L]G\307\262\226\210"
 240      86968169 
 240      E7A6154C 
 240      5D47C7B2 
 240      9688
 241 07f4 7F29372D 		.ascii	"\177)7-p\356\353\\\026\361\265Bki\215\370\341Z\004\370"
 241      70EEEB5C 
 241      16F1B542 
 241      6B698DF8 
 241      E15A04F8 
 242 0808 B54400BC 		.ascii	"\265D\000\274%\024\361\307\273\365tC,\366P\177*\036"
 242      2514F1C7 
 242      BBF57443 
 242      2CF6507F 
 242      2A1E
 243 081a 8B7D4B74 		.ascii	"\213}Kt\346\337w\357\375\367\377\017\020\252i\266"
 243      E6DF77EF 
 243      FDF7FF0F 
 243      10AA69B6 
 244              		.text
 245              		.section	.gnu.lto_.symtab.d5349abe9c05aa41,"",%progbits
 246 0000 6E766963 		.ascii	"nvicEnableVector\000\000\000\000\000\000\000\000\000"
 246      456E6162 
 246      6C655665 
 246      63746F72 
 246      00000000 
 247 0019 000000A1 		.ascii	"\000\000\000\241\000\000\000nvicDisableVector\000\000"
 247      0000006E 
 247      76696344 
 247      69736162 
 247      6C655665 
 248 0033 00000000 		.ascii	"\000\000\000\000\000\000\000\000\000\000\262\000\000"
 248      00000000 
 248      0000B200 
 248      00
 249 0040 006E7669 		.ascii	"\000nvicSetSystemHandlerPriority\000\000\000\000\000"
 249      63536574 
 249      53797374 
ARM GAS  /tmp/ccEOzueA.s 			page 19


 249      656D4861 
 249      6E646C65 
 250 0062 00000000 		.ascii	"\000\000\000\000\000\000\000\270\000\000\000nvicCle"
 250      000000B8 
 250      0000006E 
 250      76696343 
 250      6C65
 251 0074 61725065 		.ascii	"arPending\000\000\000\000\000\000\000\000\000\000\000"
 251      6E64696E 
 251      67000000 
 251      00000000 
 251      00000000 
 252 0088 00BE0000 		.ascii	"\000\276\000\000\000"
 252      00
 253              		.text
 254              		.section	.gnu.lto_.opts,"",%progbits
 255 0000 272D6D63 		.ascii	"'-mcpu=cortex-m4' '-mno-thumb-interwork' '-mthumb' "
 255      70753D63 
 255      6F727465 
 255      782D6D34 
 255      2720272D 
 256 0033 272D6767 		.ascii	"'-ggdb' '-O2' '-fomit-frame-pointer' '-falign-funct"
 256      64622720 
 256      272D4F32 
 256      2720272D 
 256      666F6D69 
 257 0066 696F6E73 		.ascii	"ions=16' '-ffunction-sections' '-fdata-sections' '-"
 257      3D313627 
 257      20272D66 
 257      66756E63 
 257      74696F6E 
 258 0099 666E6F2D 		.ascii	"fno-common' '-flto'\000"
 258      636F6D6D 
 258      6F6E2720 
 258      272D666C 
 258      746F2700 
 259              		.text
 260              		.cfi_sections	.debug_frame
 261              		.section	.text.nvicEnableVector,"ax",%progbits
 262              		.align	2
 263              		.p2align 4,,15
 264              		.global	nvicEnableVector
 265              		.thumb
 266              		.thumb_func
 267              		.type	nvicEnableVector, %function
 268              	nvicEnableVector:
 269              	.LFB260:
 270              		.file 1 "/usr/src/chibios/os/hal/ports/common/ARMCMx/nvic.c"
 271              		.loc 1 57 0
 272              		.cfi_startproc
 273              		@ args = 0, pretend = 0, frame = 0
 274              		@ frame_needed = 0, uses_anonymous_args = 0
 275              		@ link register save eliminated.
 276              	.LVL0:
 277              		.loc 1 65 0
 278 0000 4309     		lsrs	r3, r0, #5
 279 0002 9B00     		lsls	r3, r3, #2
ARM GAS  /tmp/ccEOzueA.s 			page 20


 280              		.loc 1 63 0
 281 0004 00F16042 		add	r2, r0, #-536870912
 282 0008 03F16043 		add	r3, r3, #-536870912
 283              		.loc 1 57 0
 284 000c 10B4     		push	{r4}
 285              		.cfi_def_cfa_offset 4
 286              		.cfi_offset 4, -4
 287 000e 03F56143 		add	r3, r3, #57600
 288              		.loc 1 65 0
 289 0012 0124     		movs	r4, #1
 290              		.loc 1 63 0
 291 0014 0901     		lsls	r1, r1, #4
 292              	.LVL1:
 293 0016 02F56142 		add	r2, r2, #57600
 294              		.loc 1 65 0
 295 001a 00F01F00 		and	r0, r0, #31
 296              	.LVL2:
 297 001e 04FA00F0 		lsl	r0, r4, r0
 298              		.loc 1 63 0
 299 0022 C9B2     		uxtb	r1, r1
 300 0024 82F80013 		strb	r1, [r2, #768]
 301              		.loc 1 65 0
 302 0028 C3F88001 		str	r0, [r3, #384]
 303              		.loc 1 66 0
 304 002c 1860     		str	r0, [r3]
 305              		.loc 1 67 0
 306 002e 5DF8044B 		ldr	r4, [sp], #4
 307 0032 7047     		bx	lr
 308              		.cfi_endproc
 309              	.LFE260:
 310              		.size	nvicEnableVector, .-nvicEnableVector
 311              		.section	.text.nvicDisableVector,"ax",%progbits
 312              		.align	2
 313              		.p2align 4,,15
 314              		.global	nvicDisableVector
 315              		.thumb
 316              		.thumb_func
 317              		.type	nvicDisableVector, %function
 318              	nvicDisableVector:
 319              	.LFB261:
 320              		.loc 1 74 0
 321              		.cfi_startproc
 322              		@ args = 0, pretend = 0, frame = 0
 323              		@ frame_needed = 0, uses_anonymous_args = 0
 324              		@ link register save eliminated.
 325              	.LVL3:
 326              		.loc 1 76 0
 327 0000 084B     		ldr	r3, .L3
 328 0002 4109     		lsrs	r1, r0, #5
 329              		.loc 1 74 0
 330 0004 10B4     		push	{r4}
 331              		.cfi_def_cfa_offset 4
 332              		.cfi_offset 4, -4
 333              		.loc 1 76 0
 334 0006 00F01F02 		and	r2, r0, #31
 335 000a 2031     		adds	r1, r1, #32
 336 000c 0124     		movs	r4, #1
ARM GAS  /tmp/ccEOzueA.s 			page 21


 337              		.loc 1 80 0
 338 000e 1844     		add	r0, r0, r3
 339              	.LVL4:
 340              		.loc 1 76 0
 341 0010 9440     		lsls	r4, r4, r2
 342              		.loc 1 80 0
 343 0012 0022     		movs	r2, #0
 344              		.loc 1 76 0
 345 0014 43F82140 		str	r4, [r3, r1, lsl #2]
 346              		.loc 1 80 0
 347 0018 80F80023 		strb	r2, [r0, #768]
 348              		.loc 1 82 0
 349 001c 5DF8044B 		ldr	r4, [sp], #4
 350 0020 7047     		bx	lr
 351              	.L4:
 352 0022 00BF     		.align	2
 353              	.L3:
 354 0024 00E100E0 		.word	-536813312
 355              		.cfi_endproc
 356              	.LFE261:
 357              		.size	nvicDisableVector, .-nvicDisableVector
 358              		.section	.text.nvicSetSystemHandlerPriority,"ax",%progbits
 359              		.align	2
 360              		.p2align 4,,15
 361              		.global	nvicSetSystemHandlerPriority
 362              		.thumb
 363              		.thumb_func
 364              		.type	nvicSetSystemHandlerPriority, %function
 365              	nvicSetSystemHandlerPriority:
 366              	.LFB262:
 367              		.loc 1 90 0
 368              		.cfi_startproc
 369              		@ args = 0, pretend = 0, frame = 0
 370              		@ frame_needed = 0, uses_anonymous_args = 0
 371              		@ link register save eliminated.
 372              	.LVL5:
 373              		.loc 1 100 0
 374 0000 00F16040 		add	r0, r0, #-536870912
 375              	.LVL6:
 376 0004 00F56D40 		add	r0, r0, #60672
 377              	.LVL7:
 378 0008 0901     		lsls	r1, r1, #4
 379              	.LVL8:
 380 000a C9B2     		uxtb	r1, r1
 381 000c 0176     		strb	r1, [r0, #24]
 382 000e 7047     		bx	lr
 383              		.cfi_endproc
 384              	.LFE262:
 385              		.size	nvicSetSystemHandlerPriority, .-nvicSetSystemHandlerPriority
 386              		.section	.text.nvicClearPending,"ax",%progbits
 387              		.align	2
 388              		.p2align 4,,15
 389              		.global	nvicClearPending
 390              		.thumb
 391              		.thumb_func
 392              		.type	nvicClearPending, %function
 393              	nvicClearPending:
ARM GAS  /tmp/ccEOzueA.s 			page 22


 394              	.LFB263:
 395              		.loc 1 109 0
 396              		.cfi_startproc
 397              		@ args = 0, pretend = 0, frame = 0
 398              		@ frame_needed = 0, uses_anonymous_args = 0
 399              		@ link register save eliminated.
 400              	.LVL9:
 401              		.loc 1 111 0
 402 0000 4209     		lsrs	r2, r0, #5
 403 0002 6032     		adds	r2, r2, #96
 404 0004 00F01F00 		and	r0, r0, #31
 405              	.LVL10:
 406 0008 0121     		movs	r1, #1
 407 000a 034B     		ldr	r3, .L7
 408 000c 01FA00F0 		lsl	r0, r1, r0
 409 0010 43F82200 		str	r0, [r3, r2, lsl #2]
 410 0014 7047     		bx	lr
 411              	.L8:
 412 0016 00BF     		.align	2
 413              	.L7:
 414 0018 00E100E0 		.word	-536813312
 415              		.cfi_endproc
 416              	.LFE263:
 417              		.size	nvicClearPending, .-nvicClearPending
 418              		.text
 419              	.Letext0:
 420              		.file 2 "/usr/include/newlib/machine/_default_types.h"
 421              		.file 3 "/usr/include/newlib/sys/_stdint.h"
 422              		.file 4 "/usr/src/chibios/os/rt/ports/ARMCMx/compilers/GCC/chtypes.h"
 423              		.file 5 "/usr/src/chibios/os/rt/include/chsystypes.h"
 424              		.file 6 "/usr/src/chibios/os/rt/include/chschd.h"
 425              		.file 7 "/usr/src/chibios/os/ext/CMSIS/include/core_cm4.h"
 426              		.file 8 "/usr/src/chibios/os/rt/ports/ARMCMx/chcore.h"
 427              		.file 9 "/usr/src/chibios/os/rt/ports/ARMCMx/chcore_v7m.h"
 428              		.file 10 "/usr/src/chibios/os/rt/include/chtm.h"
 429              		.file 11 "/usr/src/chibios/os/rt/include/chsem.h"
 430              		.file 12 "/usr/src/chibios/os/rt/include/chmtx.h"