ARM GAS  /tmp/ccL9CB8M.s 			page 1


   1              		.syntax unified
   2              		.cpu cortex-m4
   3              		.fpu softvfp
   4              		.eabi_attribute 20, 1
   5              		.eabi_attribute 21, 1
   6              		.eabi_attribute 23, 3
   7              		.eabi_attribute 24, 1
   8              		.eabi_attribute 25, 1
   9              		.eabi_attribute 26, 1
  10              		.eabi_attribute 30, 2
  11              		.eabi_attribute 34, 1
  12              		.eabi_attribute 18, 4
  13              		.thumb
  14              		.file	"pal.c"
  15              		.text
  16              	.Ltext0:
  17              		.section	.gnu.lto_.jmpfuncs.70dbc4ad91d55327,"",%progbits
  18 0000 789C6362 		.ascii	"x\234cb`b\300\006D\24043\003##3\02333\204\315\300X\006"
  18      6062C006 
  18      44A03433 
  18      03232333 
  18      13333384 
  19 0018 A4010623 		.ascii	"\244\001\006#\000\243"
  19      00A3
  20              		.text
  21              		.section	.gnu.lto_.inline.70dbc4ad91d55327,"",%progbits
  22 0000 789C6362 		.ascii	"x\234cb`b\300\006\276Cif\006\006N\016Ff\006F0\023D:"
  22      6062C006 
  22      BE436966 
  22      06064E0E 
  22      46660646 
  23 0018 8049050E 		.ascii	"\200I\005\016\266\017z\014l\013\344\231\030\030_\260"
  23      B60F7A0C 
  23      6C0BE499 
  23      18185FB0 
  24 0028 B3404810 		.ascii	"\263@H\020\301\001fr\200\010\0010S\000d\014#\003\037"
  24      C1016672 
  24      80080130 
  24      5300640C 
  24      23031F
  25 003b 2F230BC4 		.ascii	"/#\013\304\024FF\210\010\320\020\210\201\334L\027\370"
  25      14464688 
  25      08D01088 
  25      81DC4C17 
  25      F8
  26 004c 318C028A 		.ascii	"1\214\002\212\241\030\302\262@^\002\304R`b`\336!\256"
  26      A118C2B2 
  26      405E02C4 
  26      52606260 
  26      DE21AE
  27 005f C000B4DE 		.ascii	"\300\000\264\336\002d\016\023\003\2670\212\373\240\206"
  27      02640E13 
  27      03B7308A 
  27      FBA086
  28 006e 7202E588 		.ascii	"r\002\345\210s\036\320&\011\220I,\274@}\023\374@\220"
  28      731ED026 
  28      0990492C 
ARM GAS  /tmp/ccL9CB8M.s 			page 2


  28      BC407D13 
  28      FC4090
  29 0081 01003C62 		.ascii	"\001\000<b\037\210"
  29      1F88
  30              		.text
  31              		.section	.gnu.lto_.pureconst.70dbc4ad91d55327,"",%progbits
  32 0000 789C6362 		.ascii	"x\234cb`b`g\200\000f\006)F)&I\000\001\312\000_"
  32      60626067 
  32      80006606 
  32      29462926 
  32      490001CA 
  33              		.text
  34              		.section	.gnu.lto_palReadBus.70dbc4ad91d55327,"",%progbits
  35 0000 789C6D90 		.ascii	"x\234m\220\261K\303@\024\306\277\357]\322$\035\334\335"
  35      B14BC340 
  35      14C6BFEF 
  35      5DD2241D 
  35      DCDD
  36 0012 449C2C98 		.ascii	"D\234,\230\177\246\202\272\245\031\332@\213\322\340"
  36      7FA682BA 
  36      A519DA40 
  36      8BD2E0
  37 0021 DCD87472 		.ascii	"\334\330tr*N\242\223\213\203C]\005\027qp\253\350\352"
  37      2A4EA293 
  37      8B83435D 
  37      05177170 
  37      ABE8EA
  38 0034 24B88AFF 		.ascii	"$\270\212\377B}w5\021\245G\356{w/\357\367\275\307\011"
  38      427D7735 
  38      11A547EE 
  38      7B772FEF 
  38      F7BDC709 
  39 0048 04FFD7BA 		.ascii	"\004\377\327\272\356S\002[\032i@\231>\003'\241\220\366"
  39      EE53025B 
  39      1A694099 
  39      3E0327A1 
  39      90F6
  40 005a 0062241C 		.ascii	"\000b$\034\355\323\325\336\312\303\373b1;{\272\376\344"
  40      EDD3D5DE 
  40      CAC3FB62 
  40      313B7BBA 
  40      FEE4
  41 006c B9348503 		.ascii	"\2714\205\003\302 #<\025\372*\322P1\201\275\206V\"\025"
  41      C220233C 
  41      15FA2AD2 
  41      503181BD 
  41      86562215 
  42 0080 4F491F93 		.ascii	"OI\037\223\242\230n\014\250F\2513k\253\332\016\273\024"
  42      A2986E0C 
  42      A846A933 
  42      6BABDA0E 
  42      BB14
  43 0092 1BCD1CE3 		.ascii	"\033\315\034\343\267\273\217\027&\274R\247.M\013\333"
  43      B7BB8F17 
  43      26BC52A7 
  43      2E4D0BDB 
  44 00a2 19FD4B5C 		.ascii	"\031\375K\\0c\243K\331\323\030\2701:\254\206\237\343"
ARM GAS  /tmp/ccL9CB8M.s 			page 3


  44      3063A34B 
  44      D9D318B8 
  44      313AAC86 
  44      9FE3
  45 00b4 F1A002BC 		.ascii	"\361\240\002\274\026n\212\211\026\205K&R\017\313\370"
  45      166E8A89 
  45      16854B26 
  45      520FCBF8 
  46 00c4 3F0C6B66 		.ascii	"?\014kf\\3\276k\322\\\335D~\201/S\021Z\344\333T9\253"
  46      5C33BE6B 
  46      D25CDD44 
  46      7E812F53 
  46      115AE4DB 
  47 00db 5381F6D6 		.ascii	"S\201\366\326\037\177\235C\347\354\255v6\265sy_\256"
  47      1F7F9D43 
  47      E7ECAD76 
  47      36B57379 
  47      5FAE
  48 00ed 5548E4AC 		.ascii	"UH\344\254B\340\025\365+D\313\302\266N\257\217d'\332"
  48      42E015F5 
  48      2B44CBC2 
  48      B64EAF8F 
  48      6427DA
  49 0100 8C8FF361 		.ascii	"\214\217\363a\234\017\3238\355e\235\3540\217\365\353"
  49      9C0FD338 
  49      ED659DEC 
  49      308FF5EB 
  50 0110 257D973A 		.ascii	"%}\227:J\372;)\276\001\012\327V\323"
  50      4AFA3B29 
  50      BE010AD7 
  50      56D3
  51              		.text
  52              		.section	.gnu.lto_palWriteBus.70dbc4ad91d55327,"",%progbits
  53 0000 789C6D51 		.ascii	"x\234mQ\261N\302P\024\275\367\275RJ\241\240\233nF\235"
  53      B14EC250 
  53      14BDF7BD 
  53      524AA1A0 
  53      9B6E469D 
  54 0014 24B11FE0 		.ascii	"$\261\037\340\027\270c\242n\320\001\232@4\020g@\031"
  54      17B863A2 
  54      6ED0019A 
  54      40341067 
  54      4019
  55 0026 1C996572 		.ascii	"\034\231er5Q\027\026\243\211\306\301M\0237\343\304\027"
  55      35511716 
  55      A389C6C1 
  55      4D1337E3 
  55      C417
  56 0038 E8E26882 		.ascii	"\350\342h\202\347\276\322\022\033^\332s\357;\357\336"
  56      E7BED212 
  56      1B5EDA73 
  56      EF3BEFDE 
  57 0048 F3CE6D15 		.ascii	"\363\316m\025)J\257U\274;\2407\021Y\023\253\341\033"
  57      294AAF55 
  57      BC3BA037 
  57      115913AB 
  57      E11B
ARM GAS  /tmp/ccL9CB8M.s 			page 4


  58 005a 51DF51CC 		.ascii	"Q\337Q\314\222\020SWq\367\200M\355\255z\232L\2477?/"
  58      92105357 
  58      71F7804D 
  58      EDAD7A9A 
  58      4CA7373F 
  59 006f E35F1EA9 		.ascii	"\343_\036\251e\305-&M!\223\205\2143\310\330\026\310"
  59      65C52D26 
  59      4D219385 
  59      8C33C8D8 
  59      16C8
  60 0081 0A380095 		.ascii	"\0128\000\225\023p\001:/\\A\300\223mQ\262\222\000t3"
  60      1370013A 
  60      2F5C41C0 
  60      936D51B2 
  60      92007433 
  61 0095 34E8F586 		.ascii	"4\350\365\206k-\206\217\300\\U\001\312\375{\240\020"
  61      6B2D868F 
  61      C05C5501 
  61      CAFD7BA0 
  61      10
  62 00a6 F52B9D7E 		.ascii	"\365+\235~~|\257T\371\022\327\324Y\227i+dkD\027\034"
  62      7E7CAF54 
  62      F912D7D4 
  62      5997692B 
  62      646B4417 
  63 00bb 72A6CE6A 		.ascii	"r\246\316j\037\3216\036k\034O\206\236\007\035w\240\310"
  63      1FD1361E 
  63      6B1C4F86 
  63      9E071D77 
  63      A0C8
  64 00cd 32D461CC 		.ascii	"2\324a\314\330F#\273X\203\023\215\263\373D#kd\354\377"
  64      D84623BB 
  64      5883138D 
  64      B3FB4423 
  64      6B64ECFF 
  65 00e1 328E9171 		.ascii	"2\216\221q\026\313\250\271\314y\"\223C\223\024\251\245"
  65      16CBA8B9 
  65      CC792293 
  65      439314A9 
  65      A5
  66 00f2 C8E45772 		.ascii	"\310\344Wr\342\342\320\024_'T\336\\\353\246\234\024"
  66      E2E2D014 
  66      5F2754DE 
  66      5CEBA69C 
  66      14
  67 0103 304DEC64 		.ascii	"0M\354d\336\356A8\325^4\265\236a\357\022\266dt\213\302"
  67      DEEE4138 
  67      D55E34B5 
  67      9E61EF12 
  67      B664748B 
  68 0118 3EEF4664 		.ascii	">\357Fd\231\256z\003\230\312\305\211\033M\204:-f\255"
  68      99AE7A03 
  68      98CAC589 
  68      1B4D843A 
  68      2D66AD
  69 012b D9447A16 		.ascii	"\331Dz\026\243=\244\210\336\251?y\334\210d\342U\301"
  69      A33DA488 
ARM GAS  /tmp/ccL9CB8M.s 			page 5


  69      DEA93F79 
  69      DC8864E2 
  69      55C1
  70 013d 17C47F93 		.ascii	"\027\304\177\223\371\327\375\223N\333\357\264\003?h"
  70      F9D7FD93 
  70      4EDBEFB4 
  70      033F68
  71 014c 84B5F0A8 		.ascii	"\204\265\360\250\343\343iT\233\206:\2566\267\003\372"
  71      E3E36954 
  71      9B863AAE 
  71      36B703FA 
  72 015c 0348AA77 		.ascii	"\003H\252wJ"
  72      4A
  73              		.text
  74              		.section	.gnu.lto_palSetBusMode.70dbc4ad91d55327,"",%progbits
  75 0000 789C6D90 		.ascii	"x\234m\220\277J\003A\020\306\277o\366\376\231\312R;"
  75      BF4A0341 
  75      10C6BF6F 
  75      F6FE99CA 
  75      523B
  76 0012 512B05EF 		.ascii	"Q+\005\357e\"\250\335\345\300\313B\202\222`e\221\213"
  76      6522A8DD 
  76      E5C0CB42 
  76      82926065 
  76      918B
  77 0024 5A58A656 		.ascii	"ZX\246V\020|\000Mkig\245bJ\253<\200\344\001\264\210"
  77      107C004D 
  77      6B6967A5 
  77      624AAB3C 
  77      80E401B4 
  78 0039 B31B4F41 		.ascii	"\263\033OAn\331\235\331\375v~3\263+\020\374\037\253"
  78      6ED99DD9 
  78      FD767E33 
  78      B32B10FC 
  78      1FAB
  79 004b BA0E096C 		.ascii	"\272\016\011l\252\247\001e\364\002\014\023!\335\006"
  79      AAA70165 
  79      F4020C13 
  79      21DD06
  80 005a C44038D8 		.ascii	"\304@8\330\247\217\035\313\343t>\277\237<\215?x#\015"
  80      A78F1DCB 
  80      E3743EBF 
  80      9F3C8D3F 
  80      78230D
  81 006d 619730B0 		.ascii	"a\2270\260D\240\206\241\032\211\324\230\330\035\023"
  81      44A086A1 
  81      1A89D498 
  81      D81D13
  82 007c BD755888 		.ascii	"\275uX\210\213\262\034\255u\251\265s\237\247\251\326"
  82      8BB21CAD 
  82      75A9B573 
  82      9FA7A9D6 
  83 008c 25DF5549 		.ascii	"%\337UI\275y\306\331\373\303\327J\306[\315Q\320lc\313"
  83      BD79C6D9 
  83      FBC3D74A 
  83      C65BCD51 
  83      D06C63CB 
ARM GAS  /tmp/ccL9CB8M.s 			page 6


  84 00a0 32B8C615 		.ascii	"2\270\306\025-\303\202\262\247>\362\015\264X\265\255"
  84      2DC382B2 
  84      A73EF20D 
  84      B458B5AD 
  85 00b0 CC410504 		.ascii	"\314A\005\004\036\210\353\001\326\000\241\007\222z@"
  85      1E88EB01 
  85      D600A107 
  85      927A40
  86 00bf FE8099A9 		.ascii	"\376\200\231\251\210H!'\235\337\375J\261\026.\034\365"
  86      88482127 
  86      9DDFFD4A 
  86      B1162E1C 
  86      F5
  87 00d0 8A68A101 		.ascii	"\212h\241\001\247\370,/\313e\313\245\374\247\260>\307"
  87      A7F82C2F 
  87      CB65CBA5 
  87      FCA7B03E 
  87      C7
  88 00e1 8726960D 		.ascii	"\207&\226\015\340\015\303\351l\243\212^\214\246F\352"
  88      E00DC3E9 
  88      6CA38A5E 
  88      8CA646EA 
  89 00f1 2FB8B2EB 		.ascii	"/\270\262\353\351I\277\227\366{y\232\267m\313\036\365"
  89      E949BF97 
  89      F67B799A 
  89      B76DCB1E 
  89      F5
  90 0102 539DEDAC 		.ascii	"S\235\355\254\343\245\343\254\263\223\343\033\202.Q"
  90      E3A5E3AC 
  90      B393E31B 
  90      822E51
  91 0111 82       		.ascii	"\202"
  92              		.text
  93              		.section	.gnu.lto_.symbol_nodes.70dbc4ad91d55327,"",%progbits
  94 0000 789C6362 		.ascii	"x\234cb`bpe\200\002\246\026\246z\006\206\011\347\030"
  94      60627065 
  94      8002A616 
  94      A67A0686 
  94      09E718
  95 0013 18EAEBE7 		.ascii	"\030\352\353\347u02\2652\3253\"q\333\230\352\231\020"
  95      753032B5 
  95      32D53322 
  95      71DB98EA 
  95      9910
  96 0025 5CC64EA6 		.ascii	"\\\306N\246zf\010\267\241\201\221\231\211\231a\361\303"
  96      7A6608B7 
  96      A1819199 
  96      899961F1 
  96      C3
  97 0036 7F8C0C00 		.ascii	"\177\214\014\000\3061\024e"
  97      C6311465 
  98              		.text
  99              		.section	.gnu.lto_.refs.70dbc4ad91d55327,"",%progbits
 100 0000 789C6362 		.ascii	"x\234cb`b`d\200\002\000\000F\000\006"
 100      60626064 
 100      80020000 
 100      460006
ARM GAS  /tmp/ccL9CB8M.s 			page 7


 101              		.text
 102              		.section	.gnu.lto_.decls.70dbc4ad91d55327,"",%progbits
 103 0000 789CB558 		.ascii	"x\234\265X{L\024G\030\237\331\273S\016ND\255\006\223"
 103      7B4C1447 
 103      189FD9BB 
 103      530E4E44 
 103      AD0693
 104 0013 B6A0A9C6 		.ascii	"\266\240\251\306\030\353)\246Z\377\261U\241b\212\205"
 104      18EB29A6 
 104      5AFFB155 
 104      A1628A85 
 105 0023 1C1AED5F 		.ascii	"\034\032\355_\333\005\016\271\364x\204\333kc\322\244"
 105      DB050EB9 
 105      F47884DB 
 105      6B63D2A4 
 106 0033 83A83534 		.ascii	"\203\25054\265\210Q\361Y\020P\333\304\267\370\2525W"
 106      B58851F1 
 106      591050DB 
 106      C4B7F8AA 
 106      3557
 107 0045 6B847256 		.ascii	"k\204rV\215\306j\223\032O\3730F\023\305b\253\246x\375"
 107      8DC66A93 
 107      1A4FFB30 
 107      4613C562 
 107      ABA678FD 
 108 0059 6676F76E 		.ascii	"fv\367nw\331\275\007I7|\303\314\356|\277\357\367=ff"
 108      77D9BD07 
 108      49377CC3 
 108      CCEE7CBF 
 108      EFF73D66 
 109 006e F738C4A1 		.ascii	"\3678\304\241O0Ba\270\374/!4\227C\310\212\020\232\203"
 109      4F304261 
 109      B8FC2F21 
 109      349743C8 
 109      8A109A83 
 110 0082 A2171DB7 		.ascii	"\242\027\035\267\202\364\201\364\203\3301\032p\321\347"
 110      82F481F4 
 110      83D8311A 
 110      70D1E7
 111 0091 69207741 		.ascii	"i wA\206\202\330d\2756\220N\220\003 \373AN\203\034\003"
 111      8682D864 
 111      BD36904E 
 111      900320FB 
 111      414E831C 
 112 00a6 79203F3F 		.ascii	"y ??\012r\016\344>\310=\020,c\001\015\324\0132\\g\213"
 112      0A720EE4 
 112      3EC83D10 
 112      2C63010D 
 112      D40B325C 
 113 00bc 727018D8 		.ascii	"rp\030\330Q\333h\223\361\251\255\037e{6\331\326=\331"
 113      51DB6893 
 113      F1A9AD1F 
 113      657B36D9 
 113      D63DD9
 114 00cf 5637C805 		.ascii	"V7\310\005\331\036\305\264\200<\003y\0162Vg\263\337"
 114      D91EC5B4 
 114      803C0379 
ARM GAS  /tmp/ccL9CB8M.s 			page 8


 114      0E325667 
 114      B3DF
 115 00e1 C437239B 		.ascii	"\3047#\233\257\202n*\226\360\324\3668U\354\3503\033"
 115      AF826E2A 
 115      96F0D4F6 
 115      3855ECE8 
 115      331B
 116 00f3 FC1F0292 		.ascii	"\374\037\002\222\245\263\225\205v\222\226P\250\343\316"
 116      A5B39585 
 116      76929650 
 116      A8E3CE
 117 0102 23BC8504 		.ascii	"#\274\205\004V\221p\370S4\006m$p\265\254!\004\213v\264"
 117      569170F8 
 117      5334066D 
 117      2470B5AC 
 117      21048B76 
 118 0117 96909574 		.ascii	"\226\220\225t\220\337\235\216\3202,\340t;\312f\035\207"
 118      90DF9D8E 
 118      D0322CE0 
 118      743BCA66 
 118      1D87
 119 0129 9DF19A80 		.ascii	"\235\361\232\200\332\011i\014m{\326>\231\220\024\001"
 119      DA09690C 
 119      6D7BD63E 
 119      99901401 
 120 0139 B7613BD8 		.ascii	"\267a;\330\3471\232\214\276\006\234F\320\237e\220B\224"
 120      E7319A8C 
 120      BE069C46 
 120      D09F6590 
 120      4294
 121 014b 38F4F5CF 		.ascii	"8\364\365\317\332\2470\350=\014z\023\306H\300\273\361"
 121      DAA730E8 
 121      3D0C7A13 
 121      C648C0BB 
 121      F1
 122 015c E4A481C2 		.ascii	"\344\244\201\302=\347\326\343z\360K\300\3370\250\237"
 122      3DE7D6E3 
 122      7AF04BC0 
 122      DF30A89F 
 123 016c 7450021E 		.ascii	"tP\002\036jWsdce\002\305c\217\345\016-\342\341\350\177"
 123      6A577364 
 123      636502C5 
 123      638FE50E 
 123      2DE2E1E8 
 124 0181 9E6EE40D 		.ascii	"\236n\344\015\325\334\205\307\260\236\205\345\032\012"
 124      D5DC85C7 
 124      B09E85E5 
 124      1A0A
 125 018f A6211A83 		.ascii	"\246!\032\203\221h=\315`\266*\032\037(\372\216h4z/^"
 125      91683DCD 
 125      60B62A1A 
 125      1F28FA8E 
 125      68347A2F 
 126 01a4 C861613D 		.ascii	"\310aa=\200G\002JX\027\213x(\224\305a\320\224t\030&"
 126      8047024A 
 126      58178B78 
 126      2894C561 
ARM GAS  /tmp/ccL9CB8M.s 			page 9


 126      D0947418 
 127 01b9 093CE972 		.ascii	"\011<\351r\020\253t\037i\3204\3278\324\002l\003\375"
 127      10AB741F 
 127      69D034D7 
 127      38D4026C 
 127      03FD
 128 01cb 5DDBC792 		.ascii	"]\333\307\222\226\2638\036\371\020\247\330\235\242\252"
 128      96B3381E 
 128      F910A7D8 
 128      9DA2AA
 129 01da B7DECD16 		.ascii	"\267\336\315\026\306\376\030c\277\232\213\313^\013C"
 129      C6FE1863 
 129      BF9A8BCB 
 129      5E0B43
 130 01e9 E99DD4D3 		.ascii	"\351\235\324\323?\022d\364O\306\247\277\252>p<(\321"
 130      3F1264F4 
 130      4FC6A7BF 
 130      AA3E703C 
 130      28D1
 131 01fb 67F5571F 		.ascii	"g\365W\037\263\376\004\274\027OH(\337\034jb\236P\012"
 131      B3FE04BC 
 131      174F4828 
 131      DF1C6A62 
 131      9E500A
 132 020e 46487257 		.ascii	"FHrW\272\344\011ZZ'\202\216FA\300\247Y\2017'\015\226"
 132      BAE4095A 
 132      5A27828E 
 132      4641C0A7 
 132      59813727 
 133 0224 AD013BA5 		.ascii	"\255\001;\245\006\373*\021\260\024sf\247\325`{\222\006"
 133      06FB2A11 
 133      B0147366 
 133      A7D5607B 
 133      9206
 134 0236 D3323BA3 		.ascii	"\3232;\243\006\333\227\010X\2069\263\313j\260CI\203"
 134      06DB9708 
 134      588639B3 
 134      CB6AB043 
 134      4983
 135 0248 A999D505 		.ascii	"\251\231\325\005n\005{0ir\214BM\204\324\221\226!fE\201"
 135      6E057B30 
 135      69728C42 
 135      4D84D491 
 135      96216645 
 136 025d 109B4262 		.ascii	"\020\233BbN\021p\017\036\245-\322\253\237\247\323\""
 136      4E11700F 
 136      1EA52DD2 
 136      AB9FA7D3 
 136      22
 137 026e A5F7E3AF 		.ascii	"\245\367\343\257\261kr\221*\233g's\216\352\016\242\272"
 137      B16B7291 
 137      2A9B6727 
 137      738EEA0E 
 137      A2BA
 138 0280 C0F8CD60 		.ascii	"\300\370\315`\032ip\310\253\253\345\355\2751\210_\322"
 138      1A6970C8 
 138      ABABE5ED 
ARM GAS  /tmp/ccL9CB8M.s 			page 10


 138      BD31885F 
 138      D2
 139 0291 AFAEEB41 		.ascii	"\257\256\353A.[\272\035\237\367/\301\355\231\244\345"
 139      2E5BBA1D 
 139      9FF72FC1 
 139      ED99A4E5 
 140 02a1 7B2C6FEE 		.ascii	"{,o\356d\015\231\244\262\225\241\330\242\233_\344\224"
 140      640D99A4 
 140      B295A1D8 
 140      A29B5FE4 
 140      94
 141 02b2 D8219D12 		.ascii	"\330!\235\022W\230\243\3079\303S\"\001\240p\317\276"
 141      5798A3C7 
 141      39C35322 
 141      01A070CF 
 141      BE
 142 02c3 D90CE81A 		.ascii	"\331\014\350\032\003\012p\3723\302\242;#,\332Um\261"
 142      030A70FA 
 142      33C2A23B 
 142      232CDA55 
 142      6DB1
 143 02d5 473BE1B0 		.ascii	"G;\341\260\005%7\231CAf\360R\264\3764$\343\245hehk\347"
 143      05253799 
 143      434166F0 
 143      52B4FE34 
 143      24E3A568 
 144 02ed 66163A25 		.ascii	"f\026:%\022\227\222\306\313\320\345\204C\327\006[6*"
 144      129792C6 
 144      CBD0E584 
 144      43D7065B 
 144      362A
 145 02ff CF25A705 		.ascii	"\317%\247\005|\001\217\203\366\"\264*\003\327\023Yt"
 145      7C018F83 
 145      F622B42A 
 145      03D71359 
 145      74
 146 0310 99264EC3 		.ascii	"\231&N\303\012~\244^\301\277&\015\226\255\001{\254\006"
 146      0A7EA45E 
 146      C1BF260D 
 146      96AD017B 
 146      AC06
 147 0322 BB9D0858 		.ascii	"\273\235\010X\2669\263>5\330\237I\203i\231\375\255\006"
 147      B639B33E 
 147      35D89F49 
 147      836999FD 
 147      AD06
 148 0334 BB9F08D8 		.ascii	"\273\237\010\330\244XI\321\344'z\032\012\370\024;\256"
 148      A45849D1 
 148      E4277A1A 
 148      0AF8143B 
 148      AE
 149 0345 BE65993A 		.ascii	"\276e\231:\303\332\000k\317\262\366\034k\317\263\266"
 149      C3DA006B 
 149      CFB2F61C 
 149      6BCFB3B6 
 150 0355 9BB53759 		.ascii	"\233\2657Y{\213\265\267Y\373\233:\277\346\357d\201\177"
 150      7B8BB5B7 
ARM GAS  /tmp/ccL9CB8M.s 			page 11


 150      59FB9B3A 
 150      BFE6EF64 
 150      817F
 151 0367 9A5EA6BB 		.ascii	"\232^\246\273Y'\274\005p\350\241n\255i\336\014\244\243"
 151      5927BC05 
 151      70E8A16E 
 151      AD69DE0C 
 151      A4A3
 152 0379 DE6CB7B9 		.ascii	"\336l\267\271\013\000\306\233\312\200g\034z\316\354"
 152      0B00C69B 
 152      CA80671C 
 152      7ACEEC
 153 0388 1C1EDC19 		.ascii	"\034\036\334\031\013K\254w\335\371&\274\241\236tOS\336"
 153      0B4BAC77 
 153      DDF926BC 
 153      A19E744F 
 153      53DE
 154 039a 77EB2CC9 		.ascii	"w\353,\311\"f\253\021\003\007{ \261\211\277\311\356"
 154      2266AB11 
 154      03077B20 
 154      B189BFC9 
 154      EE
 155 03ab D87AEC2D 		.ascii	"\330z\354-\266G=`\326\333-\372=\312\246\333\243l\332"
 155      B6473D60 
 155      D6DB2DFA 
 155      3DCAA6DB 
 155      A36CDA
 156 03be 6DC7668F 		.ascii	"m\307f\217v\"o\036\207\022\361\301\350|7\256\247\303"
 156      76226F1E 
 156      8712F1C1 
 156      E87C37AE 
 156      A7C3
 157 03d0 AA7A3AC2 		.ascii	"\252z:\302\352\351(\253\214{\254\275\037\257>(\304~"
 157      EAE928AB 
 157      8C7BACBD 
 157      1FAF3E28 
 157      C47E
 158 03e2 9C16C55B 		.ascii	"\234\026\305[\022\335J9tB\347\361k\250\215\220&\370"
 158      12DD4A39 
 158      7442E7F1 
 158      6BA88D90 
 158      26F8
 159 03f4 920958E1 		.ascii	"\222\011X\341K\306*\251r\350\0076\255\025g\231\274\226"
 159      4BC62AA9 
 159      72E80736 
 159      AD156799 
 159      BC96
 160 0406 C90626A2 		.ascii	"\311\006&\242\016\032\370\357~/\312\227\022\212bh\311"
 160      0E1AF8EF 
 160      7E2FCA97 
 160      128A6268 
 160      C9
 161 0417 741E614E 		.ascii	"t\036aN\355\257\364)\025x\262&\010\207?\371\227\356"
 161      EDAFF429 
 161      1578B226 
 161      08873FF9 
 161      97EE
ARM GAS  /tmp/ccL9CB8M.s 			page 12


 162 0429 E59A2F29 		.ascii	"\345\232/)\001\317\031m\352\347\023\355\333\274\304"
 162      01CF196D 
 162      EAE713ED 
 162      DBBCC4
 163 0438 2B329008 		.ascii	"+2\220\010\351#\320e\030\001\362WY\276\244.\340\307"
 163      E923D065 
 163      1801F257 
 163      59BEA42E 
 163      E0C7
 164 044a C050C07D 		.ascii	"\300P\300}\261\235\227\325\216\273\363\225R\276\312"
 164      B19D97D5 
 164      8EBBF395 
 164      52BECA
 165 0459 80CDD564 		.ascii	"\200\315\325d:,f\204|AVg`\346\034\222\2654E\360\324"
 165      3A2C6684 
 165      7C415667 
 165      60E61C92 
 165      B53445F0 
 166 046e 304A57BA 		.ascii	"0JW\272\034\215u\241p8+\361\020\275\210\021\242$\276"
 166      1C8D75A1 
 166      70382BF1 
 166      10BD8811 
 166      A224BE
 167 0481 52F77548 		.ascii	"R\367uH_\251u\034u\365\306\200u\263\007\017\346\003"
 167      5FA9751C 
 167      75F5C680 
 167      75B3070F 
 167      E603
 168 0493 50979ADB 		.ascii	"P\227\232\333&\305\371\374\206%Z\234J~\372\023\312\317"
 168      26C5F9FC 
 168      86255A9C 
 168      4A7EFA13 
 168      CACF
 169 04a5 119A1F89 		.ascii	"\021\232\037\211\364C\206n\256Fg\231\345\247_\237\237"
 169      F443866E 
 169      AE466799 
 169      E5A75F9F 
 169      9F
 170 04b6 55DC80FC 		.ascii	"U\334\200\374\204 L\255g2\267\220\263\006?\010\304\314"
 170      84204CAD 
 170      6732B790 
 170      B3063F08 
 170      C4CC
 171 04c8 5103A7CB 		.ascii	"Q\003\247\313Q\247A\031G\3062O]\354\372t\261S\210\256"
 171      51A74119 
 171      47C6324F 
 171      5DECFA74 
 171      B15388AE 
 172 04dc D3121D8F 		.ascii	"\323\022\035\217Z\311\345\313\241?\3564\343\265!\322"
 172      5AC9E5CB 
 172      A13FEE34 
 172      E3B521D2 
 173 04ec 485E84C3 		.ascii	"H^\204\303x\004jd\337|\315\351rA\204:\002\231\315\321"
 173      78046A64 
 173      DF7CCDE9 
 173      7241843A 
 173      0299CDD1 
ARM GAS  /tmp/ccL9CB8M.s 			page 13


 174 0500 824851F8 		.ascii	"\202HQ\370b\245 \350\257\023\\d2\311\3144\236+\340&"
 174      62A520E8 
 174      AF135C64 
 174      32C9CC34 
 174      9E2BE026 
 175 0514 8EEE5F1B 		.ascii	"\216\356_\033$\306\354\221\324WzaL\2717X\215~\350`\000"
 175      24C6EC91 
 175      D4577A61 
 175      4CB93758 
 175      8D7EE860 
 176 0529 B15565A3 		.ascii	"\261Ue\243\313\024\243\322\256\027\365G\232i<K\300\033"
 176      CB14A3D2 
 176      AE17F547 
 176      9A693C4B 
 176      C01B
 177 053b B911ACC7 		.ascii	"\271\021\254\307\034!\221\323\322a7M\324&\025\033\207"
 177      1C2191D3 
 177      D261374D 
 177      D426151B 
 177      87
 178 054c 3DDA49D5 		.ascii	"=\332I\325pVf\201g_Zu\373\250\216\004|i\312\276\013"
 178      70566681 
 178      675F5A75 
 178      FBA88E04 
 178      7C69CABE 
 179 0561 98FE2025 		.ascii	"\230\376 %\245'\360\364<I9H\326\3222R;\263>\352\214"
 179      A527F0F4 
 179      3C493948 
 179      D6D23252 
 179      3BB33EEA 
 180 0576 EE270513 		.ascii	"\356'\005\023\227\007\374\360\260-i\227\267\233\270"
 180      9707FCF0 
 180      B02D6997 
 180      B79BB8
 181 0585 1C396034 		.ascii	"\0349`4\263\240\273\231\323\355\236:\022\034\332\255"
 181      B3A0BB99 
 181      D3ED9E3A 
 181      121CDAAD 
 182 0595 7159F7AE 		.ascii	"qY\367\256B\327\202\031\227\235\\\304\252\034\250\237"
 182      42D78219 
 182      979D5CC4 
 182      AA1CA89F 
 183 05a5 BBE205AA 		.ascii	"\273\342\005\252F\001I\217\025(\335,HY\322\201\332e"
 183      4601498F 
 183      1528DD2C 
 183      4859D281 
 183      DA65
 184 05b7 12A8619A 		.ascii	"\022\250a\232@\355\322\007J\265\037\351Hp\350\250&P"
 184      40EDD207 
 184      4AB51FE9 
 184      4870E8A8 
 184      2650
 185 05c9 68BCD3EF 		.ascii	"h\274\323\357\253u\372jK\235\245\025\236\022O\265\317"
 185      AB75FA6A 
 185      4B9DA515 
 185      9E124FB5 
 185      CF
ARM GAS  /tmp/ccL9CB8M.s 			page 14


 186 05da 097F1582 		.ascii	"\011\177\025\202\227\335\252\021\274SK\321l\263)5\325"
 186      97DDAA11 
 186      BC534BD1 
 186      6CB32935 
 186      D5
 187 05eb B5A2CF59 		.ascii	"\265\242\317Y\274x\321\214\034gAA\256sA\321\302\302"
 187      BC78D18C 
 187      1C674141 
 187      AE7341D1 
 187      C2C2
 188 05fd 8F72A816 		.ascii	"\217r\250\026\357\365\226M\255@\016O5\235S)\370>\344"
 188      EFF5964D 
 188      AD400E4F 
 188      359D5329 
 188      F83EE4
 189 0610 C5210BDE 		.ascii	"\305!\013\336[\222=_6\350\251*\365\372\313\334\316*"
 189      5B923D5F 
 189      36E8A92A 
 189      F5FACBDC 
 189      CE2A
 190 0622 F7C75E4F 		.ascii	"\367\307^O\211\323\267\302\347\344}b\231\247J\004\265"
 190      89D3B7C2 
 190      E7E47D62 
 190      99A74A04 
 190      B5
 191 0633 143FFC9F 		.ascii	"\024?\374\237\221\303\213\257\033\315\255\024\200F\225"
 191      91C38BAF 
 191      1BCDAD14 
 191      804695
 192 0642 DBC997B9 		.ascii	"\333\311\227\271\313\005\277W\344\305\0255n\037\250"
 192      CB05BF57 
 192      E4C51535 
 192      6E1FA8
 193 0651 A5F2BCA2 		.ascii	"\245\362\274\2428\321\214\262\202E=\253@\266\205\205"
 193      38D18CB2 
 193      82453DAB 
 193      40B68585 
 194 0661 F3FC3E87 		.ascii	"\363\374>\207O\254\004\245\3455\236j^\264-*\314\315"
 194      4FAC04A5 
 194      E5359E6A 
 194      5EB42D2A 
 194      CCCD
 195 0673 730D295C 		.ascii	"s\015)\\\374~Q\236khaqQ^^\256\313V\264\244(\327eY\010"
 195      FC7E519E 
 195      6B686171 
 195      515E5EAE 
 195      CB56B4A4 
 196 068c 5298EBC2 		.ascii	"R\230\353\302K\031\301\3513yQ6I\273\026\237[\264\225"
 196      4B19C1E9 
 196      33795136 
 196      49BB169F 
 196      5BB495
 197 069f 7ADD422D 		.ascii	"z\335B-\316\267\316+v\271\254\005\363\337uY\347\276"
 197      CEB7CE2B 
 197      76B9AC05 
 197      F3DF7559 
 197      E7BE
ARM GAS  /tmp/ccL9CB8M.s 			page 15


 198 06b1 E32AA04D 		.ascii	"\343*\240M\276e\236\313\225*\305\303S\006\321\220:V"
 198      BE659ECB 
 198      952AC5C3 
 198      5306D190 
 198      3A56
 199 06c3 1A9B570C 		.ascii	"\032\233W\014C\242D\303A-\360\345\202O|\023\324\252"
 199      43A244C3 
 199      412DF0E5 
 199      824F7C13 
 199      D4AA
 200 06d5 CBCBC150 		.ascii	"\313\313\301P*\360w\271\2052`o)\361\373\322`\270\264"
 200      2AF077B9 
 200      8532606F 
 200      29F1FBD2 
 200      60B8B4
 201 06e8 D623BA61 		.ascii	"\326#\272al-\361\210\276\024Oueu\231\233\027\207\301"
 201      6C2DF188 
 201      BE144F75 
 201      6575999B 
 201      1787C1
 202 06fb 9362B708 		.ascii	"\223b\267\010\367\027\301\330Jo\216\346\345\004\361"
 202      F717C1D8 
 202      4A6F8EE6 
 202      E504F1
 203 070a 00B4BCB6 		.ascii	"\000\264\274\266\332_C\357ZK+\204\332\024\236/\367W"
 203      DA5F43EF 
 203      5A4B2B84 
 203      DA149E2F 
 203      F757
 204 071c 95F2FC30 		.ascii	"\225\362\3740\2453u\326\033\263\247kF3U\243\231\323"
 204      A53375D6 
 204      1BB3A76B 
 204      463355A3 
 204      99D3
 205 072e A6FF0797 		.ascii	"\246\377\007\227V\210\266"
 205      5688B6
 206              		.text
 207              		.section	.gnu.lto_.symtab.70dbc4ad91d55327,"",%progbits
 208 0000 70616C52 		.ascii	"palReadBus\000\000\000\000\000\000\000\000\000\000\000"
 208      65616442 
 208      75730000 
 208      00000000 
 208      00000000 
 209 0015 00A10000 		.ascii	"\000\241\000\000\000palWriteBus\000\000\000\000\000"
 209      0070616C 
 209      57726974 
 209      65427573 
 209      00000000 
 210 002a 00000000 		.ascii	"\000\000\000\000\000\000\000\364\000\000\000palSetB"
 210      000000F4 
 210      00000070 
 210      616C5365 
 210      7442
 211 003c 75734D6F 		.ascii	"usMode\000\000\000\000\000\000\000\000\000\000\000\000"
 211      64650000 
 211      00000000 
 211      00000000 
ARM GAS  /tmp/ccL9CB8M.s 			page 16


 211      0000
 212 004e FD000000 		.ascii	"\375\000\000\000_pal_lld_setgroupmode\000\000\002\000"
 212      5F70616C 
 212      5F6C6C64 
 212      5F736574 
 212      67726F75 
 213 006b 00000000 		.ascii	"\000\000\000\000\000\000\000\000\011\001\000\000"
 213      00000000 
 213      09010000 
 214              		.text
 215              		.section	.gnu.lto_.opts,"",%progbits
 216 0000 272D6D63 		.ascii	"'-mcpu=cortex-m4' '-mno-thumb-interwork' '-mthumb' "
 216      70753D63 
 216      6F727465 
 216      782D6D34 
 216      2720272D 
 217 0033 272D6767 		.ascii	"'-ggdb' '-O2' '-fomit-frame-pointer' '-falign-funct"
 217      64622720 
 217      272D4F32 
 217      2720272D 
 217      666F6D69 
 218 0066 696F6E73 		.ascii	"ions=16' '-ffunction-sections' '-fdata-sections' '-"
 218      3D313627 
 218      20272D66 
 218      66756E63 
 218      74696F6E 
 219 0099 666E6F2D 		.ascii	"fno-common' '-flto'\000"
 219      636F6D6D 
 219      6F6E2720 
 219      272D666C 
 219      746F2700 
 220              		.text
 221              		.cfi_sections	.debug_frame
 222              		.section	.text.palReadBus,"ax",%progbits
 223              		.align	2
 224              		.p2align 4,,15
 225              		.global	palReadBus
 226              		.thumb
 227              		.thumb_func
 228              		.type	palReadBus, %function
 229              	palReadBus:
 230              	.LFB260:
 231              		.file 1 "/usr/src/chibios/os/hal/src/pal.c"
 232              		.loc 1 65 0
 233              		.cfi_startproc
 234              		@ args = 0, pretend = 0, frame = 0
 235              		@ frame_needed = 0, uses_anonymous_args = 0
 236              		@ link register save eliminated.
 237              	.LVL0:
 238              		.loc 1 69 0
 239 0000 0368     		ldr	r3, [r0]
 240 0002 8268     		ldr	r2, [r0, #8]
 241 0004 1969     		ldr	r1, [r3, #16]
 242 0006 4368     		ldr	r3, [r0, #4]
 243 0008 21FA02F0 		lsr	r0, r1, r2
 244              	.LVL1:
 245              		.loc 1 70 0
ARM GAS  /tmp/ccL9CB8M.s 			page 17


 246 000c 1840     		ands	r0, r0, r3
 247 000e 7047     		bx	lr
 248              		.cfi_endproc
 249              	.LFE260:
 250              		.size	palReadBus, .-palReadBus
 251              		.section	.text.palWriteBus,"ax",%progbits
 252              		.align	2
 253              		.p2align 4,,15
 254              		.global	palWriteBus
 255              		.thumb
 256              		.thumb_func
 257              		.type	palWriteBus, %function
 258              	palWriteBus:
 259              	.LFB261:
 260              		.loc 1 90 0
 261              		.cfi_startproc
 262              		@ args = 0, pretend = 0, frame = 0
 263              		@ frame_needed = 0, uses_anonymous_args = 0
 264              		@ link register save eliminated.
 265              	.LVL2:
 266              		.loc 1 94 0
 267 0000 0DC8     		ldmia	r0, {r0, r2, r3}
 268              	.LVL3:
 269              		.loc 1 90 0
 270 0002 30B4     		push	{r4, r5}
 271              		.cfi_def_cfa_offset 8
 272              		.cfi_offset 4, -8
 273              		.cfi_offset 5, -4
 274              		.loc 1 94 0
 275 0004 22EA0105 		bic	r5, r2, r1
 276 0008 03F11004 		add	r4, r3, #16
 277 000c 0A40     		ands	r2, r2, r1
 278 000e 02FA03F3 		lsl	r3, r2, r3
 279 0012 05FA04F2 		lsl	r2, r5, r4
 280 0016 1343     		orrs	r3, r3, r2
 281 0018 8361     		str	r3, [r0, #24]
 282              		.loc 1 95 0
 283 001a 30BC     		pop	{r4, r5}
 284 001c 7047     		bx	lr
 285              		.cfi_endproc
 286              	.LFE261:
 287              		.size	palWriteBus, .-palWriteBus
 288 001e 00BF     		.section	.text.palSetBusMode,"ax",%progbits
 289              		.align	2
 290              		.p2align 4,,15
 291              		.global	palSetBusMode
 292              		.thumb
 293              		.thumb_func
 294              		.type	palSetBusMode, %function
 295              	palSetBusMode:
 296              	.LFB262:
 297              		.loc 1 113 0
 298              		.cfi_startproc
 299              		@ args = 0, pretend = 0, frame = 0
 300              		@ frame_needed = 0, uses_anonymous_args = 0
 301              		@ link register save eliminated.
 302              	.LVL4:
ARM GAS  /tmp/ccL9CB8M.s 			page 18


 303 0000 10B4     		push	{r4}
 304              		.cfi_def_cfa_offset 4
 305              		.cfi_offset 4, -4
 306              		.loc 1 113 0
 307 0002 0A46     		mov	r2, r1
 308              		.loc 1 117 0
 309 0004 4468     		ldr	r4, [r0, #4]
 310 0006 8168     		ldr	r1, [r0, #8]
 311              	.LVL5:
 312 0008 0068     		ldr	r0, [r0]
 313              	.LVL6:
 314 000a 04FA01F1 		lsl	r1, r4, r1
 315              		.loc 1 118 0
 316 000e 5DF8044B 		ldr	r4, [sp], #4
 317              		.loc 1 117 0
 318 0012 FFF7FEBF 		b	_pal_lld_setgroupmode
 319              	.LVL7:
 320              		.cfi_endproc
 321              	.LFE262:
 322              		.size	palSetBusMode, .-palSetBusMode
 323 0016 00BF     		.text
 324              	.Letext0:
 325              		.file 2 "/usr/include/newlib/machine/_default_types.h"
 326              		.file 3 "/usr/include/newlib/sys/_stdint.h"
 327              		.file 4 "/usr/include/newlib/stdint.h"
 328              		.file 5 "/usr/src/chibios/os/rt/ports/ARMCMx/compilers/GCC/chtypes.h"
 329              		.file 6 "/usr/src/chibios/os/rt/include/chsystypes.h"
 330              		.file 7 "/usr/src/chibios/os/rt/include/chschd.h"
 331              		.file 8 "/usr/src/chibios/os/rt/ports/ARMCMx/chcore.h"
 332              		.file 9 "/usr/src/chibios/os/rt/ports/ARMCMx/chcore_v7m.h"
 333              		.file 10 "/usr/src/chibios/os/rt/include/chtm.h"
 334              		.file 11 "/usr/src/chibios/os/rt/include/chsem.h"
 335              		.file 12 "/usr/src/chibios/os/rt/include/chmtx.h"
 336              		.file 13 "/usr/src/chibios/os/hal/ports/STM32/LLD/GPIOv2/pal_lld.h"
 337              		.file 14 "/usr/src/chibios/os/hal/include/pal.h"
 338              		.file 15 "/usr/src/chibios/os/ext/CMSIS/include/core_cm4.h"