ARM GAS  /tmp/ccL9CB8M.s 			page 1


   1              		.syntax unified
   2              		.cpu cortex-m4
   3              		.fpu softvfp
   4              		.eabi_attribute 20, 1
   5              		.eabi_attribute 21, 1
   6              		.eabi_attribute 23, 3
   7              		.eabi_attribute 24, 1
   8              		.eabi_attribute 25, 1
   9              		.eabi_attribute 26, 1
  10              		.eabi_attribute 30, 2
  11              		.eabi_attribute 34, 1
  12              		.eabi_attribute 18, 4
  13              		.thumb
  14              		.file	"pal.c"
  15              		.text
  16              	.Ltext0:
  17              		.section	.gnu.lto_.jmpfuncs.70dbc4ad91d55327,"",%progbits
  18 0000 789C6362 		.ascii	"x\234cb`b\300\006D\24043\003##3\02333\204\315\300X\006"
  18      6062C006 
  18      44A03433 
  18      03232333 
  18      13333384 
  19 0018 A4010623 		.ascii	"\244\001\006#\000\243"
  19      00A3
  20              		.text
  21              		.section	.gnu.lto_.inline.70dbc4ad91d55327,"",%progbits
  22 0000 789C6362 		.ascii	"x\234cb`b\300\006\276Cif\006\006N\016Ff\006F0\023D:"
  22      6062C006 
  22      BE436966 
  22      06064E0E 
  22      46660646 
  23 0018 8049050E 		.ascii	"\200I\005\016\266\017z\014l\013\344\231\030\030_\260"
  23      B60F7A0C 
  23      6C0BE499 
  23      18185FB0 
  24 0028 B3404810 		.ascii	"\263@H\020\301\001fr\200\010\0010S\000d\014#\003\037"
  24      C1016672 
  24      80080130 
  24      5300640C 
  24      23031F
  25 003b 2F230BC4 		.ascii	"/#\013\304\024FF\210\010\320\020\210\201\334L\027\370"
  25      14464688 
  25      08D01088 
  25      81DC4C17 
  25      F8
  26 004c 318C028A 		.ascii	"1\214\002\212\241\030\302\262@^\002\304R`b`\336!\256"
  26      A118C2B2 
  26      405E02C4 
  26      52606260 
  26      DE21AE
  27 005f C000B4DE 		.ascii	"\300\000\264\336\002d\016\023\003\2670\212\373\240\206"
  27      02640E13 
  27      03B7308A 
  27      FBA086
  28 006e 7202E588 		.ascii	"r\002\345\210s\036\320&\011\220I,\274@}\023\374@\220"
  28      731ED026 
  28      0990492C 
ARM GAS  /tmp/ccL9CB8M.s 			page 2


  28      BC407D13 
  28      FC4090
  29 0081 01003C62 		.ascii	"\001\000<b\037\210"
  29      1F88
  30              		.text
  31              		.section	.gnu.lto_.pureconst.70dbc4ad91d55327,"",%progbits
  32 0000 789C6362 		.ascii	"x\234cb`b`g\200\000f\006)F)&I\000\001\312\000_"
  32      60626067 
  32      80006606 
  32      29462926 
  32      490001CA 
  33              		.text
  34              		.section	.gnu.lto_palReadBus.70dbc4ad91d55327,"",%progbits
  35 0000 789C6D90 		.ascii	"x\234m\220\261K\303@\024\306\277\357]\322$\035\334\335"
  35      B14BC340 
  35      14C6BFEF 
  35      5DD2241D 
  35      DCDD
  36 0012 449C2C98 		.ascii	"D\234,\230\177\246\202\272\245\031\332@\213\322\340"
  36      7FA682BA 
  36      A519DA40 
  36      8BD2E0
  37 0021 DCD87472 		.ascii	"\334\330tr*N\242\223\213\203C]\005\027qp\253\350\352"
  37      2A4EA293 
  37      8B83435D 
  37      05177170 
  37      ABE8EA
  38 0034 24B88AFF 		.ascii	"$\270\212\377B}w5\021\245G\356{w/\357\367\275\307\011"
  38      427D7735 
  38      11A547EE 
  38      7B772FEF 
  38      F7BDC709 
  39 0048 04FFD7BA 		.ascii	"\004\377\327\272\356S\002[\032i@\231>\003'\241\220\366"
  39      EE53025B 
  39      1A694099 
  39      3E0327A1 
  39      90F6
  40 005a 0062241C 		.ascii	"\000b$\034\355\323\325\336\312\303\373b1;{\272\376\344"
  40      EDD3D5DE 
  40      CAC3FB62 
  40      313B7BBA 
  40      FEE4
  41 006c B9348503 		.ascii	"\2714\205\003\302 #<\025\372*\322P1\201\275\206V\"\025"
  41      C220233C 
  41      15FA2AD2 
  41      503181BD 
  41      86562215 
  42 0080 4F491F93 		.ascii	"OI\037\223\242\230n\014\250F\2513k\253\332\016\273\024"
  42      A2986E0C 
  42      A846A933 
  42      6BABDA0E 
  42      BB14
  43 0092 1BCD1CE3 		.ascii	"\033\315\034\343\267\273\217\027&\274R\247.M\013\333"
  43      B7BB8F17 
  43      26BC52A7 
  43      2E4D0BDB 
  44 00a2 19FD4B5C 		.ascii	"\031\375K\\0c\243K\331\323\030\2701:\254\206\237\343"
ARM GAS  /tmp/ccL9CB8M.s 			page 3


  44      3063A34B 
  44      D9D318B8 
  44      313AAC86 
  44      9FE3
  45 00b4 F1A002BC 		.ascii	"\361\240\002\274\026n\212\211\026\205K&R\017\313\370"
  45      166E8A89 
  45      16854B26 
  45      520FCBF8 
  46 00c4 3F0C6B66 		.ascii	"?\014kf\\3\276k\322\\\335D~\201/S\021Z\344\333T9\253"
  46      5C33BE6B 
  46      D25CDD44 
  46      7E812F53 
  46      115AE4DB 
  47 00db 5381F6D6 		.ascii	"S\201\366\326\037\177\235C\347\354\255v6\265sy_\256"
  47      1F7F9D43 
  47      E7ECAD76 
  47      36B57379 
  47      5FAE
  48 00ed 5548E4AC 		.ascii	"UH\344\254B\340\025\365+D\313\302\266N\257\217d'\332"
  48      42E015F5 
  48      2B44CBC2 
  48      B64EAF8F 
  48      6427DA
  49 0100 8C8FF361 		.ascii	"\214\217\363a\234\017\3238\355e\235\3540\217\365\353"
  49      9C0FD338 
  49      ED659DEC 
  49      308FF5EB 
  50 0110 257D973A 		.ascii	"%}\227:J\372;)\276\001\012\327V\323"
  50      4AFA3B29 
  50      BE010AD7 
  50      56D3
  51              		.text
  52              		.section	.gnu.lto_palWriteBus.70dbc4ad91d55327,"",%progbits
  53 0000 789C6D51 		.ascii	"x\234mQ\261N\302P\024\275\367\275RJ\241\240\233nF\235"
  53      B14EC250 
  53      14BDF7BD 
  53      524AA1A0 
  53      9B6E469D 
  54 0014 24B11FE0 		.ascii	"$\261\037\340\027\270c\242n\320\001\232@4\020g@\031"
  54      17B863A2 
  54      6ED0019A 
  54      40341067 
  54      4019
  55 0026 1C996572 		.ascii	"\034\231er5Q\027\026\243\211\306\301M\0237\343\304\027"
  55      35511716 
  55      A389C6C1 
  55      4D1337E3 
  55      C417
  56 0038 E8E26882 		.ascii	"\350\342h\202\347\276\322\022\033^\332s\357;\357\336"
  56      E7BED212 
  56      1B5EDA73 
  56      EF3BEFDE 
  57 0048 F3CE6D15 		.ascii	"\363\316m\025)J\257U\274;\2407\021Y\023\253\341\033"
  57      294AAF55 
  57      BC3BA037 
  57      115913AB 
  57      E11B
ARM GAS  /tmp/ccL9CB8M.s 			page 4


  58 005a 51DF51CC 		.ascii	"Q\337Q\314\222\020SWq\367\200M\355\255z\232L\2477?/"
  58      92105357 
  58      71F7804D 
  58      EDAD7A9A 
  58      4CA7373F 
  59 006f E35F1EA9 		.ascii	"\343_\036\251e\305-&M!\223\205\2143\310\330\026\310"
  59      65C52D26 
  59      4D219385 
  59      8C33C8D8 
  59      16C8
  60 0081 0A380095 		.ascii	"\0128\000\225\023p\001:/\\A\300\223mQ\262\222\000t3"
  60      1370013A 
  60      2F5C41C0 
  60      936D51B2 
  60      92007433 
  61 0095 34E8F586 		.ascii	"4\350\365\206k-\206\217\300\\U\001\312\375{\240\020"
  61      6B2D868F 
  61      C05C5501 
  61      CAFD7BA0 
  61      10
  62 00a6 F52B9D7E 		.ascii	"\365+\235~~|\257T\371\022\327\324Y\227i+dkD\027\034"
  62      7E7CAF54 
  62      F912D7D4 
  62      5997692B 
  62      646B4417 
  63 00bb 72A6CE6A 		.ascii	"r\246\316j\037\3216\036k\034O\206\236\007\035w\240\310"
  63      1FD1361E 
  63      6B1C4F86 
  63      9E071D77 
  63      A0C8
  64 00cd 32D461CC 		.ascii	"2\324a\314\330F#\273X\203\023\215\263\373D#kd\354\377"
  64      D84623BB 
  64      5883138D 
  64      B3FB4423 
  64      6B64ECFF 
  65 00e1 328E9171 		.ascii	"2\216\221q\026\313\250\271\314y\"\223C\223\024\251\245"
  65      16CBA8B9 
  65      CC792293 
  65      439314A9 
  65      A5
  66 00f2 C8E45772 		.ascii	"\310\344Wr\342\342\320\024_'T\336\\\353\246\234\024"
  66      E2E2D014 
  66      5F2754DE 
  66      5CEBA69C 
  66      14
  67 0103 304DEC64 		.ascii	"0M\354d\336\356A8\325^4\265\236a\357\022\266dt\213\302"
  67      DEEE4138 
  67      D55E34B5 
  67      9E61EF12 
  67      B664748B 
  68 0118 3EEF4664 		.ascii	">\357Fd\231\256z\003\230\312\305\211\033M\204:-f\255"
  68      99AE7A03 
  68      98CAC589 
  68      1B4D843A 
  68      2D66AD
  69 012b D9447A16 		.ascii	"\331Dz\026\243=\244\210\336\251?y\334\210d\342U\301"
  69      A33DA488 
ARM GAS  /tmp/ccL9CB8M.s 			page 5


  69      DEA93F79 
  69      DC8864E2 
  69      55C1
  70 013d 17C47F93 		.ascii	"\027\304\177\223\371\327\375\223N\333\357\264\003?h"
  70      F9D7FD93 
  70      4EDBEFB4 
  70      033F68
  71 014c 84B5F0A8 		.ascii	"\204\265\360\250\343\343iT\233\206:\2566\267\003\372"
  71      E3E36954 
  71      9B863AAE 
  71      36B703FA 
  72 015c 0348AA77 		.ascii	"\003H\252wJ"
  72      4A
  73              		.text
  74              		.section	.gnu.lto_palSetBusMode.70dbc4ad91d55327,"",%progbits
  75 0000 789C6D90 		.ascii	"x\234m\220\277J\003A\020\306\277o\366\376\231\312R;"
  75      BF4A0341 
  75      10C6BF6F 
  75      F6FE99CA 
  75      523B
  76 0012 512B05EF 		.ascii	"Q+\005\357e\"\250\335\345\300\313B\202\222`e\221\213"
  76      6522A8DD 
  76      E5C0CB42 
  76      82926065 
  76      918B
  77 0024 5A58A656 		.ascii	"ZX\246V\020|\000Mkig\245bJ\253<\200\344\001\264\210"
  77      107C004D 
  77      6B6967A5 
  77      624AAB3C 
  77      80E401B4 
  78 0039 B31B4F41 		.ascii	"\263\033OAn\331\235\331\375v~3\263+\020\374\037\253"
  78      6ED99DD9 
  78      FD767E33 
  78      B32B10FC 
  78      1FAB
  79 004b BA0E096C 		.ascii	"\272\016\011l\252\247\001e\364\002\014\023!\335\006"
  79      AAA70165 
  79      F4020C13 
  79      21DD06
  80 005a C44038D8 		.ascii	"\304@8\330\247\217\035\313\343t>\277\237<\215?x#\015"
  80      A78F1DCB 
  80      E3743EBF 
  80      9F3C8D3F 
  80      78230D
  81 006d 619730B0 		.ascii	"a\2270\260D\240\206\241\032\211\324\230\330\035\023"
  81      44A086A1 
  81      1A89D498 
  81      D81D13
  82 007c BD755888 		.ascii	"\275uX\210\213\262\034\255u\251\265s\237\247\251\326"
  82      8BB21CAD 
  82      75A9B573 
  82      9FA7A9D6 
  83 008c 25DF5549 		.ascii	"%\337UI\275y\306\331\373\303\327J\306[\315Q\320lc\313"
  83      BD79C6D9 
  83      FBC3D74A 
  83      C65BCD51 
  83      D06C63CB 
ARM GAS  /tmp/ccL9CB8M.s 			page 6


  84 00a0 32B8C615 		.ascii	"2\270\306\025-\303\202\262\247>\362\015\264X\265\255"
  84      2DC382B2 
  84      A73EF20D 
  84      B458B5AD 
  85 00b0 CC410504 		.ascii	"\314A\005\004\036\210\353\001\326\000\241\007\222z@"
  85      1E88EB01 
  85      D600A107 
  85      927A40
  86 00bf FE8099A9 		.ascii	"\376\200\231\251\210H!'\235\337\375J\261\026.\034\365"
  86      88482127 
  86      9DDFFD4A 
  86      B1162E1C 
  86      F5
  87 00d0 8A68A101 		.ascii	"\212h\241\001\247\370,/\313e\313\245\374\247\260>\307"
  87      A7F82C2F 
  87      CB65CBA5 
  87      FCA7B03E 
  87      C7
  88 00e1 8726960D 		.ascii	"\207&\226\015\340\015\303\351l\243\212^\214\246F\352"
  88      E00DC3E9 
  88      6CA38A5E 
  88      8CA646EA 
  89 00f1 2FB8B2EB 		.ascii	"/\270\262\353\351I\277\227\366{y\232\267m\313\036\365"
  89      E949BF97 
  89      F67B799A 
  89      B76DCB1E 
  89      F5
  90 0102 539DEDAC 		.ascii	"S\235\355\254\343\245\343\254\263\223\343\033\202.Q"
  90      E3A5E3AC 
  90      B393E31B 
  90      822E51
  91 0111 82       		.ascii	"\202"
  92              		.text
  93              		.section	.gnu.lto_.symbol_nodes.70dbc4ad91d55327,"",%progbits
  94 0000 789C6362 		.ascii	"x\234cb`bpe\200\002\246\026\246z\006\206\011\347\030"
  94      60627065 
  94      8002A616 
  94      A67A0686 
  94      09E718
  95 0013 18EAEBE7 		.ascii	"\030\352\353\347u02\2652\3253\"q\333\230\352\231\020"
  95      753032B5 
  95      32D53322 
  95      71DB98EA 
  95      9910
  96 0025 5CC64EA6 		.ascii	"\\\306N\246zf\010\267\241\201\221\231\211\231a\361\303"
  96      7A6608B7 
  96      A1819199 
  96      899961F1 
  96      C3
  97 0036 7F8C0C00 		.ascii	"\177\214\014\000\3061\024e"
  97      C6311465 
  98              		.text
  99              		.section	.gnu.lto_.refs.70dbc4ad91d55327,"",%progbits
 100 0000 789C6362 		.ascii	"x\234cb`b`d\200\002\000\000F\000\006"
 100      60626064 
 100      80020000 
 100      460006
ARM GAS  /tmp/ccL9CB8M.s 			page 7


 101              		.text
 102              		.section	.gnu.lto_.decls.70dbc4ad91d55327,"",%progbits
 103 0000 789CB558 		.ascii	"x\234\265X{L\024G\030\237\331\273S\016ND\255\006\223"
 103      7B4C1447 
 103      189FD9BB 
 103      530E4E44 
 103      AD0693
 104 0013 B6A0A9C6 		.ascii	"\266\240\251\306\030\353)\246Z\377\261U\241b\212\205"
 104      18EB29A6 
 104      5AFFB155 
 104      A1628A85 
 105 0023 1C1AED5F 		.ascii	"\034\032\355_\333\005\016\271\364x\204\333kc\322\244"
 105      DB050EB9 
 105      F47884DB 
 105      6B63D2A4 
 106 0033 83A83534 		.ascii	"\203\25054\265\210Q\361Y\020P\333\304\267\370\2525W"
 106      B58851F1 
 106      591050DB 
 106      C4B7F8AA 
 106      3557
 107 0045 6B847256 		.ascii	"k\204rV\215\306j\223\032O\3730F\023\305b\253\246x\375"
 107      8DC66A93 
 107      1A4FFB30 
 107      4613C562 
 107      ABA678FD 
 108 0059 6676F76E 		.ascii	"fv\367nw\331\275\007I7|\303\314\356|\277\357\367=ff"
 108      77D9BD07 
 108      49377CC3 
 108      CCEE7CBF 
 108      EFF73D66 
 109 006e F738C4A1 		.ascii	"\3678\304\241O0Ba\270\374/!4\227C\310\212\020\232\203"
 109      4F304261 
 109      B8FC2F21 
 109      349743C8 
 109      8A109A83 
 110 0082 A2171DB7 		.ascii	"\242\027\035\267\202\364\201\364\203\3301\032p\321\347"
 110      82F481F4 
 110      83D8311A 
 110      70D1E7
 111 0091 69207741 		.ascii	"i wA\206\202\330d\2756\220N\220\003 \373AN\203\034\003"
 111      8682D864 
 111      BD36904E 
 111      900320FB 
 111      414E831C 
 112 00a6 79203F3F 		.ascii	"y ??\012r\016\344>\310=\020,c\001\015\324\0132\\g\213"
 112      0A720EE4 
 112      3EC83D10 
 112      2C63010D 
 112      D40B325C 
 113 00bc 727018D8 		.ascii	"rp\030\330Q\333h\223\361\251\255\037e{6\331\326=\331"
 113      51DB6893 
 113      F1A9AD1F 
 113      657B36D9 
 113      D63DD9
 114 00cf 5637C805 		.ascii	"V7\310\005\331\036\305\264\200<\003y\0162Vg\263\337"
 114      D91EC5B4 
 114      803C0379 
ARM GAS  /tmp/ccL9CB8M.s 			page 8


 114      0E325667 
 114      B3DF
 115 00e1 C437239B 		.ascii	"\3047#\233\257\202n*\226\360\324\3668U\354\3503\033"
 115      AF826E2A 
 115      96F0D4F6 
 115      3855ECE8 
 115      331B
 116 00f3 FC1F0292 		.ascii	"\374\037\002\222\245\263\225\205v\222\226P\250\343\316"
 116      A5B39585 
 116      76929650 
 116      A8E3CE
 117 0102 23BC8504 		.ascii	"#\274\205\004V\221p\370S4\006m$p\265\254!\004\213v\264"
 117      569170F8 
 117      5334066D 
 117      2470B5AC 
 117      21048B76 
 118 0117 96909574 		.ascii	"\226\220\225t\220\337\235\216\3202,\340t;\312f\035\207"
 118      90DF9D8E 
 118      D0322CE0 
 118      743BCA66 
 118      1D87
 119 0129 9DF19A80 		.ascii	"\235\361\232\200\332\011i\014m{\326>\231\220\024\001"
 119      DA09690C 
 119      6D7BD63E 
 119      99901401 
 120 0139 B7613BD8 		.ascii	"\267a;\330\3471\232\214\276\006\234F\320\237e\220B\224"
 120      E7319A8C 
 120      BE069C46 
 120      D09F6590 
 120      4294
 121 014b 38F4F5CF 		.ascii	"8\364\365\317\332\2470\350=\014z\023\306H\300\273\361"
 121      DAA730E8 
 121      3D0C7A13 
 121      C648C0BB 
 121      F1
 122 015c E4A481C2 		.ascii	"\344\244\201\302=\347\326\343z\360K\300\3370\250\237"
 122      3DE7D6E3 
 122      7AF04BC0 
 122      DF30A89F 
 123 016c 7450021E 		.ascii	"tP\002\036jWsdce\002\305c\217\345\016-\342\341\350\177"
 123      6A577364 
 123      636502C5 
 123      638FE50E 
 123      2DE2E1E8 
 124 0181 9E6EE40D 		.ascii	"\236n\344\015\325\334\205\307\260\236\205\345\032\012"
 124      D5DC85C7 
 124      B09E85E5 
 124      1A0A
 125 018f A6211A83 		.ascii	"\246!\032\203\221h=\315`\266*\032\037(\372\216h4z/^"
 125      91683DCD 
 125      60B62A1A 
 125      1F28FA8E 
 125      68347A2F 
 126 01a4 C861613D 		.ascii	"\310aa=\200G\002JX\027\213x(\224\305a\320\224t\030&"
 126      8047024A 
 126      58178B78 
 126      2894C561 
ARM GAS  /tmp/ccL9CB8M.s 			page 9


 126      D0947418 
 127 01b9 093CE972 		.ascii	"\011<\351r\020\253t\037i\3204\3278\324\002l\003\375"
 127      10AB741F 
 127      69D034D7 
 127      38D4026C 
 127      03FD
 128 01cb 5DDBC792 		.ascii	"]\333\307\222\226\2638\036\371\020\247\330\235\242\252"
 128      96B3381E 
 128      F910A7D8 
 128      9DA2AA
 129 01da B7DECD16 		.ascii	"\267\336\315\026\306\376\030c\277\232\213\313^\013C"
 129      C6FE1863 
 129      BF9A8BCB 
 129      5E0B43
 130 01e9 E99DD4D3 		.ascii	"\351\235\324\323?\022d\364O\306\247\277\252>p<(\321"
 130      3F1264F4 
 130      4FC6A7BF 
 130      AA3E703C 
 130      28D1
 131 01fb 67F5571F 		.ascii	"g\365W\037\263\376\004\274\027OH(\337\034jb\236P\012"
 131      B3FE04BC 
 131      174F4828 
 131      DF1C6A62 
 131      9E500A
 132 020e 46487257 		.ascii	"FHrW\272\344\011ZZ'\202\216FA\300\247Y\2017'\015\226"
 132      BAE4095A 
 132      5A27828E 
 132      4641C0A7 
 132      59813727 
 133 0224 AD013BA5 		.ascii	"\255\001;\245\006\373*\021\260\024sf\247\325`{\222\006"
 133      06FB2A11 
 133      B0147366 
 133      A7D5607B 
 133      9206
 134 0236 D3323BA3 		.ascii	"\3232;\243\006\333\227\010X\2069\263\313j\260CI\203"
 134      06DB9708 
 134      588639B3 
 134      CB6AB043 
 134      4983
 135 0248 A999D505 		.ascii	"\251\231\325\005n\005{0ir\214BM\204\324\221\226!fE\201"
 135      6E057B30 
 135      69728C42 
 135      4D84D491 
 135      96216645 
 136 025d 109B4262 		.ascii	"\020\233BbN\021p\017\036\245-\322\253\237\247\323\""
 136      4E11700F 
 136      1EA52DD2 
 136      AB9FA7D3 
 136      22
 137 026e A5F7E3AF 		.ascii	"\245\367\343\257\261kr\221*\233g's\216\352\016\242\272"
 137      B16B7291 
 137      2A9B6727 
 137      738EEA0E 
 137      A2BA
 138 0280 C0F8CD60 		.ascii	"\300\370\315`\032ip\310\253\253\345\355\2751\210_\322"
 138      1A6970C8 
 138      ABABE5ED 
ARM GAS  /tmp/ccL9CB8M.s 			page 10


 138      BD31885F 
 138      D2
 139 0291 AFAEEB41 		.ascii	"\257\256\353A.[\272\035\237\367/\301\355\231\244\345"
 139      2E5BBA1D 
 139      9FF72FC1 
 139      ED99A4E5 
 140 02a1 7B2C6FEE 		.ascii	"{,o\356d\015\231\244\262\225\241\330\242\233_\344\224"
 140      640D99A4 
 140      B295A1D8 
 140      A29B5FE4 
 140      94
 141 02b2 D8219D12 		.ascii	"\330!\235\022W\230\243\3079\303S\"\001\240p\317\276"
 141      5798A3C7 
 141      39C35322 
 141      01A070CF 
 141      BE
 142 02c3 D90CE81A 		.ascii	"\331\014\350\032\003\012p\3723\302\242;#,\332Um\261"
 142      030A70FA 
 142      33C2A23B 
 142      232CDA55 
 142      6DB1
 143 02d5 473BE1B0 		.ascii	"G;\341\260\005%7\231CAf\360R\264\3764$\343\245hehk\347"
 143      05253799 
 143      434166F0 
 143      52B4FE34 
 143      24E3A568 
 144 02ed 66163A25 		.ascii	"f\026:%\022\227\222\306\313\320\345\204C\327\006[6*"
 144      129792C6 
 144      CBD0E584 
 144      43D7065B 
 144      362A
 145 02ff CF25A705 		.ascii	"\317%\247\005|\001\217\203\366\"\264*\003\327\023Yt"
 145      7C018F83 
 145      F622B42A 
 145      03D71359 
 145      74
 146 0310 99264EC3 		.ascii	"\231&N\303\012~\244^\301\277&\015\226\255\001{\254\006"
 146      0A7EA45E 
 146      C1BF260D 
 146      96AD017B 
 146      AC06
 147 0322 BB9D0858 		.ascii	"\273\235\010X\2669\263>5\330\237I\203i\231\375\255\006"
 147      B639B33E 
 147      35D89F49 
 147      836999FD 
 147      AD06
 148 0334 BB9F08D8 		.ascii	"\273\237\010\330\244XI\321\344'z\032\012\370\024;\256"
 148      A45849D1 
 148      E4277A1A 
 148      0AF8143B 
 148      AE
 149 0345 BE65993A 		.ascii	"\276e\231:\303\332\000k\317\262\366\034k\317\263\266"
 149      C3DA006B 
 149      CFB2F61C 
 149      6BCFB3B6 
 150 0355 9BB53759 		.ascii	"\233\2657Y{\213\265\267Y\373\233:\277\346\357d\201\177"
 150      7B8BB5B7 
ARM GAS  /tmp/ccL9CB8M.s 			page 11


 150      59FB9B3A 
 150      BFE6EF64 
 150      817F
 151 0367 9A5EA6BB 		.ascii	"\232^\246\273Y'\274\005p\350\241n\255i\336\014\244\243"
 151      5927BC05 
 151      70E8A16E 
 151      AD69DE0C 
 151      A4A3
 152 0379 DE6CB7B9 		.ascii	"\336l\267\271\013\000\306\233\312\200g\034z\316\354"
 152      0B00C69B 
 152      CA80671C 
 152      7ACEEC
 153 0388 1C1EDC19 		.ascii	"\034\036\334\031\013K\254w\335\371&\274\241\236tOS\336"
 153      0B4BAC77 
 153      DDF926BC 
 153      A19E744F 
 153      53DE
 154 039a 77EB2CC9 		.ascii	"w\353,\311\"f\253\021\003\007{ \261\211\277\311\356"
 154      2266AB11 
 154      03077B20 
 154      B189BFC9 
 154      EE
 155 03ab D87AEC2D 		.ascii	"\330z\354-\266G=`\326\333-\372=\312\246\333\243l\332"
 155      B6473D60 
 155      D6DB2DFA 
 155      3DCAA6DB 
 155      A36CDA
 156 03be 6DC7668F 		.ascii	"m\307f\217v\"o\036\207\022\361\301\350|7\256\247\303"
 156      76226F1E 
 156      8712F1C1 
 156      E87C37AE 
 156      A7C3
 157 03d0 AA7A3AC2 		.ascii	"\252z:\302\352\351(\253\214{\254\275\037\257>(\304~"
 157      EAE928AB 
 157      8C7BACBD 
 157      1FAF3E28 
 157      C47E
 158 03e2 9C16C55B 		.ascii	"\234\026\305[\022\335J9tB\347\361k\250\215\220&\370"
 158      12DD4A39 
 158      7442E7F1 
 158      6BA88D90 
 158      26F8
 159 03f4 920958E1 		.ascii	"\222\011X\341K\306*\251r\350\0076\255\025g\231\274\226"
 159      4BC62AA9 
 159      72E80736 
 159      AD156799 
 159      BC96
 160 0406 C90626A2 		.ascii	"\311\006&\242\016\032\370\357~/\312\227\022\212bh\311"
 160      0E1AF8EF 
 160      7E2FCA97 
 160      128A6268 
 160      C9
 161 0417 741E614E 		.ascii	"t\036aN\355\257\364)\025x\262&\010\207?\371\227\356"
 161      EDAFF429 
 161      1578B226 
 161      08873FF9 
 161      97EE
ARM GAS  /tmp/ccL9CB8M.s 			page 12


 162 0429 E59A2F29 		.ascii	"\345\232/)\001\317\031m\352\347\023\355\333\274\304"
 162      01CF196D 
 162      EAE713ED 
 162      DBBCC4
 163 0438 2B329008 		.ascii	"+2\220\010\351#\320e\030\001\362WY\276\244.\340\307"
 163      E923D065 
 163      1801F257 
 163      59BEA42E 
 163      E0C7
 164 044a C050C07D 		.ascii	"\300P\300}\261\235\227\325\216\273\363\225R\276\312"
 164      B19D97D5 
 164      8EBBF395 
 164      52BECA
 165 0459 80CDD564 		.ascii	"\200\315\325d:,f\204|AVg`\346\034\222\2654E\360\324"
 165      3A2C6684 
 165      7C415667 
 165      60E61C92 
 165      B53445F0 
 166 046e 304A57BA 		.ascii	"0JW\272\034\215u\241p8+\361\020\275\210\021\242$\276"
 166      1C8D75A1 
 166      70382BF1 
 166      10BD8811 
 166      A224BE
 167 0481 52F77548 		.ascii	"R\367uH_\251u\034u\365\306\200u\263\007\017\346\003"
 167      5FA9751C 
 167      75F5C680 
 167      75B3070F 
 167      E603
 168 0493 50979ADB 		.ascii	"P\227\232\333&\305\371\374\206%Z\234J~\372\023\312\317"
 168      26C5F9FC 
 168      86255A9C 
 168      4A7EFA13 
 168      CACF
 169 04a5 119A1F89 		.ascii	"\021\232\037\211\364C\206n\256Fg\231\345\247_\237\237"
 169      F443866E 
 169      AE466799 
 169      E5A75F9F 
 169      9F
 170 04b6 55DC80FC 		.ascii	"U\334\200\374\204 L\255g2\267\220\263\006?\010\304\314"
 170      84204CAD 
 170      6732B790 
 170      B3063F08 
 170      C4CC
 171 04c8 5103A7CB 		.ascii	"Q\003\247\313Q\247A\031G\3062O]\354\372t\261S\210\256"
 171      51A74119 
 171      47C6324F 
 171      5DECFA74 
 171      B15388AE 
 172 04dc D3121D8F 		.ascii	"\323\022\035\217Z\311\345\313\241?\3564\343\265!\322"
 172      5AC9E5CB 
 172      A13FEE34 
 172      E3B521D2 
 173 04ec 485E84C3 		.ascii	"H^\204\303x\004jd\337|\315\351rA\204:\002\231\315\321"
 173      78046A64 
 173      DF7CCDE9 
 173      7241843A 
 173      0299CDD1 
ARM GAS  /tmp/ccL9CB8M.s 			page 13


 174 0500 824851F8 		.ascii	"\202HQ\370b\245 \350\257\023\\d2\311\3144\236+\340&"
 174      62A520E8 
 174      AF135C64 
 174      32C9CC34 
 174      9E2BE026 
 175 0514 8EEE5F1B 		.ascii	"\216\356_\033$\306\354\221\324WzaL\2717X\215~\350`\000"
 175      24C6EC91 
 175      D4577A61 
 175      4CB93758 
 175      8D7EE860 
 176 0529 B15565A3 		.ascii	"\261Ue\243\313\024\243\322\256\027\365G\232i<K\300\033"
 176      CB14A3D2 
 176      AE17F547 
 176      9A693C4B 
 176      C01B
 177 053b B911ACC7 		.ascii	"\271\021\254\307\034!\221\323\322a7M\324&\025\033\207"
 177      1C2191D3 
 177      D261374D 
 177      D426151B 
 177      87
 178 054c 3DDA49D5 		.ascii	"=\332I\325pVf\201g_Zu\373\250\216\004|i\312\276\013"
 178      70566681 
 178      675F5A75 
 178      FBA88E04 
 178      7C69CABE 
 179 0561 98FE2025 		.ascii	"\230\376 %\245'\360\364<I9H\326\3222R;\263>\352\214"
 179      A527F0F4 
 179      3C493948 
 179      D6D23252 
 179      3BB33EEA 
 180 0576 EE270513 		.ascii	"\356'\005\023\227\007\374\360\260-i\227\267\233\270"
 180      9707FCF0 
 180      B02D6997 
 180      B79BB8
 181 0585 1C396034 		.ascii	"\0349`4\263\240\273\231\323\355\236:\022\034\332\255"
 181      B3A0BB99 
 181      D3ED9E3A 
 181      121CDAAD 
 182 0595 7159F7AE 		.ascii	"qY\367\256B\327\202\031\227\235\\\304\252\034\250\237"
 182      42D78219 
 182      979D5CC4 
 182      AA1CA89F 
 183 05a5 BBE205AA 		.ascii	"\273\342\005\252F\001I\217\025(\335,HY\322\201\332e"
 183      4601498F 
 183      1528DD2C 
 183      4859D281 
 183      DA65
 184 05b7 12A8619A 		.ascii	"\022\250a\232@\355\322\007J\265\037\351Hp\350\250&P"
 184      40EDD207 
 184      4AB51FE9 
 184      4870E8A8 
 184      2650
 185 05c9 68BCD3EF 		.ascii	"h\274\323\357\253u\372jK\235\245\025\236\022O\265\317"
 185      AB75FA6A 
 185      4B9DA515 
 185      9E124FB5 
 185      CF
ARM GAS  /tmp/ccL9CB8M.s 			page 14


 186 05da 097F1582 		.ascii	"\011\177\025\202\227\335\252\021\274SK\321l\263)5\325"
 186      97DDAA11 
 186      BC534BD1 
 186      6CB32935 
 186      D5
 187 05eb B5A2CF59 		.ascii	"\265\242\317Y\274x\321\214\034gAA\256sA\321\302\302"
 187      BC78D18C 
 187      1C674141 
 187      AE7341D1 
 187      C2C2
 188 05fd 8F72A816 		.ascii	"\217r\250\026\357\365\226M\255@\016O5\235S)\370>\344"
 188      EFF5964D 
 188      AD400E4F 
 188      359D5329 
 188      F83EE4
 189 0610 C5210BDE 		.ascii	"\305!\013\336[\222=_6\350\251*\365\372\313\334\316*"
 189      5B923D5F 
 189      36E8A92A 
 189      F5FACBDC 
 189      CE2A
 190 0622 F7C75E4F 		.ascii	"\367\307^O\211\323\267\302\347\344}b\231\247J\004\265"
 190      89D3B7C2 
 190      E7E47D62 
 190      99A74A04 
 190      B5
 191 0633 143FFC9F 		.ascii	"\024?\374\237\221\303\213\257\033\315\255\024\200F\225"
 191      91C38BAF 
 191      1BCDAD14 
 191      804695
 192 0642 DBC997B9 		.ascii	"\333\311\227\271\313\005\277W\344\305\0255n\037\250"
 192      CB05BF57 
 192      E4C51535 
 192      6E1FA8
 193 0651 A5F2BCA2 		.ascii	"\245\362\274\2428\321\214\262\202E=\253@\266\205\205"
 193      38D18CB2 
 193      82453DAB 
 193      40B68585 
 194 0661 F3FC3E87 		.ascii	"\363\374>\207O\254\004\245\3455\236j^\264-*\314\315"
 194      4FAC04A5 
 194      E5359E6A 
 194      5EB42D2A 
 194      CCCD
 195 0673 730D295C 		.ascii	"s\015)\\\374~Q\236khaqQ^^\256\313V\264\244(\327eY\010"
 195      FC7E519E 
 195      6B686171 
 195      515E5EAE 
 195      CB56B4A4 
 196 068c 5298EBC2 		.ascii	"R\230\353\302K\031\301\3513yQ6I\273\026\237[\264\225"
 196      4B19C1E9 
 196      33795136 
 196      49BB169F 
 196      5BB495
 197 069f 7ADD422D 		.ascii	"z\335B-\316\267\316+v\271\254\005\363\337uY\347\276"
 197      CEB7CE2B 
 197      76B9AC05 
 197      F3DF7559 
 197      E7BE
ARM GAS  /tmp/ccL9CB8M.s 			page 15


 198 06b1 E32AA04D 		.ascii	"\343*\240M\276e\236\313\225*\305\303S\006\321\220:V"
 198      BE659ECB 
 198      952AC5C3 
 198      5306D190 
 198      3A56
 199 06c3 1A9B570C 		.ascii	"\032\233W\014C\242D\303A-\360\345\202O|\023\324\252"
 199      43A244C3 
 199      412DF0E5 
 199      824F7C13 
 199      D4AA
 200 06d5 CBCBC150 		.ascii	"\313\313\301P*\360w\271\2052`o)\361\373\322`\270\264"
 200      2AF077B9 
 200      8532606F 
 200      29F1FBD2 
 200      60B8B4
 201 06e8 D623BA61 		.ascii	"\326#\272al-\361\210\276\024Oueu\231\233\027\207\301"
 201      6C2DF188 
 201      BE144F75 
 201      6575999B 
 201      1787C1
 202 06fb 9362B708 		.ascii	"\223b\267\010\367\027\301\330Jo\216\346\345\004\361"
 202      F717C1D8 
 202      4A6F8EE6 
 202      E504F1
 203 070a 00B4BCB6 		.ascii	"\000\264\274\266\332_C\357ZK+\204\332\024\236/\367W"
 203      DA5F43EF 
 203      5A4B2B84 
 203      DA149E2F 
 203      F757
 204 071c 95F2FC30 		.ascii	"\225\362\3740\2453u\326\033\263\247kF3U\243\231\323"
 204      A53375D6 
 204      1BB3A76B 
 204      463355A3 
 204      99D3
 205 072e A6FF0797 		.ascii	"\246\377\007\227V\210\266"
 205      5688B6
 206              		.text
 207              		.section	.gnu.lto_.symtab.70dbc4ad91d55327,"",%progbits
 208 0000 70616C52 		.ascii	"palReadBus\000\000\000\000\000\000\000\000\000\000\000"
 208      65616442 
 208      75730000 
 208      00000000 
 208      00000000 
 209 0015 00A10000 		.ascii	"\000\241\000\000\000palWriteBus\000\000\000\000\000"
 209      0070616C 
 209      57726974 
 209      65427573 
 209      00000000 
 210 002a 00000000 		.ascii	"\000\000\000\000\000\000\000\364\000\000\000palSetB"
 210      000000F4 
 210      00000070 
 210      616C5365 
 210      7442
 211 003c 75734D6F 		.ascii	"usMode\000\000\000\000\000\000\000\000\000\000\000\000"
 211      64650000 
 211      00000000 
 211      00000000 
ARM GAS  /tmp/ccL9CB8M.s 			page 16


 211      0000
 212 004e FD000000 		.ascii	"\375\000\000\000_pal_lld_setgroupmode\000\000\002\000"
 212      5F70616C 
 212      5F6C6C64 
 212      5F736574 
 212      67726F75 
 213 006b 00000000 		.ascii	"\000\000\000\000\000\000\000\000\011\001\000\000"
 213      00000000 
 213      09010000 
 214              		.text
 215              		.section	.gnu.lto_.opts,"",%progbits
 216 0000 272D6D63 		.ascii	"'-mcpu=cortex-m4' '-mno-thumb-interwork' '-mthumb' "
 216      70753D63 
 216      6F727465 
 216      782D6D34 
 216      2720272D 
 217 0033 272D6767 		.ascii	"'-ggdb' '-O2' '-fomit-frame-pointer' '-falign-funct"
 217      64622720 
 217      272D4F32 
 217      2720272D 
 217      666F6D69 
 218 0066 696F6E73 		.ascii	"ions=16' '-ffunction-sections' '-fdata-sections' '-"
 218      3D313627 
 218      20272D66 
 218      66756E63 
 218      74696F6E 
 219 0099 666E6F2D 		.ascii	"fno-common' '-flto'\000"
 219      636F6D6D 
 219      6F6E2720 
 219      272D666C 
 219      746F2700 
 220              		.text
 221              		.cfi_sections	.debug_frame
 222              		.section	.text.palReadBus,"ax",%progbits
 223              		.align	2
 224              		.p2align 4,,15
 225              		.global	palReadBus
 226              		.thumb
 227              		.thumb_func
 228              		.type	palReadBus, %function
 229              	palReadBus:
 230              	.LFB260:
 231              		.file 1 "/usr/src/chibios/os/hal/src/pal.c"
 232              		.loc 1 65 0
 233              		.cfi_startproc
 234              		@ args = 0, pretend = 0, frame = 0
 235              		@ frame_needed = 0, uses_anonymous_args = 0
 236              		@ link register save eliminated.
 237              	.LVL0:
 238              		.loc 1 69 0
 239 0000 0368     		ldr	r3, [r0]
 240 0002 8268     		ldr	r2, [r0, #8]
 241 0004 1969     		ldr	r1, [r3, #16]
 242 0006 4368     		ldr	r3, [r0, #4]
 243 0008 21FA02F0 		lsr	r0, r1, r2
 244              	.LVL1:
 245              		.loc 1 70 0
ARM GAS  /tmp/ccL9CB8M.s 			page 17


 246 000c 1840     		ands	r0, r0, r3
 247 000e 7047     		bx	lr
 248              		.cfi_endproc
 249              	.LFE260:
 250              		.size	palReadBus, .-palReadBus
 251              		.section	.text.palWriteBus,"ax",%progbits
 252              		.align	2
 253              		.p2align 4,,15
 254              		.global	palWriteBus
 255              		.thumb
 256              		.thumb_func
 257              		.type	palWriteBus, %function
 258              	palWriteBus:
 259              	.LFB261:
 260              		.loc 1 90 0
 261              		.cfi_startproc
 262              		@ args = 0, pretend = 0, frame = 0
 263              		@ frame_needed = 0, uses_anonymous_args = 0
 264              		@ link register save eliminated.
 265              	.LVL2:
 266              		.loc 1 94 0
 267 0000 0DC8     		ldmia	r0, {r0, r2, r3}
 268              	.LVL3:
 269              		.loc 1 90 0
 270 0002 30B4     		push	{r4, r5}
 271              		.cfi_def_cfa_offset 8
 272              		.cfi_offset 4, -8
 273              		.cfi_offset 5, -4
 274              		.loc 1 94 0
 275 0004 22EA0105 		bic	r5, r2, r1
 276 0008 03F11004 		add	r4, r3, #16
 277 000c 0A40     		ands	r2, r2, r1
 278 000e 02FA03F3 		lsl	r3, r2, r3
 279 0012 05FA04F2 		lsl	r2, r5, r4
 280 0016 1343     		orrs	r3, r3, r2
 281 0018 8361     		str	r3, [r0, #24]
 282              		.loc 1 95 0
 283 001a 30BC     		pop	{r4, r5}
 284 001c 7047     		bx	lr
 285              		.cfi_endproc
 286              	.LFE261:
 287              		.size	palWriteBus, .-palWriteBus
 288 001e 00BF     		.section	.text.palSetBusMode,"ax",%progbits
 289              		.align	2
 290              		.p2align 4,,15
 291              		.global	palSetBusMode
 292              		.thumb
 293              		.thumb_func
 294              		.type	palSetBusMode, %function
 295              	palSetBusMode:
 296              	.LFB262:
 297              		.loc 1 113 0
 298              		.cfi_startproc
 299              		@ args = 0, pretend = 0, frame = 0
 300              		@ frame_needed = 0, uses_anonymous_args = 0
 301              		@ link register save eliminated.
 302              	.LVL4:
ARM GAS  /tmp/ccL9CB8M.s 			page 18


 303 0000 10B4     		push	{r4}
 304              		.cfi_def_cfa_offset 4
 305              		.cfi_offset 4, -4
 306              		.loc 1 113 0
 307 0002 0A46     		mov	r2, r1
 308              		.loc 1 117 0
 309 0004 4468     		ldr	r4, [r0, #4]
 310 0006 8168     		ldr	r1, [r0, #8]
 311              	.LVL5:
 312 0008 0068     		ldr	r0, [r0]
 313              	.LVL6:
 314 000a 04FA01F1 		lsl	r1, r4, r1
 315              		.loc 1 118 0
 316 000e 5DF8044B 		ldr	r4, [sp], #4
 317              		.loc 1 117 0
 318 0012 FFF7FEBF 		b	_pal_lld_setgroupmode
 319              	.LVL7:
 320              		.cfi_endproc
 321              	.LFE262:
 322              		.size	palSetBusMode, .-palSetBusMode
 323 0016 00BF     		.text
 324              	.Letext0:
 325              		.file 2 "/usr/include/newlib/machine/_default_types.h"
 326              		.file 3 "/usr/include/newlib/sys/_stdint.h"
 327              		.file 4 "/usr/include/newlib/stdint.h"
 328              		.file 5 "/usr/src/chibios/os/rt/ports/ARMCMx/compilers/GCC/chtypes.h"
 329              		.file 6 "/usr/src/chibios/os/rt/include/chsystypes.h"
 330              		.file 7 "/usr/src/chibios/os/rt/include/chschd.h"
 331              		.file 8 "/usr/src/chibios/os/rt/ports/ARMCMx/chcore.h"
 332              		.file 9 "/usr/src/chibios/os/rt/ports/ARMCMx/chcore_v7m.h"
 333              		.file 10 "/usr/src/chibios/os/rt/include/chtm.h"
 334              		.file 11 "/usr/src/chibios/os/rt/include/chsem.h"
 335              		.file 12 "/usr/src/chibios/os/rt/include/chmtx.h"
 336              		.file 13 "/usr/src/chibios/os/hal/ports/STM32/LLD/GPIOv2/pal_lld.h"
 337              		.file 14 "/usr/src/chibios/os/hal/include/pal.h"
 338              		.file 15 "/usr/src/chibios/os/ext/CMSIS/include/core_cm4.h"
 339              		.section	.debug_info,"",%progbits
 340              	.Ldebug_info0:
 341 0000 AB080000 		.4byte	0x8ab
 342 0004 0400     		.2byte	0x4
 343 0006 00000000 		.4byte	.Ldebug_abbrev0
 344 000a 04       		.byte	0x4
 345 000b 01       		.uleb128 0x1
 346 000c 4E020000 		.4byte	.LASF129
 347 0010 01       		.byte	0x1
 348 0011 BB010000 		.4byte	.LASF130
 349 0015 00000000 		.4byte	.Ldebug_ranges0+0
 350 0019 00000000 		.4byte	0
 351 001d 00000000 		.4byte	.Ldebug_line0
 352 0021 02       		.uleb128 0x2
 353 0022 04       		.byte	0x4
 354 0023 05       		.byte	0x5
 355 0024 696E7400 		.ascii	"int\000"
 356 0028 03       		.uleb128 0x3
 357 0029 04       		.byte	0x4
 358 002a 07       		.byte	0x7
 359 002b 89010000 		.4byte	.LASF0
ARM GAS  /tmp/ccL9CB8M.s 			page 19


 360 002f 03       		.uleb128 0x3
 361 0030 01       		.byte	0x1
 362 0031 06       		.byte	0x6
 363 0032 DC000000 		.4byte	.LASF1
 364 0036 04       		.uleb128 0x4
 365 0037 23000000 		.4byte	.LASF4
 366 003b 02       		.byte	0x2
 367 003c 1D       		.byte	0x1d
 368 003d 41000000 		.4byte	0x41
 369 0041 03       		.uleb128 0x3
 370 0042 01       		.byte	0x1
 371 0043 08       		.byte	0x8
 372 0044 F6030000 		.4byte	.LASF2
 373 0048 03       		.uleb128 0x3
 374 0049 02       		.byte	0x2
 375 004a 05       		.byte	0x5
 376 004b 0E040000 		.4byte	.LASF3
 377 004f 04       		.uleb128 0x4
 378 0050 E4040000 		.4byte	.LASF5
 379 0054 02       		.byte	0x2
 380 0055 2B       		.byte	0x2b
 381 0056 5A000000 		.4byte	0x5a
 382 005a 03       		.uleb128 0x3
 383 005b 02       		.byte	0x2
 384 005c 07       		.byte	0x7
 385 005d DD010000 		.4byte	.LASF6
 386 0061 04       		.uleb128 0x4
 387 0062 2E020000 		.4byte	.LASF7
 388 0066 02       		.byte	0x2
 389 0067 3F       		.byte	0x3f
 390 0068 6C000000 		.4byte	0x6c
 391 006c 03       		.uleb128 0x3
 392 006d 04       		.byte	0x4
 393 006e 05       		.byte	0x5
 394 006f 17010000 		.4byte	.LASF8
 395 0073 04       		.uleb128 0x4
 396 0074 2B050000 		.4byte	.LASF9
 397 0078 02       		.byte	0x2
 398 0079 41       		.byte	0x41
 399 007a 7E000000 		.4byte	0x7e
 400 007e 03       		.uleb128 0x3
 401 007f 04       		.byte	0x4
 402 0080 07       		.byte	0x7
 403 0081 BD040000 		.4byte	.LASF10
 404 0085 03       		.uleb128 0x3
 405 0086 08       		.byte	0x8
 406 0087 05       		.byte	0x5
 407 0088 CE000000 		.4byte	.LASF11
 408 008c 04       		.uleb128 0x4
 409 008d 43020000 		.4byte	.LASF12
 410 0091 02       		.byte	0x2
 411 0092 5B       		.byte	0x5b
 412 0093 97000000 		.4byte	0x97
 413 0097 03       		.uleb128 0x3
 414 0098 08       		.byte	0x8
 415 0099 07       		.byte	0x7
 416 009a 62000000 		.4byte	.LASF13
ARM GAS  /tmp/ccL9CB8M.s 			page 20


 417 009e 04       		.uleb128 0x4
 418 009f B1050000 		.4byte	.LASF14
 419 00a3 03       		.byte	0x3
 420 00a4 14       		.byte	0x14
 421 00a5 36000000 		.4byte	0x36
 422 00a9 04       		.uleb128 0x4
 423 00aa 29010000 		.4byte	.LASF15
 424 00ae 03       		.byte	0x3
 425 00af 1A       		.byte	0x1a
 426 00b0 4F000000 		.4byte	0x4f
 427 00b4 04       		.uleb128 0x4
 428 00b5 EE030000 		.4byte	.LASF16
 429 00b9 03       		.byte	0x3
 430 00ba 1F       		.byte	0x1f
 431 00bb 61000000 		.4byte	0x61
 432 00bf 04       		.uleb128 0x4
 433 00c0 8C040000 		.4byte	.LASF17
 434 00c4 03       		.byte	0x3
 435 00c5 20       		.byte	0x20
 436 00c6 73000000 		.4byte	0x73
 437 00ca 04       		.uleb128 0x4
 438 00cb 1A000000 		.4byte	.LASF18
 439 00cf 03       		.byte	0x3
 440 00d0 26       		.byte	0x26
 441 00d1 8C000000 		.4byte	0x8c
 442 00d5 04       		.uleb128 0x4
 443 00d6 35040000 		.4byte	.LASF19
 444 00da 04       		.byte	0x4
 445 00db 34       		.byte	0x34
 446 00dc 28000000 		.4byte	0x28
 447 00e0 05       		.uleb128 0x5
 448 00e1 B4000000 		.4byte	0xb4
 449 00e5 05       		.uleb128 0x5
 450 00e6 BF000000 		.4byte	0xbf
 451 00ea 04       		.uleb128 0x4
 452 00eb 70050000 		.4byte	.LASF20
 453 00ef 05       		.byte	0x5
 454 00f0 45       		.byte	0x45
 455 00f1 BF000000 		.4byte	0xbf
 456 00f5 04       		.uleb128 0x4
 457 00f6 0C020000 		.4byte	.LASF21
 458 00fa 05       		.byte	0x5
 459 00fb 48       		.byte	0x48
 460 00fc 9E000000 		.4byte	0x9e
 461 0100 04       		.uleb128 0x4
 462 0101 20010000 		.4byte	.LASF22
 463 0105 05       		.byte	0x5
 464 0106 49       		.byte	0x49
 465 0107 9E000000 		.4byte	0x9e
 466 010b 04       		.uleb128 0x4
 467 010c B1030000 		.4byte	.LASF23
 468 0110 05       		.byte	0x5
 469 0111 4A       		.byte	0x4a
 470 0112 9E000000 		.4byte	0x9e
 471 0116 04       		.uleb128 0x4
 472 0117 D0030000 		.4byte	.LASF24
 473 011b 05       		.byte	0x5
ARM GAS  /tmp/ccL9CB8M.s 			page 21


 474 011c 4C       		.byte	0x4c
 475 011d BF000000 		.4byte	0xbf
 476 0121 04       		.uleb128 0x4
 477 0122 FA010000 		.4byte	.LASF25
 478 0126 05       		.byte	0x5
 479 0127 4D       		.byte	0x4d
 480 0128 B4000000 		.4byte	0xb4
 481 012c 04       		.uleb128 0x4
 482 012d 22020000 		.4byte	.LASF26
 483 0131 05       		.byte	0x5
 484 0132 4F       		.byte	0x4f
 485 0133 BF000000 		.4byte	0xbf
 486 0137 04       		.uleb128 0x4
 487 0138 83010000 		.4byte	.LASF27
 488 013c 05       		.byte	0x5
 489 013d 51       		.byte	0x51
 490 013e B4000000 		.4byte	0xb4
 491 0142 04       		.uleb128 0x4
 492 0143 0D050000 		.4byte	.LASF28
 493 0147 06       		.byte	0x6
 494 0148 33       		.byte	0x33
 495 0149 BF000000 		.4byte	0xbf
 496 014d 04       		.uleb128 0x4
 497 014e EF040000 		.4byte	.LASF29
 498 0152 06       		.byte	0x6
 499 0153 3F       		.byte	0x3f
 500 0154 58010000 		.4byte	0x158
 501 0158 06       		.uleb128 0x6
 502 0159 F0010000 		.4byte	.LASF49
 503 015d 44       		.byte	0x44
 504 015e 07       		.byte	0x7
 505 015f C2       		.byte	0xc2
 506 0160 45020000 		.4byte	0x245
 507 0164 07       		.uleb128 0x7
 508 0165 2E040000 		.4byte	.LASF30
 509 0169 07       		.byte	0x7
 510 016a C3       		.byte	0xc3
 511 016b 50020000 		.4byte	0x250
 512 016f 00       		.byte	0
 513 0170 07       		.uleb128 0x7
 514 0171 C9030000 		.4byte	.LASF31
 515 0175 07       		.byte	0x7
 516 0176 C5       		.byte	0xc5
 517 0177 50020000 		.4byte	0x250
 518 017b 04       		.byte	0x4
 519 017c 07       		.uleb128 0x7
 520 017d C7000000 		.4byte	.LASF32
 521 0181 07       		.byte	0x7
 522 0182 C7       		.byte	0xc7
 523 0183 16010000 		.4byte	0x116
 524 0187 08       		.byte	0x8
 525 0188 07       		.uleb128 0x7
 526 0189 ED050000 		.4byte	.LASF33
 527 018d 07       		.byte	0x7
 528 018e C8       		.byte	0xc8
 529 018f 80040000 		.4byte	0x480
 530 0193 0C       		.byte	0xc
ARM GAS  /tmp/ccL9CB8M.s 			page 22


 531 0194 07       		.uleb128 0x7
 532 0195 32010000 		.4byte	.LASF34
 533 0199 07       		.byte	0x7
 534 019a CA       		.byte	0xca
 535 019b 50020000 		.4byte	0x250
 536 019f 10       		.byte	0x10
 537 01a0 07       		.uleb128 0x7
 538 01a1 53030000 		.4byte	.LASF35
 539 01a5 07       		.byte	0x7
 540 01a6 CB       		.byte	0xcb
 541 01a7 50020000 		.4byte	0x250
 542 01ab 14       		.byte	0x14
 543 01ac 07       		.uleb128 0x7
 544 01ad C0050000 		.4byte	.LASF36
 545 01b1 07       		.byte	0x7
 546 01b2 D2       		.byte	0xd2
 547 01b3 FF050000 		.4byte	0x5ff
 548 01b7 18       		.byte	0x18
 549 01b8 07       		.uleb128 0x7
 550 01b9 18040000 		.4byte	.LASF37
 551 01bd 07       		.byte	0x7
 552 01be DD       		.byte	0xdd
 553 01bf 00010000 		.4byte	0x100
 554 01c3 1C       		.byte	0x1c
 555 01c4 07       		.uleb128 0x7
 556 01c5 42040000 		.4byte	.LASF38
 557 01c9 07       		.byte	0x7
 558 01ca E1       		.byte	0xe1
 559 01cb F5000000 		.4byte	0xf5
 560 01cf 1D       		.byte	0x1d
 561 01d0 07       		.uleb128 0x7
 562 01d1 A4050000 		.4byte	.LASF39
 563 01d5 07       		.byte	0x7
 564 01d6 E6       		.byte	0xe6
 565 01d7 0B010000 		.4byte	0x10b
 566 01db 1E       		.byte	0x1e
 567 01dc 08       		.uleb128 0x8
 568 01dd 705F7500 		.ascii	"p_u\000"
 569 01e1 07       		.byte	0x7
 570 01e2 3101     		.2byte	0x131
 571 01e4 3A050000 		.4byte	0x53a
 572 01e8 20       		.byte	0x20
 573 01e9 09       		.uleb128 0x9
 574 01ea 04030000 		.4byte	.LASF40
 575 01ee 07       		.byte	0x7
 576 01ef 3601     		.2byte	0x136
 577 01f1 56020000 		.4byte	0x256
 578 01f5 24       		.byte	0x24
 579 01f6 09       		.uleb128 0x9
 580 01f7 A5010000 		.4byte	.LASF41
 581 01fb 07       		.byte	0x7
 582 01fc 3C01     		.2byte	0x13c
 583 01fe 7A020000 		.4byte	0x27a
 584 0202 28       		.byte	0x28
 585 0203 09       		.uleb128 0x9
 586 0204 D6050000 		.4byte	.LASF42
 587 0208 07       		.byte	0x7
ARM GAS  /tmp/ccL9CB8M.s 			page 23


 588 0209 4001     		.2byte	0x140
 589 020b 21010000 		.4byte	0x121
 590 020f 30       		.byte	0x30
 591 0210 09       		.uleb128 0x9
 592 0211 81040000 		.4byte	.LASF43
 593 0215 07       		.byte	0x7
 594 0216 4601     		.2byte	0x146
 595 0218 2C010000 		.4byte	0x12c
 596 021c 34       		.byte	0x34
 597 021d 09       		.uleb128 0x9
 598 021e 04040000 		.4byte	.LASF44
 599 0222 07       		.byte	0x7
 600 0223 4D01     		.2byte	0x14d
 601 0225 F9050000 		.4byte	0x5f9
 602 0229 38       		.byte	0x38
 603 022a 09       		.uleb128 0x9
 604 022b 17050000 		.4byte	.LASF45
 605 022f 07       		.byte	0x7
 606 0230 5101     		.2byte	0x151
 607 0232 16010000 		.4byte	0x116
 608 0236 3C       		.byte	0x3c
 609 0237 09       		.uleb128 0x9
 610 0238 FB000000 		.4byte	.LASF46
 611 023c 07       		.byte	0x7
 612 023d 5801     		.2byte	0x158
 613 023f 2D030000 		.4byte	0x32d
 614 0243 40       		.byte	0x40
 615 0244 00       		.byte	0
 616 0245 04       		.uleb128 0x4
 617 0246 17030000 		.4byte	.LASF47
 618 024a 06       		.byte	0x6
 619 024b 44       		.byte	0x44
 620 024c 50020000 		.4byte	0x250
 621 0250 0A       		.uleb128 0xa
 622 0251 04       		.byte	0x4
 623 0252 4D010000 		.4byte	0x14d
 624 0256 04       		.uleb128 0x4
 625 0257 C7050000 		.4byte	.LASF48
 626 025b 06       		.byte	0x6
 627 025c 49       		.byte	0x49
 628 025d 61020000 		.4byte	0x261
 629 0261 06       		.uleb128 0x6
 630 0262 AD040000 		.4byte	.LASF50
 631 0266 04       		.byte	0x4
 632 0267 07       		.byte	0x7
 633 0268 B0       		.byte	0xb0
 634 0269 7A020000 		.4byte	0x27a
 635 026d 07       		.uleb128 0x7
 636 026e 2E040000 		.4byte	.LASF30
 637 0272 07       		.byte	0x7
 638 0273 B1       		.byte	0xb1
 639 0274 50020000 		.4byte	0x250
 640 0278 00       		.byte	0
 641 0279 00       		.byte	0
 642 027a 04       		.uleb128 0x4
 643 027b 8B050000 		.4byte	.LASF51
 644 027f 06       		.byte	0x6
ARM GAS  /tmp/ccL9CB8M.s 			page 24


 645 0280 50       		.byte	0x50
 646 0281 85020000 		.4byte	0x285
 647 0285 06       		.uleb128 0x6
 648 0286 B6000000 		.4byte	.LASF52
 649 028a 08       		.byte	0x8
 650 028b 07       		.byte	0x7
 651 028c B7       		.byte	0xb7
 652 028d AA020000 		.4byte	0x2aa
 653 0291 07       		.uleb128 0x7
 654 0292 2E040000 		.4byte	.LASF30
 655 0296 07       		.byte	0x7
 656 0297 B8       		.byte	0xb8
 657 0298 50020000 		.4byte	0x250
 658 029c 00       		.byte	0
 659 029d 07       		.uleb128 0x7
 660 029e C9030000 		.4byte	.LASF31
 661 02a2 07       		.byte	0x7
 662 02a3 B9       		.byte	0xb9
 663 02a4 50020000 		.4byte	0x250
 664 02a8 04       		.byte	0x4
 665 02a9 00       		.byte	0
 666 02aa 04       		.uleb128 0x4
 667 02ab 00000000 		.4byte	.LASF53
 668 02af 06       		.byte	0x6
 669 02b0 57       		.byte	0x57
 670 02b1 B5020000 		.4byte	0x2b5
 671 02b5 0B       		.uleb128 0xb
 672 02b6 14020000 		.4byte	.LASF54
 673 02ba 1C       		.byte	0x1c
 674 02bb 07       		.byte	0x7
 675 02bc 9001     		.2byte	0x190
 676 02be 11030000 		.4byte	0x311
 677 02c2 09       		.uleb128 0x9
 678 02c3 9C040000 		.4byte	.LASF55
 679 02c7 07       		.byte	0x7
 680 02c8 9101     		.2byte	0x191
 681 02ca 7A020000 		.4byte	0x27a
 682 02ce 00       		.byte	0
 683 02cf 09       		.uleb128 0x9
 684 02d0 20040000 		.4byte	.LASF56
 685 02d4 07       		.byte	0x7
 686 02d5 9201     		.2byte	0x192
 687 02d7 16010000 		.4byte	0x116
 688 02db 08       		.byte	0x8
 689 02dc 09       		.uleb128 0x9
 690 02dd 69030000 		.4byte	.LASF57
 691 02e1 07       		.byte	0x7
 692 02e2 9401     		.2byte	0x194
 693 02e4 80040000 		.4byte	0x480
 694 02e8 0C       		.byte	0xc
 695 02e9 09       		.uleb128 0x9
 696 02ea 4A010000 		.4byte	.LASF58
 697 02ee 07       		.byte	0x7
 698 02ef 9701     		.2byte	0x197
 699 02f1 50020000 		.4byte	0x250
 700 02f5 10       		.byte	0x10
 701 02f6 09       		.uleb128 0x9
ARM GAS  /tmp/ccL9CB8M.s 			page 25


 702 02f7 8A030000 		.4byte	.LASF59
 703 02fb 07       		.byte	0x7
 704 02fc 9801     		.2byte	0x198
 705 02fe 50020000 		.4byte	0x250
 706 0302 14       		.byte	0x14
 707 0303 09       		.uleb128 0x9
 708 0304 80030000 		.4byte	.LASF60
 709 0308 07       		.byte	0x7
 710 0309 9B01     		.2byte	0x19b
 711 030b 50020000 		.4byte	0x250
 712 030f 18       		.byte	0x18
 713 0310 00       		.byte	0
 714 0311 04       		.uleb128 0x4
 715 0312 22050000 		.4byte	.LASF61
 716 0316 06       		.byte	0x6
 717 0317 5C       		.byte	0x5c
 718 0318 1C030000 		.4byte	0x31c
 719 031c 0A       		.uleb128 0xa
 720 031d 04       		.byte	0x4
 721 031e 22030000 		.4byte	0x322
 722 0322 0C       		.uleb128 0xc
 723 0323 2D030000 		.4byte	0x32d
 724 0327 0D       		.uleb128 0xd
 725 0328 2D030000 		.4byte	0x32d
 726 032c 00       		.byte	0
 727 032d 0E       		.uleb128 0xe
 728 032e 04       		.byte	0x4
 729 032f 04       		.uleb128 0x4
 730 0330 B9030000 		.4byte	.LASF62
 731 0334 06       		.byte	0x6
 732 0335 61       		.byte	0x61
 733 0336 3A030000 		.4byte	0x33a
 734 033a 0B       		.uleb128 0xb
 735 033b 63040000 		.4byte	.LASF63
 736 033f 14       		.byte	0x14
 737 0340 07       		.byte	0x7
 738 0341 6B01     		.2byte	0x16b
 739 0343 89030000 		.4byte	0x389
 740 0347 09       		.uleb128 0x9
 741 0348 96010000 		.4byte	.LASF64
 742 034c 07       		.byte	0x7
 743 034d 6C01     		.2byte	0x16c
 744 034f 11060000 		.4byte	0x611
 745 0353 00       		.byte	0
 746 0354 09       		.uleb128 0x9
 747 0355 60010000 		.4byte	.LASF65
 748 0359 07       		.byte	0x7
 749 035a 6D01     		.2byte	0x16d
 750 035c 11060000 		.4byte	0x611
 751 0360 04       		.byte	0x4
 752 0361 09       		.uleb128 0x9
 753 0362 A4040000 		.4byte	.LASF66
 754 0366 07       		.byte	0x7
 755 0367 6E01     		.2byte	0x16e
 756 0369 42010000 		.4byte	0x142
 757 036d 08       		.byte	0x8
 758 036e 09       		.uleb128 0x9
ARM GAS  /tmp/ccL9CB8M.s 			page 26


 759 036f F3050000 		.4byte	.LASF67
 760 0373 07       		.byte	0x7
 761 0374 6F01     		.2byte	0x16f
 762 0376 11030000 		.4byte	0x311
 763 037a 0C       		.byte	0xc
 764 037b 09       		.uleb128 0x9
 765 037c 78050000 		.4byte	.LASF68
 766 0380 07       		.byte	0x7
 767 0381 7101     		.2byte	0x171
 768 0383 2D030000 		.4byte	0x32d
 769 0387 10       		.byte	0x10
 770 0388 00       		.byte	0
 771 0389 04       		.uleb128 0x4
 772 038a 93000000 		.4byte	.LASF69
 773 038e 06       		.byte	0x6
 774 038f 66       		.byte	0x66
 775 0390 94030000 		.4byte	0x394
 776 0394 0B       		.uleb128 0xb
 777 0395 2A030000 		.4byte	.LASF70
 778 0399 10       		.byte	0x10
 779 039a 07       		.byte	0x7
 780 039b 7B01     		.2byte	0x17b
 781 039d D6030000 		.4byte	0x3d6
 782 03a1 09       		.uleb128 0x9
 783 03a2 96010000 		.4byte	.LASF64
 784 03a6 07       		.byte	0x7
 785 03a7 7C01     		.2byte	0x17c
 786 03a9 11060000 		.4byte	0x611
 787 03ad 00       		.byte	0
 788 03ae 09       		.uleb128 0x9
 789 03af 60010000 		.4byte	.LASF65
 790 03b3 07       		.byte	0x7
 791 03b4 7E01     		.2byte	0x17e
 792 03b6 11060000 		.4byte	0x611
 793 03ba 04       		.byte	0x4
 794 03bb 09       		.uleb128 0x9
 795 03bc A4040000 		.4byte	.LASF66
 796 03c0 07       		.byte	0x7
 797 03c1 8001     		.2byte	0x180
 798 03c3 42010000 		.4byte	0x142
 799 03c7 08       		.byte	0x8
 800 03c8 09       		.uleb128 0x9
 801 03c9 47030000 		.4byte	.LASF71
 802 03cd 07       		.byte	0x7
 803 03ce 8801     		.2byte	0x188
 804 03d0 42010000 		.4byte	0x142
 805 03d4 0C       		.byte	0xc
 806 03d5 00       		.byte	0
 807 03d6 04       		.uleb128 0x4
 808 03d7 40000000 		.4byte	.LASF72
 809 03db 06       		.byte	0x6
 810 03dc 6B       		.byte	0x6b
 811 03dd E1030000 		.4byte	0x3e1
 812 03e1 0B       		.uleb128 0xb
 813 03e2 D8030000 		.4byte	.LASF73
 814 03e6 04       		.byte	0x4
 815 03e7 07       		.byte	0x7
ARM GAS  /tmp/ccL9CB8M.s 			page 27


 816 03e8 A201     		.2byte	0x1a2
 817 03ea FC030000 		.4byte	0x3fc
 818 03ee 09       		.uleb128 0x9
 819 03ef 36050000 		.4byte	.LASF74
 820 03f3 07       		.byte	0x7
 821 03f4 AA01     		.2byte	0x1aa
 822 03f6 17060000 		.4byte	0x617
 823 03fa 00       		.byte	0
 824 03fb 00       		.byte	0
 825 03fc 04       		.uleb128 0x4
 826 03fd 00020000 		.4byte	.LASF75
 827 0401 06       		.byte	0x6
 828 0402 70       		.byte	0x70
 829 0403 07040000 		.4byte	0x407
 830 0407 0F       		.uleb128 0xf
 831 0408 59040000 		.4byte	.LASF76
 832 040c 5001     		.2byte	0x150
 833 040e 07       		.byte	0x7
 834 040f C201     		.2byte	0x1c2
 835 0411 63040000 		.4byte	0x463
 836 0415 09       		.uleb128 0x9
 837 0416 AB050000 		.4byte	.LASF77
 838 041a 07       		.byte	0x7
 839 041b C601     		.2byte	0x1c6
 840 041d AA020000 		.4byte	0x2aa
 841 0421 00       		.byte	0
 842 0422 09       		.uleb128 0x9
 843 0423 0B010000 		.4byte	.LASF78
 844 0427 07       		.byte	0x7
 845 0428 CA01     		.2byte	0x1ca
 846 042a 89030000 		.4byte	0x389
 847 042e 1C       		.byte	0x1c
 848 042f 08       		.uleb128 0x8
 849 0430 64626700 		.ascii	"dbg\000"
 850 0434 07       		.byte	0x7
 851 0435 CE01     		.2byte	0x1ce
 852 0437 D6030000 		.4byte	0x3d6
 853 043b 2C       		.byte	0x2c
 854 043c 09       		.uleb128 0x9
 855 043d 88000000 		.4byte	.LASF79
 856 0441 07       		.byte	0x7
 857 0442 D201     		.2byte	0x1d2
 858 0444 4D010000 		.4byte	0x14d
 859 0448 30       		.byte	0x30
 860 0449 08       		.uleb128 0x8
 861 044a 746D00   		.ascii	"tm\000"
 862 044d 07       		.byte	0x7
 863 044e D701     		.2byte	0x1d7
 864 0450 2F050000 		.4byte	0x52f
 865 0454 74       		.byte	0x74
 866 0455 09       		.uleb128 0x9
 867 0456 4A040000 		.4byte	.LASF80
 868 045a 07       		.byte	0x7
 869 045b E301     		.2byte	0x1e3
 870 045d 1C060000 		.4byte	0x61c
 871 0461 78       		.byte	0x78
 872 0462 00       		.byte	0
ARM GAS  /tmp/ccL9CB8M.s 			page 28


 873 0463 03       		.uleb128 0x3
 874 0464 04       		.byte	0x4
 875 0465 07       		.byte	0x7
 876 0466 0E030000 		.4byte	.LASF81
 877 046a 04       		.uleb128 0x4
 878 046b 57010000 		.4byte	.LASF82
 879 046f 08       		.byte	0x8
 880 0470 65       		.byte	0x65
 881 0471 2D030000 		.4byte	0x32d
 882 0475 04       		.uleb128 0x4
 883 0476 38020000 		.4byte	.LASF83
 884 047a 08       		.byte	0x8
 885 047b 6D       		.byte	0x6d
 886 047c CA000000 		.4byte	0xca
 887 0480 06       		.uleb128 0x6
 888 0481 52050000 		.4byte	.LASF84
 889 0485 04       		.byte	0x4
 890 0486 08       		.byte	0x8
 891 0487 89       		.byte	0x89
 892 0488 99040000 		.4byte	0x499
 893 048c 10       		.uleb128 0x10
 894 048d 72313300 		.ascii	"r13\000"
 895 0491 08       		.byte	0x8
 896 0492 8A       		.byte	0x8a
 897 0493 14050000 		.4byte	0x514
 898 0497 00       		.byte	0
 899 0498 00       		.byte	0
 900 0499 06       		.uleb128 0x6
 901 049a 34000000 		.4byte	.LASF85
 902 049e 24       		.byte	0x24
 903 049f 09       		.byte	0x9
 904 04a0 F4       		.byte	0xf4
 905 04a1 14050000 		.4byte	0x514
 906 04a5 08       		.uleb128 0x8
 907 04a6 723400   		.ascii	"r4\000"
 908 04a9 09       		.byte	0x9
 909 04aa 0701     		.2byte	0x107
 910 04ac 6A040000 		.4byte	0x46a
 911 04b0 00       		.byte	0
 912 04b1 08       		.uleb128 0x8
 913 04b2 723500   		.ascii	"r5\000"
 914 04b5 09       		.byte	0x9
 915 04b6 0801     		.2byte	0x108
 916 04b8 6A040000 		.4byte	0x46a
 917 04bc 04       		.byte	0x4
 918 04bd 08       		.uleb128 0x8
 919 04be 723600   		.ascii	"r6\000"
 920 04c1 09       		.byte	0x9
 921 04c2 0901     		.2byte	0x109
 922 04c4 6A040000 		.4byte	0x46a
 923 04c8 08       		.byte	0x8
 924 04c9 08       		.uleb128 0x8
 925 04ca 723700   		.ascii	"r7\000"
 926 04cd 09       		.byte	0x9
 927 04ce 0A01     		.2byte	0x10a
 928 04d0 6A040000 		.4byte	0x46a
 929 04d4 0C       		.byte	0xc
ARM GAS  /tmp/ccL9CB8M.s 			page 29


 930 04d5 08       		.uleb128 0x8
 931 04d6 723800   		.ascii	"r8\000"
 932 04d9 09       		.byte	0x9
 933 04da 0B01     		.2byte	0x10b
 934 04dc 6A040000 		.4byte	0x46a
 935 04e0 10       		.byte	0x10
 936 04e1 08       		.uleb128 0x8
 937 04e2 723900   		.ascii	"r9\000"
 938 04e5 09       		.byte	0x9
 939 04e6 0C01     		.2byte	0x10c
 940 04e8 6A040000 		.4byte	0x46a
 941 04ec 14       		.byte	0x14
 942 04ed 08       		.uleb128 0x8
 943 04ee 72313000 		.ascii	"r10\000"
 944 04f2 09       		.byte	0x9
 945 04f3 0D01     		.2byte	0x10d
 946 04f5 6A040000 		.4byte	0x46a
 947 04f9 18       		.byte	0x18
 948 04fa 08       		.uleb128 0x8
 949 04fb 72313100 		.ascii	"r11\000"
 950 04ff 09       		.byte	0x9
 951 0500 0E01     		.2byte	0x10e
 952 0502 6A040000 		.4byte	0x46a
 953 0506 1C       		.byte	0x1c
 954 0507 08       		.uleb128 0x8
 955 0508 6C7200   		.ascii	"lr\000"
 956 050b 09       		.byte	0x9
 957 050c 0F01     		.2byte	0x10f
 958 050e 6A040000 		.4byte	0x46a
 959 0512 20       		.byte	0x20
 960 0513 00       		.byte	0
 961 0514 0A       		.uleb128 0xa
 962 0515 04       		.byte	0x4
 963 0516 99040000 		.4byte	0x499
 964 051a 11       		.uleb128 0x11
 965 051b 04       		.byte	0x4
 966 051c 0A       		.byte	0xa
 967 051d 38       		.byte	0x38
 968 051e 2F050000 		.4byte	0x52f
 969 0522 07       		.uleb128 0x7
 970 0523 40050000 		.4byte	.LASF86
 971 0527 0A       		.byte	0xa
 972 0528 3C       		.byte	0x3c
 973 0529 EA000000 		.4byte	0xea
 974 052d 00       		.byte	0
 975 052e 00       		.byte	0
 976 052f 04       		.uleb128 0x4
 977 0530 6F030000 		.4byte	.LASF87
 978 0534 0A       		.byte	0xa
 979 0535 3D       		.byte	0x3d
 980 0536 1A050000 		.4byte	0x51a
 981 053a 12       		.uleb128 0x12
 982 053b 04       		.byte	0x4
 983 053c 07       		.byte	0x7
 984 053d FA       		.byte	0xfa
 985 053e 97050000 		.4byte	0x597
 986 0542 13       		.uleb128 0x13
ARM GAS  /tmp/ccL9CB8M.s 			page 30


 987 0543 13000000 		.4byte	.LASF88
 988 0547 07       		.byte	0x7
 989 0548 0101     		.2byte	0x101
 990 054a 21010000 		.4byte	0x121
 991 054e 13       		.uleb128 0x13
 992 054f 7F000000 		.4byte	.LASF89
 993 0553 07       		.byte	0x7
 994 0554 0801     		.2byte	0x108
 995 0556 21010000 		.4byte	0x121
 996 055a 13       		.uleb128 0x13
 997 055b B9050000 		.4byte	.LASF90
 998 055f 07       		.byte	0x7
 999 0560 0F01     		.2byte	0x10f
 1000 0562 2D030000 		.4byte	0x32d
 1001 0566 13       		.uleb128 0x13
 1002 0567 0D000000 		.4byte	.LASF91
 1003 056b 07       		.byte	0x7
 1004 056c 1601     		.2byte	0x116
 1005 056e 97050000 		.4byte	0x597
 1006 0572 13       		.uleb128 0x13
 1007 0573 9E010000 		.4byte	.LASF92
 1008 0577 07       		.byte	0x7
 1009 0578 1E01     		.2byte	0x11e
 1010 057a C2050000 		.4byte	0x5c2
 1011 057e 13       		.uleb128 0x13
 1012 057f 95040000 		.4byte	.LASF93
 1013 0583 07       		.byte	0x7
 1014 0584 2701     		.2byte	0x127
 1015 0586 F9050000 		.4byte	0x5f9
 1016 058a 13       		.uleb128 0x13
 1017 058b 27040000 		.4byte	.LASF94
 1018 058f 07       		.byte	0x7
 1019 0590 2F01     		.2byte	0x12f
 1020 0592 2C010000 		.4byte	0x12c
 1021 0596 00       		.byte	0
 1022 0597 0A       		.uleb128 0xa
 1023 0598 04       		.byte	0x4
 1024 0599 45020000 		.4byte	0x245
 1025 059d 06       		.uleb128 0x6
 1026 059e 74040000 		.4byte	.LASF95
 1027 05a2 0C       		.byte	0xc
 1028 05a3 0B       		.byte	0xb
 1029 05a4 34       		.byte	0x34
 1030 05a5 C2050000 		.4byte	0x5c2
 1031 05a9 07       		.uleb128 0x7
 1032 05aa 3A010000 		.4byte	.LASF96
 1033 05ae 0B       		.byte	0xb
 1034 05af 35       		.byte	0x35
 1035 05b0 7A020000 		.4byte	0x27a
 1036 05b4 00       		.byte	0
 1037 05b5 07       		.uleb128 0x7
 1038 05b6 B5010000 		.4byte	.LASF97
 1039 05ba 0B       		.byte	0xb
 1040 05bb 37       		.byte	0x37
 1041 05bc 37010000 		.4byte	0x137
 1042 05c0 08       		.byte	0x8
 1043 05c1 00       		.byte	0
ARM GAS  /tmp/ccL9CB8M.s 			page 31


 1044 05c2 0A       		.uleb128 0xa
 1045 05c3 04       		.byte	0x4
 1046 05c4 9D050000 		.4byte	0x59d
 1047 05c8 06       		.uleb128 0x6
 1048 05c9 9B050000 		.4byte	.LASF98
 1049 05cd 10       		.byte	0x10
 1050 05ce 0C       		.byte	0xc
 1051 05cf 39       		.byte	0x39
 1052 05d0 F9050000 		.4byte	0x5f9
 1053 05d4 07       		.uleb128 0x7
 1054 05d5 03010000 		.4byte	.LASF99
 1055 05d9 0C       		.byte	0xc
 1056 05da 3A       		.byte	0x3a
 1057 05db 7A020000 		.4byte	0x27a
 1058 05df 00       		.byte	0
 1059 05e0 07       		.uleb128 0x7
 1060 05e1 E5050000 		.4byte	.LASF100
 1061 05e5 0C       		.byte	0xc
 1062 05e6 3C       		.byte	0x3c
 1063 05e7 50020000 		.4byte	0x250
 1064 05eb 08       		.byte	0x8
 1065 05ec 07       		.uleb128 0x7
 1066 05ed 06050000 		.4byte	.LASF101
 1067 05f1 0C       		.byte	0xc
 1068 05f2 3E       		.byte	0x3e
 1069 05f3 37060000 		.4byte	0x637
 1070 05f7 0C       		.byte	0xc
 1071 05f8 00       		.byte	0
 1072 05f9 0A       		.uleb128 0xa
 1073 05fa 04       		.byte	0x4
 1074 05fb C8050000 		.4byte	0x5c8
 1075 05ff 0A       		.uleb128 0xa
 1076 0600 04       		.byte	0x4
 1077 0601 05060000 		.4byte	0x605
 1078 0605 14       		.uleb128 0x14
 1079 0606 0A060000 		.4byte	0x60a
 1080 060a 03       		.uleb128 0x3
 1081 060b 01       		.byte	0x1
 1082 060c 08       		.byte	0x8
 1083 060d CF040000 		.4byte	.LASF102
 1084 0611 0A       		.uleb128 0xa
 1085 0612 04       		.byte	0x4
 1086 0613 2F030000 		.4byte	0x32f
 1087 0617 05       		.uleb128 0x5
 1088 0618 FF050000 		.4byte	0x5ff
 1089 061c 15       		.uleb128 0x15
 1090 061d 75040000 		.4byte	0x475
 1091 0621 2C060000 		.4byte	0x62c
 1092 0625 16       		.uleb128 0x16
 1093 0626 63040000 		.4byte	0x463
 1094 062a 1A       		.byte	0x1a
 1095 062b 00       		.byte	0
 1096 062c 04       		.uleb128 0x4
 1097 062d 75010000 		.4byte	.LASF103
 1098 0631 0C       		.byte	0xc
 1099 0632 34       		.byte	0x34
 1100 0633 C8050000 		.4byte	0x5c8
ARM GAS  /tmp/ccL9CB8M.s 			page 32


 1101 0637 0A       		.uleb128 0xa
 1102 0638 04       		.byte	0x4
 1103 0639 2C060000 		.4byte	0x62c
 1104 063d 03       		.uleb128 0x3
 1105 063e 01       		.byte	0x1
 1106 063f 02       		.byte	0x2
 1107 0640 E8030000 		.4byte	.LASF104
 1108 0644 11       		.uleb128 0x11
 1109 0645 04       		.byte	0x4
 1110 0646 0D       		.byte	0xd
 1111 0647 B3       		.byte	0xb3
 1112 0648 65060000 		.4byte	0x665
 1113 064c 10       		.uleb128 0x10
 1114 064d 73657400 		.ascii	"set\000"
 1115 0651 0D       		.byte	0xd
 1116 0652 B4       		.byte	0xb4
 1117 0653 A9000000 		.4byte	0xa9
 1118 0657 00       		.byte	0
 1119 0658 07       		.uleb128 0x7
 1120 0659 41030000 		.4byte	.LASF105
 1121 065d 0D       		.byte	0xd
 1122 065e B5       		.byte	0xb5
 1123 065f A9000000 		.4byte	0xa9
 1124 0663 02       		.byte	0x2
 1125 0664 00       		.byte	0
 1126 0665 12       		.uleb128 0x12
 1127 0666 04       		.byte	0x4
 1128 0667 0D       		.byte	0xd
 1129 0668 B1       		.byte	0xb1
 1130 0669 80060000 		.4byte	0x680
 1131 066d 17       		.uleb128 0x17
 1132 066e 5700     		.ascii	"W\000"
 1133 0670 0D       		.byte	0xd
 1134 0671 B2       		.byte	0xb2
 1135 0672 BF000000 		.4byte	0xbf
 1136 0676 17       		.uleb128 0x17
 1137 0677 4800     		.ascii	"H\000"
 1138 0679 0D       		.byte	0xd
 1139 067a B6       		.byte	0xb6
 1140 067b 44060000 		.4byte	0x644
 1141 067f 00       		.byte	0
 1142 0680 11       		.uleb128 0x11
 1143 0681 2C       		.byte	0x2c
 1144 0682 0D       		.byte	0xd
 1145 0683 A9       		.byte	0xa9
 1146 0684 0D070000 		.4byte	0x70d
 1147 0688 07       		.uleb128 0x7
 1148 0689 5C000000 		.4byte	.LASF106
 1149 068d 0D       		.byte	0xd
 1150 068e AB       		.byte	0xab
 1151 068f E5000000 		.4byte	0xe5
 1152 0693 00       		.byte	0
 1153 0694 07       		.uleb128 0x7
 1154 0695 2D000000 		.4byte	.LASF107
 1155 0699 0D       		.byte	0xd
 1156 069a AC       		.byte	0xac
 1157 069b E5000000 		.4byte	0xe5
ARM GAS  /tmp/ccL9CB8M.s 			page 33


 1158 069f 04       		.byte	0x4
 1159 06a0 07       		.uleb128 0x7
 1160 06a1 42010000 		.4byte	.LASF108
 1161 06a5 0D       		.byte	0xd
 1162 06a6 AD       		.byte	0xad
 1163 06a7 E5000000 		.4byte	0xe5
 1164 06ab 08       		.byte	0x8
 1165 06ac 07       		.uleb128 0x7
 1166 06ad 79000000 		.4byte	.LASF109
 1167 06b1 0D       		.byte	0xd
 1168 06b2 AE       		.byte	0xae
 1169 06b3 E5000000 		.4byte	0xe5
 1170 06b7 0C       		.byte	0xc
 1171 06b8 10       		.uleb128 0x10
 1172 06b9 49445200 		.ascii	"IDR\000"
 1173 06bd 0D       		.byte	0xd
 1174 06be AF       		.byte	0xaf
 1175 06bf E5000000 		.4byte	0xe5
 1176 06c3 10       		.byte	0x10
 1177 06c4 10       		.uleb128 0x10
 1178 06c5 4F445200 		.ascii	"ODR\000"
 1179 06c9 0D       		.byte	0xd
 1180 06ca B0       		.byte	0xb0
 1181 06cb E5000000 		.4byte	0xe5
 1182 06cf 14       		.byte	0x14
 1183 06d0 07       		.uleb128 0x7
 1184 06d1 E8000000 		.4byte	.LASF110
 1185 06d5 0D       		.byte	0xd
 1186 06d6 B7       		.byte	0xb7
 1187 06d7 0D070000 		.4byte	0x70d
 1188 06db 18       		.byte	0x18
 1189 06dc 07       		.uleb128 0x7
 1190 06dd B0010000 		.4byte	.LASF111
 1191 06e1 0D       		.byte	0xd
 1192 06e2 B8       		.byte	0xb8
 1193 06e3 E5000000 		.4byte	0xe5
 1194 06e7 1C       		.byte	0x1c
 1195 06e8 07       		.uleb128 0x7
 1196 06e9 AC030000 		.4byte	.LASF112
 1197 06ed 0D       		.byte	0xd
 1198 06ee B9       		.byte	0xb9
 1199 06ef E5000000 		.4byte	0xe5
 1200 06f3 20       		.byte	0x20
 1201 06f4 07       		.uleb128 0x7
 1202 06f5 99030000 		.4byte	.LASF113
 1203 06f9 0D       		.byte	0xd
 1204 06fa BA       		.byte	0xba
 1205 06fb E5000000 		.4byte	0xe5
 1206 06ff 24       		.byte	0x24
 1207 0700 10       		.uleb128 0x10
 1208 0701 42525200 		.ascii	"BRR\000"
 1209 0705 0D       		.byte	0xd
 1210 0706 BB       		.byte	0xbb
 1211 0707 E5000000 		.4byte	0xe5
 1212 070b 28       		.byte	0x28
 1213 070c 00       		.byte	0
 1214 070d 05       		.uleb128 0x5
ARM GAS  /tmp/ccL9CB8M.s 			page 34


 1215 070e 65060000 		.4byte	0x665
 1216 0712 04       		.uleb128 0x4
 1217 0713 68010000 		.4byte	.LASF114
 1218 0717 0D       		.byte	0xd
 1219 0718 BC       		.byte	0xbc
 1220 0719 80060000 		.4byte	0x680
 1221 071d 18       		.uleb128 0x18
 1222 071e 4F000000 		.4byte	.LASF115
 1223 0722 0D       		.byte	0xd
 1224 0723 0E01     		.2byte	0x10e
 1225 0725 BF000000 		.4byte	0xbf
 1226 0729 18       		.uleb128 0x18
 1227 072a DC050000 		.4byte	.LASF116
 1228 072e 0D       		.byte	0xd
 1229 072f 1301     		.2byte	0x113
 1230 0731 BF000000 		.4byte	0xbf
 1231 0735 18       		.uleb128 0x18
 1232 0736 47050000 		.4byte	.LASF117
 1233 073a 0D       		.byte	0xd
 1234 073b 1B01     		.2byte	0x11b
 1235 073d 41070000 		.4byte	0x741
 1236 0741 0A       		.uleb128 0xa
 1237 0742 04       		.byte	0x4
 1238 0743 12070000 		.4byte	0x712
 1239 0747 11       		.uleb128 0x11
 1240 0748 0C       		.byte	0xc
 1241 0749 0E       		.byte	0xe
 1242 074a 7A       		.byte	0x7a
 1243 074b 74070000 		.4byte	0x774
 1244 074f 07       		.uleb128 0x7
 1245 0750 92030000 		.4byte	.LASF118
 1246 0754 0E       		.byte	0xe
 1247 0755 7E       		.byte	0x7e
 1248 0756 35070000 		.4byte	0x735
 1249 075a 00       		.byte	0
 1250 075b 07       		.uleb128 0x7
 1251 075c 52010000 		.4byte	.LASF119
 1252 0760 0E       		.byte	0xe
 1253 0761 84       		.byte	0x84
 1254 0762 1D070000 		.4byte	0x71d
 1255 0766 04       		.byte	0x4
 1256 0767 07       		.uleb128 0x7
 1257 0768 40050000 		.4byte	.LASF86
 1258 076c 0E       		.byte	0xe
 1259 076d 88       		.byte	0x88
 1260 076e D5000000 		.4byte	0xd5
 1261 0772 08       		.byte	0x8
 1262 0773 00       		.byte	0
 1263 0774 04       		.uleb128 0x4
 1264 0775 7D010000 		.4byte	.LASF120
 1265 0779 0E       		.byte	0xe
 1266 077a 89       		.byte	0x89
 1267 077b 47070000 		.4byte	0x747
 1268 077f 19       		.uleb128 0x19
 1269 0780 D9040000 		.4byte	.LASF131
 1270 0784 01       		.byte	0x1
 1271 0785 41       		.byte	0x41
ARM GAS  /tmp/ccL9CB8M.s 			page 35


 1272 0786 1D070000 		.4byte	0x71d
 1273 078a 00000000 		.4byte	.LFB260
 1274 078e 10000000 		.4byte	.LFE260-.LFB260
 1275 0792 01       		.uleb128 0x1
 1276 0793 9C       		.byte	0x9c
 1277 0794 B1070000 		.4byte	0x7b1
 1278 0798 1A       		.uleb128 0x1a
 1279 0799 62757300 		.ascii	"bus\000"
 1280 079d 01       		.byte	0x1
 1281 079e 41       		.byte	0x41
 1282 079f B1070000 		.4byte	0x7b1
 1283 07a3 00000000 		.4byte	.LLST0
 1284 07a7 1B       		.uleb128 0x1b
 1285 07a8 ED000000 		.4byte	.LASF122
 1286 07ac C7070000 		.4byte	0x7c7
 1287 07b0 00       		.byte	0
 1288 07b1 0A       		.uleb128 0xa
 1289 07b2 04       		.byte	0x4
 1290 07b3 74070000 		.4byte	0x774
 1291 07b7 15       		.uleb128 0x15
 1292 07b8 0A060000 		.4byte	0x60a
 1293 07bc C7070000 		.4byte	0x7c7
 1294 07c0 16       		.uleb128 0x16
 1295 07c1 63040000 		.4byte	0x463
 1296 07c5 0A       		.byte	0xa
 1297 07c6 00       		.byte	0
 1298 07c7 14       		.uleb128 0x14
 1299 07c8 B7070000 		.4byte	0x7b7
 1300 07cc 1C       		.uleb128 0x1c
 1301 07cd 7F050000 		.4byte	.LASF124
 1302 07d1 01       		.byte	0x1
 1303 07d2 5A       		.byte	0x5a
 1304 07d3 00000000 		.4byte	.LFB261
 1305 07d7 1E000000 		.4byte	.LFE261-.LFB261
 1306 07db 01       		.uleb128 0x1
 1307 07dc 9C       		.byte	0x9c
 1308 07dd 07080000 		.4byte	0x807
 1309 07e1 1A       		.uleb128 0x1a
 1310 07e2 62757300 		.ascii	"bus\000"
 1311 07e6 01       		.byte	0x1
 1312 07e7 5A       		.byte	0x5a
 1313 07e8 B1070000 		.4byte	0x7b1
 1314 07ec 21000000 		.4byte	.LLST1
 1315 07f0 1D       		.uleb128 0x1d
 1316 07f1 12010000 		.4byte	.LASF121
 1317 07f5 01       		.byte	0x1
 1318 07f6 5A       		.byte	0x5a
 1319 07f7 1D070000 		.4byte	0x71d
 1320 07fb 01       		.uleb128 0x1
 1321 07fc 51       		.byte	0x51
 1322 07fd 1B       		.uleb128 0x1b
 1323 07fe 5B030000 		.4byte	.LASF123
 1324 0802 17080000 		.4byte	0x817
 1325 0806 00       		.byte	0
 1326 0807 15       		.uleb128 0x15
 1327 0808 0A060000 		.4byte	0x60a
 1328 080c 17080000 		.4byte	0x817
ARM GAS  /tmp/ccL9CB8M.s 			page 36


 1329 0810 16       		.uleb128 0x16
 1330 0811 63040000 		.4byte	0x463
 1331 0815 0B       		.byte	0xb
 1332 0816 00       		.byte	0
 1333 0817 14       		.uleb128 0x14
 1334 0818 07080000 		.4byte	0x807
 1335 081c 1C       		.uleb128 0x1c
 1336 081d 9E030000 		.4byte	.LASF125
 1337 0821 01       		.byte	0x1
 1338 0822 71       		.byte	0x71
 1339 0823 00000000 		.4byte	.LFB262
 1340 0827 16000000 		.4byte	.LFE262-.LFB262
 1341 082b 01       		.uleb128 0x1
 1342 082c 9C       		.byte	0x9c
 1343 082d 6A080000 		.4byte	0x86a
 1344 0831 1A       		.uleb128 0x1a
 1345 0832 62757300 		.ascii	"bus\000"
 1346 0836 01       		.byte	0x1
 1347 0837 71       		.byte	0x71
 1348 0838 B1070000 		.4byte	0x7b1
 1349 083c 42000000 		.4byte	.LLST2
 1350 0840 1E       		.uleb128 0x1e
 1351 0841 D4040000 		.4byte	.LASF126
 1352 0845 01       		.byte	0x1
 1353 0846 71       		.byte	0x71
 1354 0847 29070000 		.4byte	0x729
 1355 084b 63000000 		.4byte	.LLST3
 1356 084f 1B       		.uleb128 0x1b
 1357 0850 F8040000 		.4byte	.LASF127
 1358 0854 7A080000 		.4byte	0x87a
 1359 0858 1F       		.uleb128 0x1f
 1360 0859 16000000 		.4byte	.LVL7
 1361 085d 96080000 		.4byte	0x896
 1362 0861 20       		.uleb128 0x20
 1363 0862 01       		.uleb128 0x1
 1364 0863 52       		.byte	0x52
 1365 0864 03       		.uleb128 0x3
 1366 0865 F3       		.byte	0xf3
 1367 0866 01       		.uleb128 0x1
 1368 0867 51       		.byte	0x51
 1369 0868 00       		.byte	0
 1370 0869 00       		.byte	0
 1371 086a 15       		.uleb128 0x15
 1372 086b 0A060000 		.4byte	0x60a
 1373 086f 7A080000 		.4byte	0x87a
 1374 0873 16       		.uleb128 0x16
 1375 0874 63040000 		.4byte	0x463
 1376 0878 0D       		.byte	0xd
 1377 0879 00       		.byte	0
 1378 087a 14       		.uleb128 0x14
 1379 087b 6A080000 		.4byte	0x86a
 1380 087f 21       		.uleb128 0x21
 1381 0880 A9000000 		.4byte	.LASF128
 1382 0884 0F       		.byte	0xf
 1383 0885 A706     		.2byte	0x6a7
 1384 0887 E0000000 		.4byte	0xe0
 1385 088b 22       		.uleb128 0x22
ARM GAS  /tmp/ccL9CB8M.s 			page 37


 1386 088c 636800   		.ascii	"ch\000"
 1387 088f 07       		.byte	0x7
 1388 0890 0902     		.2byte	0x209
 1389 0892 FC030000 		.4byte	0x3fc
 1390 0896 23       		.uleb128 0x23
 1391 0897 5A050000 		.4byte	.LASF132
 1392 089b 0D       		.byte	0xd
 1393 089c E001     		.2byte	0x1e0
 1394 089e 0D       		.uleb128 0xd
 1395 089f 35070000 		.4byte	0x735
 1396 08a3 0D       		.uleb128 0xd
 1397 08a4 1D070000 		.4byte	0x71d
 1398 08a8 0D       		.uleb128 0xd
 1399 08a9 29070000 		.4byte	0x729
 1400 08ad 00       		.byte	0
 1401 08ae 00       		.byte	0
 1402              		.section	.debug_abbrev,"",%progbits
 1403              	.Ldebug_abbrev0:
 1404 0000 01       		.uleb128 0x1
 1405 0001 11       		.uleb128 0x11
 1406 0002 01       		.byte	0x1
 1407 0003 25       		.uleb128 0x25
 1408 0004 0E       		.uleb128 0xe
 1409 0005 13       		.uleb128 0x13
 1410 0006 0B       		.uleb128 0xb
 1411 0007 03       		.uleb128 0x3
 1412 0008 0E       		.uleb128 0xe
 1413 0009 55       		.uleb128 0x55
 1414 000a 17       		.uleb128 0x17
 1415 000b 11       		.uleb128 0x11
 1416 000c 01       		.uleb128 0x1
 1417 000d 10       		.uleb128 0x10
 1418 000e 17       		.uleb128 0x17
 1419 000f 00       		.byte	0
 1420 0010 00       		.byte	0
 1421 0011 02       		.uleb128 0x2
 1422 0012 24       		.uleb128 0x24
 1423 0013 00       		.byte	0
 1424 0014 0B       		.uleb128 0xb
 1425 0015 0B       		.uleb128 0xb
 1426 0016 3E       		.uleb128 0x3e
 1427 0017 0B       		.uleb128 0xb
 1428 0018 03       		.uleb128 0x3
 1429 0019 08       		.uleb128 0x8
 1430 001a 00       		.byte	0
 1431 001b 00       		.byte	0
 1432 001c 03       		.uleb128 0x3
 1433 001d 24       		.uleb128 0x24
 1434 001e 00       		.byte	0
 1435 001f 0B       		.uleb128 0xb
 1436 0020 0B       		.uleb128 0xb
 1437 0021 3E       		.uleb128 0x3e
 1438 0022 0B       		.uleb128 0xb
 1439 0023 03       		.uleb128 0x3
 1440 0024 0E       		.uleb128 0xe
 1441 0025 00       		.byte	0
 1442 0026 00       		.byte	0
ARM GAS  /tmp/ccL9CB8M.s 			page 38


 1443 0027 04       		.uleb128 0x4
 1444 0028 16       		.uleb128 0x16
 1445 0029 00       		.byte	0
 1446 002a 03       		.uleb128 0x3
 1447 002b 0E       		.uleb128 0xe
 1448 002c 3A       		.uleb128 0x3a
 1449 002d 0B       		.uleb128 0xb
 1450 002e 3B       		.uleb128 0x3b
 1451 002f 0B       		.uleb128 0xb
 1452 0030 49       		.uleb128 0x49
 1453 0031 13       		.uleb128 0x13
 1454 0032 00       		.byte	0
 1455 0033 00       		.byte	0
 1456 0034 05       		.uleb128 0x5
 1457 0035 35       		.uleb128 0x35
 1458 0036 00       		.byte	0
 1459 0037 49       		.uleb128 0x49
 1460 0038 13       		.uleb128 0x13
 1461 0039 00       		.byte	0
 1462 003a 00       		.byte	0
 1463 003b 06       		.uleb128 0x6
 1464 003c 13       		.uleb128 0x13
 1465 003d 01       		.byte	0x1
 1466 003e 03       		.uleb128 0x3
 1467 003f 0E       		.uleb128 0xe
 1468 0040 0B       		.uleb128 0xb
 1469 0041 0B       		.uleb128 0xb
 1470 0042 3A       		.uleb128 0x3a
 1471 0043 0B       		.uleb128 0xb
 1472 0044 3B       		.uleb128 0x3b
 1473 0045 0B       		.uleb128 0xb
 1474 0046 01       		.uleb128 0x1
 1475 0047 13       		.uleb128 0x13
 1476 0048 00       		.byte	0
 1477 0049 00       		.byte	0
 1478 004a 07       		.uleb128 0x7
 1479 004b 0D       		.uleb128 0xd
 1480 004c 00       		.byte	0
 1481 004d 03       		.uleb128 0x3
 1482 004e 0E       		.uleb128 0xe
 1483 004f 3A       		.uleb128 0x3a
 1484 0050 0B       		.uleb128 0xb
 1485 0051 3B       		.uleb128 0x3b
 1486 0052 0B       		.uleb128 0xb
 1487 0053 49       		.uleb128 0x49
 1488 0054 13       		.uleb128 0x13
 1489 0055 38       		.uleb128 0x38
 1490 0056 0B       		.uleb128 0xb
 1491 0057 00       		.byte	0
 1492 0058 00       		.byte	0
 1493 0059 08       		.uleb128 0x8
 1494 005a 0D       		.uleb128 0xd
 1495 005b 00       		.byte	0
 1496 005c 03       		.uleb128 0x3
 1497 005d 08       		.uleb128 0x8
 1498 005e 3A       		.uleb128 0x3a
 1499 005f 0B       		.uleb128 0xb
ARM GAS  /tmp/ccL9CB8M.s 			page 39


 1500 0060 3B       		.uleb128 0x3b
 1501 0061 05       		.uleb128 0x5
 1502 0062 49       		.uleb128 0x49
 1503 0063 13       		.uleb128 0x13
 1504 0064 38       		.uleb128 0x38
 1505 0065 0B       		.uleb128 0xb
 1506 0066 00       		.byte	0
 1507 0067 00       		.byte	0
 1508 0068 09       		.uleb128 0x9
 1509 0069 0D       		.uleb128 0xd
 1510 006a 00       		.byte	0
 1511 006b 03       		.uleb128 0x3
 1512 006c 0E       		.uleb128 0xe
 1513 006d 3A       		.uleb128 0x3a
 1514 006e 0B       		.uleb128 0xb
 1515 006f 3B       		.uleb128 0x3b
 1516 0070 05       		.uleb128 0x5
 1517 0071 49       		.uleb128 0x49
 1518 0072 13       		.uleb128 0x13
 1519 0073 38       		.uleb128 0x38
 1520 0074 0B       		.uleb128 0xb
 1521 0075 00       		.byte	0
 1522 0076 00       		.byte	0
 1523 0077 0A       		.uleb128 0xa
 1524 0078 0F       		.uleb128 0xf
 1525 0079 00       		.byte	0
 1526 007a 0B       		.uleb128 0xb
 1527 007b 0B       		.uleb128 0xb
 1528 007c 49       		.uleb128 0x49
 1529 007d 13       		.uleb128 0x13
 1530 007e 00       		.byte	0
 1531 007f 00       		.byte	0
 1532 0080 0B       		.uleb128 0xb
 1533 0081 13       		.uleb128 0x13
 1534 0082 01       		.byte	0x1
 1535 0083 03       		.uleb128 0x3
 1536 0084 0E       		.uleb128 0xe
 1537 0085 0B       		.uleb128 0xb
 1538 0086 0B       		.uleb128 0xb
 1539 0087 3A       		.uleb128 0x3a
 1540 0088 0B       		.uleb128 0xb
 1541 0089 3B       		.uleb128 0x3b
 1542 008a 05       		.uleb128 0x5
 1543 008b 01       		.uleb128 0x1
 1544 008c 13       		.uleb128 0x13
 1545 008d 00       		.byte	0
 1546 008e 00       		.byte	0
 1547 008f 0C       		.uleb128 0xc
 1548 0090 15       		.uleb128 0x15
 1549 0091 01       		.byte	0x1
 1550 0092 27       		.uleb128 0x27
 1551 0093 19       		.uleb128 0x19
 1552 0094 01       		.uleb128 0x1
 1553 0095 13       		.uleb128 0x13
 1554 0096 00       		.byte	0
 1555 0097 00       		.byte	0
 1556 0098 0D       		.uleb128 0xd
ARM GAS  /tmp/ccL9CB8M.s 			page 40


 1557 0099 05       		.uleb128 0x5
 1558 009a 00       		.byte	0
 1559 009b 49       		.uleb128 0x49
 1560 009c 13       		.uleb128 0x13
 1561 009d 00       		.byte	0
 1562 009e 00       		.byte	0
 1563 009f 0E       		.uleb128 0xe
 1564 00a0 0F       		.uleb128 0xf
 1565 00a1 00       		.byte	0
 1566 00a2 0B       		.uleb128 0xb
 1567 00a3 0B       		.uleb128 0xb
 1568 00a4 00       		.byte	0
 1569 00a5 00       		.byte	0
 1570 00a6 0F       		.uleb128 0xf
 1571 00a7 13       		.uleb128 0x13
 1572 00a8 01       		.byte	0x1
 1573 00a9 03       		.uleb128 0x3
 1574 00aa 0E       		.uleb128 0xe
 1575 00ab 0B       		.uleb128 0xb
 1576 00ac 05       		.uleb128 0x5
 1577 00ad 3A       		.uleb128 0x3a
 1578 00ae 0B       		.uleb128 0xb
 1579 00af 3B       		.uleb128 0x3b
 1580 00b0 05       		.uleb128 0x5
 1581 00b1 01       		.uleb128 0x1
 1582 00b2 13       		.uleb128 0x13
 1583 00b3 00       		.byte	0
 1584 00b4 00       		.byte	0
 1585 00b5 10       		.uleb128 0x10
 1586 00b6 0D       		.uleb128 0xd
 1587 00b7 00       		.byte	0
 1588 00b8 03       		.uleb128 0x3
 1589 00b9 08       		.uleb128 0x8
 1590 00ba 3A       		.uleb128 0x3a
 1591 00bb 0B       		.uleb128 0xb
 1592 00bc 3B       		.uleb128 0x3b
 1593 00bd 0B       		.uleb128 0xb
 1594 00be 49       		.uleb128 0x49
 1595 00bf 13       		.uleb128 0x13
 1596 00c0 38       		.uleb128 0x38
 1597 00c1 0B       		.uleb128 0xb
 1598 00c2 00       		.byte	0
 1599 00c3 00       		.byte	0
 1600 00c4 11       		.uleb128 0x11
 1601 00c5 13       		.uleb128 0x13
 1602 00c6 01       		.byte	0x1
 1603 00c7 0B       		.uleb128 0xb
 1604 00c8 0B       		.uleb128 0xb
 1605 00c9 3A       		.uleb128 0x3a
 1606 00ca 0B       		.uleb128 0xb
 1607 00cb 3B       		.uleb128 0x3b
 1608 00cc 0B       		.uleb128 0xb
 1609 00cd 01       		.uleb128 0x1
 1610 00ce 13       		.uleb128 0x13
 1611 00cf 00       		.byte	0
 1612 00d0 00       		.byte	0
 1613 00d1 12       		.uleb128 0x12
ARM GAS  /tmp/ccL9CB8M.s 			page 41


 1614 00d2 17       		.uleb128 0x17
 1615 00d3 01       		.byte	0x1
 1616 00d4 0B       		.uleb128 0xb
 1617 00d5 0B       		.uleb128 0xb
 1618 00d6 3A       		.uleb128 0x3a
 1619 00d7 0B       		.uleb128 0xb
 1620 00d8 3B       		.uleb128 0x3b
 1621 00d9 0B       		.uleb128 0xb
 1622 00da 01       		.uleb128 0x1
 1623 00db 13       		.uleb128 0x13
 1624 00dc 00       		.byte	0
 1625 00dd 00       		.byte	0
 1626 00de 13       		.uleb128 0x13
 1627 00df 0D       		.uleb128 0xd
 1628 00e0 00       		.byte	0
 1629 00e1 03       		.uleb128 0x3
 1630 00e2 0E       		.uleb128 0xe
 1631 00e3 3A       		.uleb128 0x3a
 1632 00e4 0B       		.uleb128 0xb
 1633 00e5 3B       		.uleb128 0x3b
 1634 00e6 05       		.uleb128 0x5
 1635 00e7 49       		.uleb128 0x49
 1636 00e8 13       		.uleb128 0x13
 1637 00e9 00       		.byte	0
 1638 00ea 00       		.byte	0
 1639 00eb 14       		.uleb128 0x14
 1640 00ec 26       		.uleb128 0x26
 1641 00ed 00       		.byte	0
 1642 00ee 49       		.uleb128 0x49
 1643 00ef 13       		.uleb128 0x13
 1644 00f0 00       		.byte	0
 1645 00f1 00       		.byte	0
 1646 00f2 15       		.uleb128 0x15
 1647 00f3 01       		.uleb128 0x1
 1648 00f4 01       		.byte	0x1
 1649 00f5 49       		.uleb128 0x49
 1650 00f6 13       		.uleb128 0x13
 1651 00f7 01       		.uleb128 0x1
 1652 00f8 13       		.uleb128 0x13
 1653 00f9 00       		.byte	0
 1654 00fa 00       		.byte	0
 1655 00fb 16       		.uleb128 0x16
 1656 00fc 21       		.uleb128 0x21
 1657 00fd 00       		.byte	0
 1658 00fe 49       		.uleb128 0x49
 1659 00ff 13       		.uleb128 0x13
 1660 0100 2F       		.uleb128 0x2f
 1661 0101 0B       		.uleb128 0xb
 1662 0102 00       		.byte	0
 1663 0103 00       		.byte	0
 1664 0104 17       		.uleb128 0x17
 1665 0105 0D       		.uleb128 0xd
 1666 0106 00       		.byte	0
 1667 0107 03       		.uleb128 0x3
 1668 0108 08       		.uleb128 0x8
 1669 0109 3A       		.uleb128 0x3a
 1670 010a 0B       		.uleb128 0xb
ARM GAS  /tmp/ccL9CB8M.s 			page 42


 1671 010b 3B       		.uleb128 0x3b
 1672 010c 0B       		.uleb128 0xb
 1673 010d 49       		.uleb128 0x49
 1674 010e 13       		.uleb128 0x13
 1675 010f 00       		.byte	0
 1676 0110 00       		.byte	0
 1677 0111 18       		.uleb128 0x18
 1678 0112 16       		.uleb128 0x16
 1679 0113 00       		.byte	0
 1680 0114 03       		.uleb128 0x3
 1681 0115 0E       		.uleb128 0xe
 1682 0116 3A       		.uleb128 0x3a
 1683 0117 0B       		.uleb128 0xb
 1684 0118 3B       		.uleb128 0x3b
 1685 0119 05       		.uleb128 0x5
 1686 011a 49       		.uleb128 0x49
 1687 011b 13       		.uleb128 0x13
 1688 011c 00       		.byte	0
 1689 011d 00       		.byte	0
 1690 011e 19       		.uleb128 0x19
 1691 011f 2E       		.uleb128 0x2e
 1692 0120 01       		.byte	0x1
 1693 0121 3F       		.uleb128 0x3f
 1694 0122 19       		.uleb128 0x19
 1695 0123 03       		.uleb128 0x3
 1696 0124 0E       		.uleb128 0xe
 1697 0125 3A       		.uleb128 0x3a
 1698 0126 0B       		.uleb128 0xb
 1699 0127 3B       		.uleb128 0x3b
 1700 0128 0B       		.uleb128 0xb
 1701 0129 27       		.uleb128 0x27
 1702 012a 19       		.uleb128 0x19
 1703 012b 49       		.uleb128 0x49
 1704 012c 13       		.uleb128 0x13
 1705 012d 11       		.uleb128 0x11
 1706 012e 01       		.uleb128 0x1
 1707 012f 12       		.uleb128 0x12
 1708 0130 06       		.uleb128 0x6
 1709 0131 40       		.uleb128 0x40
 1710 0132 18       		.uleb128 0x18
 1711 0133 9742     		.uleb128 0x2117
 1712 0135 19       		.uleb128 0x19
 1713 0136 01       		.uleb128 0x1
 1714 0137 13       		.uleb128 0x13
 1715 0138 00       		.byte	0
 1716 0139 00       		.byte	0
 1717 013a 1A       		.uleb128 0x1a
 1718 013b 05       		.uleb128 0x5
 1719 013c 00       		.byte	0
 1720 013d 03       		.uleb128 0x3
 1721 013e 08       		.uleb128 0x8
 1722 013f 3A       		.uleb128 0x3a
 1723 0140 0B       		.uleb128 0xb
 1724 0141 3B       		.uleb128 0x3b
 1725 0142 0B       		.uleb128 0xb
 1726 0143 49       		.uleb128 0x49
 1727 0144 13       		.uleb128 0x13
ARM GAS  /tmp/ccL9CB8M.s 			page 43


 1728 0145 02       		.uleb128 0x2
 1729 0146 17       		.uleb128 0x17
 1730 0147 00       		.byte	0
 1731 0148 00       		.byte	0
 1732 0149 1B       		.uleb128 0x1b
 1733 014a 34       		.uleb128 0x34
 1734 014b 00       		.byte	0
 1735 014c 03       		.uleb128 0x3
 1736 014d 0E       		.uleb128 0xe
 1737 014e 49       		.uleb128 0x49
 1738 014f 13       		.uleb128 0x13
 1739 0150 34       		.uleb128 0x34
 1740 0151 19       		.uleb128 0x19
 1741 0152 00       		.byte	0
 1742 0153 00       		.byte	0
 1743 0154 1C       		.uleb128 0x1c
 1744 0155 2E       		.uleb128 0x2e
 1745 0156 01       		.byte	0x1
 1746 0157 3F       		.uleb128 0x3f
 1747 0158 19       		.uleb128 0x19
 1748 0159 03       		.uleb128 0x3
 1749 015a 0E       		.uleb128 0xe
 1750 015b 3A       		.uleb128 0x3a
 1751 015c 0B       		.uleb128 0xb
 1752 015d 3B       		.uleb128 0x3b
 1753 015e 0B       		.uleb128 0xb
 1754 015f 27       		.uleb128 0x27
 1755 0160 19       		.uleb128 0x19
 1756 0161 11       		.uleb128 0x11
 1757 0162 01       		.uleb128 0x1
 1758 0163 12       		.uleb128 0x12
 1759 0164 06       		.uleb128 0x6
 1760 0165 40       		.uleb128 0x40
 1761 0166 18       		.uleb128 0x18
 1762 0167 9742     		.uleb128 0x2117
 1763 0169 19       		.uleb128 0x19
 1764 016a 01       		.uleb128 0x1
 1765 016b 13       		.uleb128 0x13
 1766 016c 00       		.byte	0
 1767 016d 00       		.byte	0
 1768 016e 1D       		.uleb128 0x1d
 1769 016f 05       		.uleb128 0x5
 1770 0170 00       		.byte	0
 1771 0171 03       		.uleb128 0x3
 1772 0172 0E       		.uleb128 0xe
 1773 0173 3A       		.uleb128 0x3a
 1774 0174 0B       		.uleb128 0xb
 1775 0175 3B       		.uleb128 0x3b
 1776 0176 0B       		.uleb128 0xb
 1777 0177 49       		.uleb128 0x49
 1778 0178 13       		.uleb128 0x13
 1779 0179 02       		.uleb128 0x2
 1780 017a 18       		.uleb128 0x18
 1781 017b 00       		.byte	0
 1782 017c 00       		.byte	0
 1783 017d 1E       		.uleb128 0x1e
 1784 017e 05       		.uleb128 0x5
ARM GAS  /tmp/ccL9CB8M.s 			page 44


 1785 017f 00       		.byte	0
 1786 0180 03       		.uleb128 0x3
 1787 0181 0E       		.uleb128 0xe
 1788 0182 3A       		.uleb128 0x3a
 1789 0183 0B       		.uleb128 0xb
 1790 0184 3B       		.uleb128 0x3b
 1791 0185 0B       		.uleb128 0xb
 1792 0186 49       		.uleb128 0x49
 1793 0187 13       		.uleb128 0x13
 1794 0188 02       		.uleb128 0x2
 1795 0189 17       		.uleb128 0x17
 1796 018a 00       		.byte	0
 1797 018b 00       		.byte	0
 1798 018c 1F       		.uleb128 0x1f
 1799 018d 898201   		.uleb128 0x4109
 1800 0190 01       		.byte	0x1
 1801 0191 11       		.uleb128 0x11
 1802 0192 01       		.uleb128 0x1
 1803 0193 9542     		.uleb128 0x2115
 1804 0195 19       		.uleb128 0x19
 1805 0196 31       		.uleb128 0x31
 1806 0197 13       		.uleb128 0x13
 1807 0198 00       		.byte	0
 1808 0199 00       		.byte	0
 1809 019a 20       		.uleb128 0x20
 1810 019b 8A8201   		.uleb128 0x410a
 1811 019e 00       		.byte	0
 1812 019f 02       		.uleb128 0x2
 1813 01a0 18       		.uleb128 0x18
 1814 01a1 9142     		.uleb128 0x2111
 1815 01a3 18       		.uleb128 0x18
 1816 01a4 00       		.byte	0
 1817 01a5 00       		.byte	0
 1818 01a6 21       		.uleb128 0x21
 1819 01a7 34       		.uleb128 0x34
 1820 01a8 00       		.byte	0
 1821 01a9 03       		.uleb128 0x3
 1822 01aa 0E       		.uleb128 0xe
 1823 01ab 3A       		.uleb128 0x3a
 1824 01ac 0B       		.uleb128 0xb
 1825 01ad 3B       		.uleb128 0x3b
 1826 01ae 05       		.uleb128 0x5
 1827 01af 49       		.uleb128 0x49
 1828 01b0 13       		.uleb128 0x13
 1829 01b1 3F       		.uleb128 0x3f
 1830 01b2 19       		.uleb128 0x19
 1831 01b3 3C       		.uleb128 0x3c
 1832 01b4 19       		.uleb128 0x19
 1833 01b5 00       		.byte	0
 1834 01b6 00       		.byte	0
 1835 01b7 22       		.uleb128 0x22
 1836 01b8 34       		.uleb128 0x34
 1837 01b9 00       		.byte	0
 1838 01ba 03       		.uleb128 0x3
 1839 01bb 08       		.uleb128 0x8
 1840 01bc 3A       		.uleb128 0x3a
 1841 01bd 0B       		.uleb128 0xb
ARM GAS  /tmp/ccL9CB8M.s 			page 45


 1842 01be 3B       		.uleb128 0x3b
 1843 01bf 05       		.uleb128 0x5
 1844 01c0 49       		.uleb128 0x49
 1845 01c1 13       		.uleb128 0x13
 1846 01c2 3F       		.uleb128 0x3f
 1847 01c3 19       		.uleb128 0x19
 1848 01c4 3C       		.uleb128 0x3c
 1849 01c5 19       		.uleb128 0x19
 1850 01c6 00       		.byte	0
 1851 01c7 00       		.byte	0
 1852 01c8 23       		.uleb128 0x23
 1853 01c9 2E       		.uleb128 0x2e
 1854 01ca 01       		.byte	0x1
 1855 01cb 3F       		.uleb128 0x3f
 1856 01cc 19       		.uleb128 0x19
 1857 01cd 03       		.uleb128 0x3
 1858 01ce 0E       		.uleb128 0xe
 1859 01cf 3A       		.uleb128 0x3a
 1860 01d0 0B       		.uleb128 0xb
 1861 01d1 3B       		.uleb128 0x3b
 1862 01d2 05       		.uleb128 0x5
 1863 01d3 27       		.uleb128 0x27
 1864 01d4 19       		.uleb128 0x19
 1865 01d5 3C       		.uleb128 0x3c
 1866 01d6 19       		.uleb128 0x19
 1867 01d7 00       		.byte	0
 1868 01d8 00       		.byte	0
 1869 01d9 00       		.byte	0
 1870              		.section	.debug_loc,"",%progbits
 1871              	.Ldebug_loc0:
 1872              	.LLST0:
 1873 0000 00000000 		.4byte	.LVL0
 1874 0004 0C000000 		.4byte	.LVL1
 1875 0008 0100     		.2byte	0x1
 1876 000a 50       		.byte	0x50
 1877 000b 0C000000 		.4byte	.LVL1
 1878 000f 10000000 		.4byte	.LFE260
 1879 0013 0400     		.2byte	0x4
 1880 0015 F3       		.byte	0xf3
 1881 0016 01       		.uleb128 0x1
 1882 0017 50       		.byte	0x50
 1883 0018 9F       		.byte	0x9f
 1884 0019 00000000 		.4byte	0
 1885 001d 00000000 		.4byte	0
 1886              	.LLST1:
 1887 0021 00000000 		.4byte	.LVL2
 1888 0025 02000000 		.4byte	.LVL3
 1889 0029 0100     		.2byte	0x1
 1890 002b 50       		.byte	0x50
 1891 002c 02000000 		.4byte	.LVL3
 1892 0030 1E000000 		.4byte	.LFE261
 1893 0034 0400     		.2byte	0x4
 1894 0036 F3       		.byte	0xf3
 1895 0037 01       		.uleb128 0x1
 1896 0038 50       		.byte	0x50
 1897 0039 9F       		.byte	0x9f
 1898 003a 00000000 		.4byte	0
ARM GAS  /tmp/ccL9CB8M.s 			page 46


 1899 003e 00000000 		.4byte	0
 1900              	.LLST2:
 1901 0042 00000000 		.4byte	.LVL4
 1902 0046 0A000000 		.4byte	.LVL6
 1903 004a 0100     		.2byte	0x1
 1904 004c 50       		.byte	0x50
 1905 004d 0A000000 		.4byte	.LVL6
 1906 0051 16000000 		.4byte	.LFE262
 1907 0055 0400     		.2byte	0x4
 1908 0057 F3       		.byte	0xf3
 1909 0058 01       		.uleb128 0x1
 1910 0059 50       		.byte	0x50
 1911 005a 9F       		.byte	0x9f
 1912 005b 00000000 		.4byte	0
 1913 005f 00000000 		.4byte	0
 1914              	.LLST3:
 1915 0063 00000000 		.4byte	.LVL4
 1916 0067 08000000 		.4byte	.LVL5
 1917 006b 0100     		.2byte	0x1
 1918 006d 51       		.byte	0x51
 1919 006e 08000000 		.4byte	.LVL5
 1920 0072 15000000 		.4byte	.LVL7-1
 1921 0076 0100     		.2byte	0x1
 1922 0078 52       		.byte	0x52
 1923 0079 15000000 		.4byte	.LVL7-1
 1924 007d 16000000 		.4byte	.LFE262
 1925 0081 0400     		.2byte	0x4
 1926 0083 F3       		.byte	0xf3
 1927 0084 01       		.uleb128 0x1
 1928 0085 51       		.byte	0x51
 1929 0086 9F       		.byte	0x9f
 1930 0087 00000000 		.4byte	0
 1931 008b 00000000 		.4byte	0
 1932              		.section	.debug_aranges,"",%progbits
 1933 0000 2C000000 		.4byte	0x2c
 1934 0004 0200     		.2byte	0x2
 1935 0006 00000000 		.4byte	.Ldebug_info0
 1936 000a 04       		.byte	0x4
 1937 000b 00       		.byte	0
 1938 000c 0000     		.2byte	0
 1939 000e 0000     		.2byte	0
 1940 0010 00000000 		.4byte	.LFB260
 1941 0014 10000000 		.4byte	.LFE260-.LFB260
 1942 0018 00000000 		.4byte	.LFB261
 1943 001c 1E000000 		.4byte	.LFE261-.LFB261
 1944 0020 00000000 		.4byte	.LFB262
 1945 0024 16000000 		.4byte	.LFE262-.LFB262
 1946 0028 00000000 		.4byte	0
 1947 002c 00000000 		.4byte	0
 1948              		.section	.debug_ranges,"",%progbits
 1949              	.Ldebug_ranges0:
 1950 0000 00000000 		.4byte	.LFB260
 1951 0004 10000000 		.4byte	.LFE260
 1952 0008 00000000 		.4byte	.LFB261
 1953 000c 1E000000 		.4byte	.LFE261
 1954 0010 00000000 		.4byte	.LFB262
 1955 0014 16000000 		.4byte	.LFE262
ARM GAS  /tmp/ccL9CB8M.s 			page 47


 1956 0018 00000000 		.4byte	0
 1957 001c 00000000 		.4byte	0
 1958              		.section	.debug_line,"",%progbits
 1959              	.Ldebug_line0:
 1960 0000 60020000 		.section	.debug_str,"MS",%progbits,1
 1960      02002002 
 1960      00000201 
 1960      FB0E0D00 
 1960      01010101 
 1961              	.LASF53:
 1962 0000 72656164 		.ascii	"ready_list_t\000"
 1962      795F6C69 
 1962      73745F74 
 1962      00
 1963              	.LASF91:
 1964 000d 77747472 		.ascii	"wttrp\000"
 1964      7000
 1965              	.LASF88:
 1966 0013 7264796D 		.ascii	"rdymsg\000"
 1966      736700
 1967              	.LASF18:
 1968 001a 75696E74 		.ascii	"uint64_t\000"
 1968      36345F74 
 1968      00
 1969              	.LASF4:
 1970 0023 5F5F7569 		.ascii	"__uint8_t\000"
 1970      6E74385F 
 1970      7400
 1971              	.LASF107:
 1972 002d 4F545950 		.ascii	"OTYPER\000"
 1972      455200
 1973              	.LASF85:
 1974 0034 706F7274 		.ascii	"port_intctx\000"
 1974      5F696E74 
 1974      63747800 
 1975              	.LASF72:
 1976 0040 73797374 		.ascii	"system_debug_t\000"
 1976      656D5F64 
 1976      65627567 
 1976      5F7400
 1977              	.LASF115:
 1978 004f 696F706F 		.ascii	"ioportmask_t\000"
 1978      72746D61 
 1978      736B5F74 
 1978      00
 1979              	.LASF106:
 1980 005c 4D4F4445 		.ascii	"MODER\000"
 1980      5200
 1981              	.LASF13:
 1982 0062 6C6F6E67 		.ascii	"long long unsigned int\000"
 1982      206C6F6E 
 1982      6720756E 
 1982      7369676E 
 1982      65642069 
 1983              	.LASF109:
 1984 0079 50555044 		.ascii	"PUPDR\000"
 1984      5200
ARM GAS  /tmp/ccL9CB8M.s 			page 48


 1985              	.LASF89:
 1986 007f 65786974 		.ascii	"exitcode\000"
 1986      636F6465 
 1986      00
 1987              	.LASF79:
 1988 0088 6D61696E 		.ascii	"mainthread\000"
 1988      74687265 
 1988      616400
 1989              	.LASF69:
 1990 0093 76697274 		.ascii	"virtual_timers_list_t\000"
 1990      75616C5F 
 1990      74696D65 
 1990      72735F6C 
 1990      6973745F 
 1991              	.LASF128:
 1992 00a9 49544D5F 		.ascii	"ITM_RxBuffer\000"
 1992      52784275 
 1992      66666572 
 1992      00
 1993              	.LASF52:
 1994 00b6 63685F74 		.ascii	"ch_threads_queue\000"
 1994      68726561 
 1994      64735F71 
 1994      75657565 
 1994      00
 1995              	.LASF32:
 1996 00c7 705F7072 		.ascii	"p_prio\000"
 1996      696F00
 1997              	.LASF11:
 1998 00ce 6C6F6E67 		.ascii	"long long int\000"
 1998      206C6F6E 
 1998      6720696E 
 1998      7400
 1999              	.LASF1:
 2000 00dc 7369676E 		.ascii	"signed char\000"
 2000      65642063 
 2000      68617200 
 2001              	.LASF110:
 2002 00e8 42535252 		.ascii	"BSRR\000"
 2002      00
 2003              	.LASF122:
 2004 00ed 5F5F6675 		.ascii	"__func__.7591\000"
 2004      6E635F5F 
 2004      2E373539 
 2004      3100
 2005              	.LASF46:
 2006 00fb 705F6D70 		.ascii	"p_mpool\000"
 2006      6F6F6C00 
 2007              	.LASF99:
 2008 0103 6D5F7175 		.ascii	"m_queue\000"
 2008      65756500 
 2009              	.LASF78:
 2010 010b 76746C69 		.ascii	"vtlist\000"
 2010      737400
 2011              	.LASF121:
 2012 0112 62697473 		.ascii	"bits\000"
 2012      00
ARM GAS  /tmp/ccL9CB8M.s 			page 49


 2013              	.LASF8:
 2014 0117 6C6F6E67 		.ascii	"long int\000"
 2014      20696E74 
 2014      00
 2015              	.LASF22:
 2016 0120 74737461 		.ascii	"tstate_t\000"
 2016      74655F74 
 2016      00
 2017              	.LASF15:
 2018 0129 75696E74 		.ascii	"uint16_t\000"
 2018      31365F74 
 2018      00
 2019              	.LASF34:
 2020 0132 705F6E65 		.ascii	"p_newer\000"
 2020      77657200 
 2021              	.LASF96:
 2022 013a 735F7175 		.ascii	"s_queue\000"
 2022      65756500 
 2023              	.LASF108:
 2024 0142 4F535045 		.ascii	"OSPEEDR\000"
 2024      45445200 
 2025              	.LASF58:
 2026 014a 725F6E65 		.ascii	"r_newer\000"
 2026      77657200 
 2027              	.LASF119:
 2028 0152 6D61736B 		.ascii	"mask\000"
 2028      00
 2029              	.LASF82:
 2030 0157 72656761 		.ascii	"regarm_t\000"
 2030      726D5F74 
 2030      00
 2031              	.LASF65:
 2032 0160 76745F70 		.ascii	"vt_prev\000"
 2032      72657600 
 2033              	.LASF114:
 2034 0168 73746D33 		.ascii	"stm32_gpio_t\000"
 2034      325F6770 
 2034      696F5F74 
 2034      00
 2035              	.LASF103:
 2036 0175 6D757465 		.ascii	"mutex_t\000"
 2036      785F7400 
 2037              	.LASF120:
 2038 017d 494F4275 		.ascii	"IOBus\000"
 2038      7300
 2039              	.LASF27:
 2040 0183 636E745F 		.ascii	"cnt_t\000"
 2040      7400
 2041              	.LASF0:
 2042 0189 756E7369 		.ascii	"unsigned int\000"
 2042      676E6564 
 2042      20696E74 
 2042      00
 2043              	.LASF64:
 2044 0196 76745F6E 		.ascii	"vt_next\000"
 2044      65787400 
 2045              	.LASF92:
ARM GAS  /tmp/ccL9CB8M.s 			page 50


 2046 019e 77747365 		.ascii	"wtsemp\000"
 2046      6D7000
 2047              	.LASF41:
 2048 01a5 705F6D73 		.ascii	"p_msgqueue\000"
 2048      67717565 
 2048      756500
 2049              	.LASF111:
 2050 01b0 4C434B52 		.ascii	"LCKR\000"
 2050      00
 2051              	.LASF97:
 2052 01b5 735F636E 		.ascii	"s_cnt\000"
 2052      7400
 2053              	.LASF130:
 2054 01bb 2F757372 		.ascii	"/usr/src/chibios/os/hal/src/pal.c\000"
 2054      2F737263 
 2054      2F636869 
 2054      62696F73 
 2054      2F6F732F 
 2055              	.LASF6:
 2056 01dd 73686F72 		.ascii	"short unsigned int\000"
 2056      7420756E 
 2056      7369676E 
 2056      65642069 
 2056      6E7400
 2057              	.LASF49:
 2058 01f0 63685F74 		.ascii	"ch_thread\000"
 2058      68726561 
 2058      6400
 2059              	.LASF25:
 2060 01fa 6D73675F 		.ascii	"msg_t\000"
 2060      7400
 2061              	.LASF75:
 2062 0200 63685F73 		.ascii	"ch_system_t\000"
 2062      79737465 
 2062      6D5F7400 
 2063              	.LASF21:
 2064 020c 746D6F64 		.ascii	"tmode_t\000"
 2064      655F7400 
 2065              	.LASF54:
 2066 0214 63685F72 		.ascii	"ch_ready_list\000"
 2066      65616479 
 2066      5F6C6973 
 2066      7400
 2067              	.LASF26:
 2068 0222 6576656E 		.ascii	"eventmask_t\000"
 2068      746D6173 
 2068      6B5F7400 
 2069              	.LASF7:
 2070 022e 5F5F696E 		.ascii	"__int32_t\000"
 2070      7433325F 
 2070      7400
 2071              	.LASF83:
 2072 0238 73746B61 		.ascii	"stkalign_t\000"
 2072      6C69676E 
 2072      5F7400
 2073              	.LASF12:
 2074 0243 5F5F7569 		.ascii	"__uint64_t\000"
ARM GAS  /tmp/ccL9CB8M.s 			page 51


 2074      6E743634 
 2074      5F7400
 2075              	.LASF129:
 2076 024e 474E5520 		.ascii	"GNU C 4.8.4 20141219 (release) -mcpu=cortex-m4 -mno"
 2076      4320342E 
 2076      382E3420 
 2076      32303134 
 2076      31323139 
 2077 0281 2D746875 		.ascii	"-thumb-interwork -mthumb -ggdb -O2 -fomit-frame-poi"
 2077      6D622D69 
 2077      6E746572 
 2077      776F726B 
 2077      202D6D74 
 2078 02b4 6E746572 		.ascii	"nter -falign-functions=16 -ffunction-sections -fdat"
 2078      202D6661 
 2078      6C69676E 
 2078      2D66756E 
 2078      6374696F 
 2079 02e7 612D7365 		.ascii	"a-sections -fno-common -flto\000"
 2079      6374696F 
 2079      6E73202D 
 2079      666E6F2D 
 2079      636F6D6D 
 2080              	.LASF40:
 2081 0304 705F7761 		.ascii	"p_waiting\000"
 2081      6974696E 
 2081      6700
 2082              	.LASF81:
 2083 030e 73697A65 		.ascii	"sizetype\000"
 2083      74797065 
 2083      00
 2084              	.LASF47:
 2085 0317 74687265 		.ascii	"thread_reference_t\000"
 2085      61645F72 
 2085      65666572 
 2085      656E6365 
 2085      5F7400
 2086              	.LASF70:
 2087 032a 63685F76 		.ascii	"ch_virtual_timers_list\000"
 2087      69727475 
 2087      616C5F74 
 2087      696D6572 
 2087      735F6C69 
 2088              	.LASF105:
 2089 0341 636C6561 		.ascii	"clear\000"
 2089      7200
 2090              	.LASF71:
 2091 0347 76745F6C 		.ascii	"vt_lasttime\000"
 2091      61737474 
 2091      696D6500 
 2092              	.LASF35:
 2093 0353 705F6F6C 		.ascii	"p_older\000"
 2093      64657200 
 2094              	.LASF123:
 2095 035b 5F5F6675 		.ascii	"__func__.7596\000"
 2095      6E635F5F 
 2095      2E373539 
ARM GAS  /tmp/ccL9CB8M.s 			page 52


 2095      3600
 2096              	.LASF57:
 2097 0369 725F6374 		.ascii	"r_ctx\000"
 2097      7800
 2098              	.LASF87:
 2099 036f 746D5F63 		.ascii	"tm_calibration_t\000"
 2099      616C6962 
 2099      72617469 
 2099      6F6E5F74 
 2099      00
 2100              	.LASF60:
 2101 0380 725F6375 		.ascii	"r_current\000"
 2101      7272656E 
 2101      7400
 2102              	.LASF59:
 2103 038a 725F6F6C 		.ascii	"r_older\000"
 2103      64657200 
 2104              	.LASF118:
 2105 0392 706F7274 		.ascii	"portid\000"
 2105      696400
 2106              	.LASF113:
 2107 0399 41465248 		.ascii	"AFRH\000"
 2107      00
 2108              	.LASF125:
 2109 039e 70616C53 		.ascii	"palSetBusMode\000"
 2109      65744275 
 2109      734D6F64 
 2109      6500
 2110              	.LASF112:
 2111 03ac 4146524C 		.ascii	"AFRL\000"
 2111      00
 2112              	.LASF23:
 2113 03b1 74726566 		.ascii	"trefs_t\000"
 2113      735F7400 
 2114              	.LASF62:
 2115 03b9 76697274 		.ascii	"virtual_timer_t\000"
 2115      75616C5F 
 2115      74696D65 
 2115      725F7400 
 2116              	.LASF31:
 2117 03c9 705F7072 		.ascii	"p_prev\000"
 2117      657600
 2118              	.LASF24:
 2119 03d0 74707269 		.ascii	"tprio_t\000"
 2119      6F5F7400 
 2120              	.LASF73:
 2121 03d8 63685F73 		.ascii	"ch_system_debug\000"
 2121      79737465 
 2121      6D5F6465 
 2121      62756700 
 2122              	.LASF104:
 2123 03e8 5F426F6F 		.ascii	"_Bool\000"
 2123      6C00
 2124              	.LASF16:
 2125 03ee 696E7433 		.ascii	"int32_t\000"
 2125      325F7400 
 2126              	.LASF2:
ARM GAS  /tmp/ccL9CB8M.s 			page 53


 2127 03f6 756E7369 		.ascii	"unsigned char\000"
 2127      676E6564 
 2127      20636861 
 2127      7200
 2128              	.LASF44:
 2129 0404 705F6D74 		.ascii	"p_mtxlist\000"
 2129      786C6973 
 2129      7400
 2130              	.LASF3:
 2131 040e 73686F72 		.ascii	"short int\000"
 2131      7420696E 
 2131      7400
 2132              	.LASF37:
 2133 0418 705F7374 		.ascii	"p_state\000"
 2133      61746500 
 2134              	.LASF56:
 2135 0420 725F7072 		.ascii	"r_prio\000"
 2135      696F00
 2136              	.LASF94:
 2137 0427 65776D61 		.ascii	"ewmask\000"
 2137      736B00
 2138              	.LASF30:
 2139 042e 705F6E65 		.ascii	"p_next\000"
 2139      787400
 2140              	.LASF19:
 2141 0435 75696E74 		.ascii	"uint_fast8_t\000"
 2141      5F666173 
 2141      74385F74 
 2141      00
 2142              	.LASF38:
 2143 0442 705F666C 		.ascii	"p_flags\000"
 2143      61677300 
 2144              	.LASF80:
 2145 044a 69646C65 		.ascii	"idle_thread_wa\000"
 2145      5F746872 
 2145      6561645F 
 2145      776100
 2146              	.LASF76:
 2147 0459 63685F73 		.ascii	"ch_system\000"
 2147      79737465 
 2147      6D00
 2148              	.LASF63:
 2149 0463 63685F76 		.ascii	"ch_virtual_timer\000"
 2149      69727475 
 2149      616C5F74 
 2149      696D6572 
 2149      00
 2150              	.LASF95:
 2151 0474 63685F73 		.ascii	"ch_semaphore\000"
 2151      656D6170 
 2151      686F7265 
 2151      00
 2152              	.LASF43:
 2153 0481 705F6570 		.ascii	"p_epending\000"
 2153      656E6469 
 2153      6E6700
 2154              	.LASF17:
ARM GAS  /tmp/ccL9CB8M.s 			page 54


 2155 048c 75696E74 		.ascii	"uint32_t\000"
 2155      33325F74 
 2155      00
 2156              	.LASF93:
 2157 0495 77746D74 		.ascii	"wtmtxp\000"
 2157      787000
 2158              	.LASF55:
 2159 049c 725F7175 		.ascii	"r_queue\000"
 2159      65756500 
 2160              	.LASF66:
 2161 04a4 76745F64 		.ascii	"vt_delta\000"
 2161      656C7461 
 2161      00
 2162              	.LASF50:
 2163 04ad 63685F74 		.ascii	"ch_threads_list\000"
 2163      68726561 
 2163      64735F6C 
 2163      69737400 
 2164              	.LASF10:
 2165 04bd 6C6F6E67 		.ascii	"long unsigned int\000"
 2165      20756E73 
 2165      69676E65 
 2165      6420696E 
 2165      7400
 2166              	.LASF102:
 2167 04cf 63686172 		.ascii	"char\000"
 2167      00
 2168              	.LASF126:
 2169 04d4 6D6F6465 		.ascii	"mode\000"
 2169      00
 2170              	.LASF131:
 2171 04d9 70616C52 		.ascii	"palReadBus\000"
 2171      65616442 
 2171      757300
 2172              	.LASF5:
 2173 04e4 5F5F7569 		.ascii	"__uint16_t\000"
 2173      6E743136 
 2173      5F7400
 2174              	.LASF29:
 2175 04ef 74687265 		.ascii	"thread_t\000"
 2175      61645F74 
 2175      00
 2176              	.LASF127:
 2177 04f8 5F5F6675 		.ascii	"__func__.7601\000"
 2177      6E635F5F 
 2177      2E373630 
 2177      3100
 2178              	.LASF101:
 2179 0506 6D5F6E65 		.ascii	"m_next\000"
 2179      787400
 2180              	.LASF28:
 2181 050d 73797374 		.ascii	"systime_t\000"
 2181      696D655F 
 2181      7400
 2182              	.LASF45:
 2183 0517 705F7265 		.ascii	"p_realprio\000"
 2183      616C7072 
ARM GAS  /tmp/ccL9CB8M.s 			page 55


 2183      696F00
 2184              	.LASF61:
 2185 0522 76746675 		.ascii	"vtfunc_t\000"
 2185      6E635F74 
 2185      00
 2186              	.LASF9:
 2187 052b 5F5F7569 		.ascii	"__uint32_t\000"
 2187      6E743332 
 2187      5F7400
 2188              	.LASF74:
 2189 0536 70616E69 		.ascii	"panic_msg\000"
 2189      635F6D73 
 2189      6700
 2190              	.LASF86:
 2191 0540 6F666673 		.ascii	"offset\000"
 2191      657400
 2192              	.LASF117:
 2193 0547 696F706F 		.ascii	"ioportid_t\000"
 2193      72746964 
 2193      5F7400
 2194              	.LASF84:
 2195 0552 636F6E74 		.ascii	"context\000"
 2195      65787400 
 2196              	.LASF132:
 2197 055a 5F70616C 		.ascii	"_pal_lld_setgroupmode\000"
 2197      5F6C6C64 
 2197      5F736574 
 2197      67726F75 
 2197      706D6F64 
 2198              	.LASF20:
 2199 0570 7274636E 		.ascii	"rtcnt_t\000"
 2199      745F7400 
 2200              	.LASF68:
 2201 0578 76745F70 		.ascii	"vt_par\000"
 2201      617200
 2202              	.LASF124:
 2203 057f 70616C57 		.ascii	"palWriteBus\000"
 2203      72697465 
 2203      42757300 
 2204              	.LASF51:
 2205 058b 74687265 		.ascii	"threads_queue_t\000"
 2205      6164735F 
 2205      71756575 
 2205      655F7400 
 2206              	.LASF98:
 2207 059b 63685F6D 		.ascii	"ch_mutex\000"
 2207      75746578 
 2207      00
 2208              	.LASF39:
 2209 05a4 705F7265 		.ascii	"p_refs\000"
 2209      667300
 2210              	.LASF77:
 2211 05ab 726C6973 		.ascii	"rlist\000"
 2211      7400
 2212              	.LASF14:
 2213 05b1 75696E74 		.ascii	"uint8_t\000"
 2213      385F7400 
ARM GAS  /tmp/ccL9CB8M.s 			page 56


 2214              	.LASF90:
 2215 05b9 77746F62 		.ascii	"wtobjp\000"
 2215      6A7000
 2216              	.LASF36:
 2217 05c0 705F6E61 		.ascii	"p_name\000"
 2217      6D6500
 2218              	.LASF48:
 2219 05c7 74687265 		.ascii	"threads_list_t\000"
 2219      6164735F 
 2219      6C697374 
 2219      5F7400
 2220              	.LASF42:
 2221 05d6 705F6D73 		.ascii	"p_msg\000"
 2221      6700
 2222              	.LASF116:
 2223 05dc 696F6D6F 		.ascii	"iomode_t\000"
 2223      64655F74 
 2223      00
 2224              	.LASF100:
 2225 05e5 6D5F6F77 		.ascii	"m_owner\000"
 2225      6E657200 
 2226              	.LASF33:
 2227 05ed 705F6374 		.ascii	"p_ctx\000"
 2227      7800
 2228              	.LASF67:
 2229 05f3 76745F66 		.ascii	"vt_func\000"
 2229      756E6300 
 2230              		.comm	__gnu_lto_v1,1,1
 2231              		.ident	"GCC: (4.8.4-1+11-1) 4.8.4 20141219 (release)"
ARM GAS  /tmp/ccL9CB8M.s 			page 57


DEFINED SYMBOLS
                            *ABS*:00000000 pal.c
     /tmp/ccL9CB8M.s:223    .text.palReadBus:00000000 $t
     /tmp/ccL9CB8M.s:229    .text.palReadBus:00000000 palReadBus
     /tmp/ccL9CB8M.s:252    .text.palWriteBus:00000000 $t
     /tmp/ccL9CB8M.s:258    .text.palWriteBus:00000000 palWriteBus
     /tmp/ccL9CB8M.s:289    .text.palSetBusMode:00000000 $t
     /tmp/ccL9CB8M.s:295    .text.palSetBusMode:00000000 palSetBusMode
                            *COM*:00000001 __gnu_lto_v1
                     .debug_frame:00000010 $d

UNDEFINED SYMBOLS
_pal_lld_setgroupmode
