ARM GAS  /tmp/ccZgMH2q.s 			page 1


   1              		.syntax unified
   2              		.cpu cortex-m4
   3              		.fpu softvfp
   4              		.eabi_attribute 20, 1
   5              		.eabi_attribute 21, 1
   6              		.eabi_attribute 23, 3
   7              		.eabi_attribute 24, 1
   8              		.eabi_attribute 25, 1
   9              		.eabi_attribute 26, 1
  10              		.eabi_attribute 30, 2
  11              		.eabi_attribute 34, 1
  12              		.eabi_attribute 18, 4
  13              		.thumb
  14              		.file	"pal_lld.c"
  15              		.text
  16              	.Ltext0:
  17              		.section	.gnu.lto_.jmpfuncs.e6f647ec4480b524,"",%progbits
  18 0000 789C6362 		.ascii	"x\234cb`b\300\006\330\2404\023\003##;\003\000\001/\000"
  18      6062C006 
  18      D8A03413 
  18      0323233B 
  18      0300012F 
  19 0015 16       		.ascii	"\026"
  20              		.text
  21              		.section	.gnu.lto_.inline.e6f647ec4480b524,"",%progbits
  22 0000 789C6362 		.ascii	"x\234cb`b\300\006vBi\240l;c\033##;\003#\003\003\263"
  22      6062C006 
  22      764269A0 
  22      6C3B631B 
  22      23233B03 
  23 0018 02987400 		.ascii	"\002\230t\000\223\011`\262\201\021L-\200P\007 \024\203"
  23      930960B2 
  23      81114C2D 
  23      80500720 
  23      1483
  24 002a C021C60B 		.ascii	"\300!\306\013\257\271\031\354\036\\afb`|\301\316\002"
  24      AFB919EC 
  24      1E5C6166 
  24      62607CC1 
  24      CE02
  25 003c 21410407 		.ascii	"!A\004\007\230\311\001\"\004\300L\001\020\241\000f*"
  25      98C90122 
  25      04C04C01 
  25      10A10066 
  25      2A
  26 004d 80080730 		.ascii	"\200\010\0070\323\001D402A(0\311\004\341\200\335\313"
  26      D3014434 
  26      30324128 
  26      30C904E1 
  26      80DDCB
  27 0060 C860B389 		.ascii	"\310`\263\211\211\221\221\011h\033\003sH\313y\005\006"
  27      89919109 
  27      681B0373 
  27      48CB7905 
  27      06
  28 0071 A1391781 		.ascii	"\2419\027\201v\011]\350ad\001;\034\000j\333\037\011"
  28      76095DE8 
ARM GAS  /tmp/ccZgMH2q.s 			page 2


  28      6164013B 
  28      1C006ADB 
  28      1F09
  29              		.text
  30              		.section	.gnu.lto_.pureconst.e6f647ec4480b524,"",%progbits
  31 0000 789C6362 		.ascii	"x\234cb`b`e\200\000&\006)F)\000\001\006\000A"
  31      60626065 
  31      80002606 
  31      29462900 
  31      01060041 
  32              		.text
  33              		.section	.gnu.lto__pal_lld_init.e6f647ec4480b524,"",%progbits
  34 0000 789CB5DA 		.ascii	"x\234\265\332_L\225u\034\307\361\337\3579\377\377\237"
  34      5F4C9575 
  34      1CC7F1DF 
  34      EF39FFFF 
  34      9F
  35 0011 E4BF8022 		.ascii	"\344\277\200\"\212\377P\216\200\177\300\377\"\012(\010"
  35      8AFF508E 
  35      807FC0FF 
  35      220A2808 
  36 0021 5BB4D5BA 		.ascii	"[\264\325\272hH\353x6\010&\351M\027>\250sl6;sma\336"
  36      6848EB78 
  36      360826E9 
  36      4D173EA8 
  36      736C363B 
  37 0039 E82AA5B6 		.ascii	"\350*\245\266\324\352\206\346\237\230s%6\035\225n\315"
  37      D4EA86E6 
  37      9F987325 
  37      361D956E 
  37      CD
  38 004a 8BC25CB5 		.ascii	"\213\302\\\265\226\233\336\244\344\346\350\371>\337"
  38      969BDEA4 
  38      E4E6E8F9 
  38      3EDF
  39 0058 03CFF7B8 		.ascii	"\003\317\367\270\3479\277\343\316\017V\037 \345\307"
  39      E739BFE3 
  39      CE0F561F 
  39      20E5C7
  40 0067 8BF37B78 		.ascii	"\213\363{x_\2450\205=\377V\240\375\373\372r\306\032"
  40      5FA53085 
  40      3DFF56A0 
  40      FDFBFA72 
  40      C61A
  41 0079 B5F7DCC6 		.ascii	"\265\367\334\306\270\022\277\305X\277[\341\034>`\234"
  41      B812BFC5 
  41      58BF5BE1 
  41      1C3E609C 
  42 0089 1D50F881 		.ascii	"\035P\370\201\327\270\376w\317+#\343\223\223\347&\276"
  42      D7B8FE77 
  42      CF2B23E3 
  42      9393E726 
  42      BE
  43 009a 3B77897F 		.ascii	";w\211\177\246\304\271\302b\234\331`\0340N\0307\357"
  43      A6C4B9C2 
  43      629CD960 
  43      1C304E18 
ARM GAS  /tmp/ccZgMH2q.s 			page 3


  43      37EF
  44 00ac E66C167C 		.ascii	"\346l\026|\224\005\223\015\223\003\223\013\223\007\223"
  44      9405930D 
  44      9303930B 
  44      930793
  45 00bb 0F530033 		.ascii	"\017S\0003\033\246\020\246\010\246\030f\016\314\\\230"
  45      1BA610A6 
  45      08A61866 
  45      0ECC5C98 
  46 00cb 12987930 		.ascii	"\022\230y0\2450\363a\026\300\224\301,\204Y\004\263\030"
  46      A530F361 
  46      16C094C1 
  46      2C845904 
  46      B318
  47 00dd 6609CC52 		.ascii	"f\011\314R\230r\230e0\313a*`\"0+`*a\252`\252aV\302\254"
  47      98729865 
  47      30CB612A 
  47      6022302B 
  47      602A61AA 
  48 00f7 82590DB3 		.ascii	"\202Y\015\263\006\246\006\246\026f-\314:\230\3650\033"
  48      06A606A6 
  48      16662DCC 
  48      3A98F530 
  48      1B
  49 0108 6036C26C 		.ascii	"`6\302l\202\331\014\263\005\246\016f+L=\3146\230\355"
  49      82D90CB3 
  49      05A60E66 
  49      2B4C3DCC 
  49      3698ED
  50 011b 300D308D 		.ascii	"0\0150\2150M0;`v\3024\303\264\300\354\202i\205i\203"
  50      304D303B 
  50      6076C234 
  50      C3B4C0EC 
  50      82698569 
  51 0130 D1DE1CEC 		.ascii	"\321\336\034\354\260\252\306K\030\353\324?m\327\026"
  51      B0AAC64B 
  51      18EBD43F 
  51      6DD716
  52 013f EEE215ED 		.ascii	"\356\342\025\355\365\326\336\333n\262\253w\207\037\217"
  52      F5D6DEDB 
  52      6EB2AB77 
  52      871F8F
  53 014e 291DFC34 		.ascii	")\035\3744w\260(W\312\331\347\352\341\376p\214\363\223"
  53      77B02857 
  53      CAD9E7EA 
  53      E1FE708C 
  53      F393
  54 0160 EC231EE3 		.ascii	"\354#\036\343\312\253\332\330\324G\003\252\235\351\037"
  54      CAABDAD8 
  54      D44703AA 
  54      9DE91F
  55 016f EA97B79B 		.ascii	"\352\227\267\233O]\371Mv\350\033\333\324W\333\242\370"
  55      4F5DF94D 
  55      76E81BDB 
  55      D457DBA2 
  55      F8
  56 0180 F7D9A44D 		.ascii	"\367\331\244M\377\243\253M\370'/vh\024>\007\330\365"
ARM GAS  /tmp/ccZgMH2q.s 			page 4


  56      FFA3AB4D 
  56      F8272F76 
  56      68143E07 
  56      D8F5
  57 0192 FD53073B 		.ascii	"\375S\007;\322=\201\233\261\234\332\001\231\260x\202"
  57      D23D819B 
  57      B19CDA01 
  57      99B07882 
  58 01a2 E5646C94 		.ascii	"\345dl\224\035\034\377\373\276\023\277\276\233\363w"
  58      1D1CFFFB 
  58      BE13BFBE 
  58      9BF377
  59 01b1 D953553B 		.ascii	"\331SU;\300\016G\305Uu_\214;\360,\355{\272\341\014W"
  59      C00E47C5 
  59      55755F8C 
  59      3BF02CED 
  59      7BBAE10C 
  60 01c6 E20CFC65 		.ascii	"\342\014\374e\301\257c\3729#\205\370Y);\255\252\307"
  60      C1AF63FA 
  60      392385F8 
  60      59293BAD 
  60      AAC7
  61 01d8 47FE3BF2 		.ascii	"G\376;\362\003W\217\253\375\217&'C1\356V\330z\016w\006"
  61      03578FAB 
  61      FD8F2627 
  61      4331EE56 
  61      D87A0E77 
  62 01ed 67784AF4 		.ascii	"gxJ\364w^{\362o\033\3747\267\252\202\3669\230\351\221"
  62      775E7BF2 
  62      6F1BFC37 
  62      B7AA82F6 
  62      3998E991 
  63 0201 7685D589 		.ascii	"v\205\325\211\216\354\206\237\365&;xw\342\3671\333\364"
  63      8EEC869F 
  63      F5263B78 
  63      77E2F731 
  63      DBF4
  64 0213 A3831FA8 		.ascii	"\243\203\037\250g\337\327\304\347y\251\366S|\241\355"
  64      67DFD7C4 
  64      E779A9F6 
  64      537CA1ED 
  65 0223 D44FD389 		.ascii	"\324O\323\211\257O\224\317\302\027a\344\303#\3051\356"
  65      AF4F94CF 
  65      C21761E4 
  65      C323C531 
  65      EE
  66 0234 D35E867E 		.ascii	"\323^\206~\025^\033\177\342\225\260'^\011\033|\341W"
  66      155E1B7F 
  66      E295B027 
  66      5E091B7C 
  66      E157
  67 0246 F8326877 		.ascii	"\3702hw1:\346\355\340_N\337\206Z\211\327\321\037\207"
  67      313AE6ED 
  67      E05F4EDF 
  67      865A89D7 
  67      D11F87
  68 0259 AF0D909F 		.ascii	"\257\015\220\237Q\3770q\206}\372\014\355\333\242x\360"
ARM GAS  /tmp/ccZgMH2q.s 			page 5


  68      51FF3071 
  68      867DFA0C 
  68      EDDBA278 
  68      F0
  69 026a FE980D0F 		.ascii	"\376\230\015\017\212\362,8+\234\012\341\220\200p\022"
  69      8AF22C38 
  69      2B9C0AE1 
  69      90807012 
  70 027a 44162286 		.ascii	"D\026\"\206\011\"[\210pI@\270\011\"\033\021\277\020"
  70      09225B88 
  70      704940B8 
  70      09221B11 
  70      BF10
  71 028c 448E10E1 		.ascii	"D\216\020\341\221\200\360\022DN\342\001\"\210\\!\302"
  71      9180F012 
  71      444EE201 
  71      22885C21 
  71      C2
  72 029d 2701E127 		.ascii	"'\001\341'\210\334\3043\361\247\201\310\023\"\002\022"
  72      88DCC433 
  72      F1A781C8 
  72      13220212 
  73 02ad 104182C8 		.ascii	"\020A\202\310K<\023\004\221/D\204$ \302\004\221\217"
  73      4B3C1304 
  73      912F4484 
  73      2420C204 
  73      918F
  74 02bf 69786034 		.ascii	"ix`4KI\273Y/\275`\263:\3709\255s\351Dk\300\210\326\203"
  74      4B49BB59 
  74      2FBD60B3 
  74      3AF839AD 
  74      73E9446B 
  75 02d7 D4D1EAE0 		.ascii	"\324\321\352\340\027\204gvC]\255\252\3655T\353g\275"
  75      17846776 
  75      435DADAA 
  75      F53554EB 
  75      67BD
  76 02e9 5A3F9955 		.ascii	"Z?\231U\253@P\255\"R\255;\311\367r;\365\275\014\230"
  76      AB4050AD 
  76      2252AD3B 
  76      C9F7723B 
  76      F5BD0C98 
  77 02fd 56EB0EDE 		.ascii	"V\353\016\336K\001\255\326m\375\341\230m\375p\024\221"
  77      4B01ADD6 
  77      6DFDE198 
  77      6DFD7014 
  77      91
  78 030e 6A658870 		.ascii	"je\210p\022\304lZ-D\024\012\021.\011\0107A\024\322j"
  78      12C46C5A 
  78      2D44140A 
  78      112E0908 
  78      374114D2 
  79 0323 21A24888 		.ascii	"!\242H\210\360H@x\011\242\210V\013\021\305B\204O\002"
  79      F0484078 
  79      09A28856 
  79      0B11C542 
  79      844F02
ARM GAS  /tmp/ccZgMH2q.s 			page 6


  80 0336 C24F10C5 		.ascii	"\302O\020\305\264Z\210\230#D\004$ \202\0041\207V\013"
  80      B45A8898 
  80      23440424 
  80      20820431 
  80      87560B
  81 0349 11738588 		.ascii	"\021s\205\210\220\004D\230 \346b\033\036\032\325\262"
  81      90044498 
  81      20E6621B 
  81      1E1AD5B2 
  82 0359 A55DAD59 		.ascii	"\245]\255Y3V\255\270Q\255\2072\252e\263\256\326\267"
  82      3356ADB8 
  82      51AD8732 
  82      AA65B3AE 
  82      D6B7
  83 036b 50ADC77A 		.ascii	"P\255\307z\265\3765\253V\211\240Z5\244Z\023\311\367"
  83      B5FE35AB 
  83      5689A05A 
  83      35A45A13 
  83      C9F7
  84 037d F224F5BD 		.ascii	"\362$\365\275\304M\2535\201\367RB\253\365D\1778\346"
  84      C44DAB35 
  84      81F75242 
  84      ABF5447F 
  84      38E6
  85 038f 593F1C35 		.ascii	"Y?\0345\244Z\031\"\234\0041\217V\013\021\245B\204K\002"
  85      A45A1922 
  85      9C04318F 
  85      560B11A5 
  85      42844B02 
  86 03a3 C24D10A5 		.ascii	"\302M\020\245\264Z\210\230/Dx$ \274\0041\237V\013\021"
  86      B45A8898 
  86      2F447824 
  86      20BC0431 
  86      9F560B11 
  87 03b7 0B84089F 		.ascii	"\013\204\010\237\004\204\237 \026\320j!\242L\210\010"
  87      04849F20 
  87      16D06A21 
  87      A24C8808 
  88 03c7 48400409 		.ascii	"H@\004\011\242\214V\013\021\013\205\210\220\004D\230"
  88      A28C560B 
  88      110B8588 
  88      90044498 
  89 03d7 2016621B 		.ascii	" \026b\033\236\032\325\262\247]\255\254\031\253\326"
  89      9E1AD5B2 
  89      A75DADAC 
  89      19ABD6
  90 03e6 A051ADA7 		.ascii	"\240Q\255\2472\252e\267\256\326?P\255\023\012TkP1\251"
  90      32AA65B7 
  90      AED63F50 
  90      AD130A54 
  90      6B5031A9 
  91 03fa D62241B5 		.ascii	"\326\"A\265\332I\265N*I\367\362\221\222\362^\006M\253"
  91      DA49B54E 
  91      2A49F7F2 
  91      9192F25E 
  91      064DAB
  92 040d A59FA17D 		.ascii	"\245\237\241}[Z-8(\312\027[?\034\355\244Z\031\"\234"
ARM GAS  /tmp/ccZgMH2q.s 			page 7


  92      5B5A2D38 
  92      28CA175B 
  92      3F1CEDA4 
  92      5A19229C 
  93 0421 04B19856 		.ascii	"\004\261\230V\013\021K\204\010\227\004\204\233 \226"
  93      0B114B84 
  93      08970484 
  93      9B2096
  94 0430 D06A2162 		.ascii	"\320j!b\251\020\341\221\200\360\022\304RZ-D\224\013"
  94      A910E191 
  94      80F012C4 
  94      525A2D44 
  94      940B
  95 0442 113E0908 		.ascii	"\021>\011\010?A\224\323j!b\231\020\021\220\200\010\022"
  95      3F4194D3 
  95      6A216299 
  95      10119080 
  95      0812
  96 0454 C4325A2D 		.ascii	"\3042Z-D,\027\"B\022\020a\202X\216mxfT\313\221v\265"
  96      442C1722 
  96      42121061 
  96      82588E6D 
  96      786654CB 
  97 046b B267AC5A 		.ascii	"\262g\254Z\247\214j=\223Q-\207u\265\236@\265.\351\325"
  97      A78C6A3D 
  97      93512D87 
  97      75B59E40 
  97      B52EE9D5 
  98 047f BA6856AD 		.ascii	"\272hV\255\012A\265zI\265\256$\337\313\345\324\367r"
  98      0A41B57A 
  98      49B5AE24 
  98      DFCBE5D4 
  98      F772
  99 0491 CAB45A57 		.ascii	"\312\264ZW\360^*h\265.\353\017G\304\372\341\350%\325"
  99      F05E2A68 
  99      B52EEB0F 
  99      47C4FAE1 
  99      E825D5
 100 04a4 CA10E124 		.ascii	"\312\020\341$\210\010\255\026\"V\010\021.\011\0107A"
 100      8808AD16 
 100      22560811 
 100      2E090837 
 100      41
 101 04b5 ACA0D542 		.ascii	"\254\240\325BD\245\020\341\221\200\360\022D%\255\026"
 101      44A510E1 
 101      9180F012 
 101      4425AD16 
 102 04c5 22AA8408 		.ascii	"\"\252\204\010\237\004\204\237 \252h\265\020Q-D\004"
 102      9F04849F 
 102      20AA68B5 
 102      10512D44 
 102      04
 103 04d6 24208204 		.ascii	"$ \202\004QM\253\205\210\225BDH\002\"L\020+\261\015"
 103      514DAB85 
 103      88954244 
 103      4802224C 
 103      102BB10D 
ARM GAS  /tmp/ccZgMH2q.s 			page 8


 104 04ea 037F4C57 		.ascii	"\003\177LW\313\231v\265rf\254ZCF\265\246e\231T\313i"
 104      CB9976B5 
 104      7266AC5A 
 104      4346B5A6 
 104      659954CB 
 105 04ff 5DAD8F3F 		.ascii	"]\255\217?\320\314\277\351\325\372\325\254Z\253\004"
 105      D0CCBFE9 
 105      D5FAD5AC 
 105      5AAB04
 106 050e D57A8F93 		.ascii	"\325z\217\223l\335K\276\230\361\324\0273d\232\255{x"
 106      6CDD4BBE 
 106      98F1D417 
 106      33649AAD 
 106      7B78
 107 0520 31AB68B6 		.ascii	"1\253h\266\306\365\247c\265\365\3231\245pHP8\211b5\355"
 107      C6F5A763 
 107      B5F5D331 
 107      A5704850 
 107      38896235 
 108 0535 162AD688 		.ascii	"\026*\326\210\025.\011\0127Q\254\241\341BE\215X\341"
 108      152E090A 
 108      3751ACA1 
 108      E142458D 
 108      58E1
 109 0547 91A0F012 		.ascii	"\221\240\360\022E\015-\027*j\305\012\237\004\205\237"
 109      450D2D17 
 109      2A6AC50A 
 109      9F04859F 
 110 0557 286A69BA 		.ascii	"(ji\272P\261V\254\010HP\004\211b-m\027*\326\211\025"
 110      50B156AC 
 110      08485004 
 110      89622D6D 
 110      172AD689 
 111 056c 21098A30 		.ascii	"!\011\2120Q\254\303D\0345\342\345J;^\2713\026\257\013"
 111      51ACC344 
 111      1C35E2E5 
 111      4A3B5EB9 
 111      3316AF0B 
 112 0580 46BC8ECA 		.ascii	"F\274\216\312\210\227\313:^\347!^\007m\020\257~\233"
 112      8897CB3A 
 112      5EE7215E 
 112      076D10AF 
 112      7E9B
 113 0592 49BCD60B 		.ascii	"I\274\326\013\3425D\343u\330\226t1\207l)/\346\202i\274"
 113      E23544E3 
 113      75D89674 
 113      31876C29 
 113      2FE68269 
 114 05a7 F433B4EF 		.ascii	"\3643\264\357K\343\005\007E\371\006\353\307c\210\306"
 114      4BE30507 
 114      45F906EB 
 114      C76388C6 
 115 05b7 2B438593 		.ascii	"+C\205\223(6\320x\241b\243X\341\222\240p\023\305F\032"
 115      2836D078 
 115      A162A358 
 115      E192A070 
 115      13C5461A 
ARM GAS  /tmp/ccZgMH2q.s 			page 9


 116 05cb 2F546C12 		.ascii	"/Tl\022+<\022\024^\242\330D\343\205\212\315b\205O\202"
 116      2B3C1214 
 116      5EA2D844 
 116      E3858ACD 
 116      62854F82 
 117 05df C24F149B 		.ascii	"\302O\024\233i\274P\261E\254\010HP\004\211b\013\215"
 117      69BC50B1 
 117      45AC0848 
 117      50048962 
 117      0B8D
 118 05f1 172AEAC4 		.ascii	"\027*\352\304\212\220\004E\230(\3520\021\307\214x\271"
 118      8A900445 
 118      9828EA30 
 118      11C78C78 
 118      B9
 119 0602 D38E57DE 		.ascii	"\323\216W\336\214\305k\330\210\3271\031\361r[\307\353"
 119      8CC56BD8 
 119      88D73119 
 119      F1725BC7 
 119      EB
 120 0613 22C4EB53 		.ascii	"\"\304\353S=^\237\230\305k\253 ^\327h\274\316&_\314"
 120      3D5E9F98 
 120      C56BAB20 
 120      5ED768BC 
 120      CE265FCC 
 121 0627 99D41733 		.ascii	"\231\324\0273l\032\257\263x1[i\274\316\350\217G\275"
 121      6C1AAFB3 
 121      78315B69 
 121      BCCEE88F 
 121      47BD
 122 0639 F5E3718D 		.ascii	"\365\343q\215\306+C\205\223(\352i\274P\261M\254pIP\270"
 122      C62B4385 
 122      9328EA69 
 122      BC50B14D 
 122      AC704950 
 123 064e 89621B8D 		.ascii	"\211b\033\215\027*\266\213\025\036\011\012/Ql\247\361"
 123      172AB68B 
 123      151E090A 
 123      2F516CA7 
 123      F1
 124 065f 42458358 		.ascii	"BE\203X\341\223\240\360\023E\003\215\027*\032\305\212"
 124      E193A0F0 
 124      1345038D 
 124      172A1AC5 
 124      8A
 125 0670 80044590 		.ascii	"\200\004E\220(\032i\274P\321$V\204$(\302D\321\204\211"
 125      281A69BC 
 125      50D12456 
 125      842428C2 
 125      44D18489 
 126 0684 3861C4CB 		.ascii	"8a\304\313\223v\274\362g,^#F\274N\310\210\227\307:^"
 126      9376BCF2 
 126      672C5E23 
 126      46BC4EC8 
 126      8897C73A 
 127 0699 7F41BCAE 		.ascii	"\177A\274\256\353\361\372\336,^;\004\361\032\247\361"
 127      EBF1FADE 
ARM GAS  /tmp/ccZgMH2q.s 			page 10


 127      2C5E3B04 
 127      F11AA7F1 
 128 06a9 BA917C31 		.ascii	"\272\221|1\243\251/f\3044^7\360bv\320x\215\352\217\307"
 128      A3A92F66 
 128      C4345E37 
 128      F06276D0 
 128      788DEA8F 
 129 06be 4EEBC763 		.ascii	"N\353\307c\234\306+C\205\223(v\322x\241\242Y\254pIP"
 129      9CC62B43 
 129      85932876 
 129      D278A1A2 
 129      59AC7049 
 130 06d3 B889A299 		.ascii	"\270\211\242\231\306\013\025-b\205G\202\302K\024-4^"
 130      C60B152D 
 130      62854782 
 130      C24B142D 
 130      345E
 131 06e5 A8D82556 		.ascii	"\250\330%V\370$(\374D\261\213\306\013\025\255bE@\202"
 131      F82428FC 
 131      44B18BC6 
 131      0B15AD62 
 131      454082
 132 06f8 224814AD 		.ascii	"\"H\024\2554^\250h\023+B\022\024a\242hc\354G\326?~\262"
 132      345EA868 
 132      132B4212 
 132      1461A268 
 132      63EC47D6 
 133 070f 6CBA41FA 		.ascii	"l\272A\372[\273\366\273\033\277\245\377\357\330\265"
 133      5BBBF6BB 
 133      1BBFA5FF 
 133      EFD8B5
 134 071e 917D7D7B 		.ascii	"\221}}{#}{;#\235{b\273c=}\021\355\237=\035]\221\336"
 134      237D7B3B 
 134      239D7B62 
 134      BB633D7D 
 134      11ED9F3D 
 135 0736 9EBDEFF4 		.ascii	"\236\275\357\364E^no\251\256\21247\327G\032\332\232"
 135      455E6E6F 
 135      A9AE8A34 
 135      37D7471A 
 135      DA9A
 136 0748 5AF75745 		.ascii	"Z\367WEz;\272\336\350\352z\263\242\2239\242\275\261"
 136      7A3BBADE 
 136      E8EA7AB3 
 136      A29339A2 
 136      BDB1
 137 075a 9E5E6767 		.ascii	"\236^gg\317\333o\305\242\377\003/\333\313\216"
 137      CFDB6FC5 
 137      A2FF032F 
 137      DBCB8E
 138              		.text
 139              		.section	.gnu.lto__pal_lld_setgroupmode.e6f647ec4480b524,"",%progbits
 140 0000 789C9557 		.ascii	"x\234\225W[hTW\024=\347\334{\347\225h\324\210&1j|\277"
 140      5B685457 
 140      143DE7DC 
 140      7BE79568 
 140      D4882631 
ARM GAS  /tmp/ccZgMH2q.s 			page 11


 141 0017 33265143 		.ascii	"3&QC\2141\344\251\005\213\205*\325\217\242yuL\233!\303"
 141      8C31E4A9 
 141      058B852A 
 141      D58FA279 
 141      754C9B21 
 142 002c 24B6D81F 		.ascii	"$\266\330\037'N>\202J\011\022\023\333~T+\022|5\265\342"
 142      274E3E82 
 142      4A091213 
 142      DB7E542B 
 142      127C35B5 
 143 0041 A346248A 		.ascii	"\243F$\212P\245\266\320/\035\261\304\012\352G\305b\241"
 143      50A5B6D0 
 143      2F1DB1C4 
 143      0AEA47C5 
 143      62A1
 144 0053 AD1FB6D3 		.ascii	"\255\037\266\323\275\3679\347\316#\201\231\014\272\317"
 144      BDF739E7 
 144      CE238199 
 144      0CBACF
 145 0062 3D7BEFB5 		.ascii	"={\357\265\356>\353\274n\004\023,\371\267\017\376WL"
 145      EE3EEBBC 
 145      6E04132C 
 145      F9B70FFE 
 145      574C
 146 0074 66EC1368 		.ascii	"f\354\023hy\006\343\242\367g\306\272\\\202\033\362\301"
 146      7906E3A2 
 146      F767C6BA 
 146      5C821BF2 
 146      C1
 147 0085 1066CF12 		.ascii	"\020f\317\022\026\362\270\320f\232\302\242\236\203z"
 147      16F2B8D0 
 147      669AC2A2 
 147      9E837A
 148 0094 1677CA24 		.ascii	"\026w\312$\207~pr\227|p\011O\267\023\022\335\207\177"
 148      877E7072 
 148      977C7009 
 148      4FB71312 
 148      DD877F
 149 00a7 6090E996 		.ascii	"`\220\351\226t7]\036\316\361\201q\266_\030\246\345p"
 149      74375D1E 
 149      CEF18171 
 149      B65F18A6 
 149      E570
 150 00b9 BADC1EBE 		.ascii	"\272\334\036\276\177'\307R2\346\263\023\241P\357\343"
 150      7F27C752 
 150      32E6B313 
 150      A150EFE3 
 151 00c9 A7575EF1 		.ascii	"\247W^\361\317\373F\272\217\207\336D\243\234\267r({"
 151      CFFB46BA 
 151      8F87DE44 
 151      A39CB772 
 151      287B
 152 00db 03674D9C 		.ascii	"\003gM\234\355\200\016/\240F\230\211\343 \354\221\221"
 152      ED800E2F 
 152      A0469889 
 152      E320EC91 
 152      91
ARM GAS  /tmp/ccZgMH2q.s 			page 12


 153 00ec E8C1CF72 		.ascii	"\350\301\317rC\307\017\364\206\376\003h+7\004\253N\023"
 153      43C70FF4 
 153      86FE0368 
 153      2B3704AB 
 153      4E13
 154 00fe D9FB6366 		.ascii	"\331\373cfoWO(\032\335O\260\315i\302\216$\302\266\246"
 154      6F574F28 
 154      1ADD4FB0 
 154      CD69C28E 
 154      24C2B6A6 
 155 0112 09EB4B84 		.ascii	"\011\353K\204\275\227&\254?\021\366~\232\260c\211\260"
 155      BD9726AC 
 155      3F11F67E 
 155      9AB06389 
 155      B0
 156 0123 C634615F 		.ascii	"\3064a_\035\352K\022\363\203\364\220\241\277\232\357"
 156      1DEA4B12 
 156      F383F490 
 156      A1BF9AEF 
 157 0133 84BA47A2 		.ascii	"\204\272G\242\321JB\265\247\211\3727\001\025L\023u\264"
 157      D14A42B5 
 157      A789FA37 
 157      01154C13 
 157      75B4
 158 0145 251EB537 		.ascii	"%\036\2657\025jH\214<\216F\037\335\177\361$\312\247"
 158      156A488C 
 158      3C8E461F 
 158      DD7FF124 
 158      CAA7
 159 0157 6DE2CC8F 		.ascii	"m\342\314\217\313\253\201\237\344\363\231\001\355)h"
 159      CBAB819F 
 159      E4F39901 
 159      ED2968
 160 0166 4D6807A1 		.ascii	"Mh\007\241\265\240=\015\255\003\332\363\320z\270\237"
 160      B5A03D0D 
 160      AD03DAF3 
 160      D07AB89F 
 161 0176 C31E91C9 		.ascii	"\303\036\221\311\231\254\225\233\223\024b2v\262\024"
 161      99AC959B 
 161      93146232 
 161      76B214
 162 0185 6C0A76A6 		.ascii	"l\012v\246*\3544\354dC\347,t\246\003\001\233\201\236"
 162      2AEC34EC 
 162      6443E72C 
 162      74A60301 
 162      9B819E
 163 0198 996872D0 		.ascii	"\231hr\320\344\202ay\2200\004\011\263\260\223\017\235"
 163      E4826179 
 163      90300409 
 163      B3B0930F 
 163      9D
 164 01a9 4BD0990D 		.ascii	"K\320\231\015\331b\016\346\314ES\200f\036\232\005h\026"
 164      D9620EE6 
 164      CC455380 
 164      661E9A05 
 164      6816
 165 01bb A2598466 		.ascii	"\242Y\204f1\232\245\000:\001\240e\310\260\034:\027\240"
ARM GAS  /tmp/ccZgMH2q.s 			page 13


 165      319AA500 
 165      3A01A065 
 165      C8B01C3A 
 165      17A0
 166 01cd B302232B 		.ascii	"\263\002#+\321\254BS\210f5\232\"\314*FS\002\251\027"
 166      D1AC4253 
 166      8866359A 
 166      22CC2A46 
 166      5302A917 
 167 01e1 21750DBA 		.ascii	"!u\015\272\327\242Y\207\246\024M\031\232\365h\312\321"
 167      D7A25987 
 167      A6144D19 
 167      9AF568CA 
 167      D1
 168 01f2 54A0D988 		.ascii	"T\240\331\210\246\022M\025JW\255\004\250Qc\257U\303"
 168      A6124D15 
 168      4A57AD04 
 168      A85163AF 
 168      55C3
 169 0204 AE532AD5 		.ascii	"\256S*\325+\351\340g\261n\330\335\005\322/Q\022#\021"
 169      2BE9E067 
 169      B16ED8DD 
 169      05D22F51 
 169      122311
 170 0217 52219DDD 		.ascii	"R!\235\335D'\3026\260p\214l\347\002\032\343'\026\036"
 170      4427C236 
 170      B0708C6C 
 170      E7021AE3 
 170      27161E
 171 022a 0E478FE6 		.ascii	"\016G\217\3467\360+\334b>\236\341\343\036\234a\323\200"
 171      37F02BDC 
 171      623E9EE1 
 171      E31E9C61 
 171      D380
 172 023c D4BB4C48 		.ascii	"\324\273LH\277\344\207(c\0048\331\277A\00325\000\227"
 172      BFE48728 
 172      630438D9 
 172      BF410332 
 172      350097
 173 024f 0404BF09 		.ascii	"\004\004\277\011\007uh\022Dw\310\243&\201\353\024qM"
 173      07756812 
 173      4477C8A3 
 173      2681EB14 
 173      714D
 174 0261 525C8331 		.ascii	"R\\\2031\256\311\232+g\014W\026D\211+\251\256A\342\312"
 174      AEC99A2B 
 174      670C5716 
 174      44892BA9 
 174      AE41E2CA 
 175 0275 525C6763 		.ascii	"R\\gc\\S4\327\3561\\S!J\\V\"\327i\342\232\252\270\206"
 175      5C5334D7 
 175      EE315C53 
 175      214A5C56 
 175      22D769E2 
 176 028d 625CD334 		.ascii	"b\\\3234W(k\014Y6\204\211\314\231Hv\226\310\262\321"
 176      57286B0C 
 176      59368489 
ARM GAS  /tmp/ccZgMH2q.s 			page 14


 176      CC994876 
 176      96C8B2D1 
 177 02a1 77E0F83D 		.ascii	"w\340\370=K\273q&0\335\320[g;<\302\351m@\232\213\251"
 177      4BBB7126 
 177      30DDD05B 
 177      673B3CC2 
 177      E96D409A 
 178 02b7 041F7710 		.ascii	"\004\037w\020\216\034\262*+\346\220C6c\016\251\247\021"
 178      8E1CB22A 
 178      2BE69043 
 178      36630EA9 
 178      A711
 179 02c9 73C8C912 		.ascii	"s\310\311\022\332\001K\312\307\271\032\326p\377\\]\372"
 179      DA014BCA 
 179      C7B91AD6 
 179      70FF5C5D 
 179      FA
 180 02da 0CF0D2B0 		.ascii	"\014\360\322\260p]\334a\335/\272\212\354\020\371c\033"
 180      705DDC61 
 180      DD2FBA8A 
 180      EC10F963 
 180      1B
 181 02eb 3CC2B88F 		.ascii	"<\302\270\217O\027`\252\334/~\335\023a\002\026\203x"
 181      4F1760AA 
 181      DC2F7EDD 
 181      13610216 
 181      8378
 182 02fd 733FE0E3 		.ascii	"s?\340\343u\356{\243m\021f\300\214\212\303\021pT\273"
 182      75EE7BA3 
 182      6D1166C0 
 182      8C8AC311 
 182      7054BB
 183 0310 FB764598 		.ascii	"\373vE\230\011\263\"\372v\372x\215\373\334hg\204Y\240"
 183      09B322FA 
 183      76FA788D 
 183      FBDC6867 
 183      8459A0
 184 0323 AC3887F1 		.ascii	"\2548\207\361Z\367u\0048\224\014\342\036:\353\335\217"
 184      5AF77504 
 184      38940CE2 
 184      1E3AEBDD 
 184      8F
 185 0334 4677A31A 		.ascii	"Fw\243\032&\353Y\"W\345\363\376\315\366\362\036\242"
 185      26EB5922 
 185      57E5F3FE 
 185      CDF6F21E 
 185      A2
 186 0345 657C81EC 		.ascii	"e|\201\354E\262\227hI\313z\341\347\3433A5\252\332)\347"
 186      45B29768 
 186      49CB7AE1 
 186      E7E33341 
 186      35AADA29 
 187 035a E860F832 		.ascii	"\350`\3702L\306U\032N\016\204\343\026\351\201\227\341"
 187      4CC6551A 
 187      4E0E84E3 
 187      16E98197 
 187      E1
ARM GAS  /tmp/ccZgMH2q.s 			page 15


 188 036b 1B5CC772 		.ascii	"\033\\\307r!L\200\363\341\257mg\036Ml\256\232\321\253"
 188      214C80F3 
 188      E1AF6D67 
 188      1E4D6CAE 
 188      9AD1AB
 189 037e 347543A4 		.ascii	"4uC\244j\236\312\375\035u\224\311\263h\376\263\030\001"
 189      6A9ECAFD 
 189      1D7594C9 
 189      B368FEB3 
 189      1801
 190 0390 88FD431D 		.ascii	"\210\375C\035\312\207h\002\311%\"\311'\275\237\335\274"
 190      CA876802 
 190      C92522C9 
 190      27BD9FDD 
 190      BC
 191 03a1 9CA113A5 		.ascii	"\234\241\023\245\032\316\2703u;\370og\203\024\267\036"
 191      1ACEB833 
 191      753BF86F 
 191      678314B7 
 191      1E
 192 03b2 1EBB1231 		.ascii	"\036\273\0221t\342\234\025\354L\250\033\222\255/\331"
 192      74E29C15 
 192      EC4CA81B 
 192      92AD2FD9 
 193 03c2 17D0387C 		.ascii	"\027\3208||6b%\264\221k8\324q=\374\235\255\300\\z)\351"
 193      7C366225 
 193      B4916B38 
 193      D4713DFC 
 193      9DADC05C 
 194 03d9 7AC67616 		.ascii	"z\306v\026\000\035\204\310\377}\370\231\355\237G!\032"
 194      001D84C8 
 194      FF7DF899 
 194      ED9F4721 
 194      1A
 195 03ea E9ADBBBD 		.ascii	"\351\255\273\275\252FzoW\250<\305\233\001\255\353w\350"
 195      AA467A6F 
 195      57A83CC5 
 195      9B01ADEB 
 195      77E8
 196 03fc FA1FC4D5 		.ascii	"\372\037\304\325\277 E\375|\374\372\027\216W\377\"\240"
 196      BF2045FD 
 196      7CFCFA17 
 196      8E57FF22 
 196      A0
 197 040d 83D098FA 		.ascii	"\203\320\230\372\027Sh\242\365sU\377b]\277S.E\230\317"
 197      175368A2 
 197      F57355FF 
 197      625DBF53 
 197      2E4598CF 
 198 0421 68FF1CCD 		.ascii	"h\377\034\315\275\2246'.\001{H\313h\376q\223-M\236\377"
 198      BD943627 
 198      2E017B48 
 198      CB68FE71 
 198      932D4D9E 
 199 0436 E5104D98 		.ascii	"\345\020M\230\377\0134\377\313\251\264\207\307\256\375"
 199      FF0B34FF 
 199      CBA9B487 
ARM GAS  /tmp/ccZgMH2q.s 			page 16


 199      C7AEFD
 200 0445 6693AC48 		.ascii	"f\223\254H\241\213\210\327\345\206=\324\225\212\014"
 200      A18B88D7 
 200      E5863DD4 
 200      958A0C
 201 0454 74892DF7 		.ascii	"t\211-\367U@\007!\245\313\237\266\277\220B\206\324\345"
 201      55400721 
 201      A5CB9FB6 
 201      BF904286 
 201      D4E5
 202 0466 DB445D4A 		.ascii	"\333D]JS\274\031\320j[\015\016\024j\302\325z\317\011"
 202      53BC19D0 
 202      6A5B0D0E 
 202      146AC2D5 
 202      7ACF09
 203 0479 BDAF3ED5 		.ascii	"\275\257>\325\241\"\210&\351T\254\016p\010&\353T\002"
 203      A1228826 
 203      E954AC0E 
 203      700826EB 
 203      5402
 204 048b D1049D2E 		.ascii	"\321\004\235.\222N%R\247\007q:\255I\241\223\021\257"
 204      924E2552 
 204      A707713A 
 204      AD49A193 
 204      11AF
 205 049d D3137BE8 		.ascii	"\323\023{\350k\025\031\350t\315v\256\003:\010)\235\376"
 205      6B1519E8 
 205      74CD76AE 
 205      033A0829 
 205      9DFE
 206 04af B6FDA514 		.ascii	"\266\375\245\0242'\250\223\241t*\225E\277\216+\272,"
 206      3227A893 
 206      A1742A95 
 206      45BF8E2B 
 206      BA2C
 207 04c1 45D1A65D 		.ascii	"E\321\246]4\324\027[\364\353\251\3562U\337K\333_N!k"
 207      34D4175B 
 207      F4EBA9EE 
 207      3255DF4B 
 207      DB5F4E21 
 208 04d6 82F599AA 		.ascii	"\202\365\231\252\276r\265\370\206c\365U\244\250\317"
 208      BE72B5F8 
 208      8663F555 
 208      A4A8CF
 209 04e5 1ABFBE8D 		.ascii	"\032\277\276\215T_\305\230\372*)$&X\237\245\352\253"
 209      545FC598 
 209      FA2A2924 
 209      26589FA5 
 209      EAAB
 210 04f7 D4FBCF45 		.ascii	"\324\373\317E\027#]\267\303\003y\372j\252R\267\026\303"
 210      17235DB7 
 210      C30379FA 
 210      6AAA52B7 
 210      16C3
 211 0509 FD6A5FB8 		.ascii	"\375j_\270t\307U\341\261z\373\371\315\321C\231vv\322"
 211      74C755E1 
 211      B17AFBF9 
ARM GAS  /tmp/ccZgMH2q.s 			page 17


 211      CDD14399 
 211      7676D2
 212 051c 4586BC6E 		.ascii	"E\206\274n\006\177@\031t\212?\037\260\277|\252ag\214"
 212      067F4019 
 212      748A3F1F 
 212      B0BF7CAA 
 212      61678C
 213 052f E5D5B76B 		.ascii	"\345\325\267k\265>\366\007fk@\015,\221\361>o\344\375"
 213      B53EF607 
 213      666B400D 
 213      2C91F13E 
 213      6FE4FD
 214 0542 5CA3007F 		.ascii	"\\\243\000\177\014\314\322\200Z\230\263\361\000\362"
 214      0CCCD280 
 214      5A98B3F1 
 214      00F2
 215 0550 86AF5580 		.ascii	"\206\257U\200W3u~\035h8^\276\274\336\353(\277'\374\317"
 215      5733757E 
 215      1D68385E 
 215      BEBCDEEB 
 215      28BF27FC 
 216 0565 408E06D4 		.ascii	"@\216\006\324\353{$i\010\362\233\242^\217\337\203\037"
 216      EB7B2469 
 216      08F29BA2 
 216      5E8FDF83 
 216      1F
 217 0576 7EBFB0AE 		.ascii	"~\277\260\256\307\257\237r\373\002\245\33768\004\273"
 217      C7AF9F72 
 217      FB02A5DF 
 217      363804BB 
 218 0586 9DF8BA32 		.ascii	"\235\370\2722\357\336\216\240\267#\330\344m\332\323"
 218      EFDE8EA0 
 218      B723D8E4 
 218      6DDAD3
 219 0595 DAD8DADE 		.ascii	"\332\330\332\336\341\205\177{\032\332\274\201\366`g"
 219      E1857F7B 
 219      1ADABC81 
 219      F66067
 220 05a4 87F7DD6D 		.ascii	"\207\367\335mo\227\024{\267l\251\365nz\347\255\255\037"
 220      6F97147B 
 220      B76CA9F5 
 220      6E7AE7AD 
 220      AD1F
 221 05b6 177B030D 		.ascii	"\027{\003\015m\273\332\332\232\013\233\230\325\330\332"
 221      6DBBDADA 
 221      9A0B9B98 
 221      D5D8DA
 222 05c5 59B8DAF2 		.ascii	"Y\270\332\362\2677\267\004\035\355\235\373\002-Ag{G"
 222      B737B704 
 222      1DED9DFB 
 222      022D4167 
 222      7B47
 223 05d7 A0A5A539 		.ascii	"\240\245\2459h\005\366\006\232\203fC[g\320\200,\027"
 223      6805F606 
 223      9A836643 
 223      5B67D080 
 223      2C17
ARM GAS  /tmp/ccZgMH2q.s 			page 18


 224 05e9 3EF81B3A 		.ascii	">\370\033:>\022\376\"\341/\026\3765\377\003j\246M\252"
 224      3E12FE22 
 224      E12F16FE 
 224      35FF036A 
 224      A64DAA
 225              		.text
 226              		.section	.gnu.lto_.symbol_nodes.e6f647ec4480b524,"",%progbits
 227 0000 789C6362 		.ascii	"x\234cb`bP`\200\002\246V\246z\006\206\011\347\030\030"
 227      60625060 
 227      8002A656 
 227      A67A0686 
 227      09E71818 
 228 0014 EAEBE775 		.ascii	"\352\353\347u02\2651\3253\"\270\014\000\223\326\011"
 228      3032B531 
 228      D53322B8 
 228      0C0093D6 
 228      09
 229 0025 3D       		.ascii	"="
 230              		.text
 231              		.section	.gnu.lto_.refs.e6f647ec4480b524,"",%progbits
 232 0000 789C6362 		.ascii	"x\234cb`b`d\200\002\000\000F\000\006"
 232      60626064 
 232      80020000 
 232      460006
 233              		.text
 234              		.section	.gnu.lto_.decls.e6f647ec4480b524,"",%progbits
 235 0000 789CDD5A 		.ascii	"x\234\335Z}p\023\307\025\337=\311\262\214U\342\220!"
 235      7D7013C7 
 235      15DF3DC9 
 235      B28C55E2 
 235      9021
 236 0012 031DA688 		.ascii	"\003\035\246\210\246i3\231\264\002;M\233\351L\012\310"
 236      A6693399 
 236      B4023B4D 
 236      9BE94C0A 
 236      C8
 237 0023 067B6A62 		.ascii	"\006{jb\215\004m\372\227z\261e\254\251\261TIN\2403\235"
 237      8D046DFA 
 237      977AB165 
 237      ACA9B154 
 237      494EA033 
 238 0038 1E102875 		.ascii	"\036\020(u\233\326qS\010-!&5\324|\204/\007\3027\007"
 238      9BD67153 
 238      082D2126 
 238      35D47C84 
 238      2F07C237 
 239 004d A18CC7A2 		.ascii	"\241\214\307\242\256C\010q\302\227\207\217\232\217f"
 239      AE430871 
 239      C297878F 
 239      9A8F66
 240 005c 8090805D 		.ascii	"\200\220\200]\030\334\267\357\356\244[\241\263\356H"
 240      18DCB7EF 
 240      EEA45BA1 
 240      B3EE48
 241 006b FEEA0DEF 		.ascii	"\376\352\015\357\355\372\356\275\337\376\336\356\336"
 241      EDFAEEBD 
 241      DFFEDEEE 
ARM GAS  /tmp/ccZgMH2q.s 			page 19


 241      DE
 242 0078 EEDB1302 		.ascii	"\356\333\023\002\021\210D\011\031\202\353\221G\010\371"
 242      11884409 
 242      1982EB91 
 242      4708F9
 243 0087 858D10F8 		.ascii	"\205\215\020\370G\236!\351K\000Y\005r\202\334{\261\373"
 243      479E21E9 
 243      4B005905 
 243      7282DC7B 
 243      B1FB
 244 0099 2341F241 		.ascii	"#A\362A.\200L\000\254\032\220\020\310l\220\325p\257"
 244      2E804C00 
 244      AC1A9010 
 244      C86C90D5 
 244      70AF
 245 00ab 0DA4882A 		.ascii	"\015\244\210*v.\220:\250\327\202\234\201\372X\326\026"
 245      762E903A 
 245      A8D7829C 
 245      81FA58D6 
 245      16
 246 00bc D42B41D6 		.ascii	"\324+A\326C}'H?\310n\220K {A\256\200\354\007\271\012"
 246      437D2748 
 246      3FC86E90 
 246      4B207B41 
 246      AE80EC07 
 247 00d2 7200C409 		.ascii	"r\000\304\011\266\357B9\002\312-P\236\0079\014\322\011"
 247      B6EF4239 
 247      02CA2D50 
 247      9E07390C 
 247      D209
 248 00e4 D2057204 		.ascii	"\322\005r\004\244\033\244\007\344(\3101]\014a\360\031"
 248      A41BA407 
 248      E428C831 
 248      5D0C61F0 
 248      19
 249 00f5 01652F48 		.ascii	"\001e/H\014\352q\220\004H#\310\013 /\202\314\005\231"
 249      0CEA7190 
 249      044823C8 
 249      0B202F82 
 249      CC0599
 250 0108 07F24BCA 		.ascii	"\007\362K\312\307\312\342w\202\330I:\226\255\272\330"
 250      C7CAE277 
 250      82D8493A 
 250      96ADBAD8 
 251 0118 593CA741 		.ascii	"Y<\247A\034*G\306\257_\215\343\212\312\223\2528\254"
 251      1C2A47C6 
 251      AF5F8DE3 
 251      8ACA93AA 
 251      38AC
 252 012a 8FC7C11F 		.ascii	"\217\307\301\037_\003\371jF;\343\311J\251\265\257o\321"
 252      5F03F96A 
 252      463BE3C9 
 252      4AA9B5AF 
 252      6FD1
 253 013c D5CD63A5 		.ascii	"\325\315c\245\326\005\362\320\320\017\311\303\344\317"
 253      D605F2D0 
 253      D00FC9C3 
ARM GAS  /tmp/ccZgMH2q.s 			page 20


 253      E4CF
 254 014a 125CAD8B 		.ascii	"\022\\\255\213%\211&D\372\314h\362\034\025\351\310\002"
 254      25892644 
 254      FACC68F2 
 254      1C15E9C8 
 254      02
 255 015b E2C68AAB 		.ascii	"\342\306\212\253\000I\021\"\3227\351\303X\263a\310\244"
 255      00491122 
 255      D237E9C3 
 255      58B361C8 
 255      A4
 256 016c 903449D2 		.ascii	"\2204I\322\002\346X\3369r\024y\005Q\000\244\023\002"
 256      02E658DE 
 256      39721479 
 256      055100A4 
 256      1302
 257 017e 5021FA1E 		.ascii	"P!\372\036\3200\3560\"\217\2226Ij\356\033\034|\303&"
 257      D030EE30 
 257      228F9236 
 257      496AEE1B 
 257      1C7CC326 
 258 0192 494ED5C5 		.ascii	"IN\325\305ml/\3225\364Q\222\333\216Y\266\323Q\344q\262"
 258      6D6C2FD2 
 258      35F45192 
 258      DB8E59B6 
 258      D351E471 
 259 01a7 160C9B25 		.ascii	"\026\014\233%\351\340\017\370\270\261aI\276\321\355"
 259      E9E00FF8 
 259      B8B16149 
 259      BED1ED
 260 01b6 92EC8A29 		.ascii	"\222\354\212)sYK\037\3172\355\310\004\322\312\214\007"
 260      73594B1F 
 260      CF32EDC8 
 260      04D2CA8C 
 260      07
 261 01c7 BB5750A9 		.ascii	"\273WP\251\365 \315\326<\325\232\037\227\212J~\257\233"
 261      F520CDD6 
 261      3CD59A1F 
 261      978A4A7E 
 261      AF9B
 262 01d9 BA45BA01 		.ascii	"\272E\272\001\354\005\362+\312\301\347\204`l6\201\247"
 262      EC05F22B 
 262      CAC1E784 
 262      606C3681 
 262      A7
 263 01ea E2A4B2FD 		.ascii	"\342\244\262\375\223\302v\223\011\266\013\344e\335+"
 263      93C27693 
 263      09B60BE4 
 263      65DD2B
 264 01f9 C632B605 		.ascii	"\3062\266\005dIzPH\326\241TG\341\275\246\266'`\024D"
 264      64497A50 
 264      48D6A154 
 264      47E1BDA6 
 264      B6276014 
 265 020e BA159C04 		.ascii	"\272\025\234\004\322Ay\316\346\201\006\223\207^\241"
 265      D24179CE 
 265      E6810693 
ARM GAS  /tmp/ccZgMH2q.s 			page 21


 265      875EA1
 266 021d 0B61E045 		.ascii	"\013a\340E\272\015\241.g@\2114\277@O\031\377\326\014"
 266      BA0DA12E 
 266      67408934 
 266      BF404F19 
 266      FFD60C
 267 0230 181E3E56 		.ascii	"\030\036>V+l\265x\200X5\027\310\347\330(\353\254lT\325"
 267      2B6CB578 
 267      80583517 
 267      C8E7D828 
 267      EBAC6C54 
 268 0245 AA72A906 		.ascii	"\252r\251\006\\\007\366\015lS:P\353\217\333\226\361"
 268      5C07F60D 
 268      6C533A50 
 268      EB8FDB96 
 268      F1
 269 0256 DCDC80AC 		.ascii	"\334\334\200\254\354v5\213\032\330\002\301\004\230\323"
 269      EC76358B 
 269      1AD802C1 
 269      0498D3
 270 0265 909CBC55 		.ascii	"\220\234\274U\017\326d\031\214g\266]\017\326l\006\254"
 270      0FD66419 
 270      8C67B65D 
 270      0FD66C06 
 270      AC
 271 0276 C898D92E 		.ascii	"\310\230\331.=\330\253\226\301xf\373\364`\313\315\200"
 271      3DD8AB96 
 271      C17866FB 
 271      F460CBCD 
 271      80
 272 0287 8DC9C22C 		.ascii	"\215\311\302,\333\245\177\275D\272\031V\025\221n\241"
 272      DBA57FBD 
 272      44BA1956 
 272      15916EA1 
 273 0297 1340EF44 		.ascii	"\023@\357D\275\033\365^\324\373Q\037@\375.\350\324%"
 273      BD1BF55E 
 273      D4FB511F 
 273      40FD2EE8 
 273      D425
 274 02a9 9095C8A9 		.ascii	"\220\225\310\251=\315\211\177\215s\3152In\256b\001*"
 274      3DCD897F 
 274      8D73CD32 
 274      496EAE62 
 274      012A
 275 02bb 8BC46A53 		.ascii	"\213\304jS`\\\204n\016\3545\035\330\006S`\3377f\266"
 275      605C846E 
 275      0EEC351D 
 275      D8065360 
 275      DF3766B6 
 276 02cf 5907D661 		.ascii	"Y\007\326a\012\314g\314l\207\016l\227)\260\2501\263"
 276      0ACC67CC 
 276      6C870E6C 
 276      9729B0A8 
 276      31B3
 277 02e1 1E1DD801 		.ascii	"\036\035\330\001S`K\2501\265^\035Z\247)\264vj\314\355"
 277      53604BA8 
 277      31B55E1D 
ARM GAS  /tmp/ccZgMH2q.s 			page 22


 277      5AA729B4 
 277      766ACCED 
 278 02f5 9A0EED5F 		.ascii	"\232\016\355_\246\320\344a\270\015\350\320\216\233B"
 278      A6D0E461 
 278      B80DE8D0 
 278      8E9B42
 279 0304 EBCBC64D 		.ascii	"\353\313\306M7\353\225\371\276\016\347\373z\234\321"
 279      37EB95F9 
 279      BE0EE7FB 
 279      7A9CD1
 280 0313 875177A2 		.ascii	"\207Qw\242\356B}\004u7\352\036\324GQ\037\343\347\376"
 280      EE427D04 
 280      7537EA1E 
 280      D447511F 
 280      E3E7FE
 281 0326 29217355 		.ascii	")!sUW\366Q]k\355\251w\214|\321\366\214r\2206Z\230no"
 281      57F6515D 
 281      6BEDA977 
 281      8C7CD1F6 
 281      8C729036 
 282 033e 964DC7AF 		.ascii	"\226M\307\257?\203\3377\310\337$\251\005R\235\213\366"
 282      3F83DF37 
 282      C8DF24A9 
 282      05529D8B 
 282      F6
 283 034f E5926C57 		.ascii	"\345\222lW\\a\237@\263Ut|\326&R\015|\223\254f[\366\313"
 283      5C619F40 
 283      B355747C 
 283      D626520D 
 283      7C93AC66 
 284 0366 D2A2228A 		.ascii	"\322\242\"\212I\021Q\275\270\200?\244\202\376\206\222"
 284      491151BD 
 284      B8803FA4 
 284      82FE8692 
 285 0376 5DC937BB 		.ascii	"]\3117\273\\\315\363\373\206\206\306\233O\255N\346N"
 285      5CCDF3FB 
 285      8686C69B 
 285      4FAD4EE6 
 285      4E
 286 0387 ADB8EC41 		.ascii	"\255\270\354A\320\000\236 \351}\370\3722\033n\350gp"
 286      D0009E20 
 286      E97DF8FA 
 286      321B6EE8 
 286      6770
 287 0399 02DDC9E8 		.ascii	"\002\335\311\350\217\2340\214\307\331\314$\244#\211"
 287      8F9C308C 
 287      C7D9CC24 
 287      A42389
 288 03a8 49C8D9DC 		.ascii	"I\310\331\334I\310K\013\345w\222\272$d\341\260\271\203"
 288      49C84B0B 
 288      E57792BA 
 288      2464E1B0 
 288      B983
 289 03ba 483B7052 		.ascii	"H;pR\232\331\332\177k\243*\265\373\330\332\201\326\216"
 289      9AD9DA7F 
 289      6BA32AB5 
 289      FBD8DA81 
ARM GAS  /tmp/ccZgMH2q.s 			page 23


 289      D68E
 290 03cc 246E2B17 		.ascii	"$n+\027p[\371\243e07\007\266K\017\266\324\014\230\321"
 290      705BF9A3 
 290      65303707 
 290      B64B0FB6 
 290      D40C98D1 
 291 03e0 BE0E607B 		.ascii	"\276\016`{\364`+-\203\361\314\366\351\301\332\314\200"
 291      F4602B2D 
 291      83F1CCF6 
 291      E9C1DACC 
 291      80
 292 03f1 19EDEB00 		.ascii	"\031\355\353\000\326\243\007k\267\014\246g6_>\223\354"
 292      D6A3076B 
 292      B70CA667 
 292      365F3E93 
 292      EC
 293 0402 A2528BEB 		.ascii	"\242R\213\353!\322\"I\363\245V\207\321\244 \004M\244"
 293      21D22249 
 293      F3A55687 
 293      D1A42004 
 293      4DA4
 294 0414 614D447A 		.ascii	"aMDz\203>\304O\322\367\1777\222MRv?w\246\374A\222O\364"
 294      833EC44F 
 294      D2F77F37 
 294      924D5276 
 294      3F77A6FC 
 295 042c 366070CC 		.ascii	"6`p\314\367~\022GI>\225,\224\232\\\332\371gr\3730\304"
 295      F77E1247 
 295      493E952C 
 295      949A5CDA 
 295      F96772FB 
 296 0442 0732DFAE 		.ascii	"\0072\337\256\017\223\202[\271\235\233\367G\311\025"
 296      0F93825B 
 296      B99D9BF7 
 296      47C915
 297 0451 63A4D603 		.ascii	"c\244\326\003Z\206/-\226\036\323\265U\244\265\305\326"
 297      5A862F2D 
 297      961ED3B5 
 297      55A4B5C5 
 297      D6
 298 0462 8F5486FF 		.ascii	"\217T\206\377\272\222\341\337\306@7\332\262f\370&\200"
 298      BA92E1DF 
 298      C64037DA 
 298      B266F826 
 298      80
 299 0473 06936F3D 		.ascii	"\006\223o=\215@w\021\350\035[\346N`\313\310\357m\374"
 299      8D407711 
 299      E81D5BE6 
 299      4E60CBC8 
 299      EF6DFC
 300 0486 5B6D2B48 		.ascii	"[m+HW\206\206l\304\232\261@\016b\203\003\351\371\307"
 300      5786866C 
 300      C49AB140 
 300      0E628303 
 300      E9F9C7
 301 0499 913493DB 		.ascii	"\2214\223\333/\303\256\323z\342\260e\274\242\2141\021"
 301      2FC3AED3 
ARM GAS  /tmp/ccZgMH2q.s 			page 24


 301      7AE2B065 
 301      BCA28C31 
 301      11
 302 04aa C891FB9D 		.ascii	"\310\221\373\2356\272\310\265\235\362s\334\377n\361"
 302      36BAC8B5 
 302      9DF273DC 
 302      FF6EF1
 303 04b9 FB6DB799 		.ascii	"\373m\267\231\227.[\376\253\276\301\327\364o\360\373"
 303      972E5BFE 
 303      ABBEC1D7 
 303      F46FF0FB 
 304 04c9 96C1DC1C 		.ascii	"\226\301\334\034\330\247z\260^3`ncf\237\351\301NY\006"
 304      D8A77AB0 
 304      5E33606E 
 304      63669FE9 
 304      C14E5906 
 305 04dd E399DDD4 		.ascii	"\343\231\335\324\203\2355\003\366\330p\203\302\215O"
 305      839D3503 
 305      F6D87083 
 305      C28D4F
 306 04ec 7A3714E9 		.ascii	"z7\024\3519\334\256\316\343H\365\243\276\204\372\012"
 306      39DCAECE 
 306      E348F5A3 
 306      BE84FA0A 
 307 04fc EA4F505F 		.ascii	"\352OP_E}\035\365b\201\351%\250\233P\377^\310\221\337"
 307      457D1DF5 
 307      6281E925 
 307      A89B50FF 
 307      5EC891DF 
 308 0510 A81F126E 		.ascii	"\250\037\022n\265\214c\253\331iLW\376\235\361\256q\231"
 308      B58C63AB 
 308      D9694C57 
 308      FE9DF1AE 
 308      7199
 309 0522 81B2D51B 		.ascii	"\201\262\325\033\2556\315B\241\301\242r\31735\3550}"
 309      AD36CD42 
 309      A1C1A272 
 309      CF3335ED 
 309      307D
 310 0534 E697F7B6 		.ascii	"\346\227\367\266\214f\034[\004\326\353\327\357Y\017"
 310      8C661C5B 
 310      04D6EBD7 
 310      EF590F
 311 0543 D8CACAB5 		.ascii	"\330\312\312\265g\352\300o\231\305\361Q\202H\227\"\207"
 311      67EAC06F 
 311      99C5F151 
 311      82489722 
 311      87
 312 0554 BB5F1287 		.ascii	"\273_\022\207\214\244\3627\366\254I\345\205\215\203"
 312      8CA4F237 
 312      F6AC49E5 
 312      858D83
 313 0563 6A52A98C 		.ascii	"jR\251\214\322\353hv\3020\251dV\252\257<\330\265\001"
 313      D2EB6876 
 313      C230A964 
 313      56AAAF3C 
 313      D8B501
ARM GAS  /tmp/ccZgMH2q.s 			page 25


 314 0576 F61F41EB 		.ascii	"\366\037A\353\2747s\2702+\315\365v\327\032\305U\211"
 314      BC3773B8 
 314      322BCDF5 
 314      76D71AC5 
 314      5589
 315 0588 F9EF395C 		.ascii	"\371\3579\\\231\025\321RY\371V\323\302V*9R\311\354\211"
 315      9915D152 
 315      59F956D3 
 315      C2562A39 
 315      52C9EC89 
 316 059c CC6476B9 		.ascii	"\314dv\271\300%\263Y\362E\331\311\235\260\324\335a\347"
 316      C025B359 
 316      F245D9C9 
 316      9DB0D4DD 
 316      61E7
 317 05ae 39792DDD 		.ascii	"9y-\335\"IE\220 \013,\363<\231\321i\271\2210\361\026"
 317      22494590 
 317      200B2CF3 
 317      3C99D169 
 317      B99130F1 
 318 05c3 3236C737 		.ascii	"26\3077\372;)\356:\354I\356\344\263\243\277S\2001y\311"
 318      FA3B29EE 
 318      3AEC49EE 
 318      E4B3A3BF 
 318      53803179 
 319 05d8 A62D0617 		.ascii	"\246-\006\027\221\006s\276\277\264\361m\326~\213K\203"
 319      910673BE 
 319      BFB4F16D 
 319      D67E8B4B 
 319      83
 320 05e9 BB6219CE 		.ascii	"\273b\031\316\315\301m\347\341n\230\201\033&u\334\301"
 320      CDC16DE7 
 320      E16E9881 
 320      1B2675DC 
 320      C1
 321 05fa C30D5886 		.ascii	"\303\015X\206\343\331\355\342\341\356\230\201\033&}"
 321      E3D9EDE2 
 321      E1EE9881 
 321      1B267D
 322 0609 DCC3C32D 		.ascii	"\334\303\303-\312\263\012\307\263\333\307\303\375\301"
 322      CAB30AC7 
 322      B3DBC7C3 
 322      FDC1
 323 0617 0C9CD1D6 		.ascii	"\014\234\321\326\010\251T\217\006\247d\200\313,\303"
 323      08A9548F 
 323      06A76480 
 323      CB2CC3
 324 0626 F1EC8EF2 		.ascii	"\361\354\216\362\354V\231\201s\033\367\3351\036n\235"
 324      EC569981 
 324      731BF7DD 
 324      311E6E9D 
 325 0636 65381D3B 		.ascii	"e8\035;x\215\216\367;\001\355A\322\254\344\247l\327"
 325      788D8EF7 
 325      3B01ED41 
 325      D2ACE4A7 
 325      6CD7
 326 0648 6061ABB6 		.ascii	"`a\253\266\223\371\271!\322\335\302\203X\303UXJm4\256"
ARM GAS  /tmp/ccZgMH2q.s 			page 26


 326      93F9B921 
 326      D2DDC283 
 326      58C35558 
 326      4A6D34AE 
 327 065c 82ACCD33 		.ascii	"\202\254\3153\217=\3122\223~\005\324\212\366\011^ \035"
 327      8F3DCA32 
 327      937E05D4 
 327      8AF6095E 
 327      201D
 328 066e 992170AD 		.ascii	"\231!p\255\016\263-\253=\322\313\367\310^3=2\321\030"
 328      0EB32DAB 
 328      3DD2CBF7 
 328      C85E333D 
 328      32D118
 329 0681 EE631EEE 		.ascii	"\356c\036\356\037\226\341\370\341?\311\303\375\323\014"
 329      1F96E1F8 
 329      E13FC9C3 
 329      FDD30C
 330 0690 9CE187B8 		.ascii	"\234\341\207\270\005\362i~r~`\031\216gw\215gw\306\014"
 330      05F2697E 
 330      727E6019 
 330      8E67778D 
 330      6777C60C 
 331 06a4 DC64E3BE 		.ascii	"\334d\343\276\373\224\207\353\267\014\307O\316\317p"
 331      FB9487EB 
 331      B70CC74F 
 331      CECF70
 332 06b3 722AB34E 		.ascii	"r*\263N W\315\314\223rcr7yr\203f\310\371\214\341\006"
 332      2057CDCC 
 332      93726372 
 332      37797283 
 332      66C8F98C 
 333 06c9 78B8850E 		.ascii	"x\270\205\016\253p\374H\374\227\207{\331\014\334s\306"
 333      AB70FC48 
 333      FC97877B 
 333      D90CDC73 
 333      C6
 334 06da F3E44EC6 		.ascii	"\363\344N\306\"f\031\216gw7c\0213\003\3673\343\276k"
 334      2266198E 
 334      67773763 
 334      113303F7 
 334      33E3BE6B 
 335 06ee BECCC1AD 		.ascii	"\276\314\301\255\267\014\307\317\223\226\313\372y\262"
 335      B70CC7CF 
 335      9396CBFA 
 335      79B2
 336 06fc 2D132DDB 		.ascii	"-\023-\333<\2513&\367*On\277\031rF\037\250\001n)\017"
 336      3CA93326 
 336      F72A4F6E 
 336      BF197246 
 336      1FA8016E 
 337 0712 77C8321C 		.ascii	"w\3102\034\037\353k\\\254\235fb\235kL\356/<\271\243"
 337      1FEB6B5C 
 337      AC9D6662 
 337      9D6B4CEE 
 337      2F3CB9A3 
 338 0726 66C84946 		.ascii	"f\310IF_\274\001o\005\217\327k\035\317M\014/}\026(\322"
ARM GAS  /tmp/ccZgMH2q.s 			page 27


 338      5FBC016F 
 338      058FD76B 
 338      1DCF4D0C 
 338      2F7D1628 
 339 073b D5023B72 		.ascii	"\325\002;r\255\301\303S;\352u\2507\240\336\210z3\352"
 339      ADC1C353 
 339      3BEA75A8 
 339      37A0DE88 
 339      7A33EA
 340 074e ADA8DF46 		.ascii	"\255\250\337F\275\035\365\016\324\273P\357C-\243>\210"
 340      BD1DF50E 
 340      D4BB50EF 
 340      432DA33E 
 340      88
 341 075f FA10EAC3 		.ascii	"\372\020\352\303\250;Qw\241>\202\272\033u\017\352\243"
 341      A83B5177 
 341      A13E82BA 
 341      1B750FEA 
 341      A3
 342 0770 A88FA13E 		.ascii	"\250\217\241>\216\272\027\365\307\250O\242>\215\272"
 342      8EBA17F5 
 342      C7A84FA2 
 342      3E8DBA
 343 077f 0FF559FD 		.ascii	"\017\365Y\375!/\343\260\266\312\240\227X\334\347\205"
 343      212FE3B0 
 343      B6CAA097 
 343      58DCE785 
 344 078f C2AC5E06 		.ascii	"\302\254^\006\277\253s\277\005\210\364-<\234n\342>\277"
 344      BFAB73BF 
 344      0588F42D 
 344      3C9C6EE2 
 344      3EBF
 345 07a1 5BFE79CB 		.ascii	"[\376y\313\210\332\205453l\310\027g\222:\001\312_\302"
 345      88DA8534 
 345      35336CC8 
 345      1767923A 
 345      01CA5FC2 
 346 07b5 F763F651 		.ascii	"\367c\366Q^\276\326\267\372\354E\312\216\007\322\320"
 346      5EBED6B7 
 346      FAEC45CA 
 346      8E07D2D0 
 347 07c5 D0AFA9F9 		.ascii	"\320\257\251\371\017\363\227\005\356\303\274"
 347      0FF39705 
 347      EEC3BC
 348 07d0 72724EFD 		.ascii	"rrN\375\241vM\306\241\361\234#\333\241QZ\036*W\334\005"
 348      A1764DC6 
 348      A1F19C23 
 348      DBA1515A 
 348      1E2A57DC 
 349 07e5 F21FB4B8 		.ascii	"\362\037\264\270$\030\235\334\230\225\346\366\327\303"
 349      24189DDC 
 349      9895E6F6 
 349      D7C3
 350 07f3 AE66AA34 		.ascii	"\256f\2524%\322\217\2500\254\243JH\375\365b\267\344"
 350      25D28FA8 
 350      30ACA34A 
 350      48FDF562 
ARM GAS  /tmp/ccZgMH2q.s 			page 28


 350      B7E4
 351 0805 1B933AEF 		.ascii	"\033\223:\3571'\356U\373\204?\357}\213\254a\253\317"
 351      3127EE55 
 351      FB843FEF 
 351      7D8BAC61 
 351      ABCF
 352 0817 50B2733E 		.ascii	"P\262s>\373\217\014\272Q\327?\227\266\266\026\375\177"
 352      FB8F0CBA 
 352      51D73F97 
 352      B6B616FD 
 352      7F
 353 0828 3F244F7B 		.ascii	"?$O{\032\3431O<V\355\251\256\013?\037\216\304=\360\257"
 353      1AE3314F 
 353      3C56EDA9 
 353      AE0B3F1F 
 353      8EC43DF0 
 354 083d 4EACF744 		.ascii	"N\254\367D#\261D\334\023\2309\243\244\330SYY\352\231"
 354      23B144DC 
 354      139839A3 
 354      A4D85359 
 354      59EA99
 355 0850 EEABA87A 		.ascii	"\356\253\250z\241\330\023\025\353\203\365\3655\337\251"
 355      A1D81315 
 355      EB83F5F5 
 355      35DFA9
 356 085f BE6FCF3A 		.ascii	"\276o\317:\342\230\376\354,\267\227\214\212'\346\224"
 356      E298FEEC 
 356      2CB7978C 
 356      8A27E694 
 357 086f 14076747 		.ascii	"\024\007gG\303\221`<\224h\214\006\023_G\314pCu}cM\310"
 357      C391603C 
 357      94688C06 
 357      135F47CC 
 357      7043757D 
 358 0886 D3107AB1 		.ascii	"\323\020z\261>\374\274'>/\356\011\306\0235\341\206\004"
 358      3EFCBC27 
 358      3E2FEE09 
 358      C61335E1 
 358      8604
 359 0898 383B1BA1 		.ascii	"8;\033\241\004\267\304\267\263\331\316\021\201LC\310"
 359      04B7C4B7 
 359      B3D9CE11 
 359      814C43C8 
 360 08a8 13AC09D5 		.ascii	"\023\254\011\325\212\215\365\211`b^4\024\007\267\021"
 360      8A8DF589 
 360      60625E34 
 360      1407B711 
 361 08b8 C1A0E698 		.ascii	"\301\240\346\2307'R\023\2129\"\354Q,?\022\217\206B5"
 361      37275213 
 361      8A3922EC 
 361      512C3F12 
 361      8F864235 
 362 08cc B1BC6863 		.ascii	"\261\274hc\264&f\213\324\304\354bm\254\236\251:\207"
 362      B426668B 
 362      D4C4EC62 
 362      6DAC9EA9 
 362      3A87
ARM GAS  /tmp/ccZgMH2q.s 			page 29


 363 08de 6F4AA998 		.ascii	"oJ\251\230\020\035\276\251J\341U\212R\245(S\212iJ1]"
 363      101DBEA9 
 363      4AE1558A 
 363      52A52853 
 363      8A694A31 
 364 08f3 29CA95A2 		.ascii	")\312\225\242\202\025\005\276)\225\336HCmx\366W\202"
 364      821505BE 
 364      2995DE48 
 364      436D78F6 
 364      5782
 365 0905 6AF0C170 		.ascii	"j\360\301pC8\341\250\306\233.]\370\211\274\031U\245"
 365      4338E1A8 
 365      C69B2E5D 
 365      F889BC19 
 365      55A5
 366 0917 657E47D5 		.ascii	"e~G\325\314\237\372\312\374\371U\001_YY\251?\3177\313"
 366      CC9FFACA 
 366      FCF95501 
 366      5F5959A9 
 366      3FCF37CB 
 367 092b 57EAB755 		.ascii	"W\352\267U\200T\225\372\351O0\364IO\005\023j0\254j\203"
 367      805495FA 
 367      E94F30F4 
 367      494F0513 
 367      6A30AC6A 
 368 0940 9ECBABAE 		.ascii	"\236\313\253\256\017\2111Zn\237\032\360\373\355\225"
 368      0F89315A 
 368      6E9F1AF0 
 368      FBED95
 369 094f DE1FF9ED 		.ascii	"\336\037\371\355S\246\371+\231*\267M\365\373G\204#l"
 369      53A6F92B 
 369      992AB74D 
 369      F5FB4784 
 369      236C
 370 0961 4CC235C1 		.ascii	"L\3025\301\204K\251\316\021\343?\017&\234\341\010\353"
 370      844BA9CE 
 370      11E33F0F 
 370      269CE108 
 370      EB
 371 0972 8A606274 		.ascii	"\212`bt\212\037\240\315\216E\032\243\354\276\235Y\332"
 371      8A1FA0CD 
 371      8E451AA3 
 371      ECBE9D59 
 371      DA
 372 0983 99A99DFD 		.ascii	"\231\251\235\375\351\3116\336\241\271\011\217wF\240"
 372      E9C936DE 
 372      A1B9098F 
 372      7746A0
 373 0992 2200E3ED 		.ascii	"\"\000\343\355\301\200j\237\234\370\275\271s\241\307"
 373      C1806A9F 
 373      9CF8BDB9 
 373      73A1C7
 374 09a1 0BFD5E6F 		.ascii	"\013\375^op&\364qi\250V\360\372\363}\225\225\336i\323"
 374      7026F471 
 374      69A856F0 
 374      FAF37D95 
 374      95DE69D3 
ARM GAS  /tmp/ccZgMH2q.s 			page 30


 375 09b5 FD76A66C 		.ascii	"\375v\246l\336\012\277sJ\371\324I\376\300L\254\024k"
 375      DE0ABF73 
 375      4AF9D449 
 375      FEC04CAC 
 375      146B
 376 09c7 95125629 		.ascii	"\225\022V)\360\227\005\312\374?.+\235\350\234\342\323"
 376      F09705CA 
 376      FC3F2E2B 
 376      9DE89CE2 
 376      D3
 377 09d8 8C7C8A51 		.ascii	"\214|\212Q\352\331\244|\006P\366\254\237\225\305jY\002"
 377      EAD9A47C 
 377      0650F6AC 
 377      9F95C56A 
 377      5902
 378 09ea 65CAA238 		.ascii	"e\312\2428\237y\343\023\037Z\244\236\224\0240\337J\037"
 378      9F79E313 
 378      1F5AA49E 
 378      941430DF 
 378      4A1F
 379 09fc BBC7BC53 		.ascii	"\273\307\274S\265\022\245\246\331=Y\300\020\324\247"
 379      B512A5A6 
 379      D93D59C0 
 379      10D4A7
 380 0a0b 3ECD4E7B 		.ascii	">\315N{\372]\373\324R/\304\022H\337z*/\020\360N\367"
 380      FA5DFBD4 
 380      522FC412 
 380      48DF7A2A 
 380      2F10F04E 
 381 0a20 8F80602B 		.ascii	"\217\200`+\212\003,T'\033r6\310yLE\377\007l\370ty"
 381      8A032C54 
 381      271B7236 
 381      C8794C45 
 381      FF076CF8 
 382              		.text
 383              		.section	.gnu.lto_.symtab.e6f647ec4480b524,"",%progbits
 384 0000 5F70616C 		.ascii	"_pal_lld_init\000\000\000\000\000\000\000\000\000\000"
 384      5F6C6C64 
 384      5F696E69 
 384      74000000 
 384      00000000 
 385 0017 0000A100 		.ascii	"\000\000\241\000\000\000_pal_lld_setgroupmode\000\000"
 385      00005F70 
 385      616C5F6C 
 385      6C645F73 
 385      65746772 
 386 0034 00000000 		.ascii	"\000\000\000\000\000\000\000\000\000\000\333\000\000"
 386      00000000 
 386      0000DB00 
 386      00
 387 0041 00       		.ascii	"\000"
 388              		.text
 389              		.section	.gnu.lto_.opts,"",%progbits
 390 0000 272D6D63 		.ascii	"'-mcpu=cortex-m4' '-mno-thumb-interwork' '-mthumb' "
 390      70753D63 
 390      6F727465 
 390      782D6D34 
ARM GAS  /tmp/ccZgMH2q.s 			page 31


 390      2720272D 
 391 0033 272D6767 		.ascii	"'-ggdb' '-O2' '-fomit-frame-pointer' '-falign-funct"
 391      64622720 
 391      272D4F32 
 391      2720272D 
 391      666F6D69 
 392 0066 696F6E73 		.ascii	"ions=16' '-ffunction-sections' '-fdata-sections' '-"
 392      3D313627 
 392      20272D66 
 392      66756E63 
 392      74696F6E 
 393 0099 666E6F2D 		.ascii	"fno-common' '-flto'\000"
 393      636F6D6D 
 393      6F6E2720 
 393      272D666C 
 393      746F2700 
 394              		.text
 395              		.cfi_sections	.debug_frame
 396              		.section	.text._pal_lld_init,"ax",%progbits
 397              		.align	2
 398              		.p2align 4,,15
 399              		.global	_pal_lld_init
 400              		.thumb
 401              		.thumb_func
 402              		.type	_pal_lld_init, %function
 403              	_pal_lld_init:
 404              	.LFB261:
 405              		.file 1 "/usr/src/chibios/os/hal/ports/STM32/LLD/GPIOv2/pal_lld.c"
 406              		.loc 1 92 0
 407              		.cfi_startproc
 408              		@ args = 0, pretend = 0, frame = 0
 409              		@ frame_needed = 0, uses_anonymous_args = 0
 410              		@ link register save eliminated.
 411              	.LVL0:
 412 0000 2DE9F00F 		push	{r4, r5, r6, r7, r8, r9, r10, fp}
 413              		.cfi_def_cfa_offset 32
 414              		.cfi_offset 4, -32
 415              		.cfi_offset 5, -28
 416              		.cfi_offset 6, -24
 417              		.cfi_offset 7, -20
 418              		.cfi_offset 8, -16
 419              		.cfi_offset 9, -12
 420              		.cfi_offset 10, -8
 421              		.cfi_offset 11, -4
 422              		.loc 1 105 0
 423 0004 DFF8AC91 		ldr	r9, .L2+28
 424              	.LBB20:
 425              	.LBB21:
 426              		.loc 1 67 0
 427 0008 DFF8AC81 		ldr	r8, .L2+32
 428              	.LBE21:
 429              	.LBE20:
 430              		.loc 1 105 0
 431 000c D9F830B0 		ldr	fp, [r9, #48]
 432              	.LBB23:
 433              	.LBB24:
 434              		.loc 1 67 0
ARM GAS  /tmp/ccZgMH2q.s 			page 32


 435 0010 DFF8A8C1 		ldr	ip, .L2+36
 436              	.LBE24:
 437              	.LBE23:
 438              	.LBB26:
 439              	.LBB27:
 440 0014 604F     		ldr	r7, .L2
 441              	.LBE27:
 442              	.LBE26:
 443              	.LBB29:
 444              	.LBB30:
 445 0016 614E     		ldr	r6, .L2+4
 446              	.LBE30:
 447              	.LBE29:
 448              	.LBB32:
 449              	.LBB33:
 450 0018 614D     		ldr	r5, .L2+8
 451              	.LBE33:
 452              	.LBE32:
 453              	.LBB35:
 454              	.LBB36:
 455 001a 624C     		ldr	r4, .L2+12
 456              	.LBE36:
 457              	.LBE35:
 458              	.LBB38:
 459              	.LBB39:
 460 001c 6249     		ldr	r1, .L2+16
 461              	.LBE39:
 462              	.LBE38:
 463              	.LBB41:
 464              	.LBB42:
 465 001e 634A     		ldr	r2, .L2+20
 466              	.LBE42:
 467              	.LBE41:
 468              		.loc 1 105 0
 469 0020 40F2FF1A 		movw	r10, #511
 470 0024 4BEA0A0B 		orr	fp, fp, r10
 471 0028 C9F830B0 		str	fp, [r9, #48]
 472              		.loc 1 106 0
 473 002c D9F850B0 		ldr	fp, [r9, #80]
 474 0030 4BEA0A0A 		orr	r10, fp, r10
 475 0034 C9F850A0 		str	r10, [r9, #80]
 476              	.LVL1:
 477              	.LBB44:
 478              	.LBB22:
 479              		.loc 1 67 0
 480 0038 4368     		ldr	r3, [r0, #4]
 481 003a C8F80430 		str	r3, [r8, #4]
 482              		.loc 1 68 0
 483 003e 8368     		ldr	r3, [r0, #8]
 484 0040 C8F80830 		str	r3, [r8, #8]
 485              		.loc 1 69 0
 486 0044 C368     		ldr	r3, [r0, #12]
 487 0046 C8F80C30 		str	r3, [r8, #12]
 488              		.loc 1 70 0
 489 004a 0369     		ldr	r3, [r0, #16]
 490 004c C8F81430 		str	r3, [r8, #20]
 491              		.loc 1 71 0
ARM GAS  /tmp/ccZgMH2q.s 			page 33


 492 0050 4369     		ldr	r3, [r0, #20]
 493 0052 C8F82030 		str	r3, [r8, #32]
 494              		.loc 1 72 0
 495 0056 8369     		ldr	r3, [r0, #24]
 496 0058 C8F82430 		str	r3, [r8, #36]
 497              		.loc 1 73 0
 498 005c 0368     		ldr	r3, [r0]
 499 005e C8F80030 		str	r3, [r8]
 500              	.LVL2:
 501              	.LBE22:
 502              	.LBE44:
 503              	.LBB45:
 504              	.LBB25:
 505              		.loc 1 67 0
 506 0062 036A     		ldr	r3, [r0, #32]
 507 0064 CCF80430 		str	r3, [ip, #4]
 508              		.loc 1 68 0
 509 0068 436A     		ldr	r3, [r0, #36]
 510 006a CCF80830 		str	r3, [ip, #8]
 511              		.loc 1 69 0
 512 006e 836A     		ldr	r3, [r0, #40]
 513 0070 CCF80C30 		str	r3, [ip, #12]
 514              		.loc 1 70 0
 515 0074 C36A     		ldr	r3, [r0, #44]
 516 0076 CCF81430 		str	r3, [ip, #20]
 517              		.loc 1 71 0
 518 007a 036B     		ldr	r3, [r0, #48]
 519 007c CCF82030 		str	r3, [ip, #32]
 520              		.loc 1 72 0
 521 0080 436B     		ldr	r3, [r0, #52]
 522 0082 CCF82430 		str	r3, [ip, #36]
 523              		.loc 1 73 0
 524 0086 C369     		ldr	r3, [r0, #28]
 525 0088 CCF80030 		str	r3, [ip]
 526              	.LVL3:
 527              	.LBE25:
 528              	.LBE45:
 529              	.LBB46:
 530              	.LBB28:
 531              		.loc 1 67 0
 532 008c C36B     		ldr	r3, [r0, #60]
 533 008e 7B60     		str	r3, [r7, #4]
 534              		.loc 1 68 0
 535 0090 036C     		ldr	r3, [r0, #64]
 536 0092 BB60     		str	r3, [r7, #8]
 537              		.loc 1 69 0
 538 0094 436C     		ldr	r3, [r0, #68]
 539 0096 FB60     		str	r3, [r7, #12]
 540              		.loc 1 70 0
 541 0098 836C     		ldr	r3, [r0, #72]
 542 009a 7B61     		str	r3, [r7, #20]
 543              		.loc 1 71 0
 544 009c C36C     		ldr	r3, [r0, #76]
 545 009e 3B62     		str	r3, [r7, #32]
 546              		.loc 1 72 0
 547 00a0 036D     		ldr	r3, [r0, #80]
 548 00a2 7B62     		str	r3, [r7, #36]
ARM GAS  /tmp/ccZgMH2q.s 			page 34


 549              		.loc 1 73 0
 550 00a4 836B     		ldr	r3, [r0, #56]
 551 00a6 3B60     		str	r3, [r7]
 552              	.LVL4:
 553              	.LBE28:
 554              	.LBE46:
 555              	.LBB47:
 556              	.LBB31:
 557              		.loc 1 67 0
 558 00a8 876D     		ldr	r7, [r0, #88]
 559 00aa 7760     		str	r7, [r6, #4]
 560              		.loc 1 68 0
 561 00ac C76D     		ldr	r7, [r0, #92]
 562 00ae B760     		str	r7, [r6, #8]
 563              		.loc 1 69 0
 564 00b0 076E     		ldr	r7, [r0, #96]
 565 00b2 F760     		str	r7, [r6, #12]
 566              		.loc 1 70 0
 567 00b4 476E     		ldr	r7, [r0, #100]
 568 00b6 7761     		str	r7, [r6, #20]
 569              		.loc 1 71 0
 570 00b8 876E     		ldr	r7, [r0, #104]
 571 00ba 3762     		str	r7, [r6, #32]
 572              		.loc 1 72 0
 573 00bc C76E     		ldr	r7, [r0, #108]
 574 00be 7762     		str	r7, [r6, #36]
 575              		.loc 1 73 0
 576 00c0 476D     		ldr	r7, [r0, #84]
 577 00c2 3760     		str	r7, [r6]
 578              	.LVL5:
 579              	.LBE31:
 580              	.LBE47:
 581              	.LBB48:
 582              	.LBB34:
 583              		.loc 1 67 0
 584 00c4 466F     		ldr	r6, [r0, #116]
 585 00c6 6E60     		str	r6, [r5, #4]
 586              		.loc 1 68 0
 587 00c8 866F     		ldr	r6, [r0, #120]
 588 00ca AE60     		str	r6, [r5, #8]
 589              		.loc 1 69 0
 590 00cc C66F     		ldr	r6, [r0, #124]
 591 00ce EE60     		str	r6, [r5, #12]
 592              		.loc 1 70 0
 593 00d0 D0F88060 		ldr	r6, [r0, #128]
 594 00d4 6E61     		str	r6, [r5, #20]
 595              		.loc 1 71 0
 596 00d6 D0F88460 		ldr	r6, [r0, #132]
 597 00da 2E62     		str	r6, [r5, #32]
 598              		.loc 1 72 0
 599 00dc D0F88860 		ldr	r6, [r0, #136]
 600 00e0 6E62     		str	r6, [r5, #36]
 601              		.loc 1 73 0
 602 00e2 066F     		ldr	r6, [r0, #112]
 603 00e4 2E60     		str	r6, [r5]
 604              	.LVL6:
 605              	.LBE34:
ARM GAS  /tmp/ccZgMH2q.s 			page 35


 606              	.LBE48:
 607              	.LBB49:
 608              	.LBB37:
 609              		.loc 1 67 0
 610 00e6 D0F89050 		ldr	r5, [r0, #144]
 611 00ea 6560     		str	r5, [r4, #4]
 612              		.loc 1 68 0
 613 00ec D0F89450 		ldr	r5, [r0, #148]
 614 00f0 A560     		str	r5, [r4, #8]
 615              		.loc 1 69 0
 616 00f2 D0F89850 		ldr	r5, [r0, #152]
 617 00f6 E560     		str	r5, [r4, #12]
 618              		.loc 1 70 0
 619 00f8 D0F89C50 		ldr	r5, [r0, #156]
 620 00fc 6561     		str	r5, [r4, #20]
 621              		.loc 1 71 0
 622 00fe D0F8A050 		ldr	r5, [r0, #160]
 623 0102 2562     		str	r5, [r4, #32]
 624              		.loc 1 72 0
 625 0104 D0F8A450 		ldr	r5, [r0, #164]
 626 0108 6562     		str	r5, [r4, #36]
 627              		.loc 1 73 0
 628 010a D0F88C50 		ldr	r5, [r0, #140]
 629 010e 2560     		str	r5, [r4]
 630              	.LVL7:
 631              	.LBE37:
 632              	.LBE49:
 633              	.LBB50:
 634              	.LBB40:
 635              		.loc 1 67 0
 636 0110 D0F8AC40 		ldr	r4, [r0, #172]
 637 0114 4C60     		str	r4, [r1, #4]
 638              		.loc 1 68 0
 639 0116 D0F8B040 		ldr	r4, [r0, #176]
 640 011a 8C60     		str	r4, [r1, #8]
 641              		.loc 1 69 0
 642 011c D0F8B440 		ldr	r4, [r0, #180]
 643 0120 CC60     		str	r4, [r1, #12]
 644              		.loc 1 70 0
 645 0122 D0F8B840 		ldr	r4, [r0, #184]
 646 0126 4C61     		str	r4, [r1, #20]
 647              		.loc 1 71 0
 648 0128 D0F8BC40 		ldr	r4, [r0, #188]
 649 012c 0C62     		str	r4, [r1, #32]
 650              		.loc 1 72 0
 651 012e D0F8C040 		ldr	r4, [r0, #192]
 652 0132 4C62     		str	r4, [r1, #36]
 653              		.loc 1 73 0
 654 0134 D0F8A840 		ldr	r4, [r0, #168]
 655 0138 0C60     		str	r4, [r1]
 656              	.LVL8:
 657              	.LBE40:
 658              	.LBE50:
 659              	.LBB51:
 660              	.LBB43:
 661              		.loc 1 67 0
 662 013a D0F8C810 		ldr	r1, [r0, #200]
ARM GAS  /tmp/ccZgMH2q.s 			page 36


 663 013e 5160     		str	r1, [r2, #4]
 664              		.loc 1 68 0
 665 0140 D0F8CC10 		ldr	r1, [r0, #204]
 666 0144 9160     		str	r1, [r2, #8]
 667              		.loc 1 69 0
 668 0146 D0F8D010 		ldr	r1, [r0, #208]
 669 014a D160     		str	r1, [r2, #12]
 670              		.loc 1 70 0
 671 014c D0F8D410 		ldr	r1, [r0, #212]
 672 0150 5161     		str	r1, [r2, #20]
 673              		.loc 1 71 0
 674 0152 D0F8D810 		ldr	r1, [r0, #216]
 675 0156 1162     		str	r1, [r2, #32]
 676              		.loc 1 72 0
 677 0158 D0F8DC10 		ldr	r1, [r0, #220]
 678 015c 5162     		str	r1, [r2, #36]
 679              		.loc 1 73 0
 680 015e D0F8C410 		ldr	r1, [r0, #196]
 681 0162 1160     		str	r1, [r2]
 682              	.LVL9:
 683              	.LBE43:
 684              	.LBE51:
 685              	.LBB52:
 686              	.LBB53:
 687              		.loc 1 67 0
 688 0164 124B     		ldr	r3, .L2+24
 689 0166 D0F8E420 		ldr	r2, [r0, #228]
 690 016a 5A60     		str	r2, [r3, #4]
 691              		.loc 1 68 0
 692 016c D0F8E820 		ldr	r2, [r0, #232]
 693 0170 9A60     		str	r2, [r3, #8]
 694              		.loc 1 69 0
 695 0172 D0F8EC20 		ldr	r2, [r0, #236]
 696 0176 DA60     		str	r2, [r3, #12]
 697              		.loc 1 70 0
 698 0178 D0F8F020 		ldr	r2, [r0, #240]
 699 017c 5A61     		str	r2, [r3, #20]
 700              		.loc 1 71 0
 701 017e D0F8F420 		ldr	r2, [r0, #244]
 702 0182 1A62     		str	r2, [r3, #32]
 703              		.loc 1 72 0
 704 0184 D0F8F820 		ldr	r2, [r0, #248]
 705 0188 5A62     		str	r2, [r3, #36]
 706              		.loc 1 73 0
 707 018a D0F8E020 		ldr	r2, [r0, #224]
 708 018e 1A60     		str	r2, [r3]
 709              	.LBE53:
 710              	.LBE52:
 711              		.loc 1 139 0
 712 0190 BDE8F00F 		pop	{r4, r5, r6, r7, r8, r9, r10, fp}
 713 0194 7047     		bx	lr
 714              	.L3:
 715 0196 00BF     		.align	2
 716              	.L2:
 717 0198 00080240 		.word	1073874944
 718 019c 000C0240 		.word	1073875968
 719 01a0 00100240 		.word	1073876992
ARM GAS  /tmp/ccZgMH2q.s 			page 37


 720 01a4 00140240 		.word	1073878016
 721 01a8 00180240 		.word	1073879040
 722 01ac 001C0240 		.word	1073880064
 723 01b0 00200240 		.word	1073881088
 724 01b4 00380240 		.word	1073887232
 725 01b8 00000240 		.word	1073872896
 726 01bc 00040240 		.word	1073873920
 727              		.cfi_endproc
 728              	.LFE261:
 729              		.size	_pal_lld_init, .-_pal_lld_init
 730              		.section	.text._pal_lld_setgroupmode,"ax",%progbits
 731              		.align	2
 732              		.p2align 4,,15
 733              		.global	_pal_lld_setgroupmode
 734              		.thumb
 735              		.thumb_func
 736              		.type	_pal_lld_setgroupmode, %function
 737              	_pal_lld_setgroupmode:
 738              	.LFB262:
 739              		.loc 1 157 0
 740              		.cfi_startproc
 741              		@ args = 0, pretend = 0, frame = 0
 742              		@ frame_needed = 0, uses_anonymous_args = 0
 743              		@ link register save eliminated.
 744              	.LVL10:
 745 0000 2DE9F00F 		push	{r4, r5, r6, r7, r8, r9, r10, fp}
 746              		.cfi_def_cfa_offset 32
 747              		.cfi_offset 4, -32
 748              		.cfi_offset 5, -28
 749              		.cfi_offset 6, -24
 750              		.cfi_offset 7, -20
 751              		.cfi_offset 8, -16
 752              		.cfi_offset 9, -12
 753              		.cfi_offset 10, -8
 754              		.cfi_offset 11, -4
 755              		.loc 1 164 0
 756 0004 0023     		movs	r3, #0
 757              		.loc 1 159 0
 758 0006 02F00307 		and	r7, r2, #3
 759              	.LVL11:
 760              		.loc 1 160 0
 761 000a C2F38006 		ubfx	r6, r2, #2, #1
 762              	.LVL12:
 763              		.loc 1 161 0
 764 000e C2F3C105 		ubfx	r5, r2, #3, #2
 765              	.LVL13:
 766              		.loc 1 162 0
 767 0012 C2F34114 		ubfx	r4, r2, #5, #2
 768              	.LVL14:
 769              	.LBB54:
 770              		.loc 1 170 0
 771 0016 4FF00F09 		mov	r9, #15
 772              	.LBE54:
 773              		.loc 1 163 0
 774 001a C2F3C312 		ubfx	r2, r2, #7, #4
 775              	.LVL15:
 776              	.LBB55:
ARM GAS  /tmp/ccZgMH2q.s 			page 38


 777              		.loc 1 175 0
 778 001e 4FF0010A 		mov	r10, #1
 779 0022 38E0     		b	.L9
 780              	.LVL16:
 781              	.L14:
 782              		.loc 1 172 0
 783 0024 D0F820B0 		ldr	fp, [r0, #32]
 784 0028 2BEA0C0C 		bic	ip, fp, ip
 785              	.LVL17:
 786 002c 4CEA0808 		orr	r8, ip, r8
 787              	.LVL18:
 788 0030 C0F82080 		str	r8, [r0, #32]
 789              	.L7:
 790              	.LVL19:
 791              		.loc 1 176 0
 792 0034 D0F804C0 		ldr	ip, [r0, #4]
 793              		.loc 1 175 0
 794 0038 0AFA03F8 		lsl	r8, r10, r3
 795              		.loc 1 176 0
 796 003c 2CEA080C 		bic	ip, ip, r8
 797 0040 4CEA060C 		orr	ip, ip, r6
 798 0044 C0F804C0 		str	ip, [r0, #4]
 799              	.LVL20:
 800              		.loc 1 177 0
 801 0048 4FF0030B 		mov	fp, #3
 802 004c 4FEA430C 		lsl	ip, r3, #1
 803              		.loc 1 178 0
 804 0050 D0F80880 		ldr	r8, [r0, #8]
 805              		.loc 1 177 0
 806 0054 0BFA0CFC 		lsl	ip, fp, ip
 807              	.LVL21:
 808              		.loc 1 178 0
 809 0058 6FEA0C0C 		mvn	ip, ip
 810              	.LVL22:
 811 005c 0CEA0808 		and	r8, ip, r8
 812 0060 48EA0508 		orr	r8, r8, r5
 813 0064 C0F80880 		str	r8, [r0, #8]
 814              		.loc 1 179 0
 815 0068 D0F80C80 		ldr	r8, [r0, #12]
 816 006c 0CEA0808 		and	r8, ip, r8
 817 0070 48EA0408 		orr	r8, r8, r4
 818 0074 C0F80C80 		str	r8, [r0, #12]
 819              		.loc 1 180 0
 820 0078 D0F80080 		ldr	r8, [r0]
 821 007c 0CEA080C 		and	ip, ip, r8
 822              	.LVL23:
 823 0080 4CEA070C 		orr	ip, ip, r7
 824 0084 C0F800C0 		str	ip, [r0]
 825              	.LVL24:
 826              	.L5:
 827              	.LBE55:
 828              		.loc 1 183 0
 829 0088 4908     		lsrs	r1, r1, #1
 830              	.LVL25:
 831 008a 1AD0     		beq	.L4
 832              		.loc 1 185 0
 833 008c 7600     		lsls	r6, r6, #1
ARM GAS  /tmp/ccZgMH2q.s 			page 39


 834              	.LVL26:
 835              		.loc 1 186 0
 836 008e AD00     		lsls	r5, r5, #2
 837              	.LVL27:
 838              		.loc 1 187 0
 839 0090 A400     		lsls	r4, r4, #2
 840              	.LVL28:
 841              		.loc 1 188 0
 842 0092 BF00     		lsls	r7, r7, #2
 843              	.LVL29:
 844              		.loc 1 189 0
 845 0094 0133     		adds	r3, r3, #1
 846              	.LVL30:
 847              	.L9:
 848              	.LBB56:
 849              		.loc 1 169 0
 850 0096 03F0070C 		and	ip, r3, #7
 851 009a 4FEA8C0C 		lsl	ip, ip, #2
 852              	.LBE56:
 853              		.loc 1 166 0
 854 009e 11F0010F 		tst	r1, #1
 855              	.LBB57:
 856              		.loc 1 169 0
 857 00a2 02FA0CF8 		lsl	r8, r2, ip
 858              	.LVL31:
 859              		.loc 1 170 0
 860 00a6 09FA0CFC 		lsl	ip, r9, ip
 861              	.LVL32:
 862              	.LBE57:
 863              		.loc 1 166 0
 864 00aa EDD0     		beq	.L5
 865              	.LBB58:
 866              		.loc 1 171 0
 867 00ac 072B     		cmp	r3, #7
 868 00ae B9D9     		bls	.L14
 869              		.loc 1 174 0
 870 00b0 D0F824B0 		ldr	fp, [r0, #36]
 871 00b4 2BEA0C0C 		bic	ip, fp, ip
 872              	.LVL33:
 873 00b8 4CEA0808 		orr	r8, ip, r8
 874              	.LVL34:
 875 00bc C0F82480 		str	r8, [r0, #36]
 876 00c0 B8E7     		b	.L7
 877              	.L4:
 878              	.LBE58:
 879              		.loc 1 191 0
 880 00c2 BDE8F00F 		pop	{r4, r5, r6, r7, r8, r9, r10, fp}
 881              	.LVL35:
 882 00c6 7047     		bx	lr
 883              		.cfi_endproc
 884              	.LFE262:
 885              		.size	_pal_lld_setgroupmode, .-_pal_lld_setgroupmode
 886              		.text
 887              	.Letext0:
 888              		.file 2 "/usr/include/newlib/machine/_default_types.h"
 889              		.file 3 "/usr/include/newlib/sys/_stdint.h"
 890              		.file 4 "/usr/src/chibios/os/rt/ports/ARMCMx/compilers/GCC/chtypes.h"
ARM GAS  /tmp/ccZgMH2q.s 			page 40


 891              		.file 5 "/usr/src/chibios/os/rt/include/chsystypes.h"
 892              		.file 6 "/usr/src/chibios/os/rt/include/chschd.h"
 893              		.file 7 "/usr/src/chibios/os/ext/CMSIS/ST/stm32f407xx.h"
 894              		.file 8 "/usr/src/chibios/os/rt/ports/ARMCMx/chcore.h"
 895              		.file 9 "/usr/src/chibios/os/rt/ports/ARMCMx/chcore_v7m.h"
 896              		.file 10 "/usr/src/chibios/os/rt/include/chtm.h"
 897              		.file 11 "/usr/src/chibios/os/rt/include/chsem.h"
 898              		.file 12 "/usr/src/chibios/os/rt/include/chmtx.h"
 899              		.file 13 "/usr/src/chibios/os/hal/ports/STM32/LLD/GPIOv2/pal_lld.h"
 900              		.file 14 "/usr/src/chibios/os/ext/CMSIS/include/core_cm4.h"