ARM GAS  /tmp/ccZgMH2q.s 			page 1


   1              		.syntax unified
   2              		.cpu cortex-m4
   3              		.fpu softvfp
   4              		.eabi_attribute 20, 1
   5              		.eabi_attribute 21, 1
   6              		.eabi_attribute 23, 3
   7              		.eabi_attribute 24, 1
   8              		.eabi_attribute 25, 1
   9              		.eabi_attribute 26, 1
  10              		.eabi_attribute 30, 2
  11              		.eabi_attribute 34, 1
  12              		.eabi_attribute 18, 4
  13              		.thumb
  14              		.file	"pal_lld.c"
  15              		.text
  16              	.Ltext0:
  17              		.section	.gnu.lto_.jmpfuncs.e6f647ec4480b524,"",%progbits
  18 0000 789C6362 		.ascii	"x\234cb`b\300\006\330\2404\023\003##;\003\000\001/\000"
  18      6062C006 
  18      D8A03413 
  18      0323233B 
  18      0300012F 
  19 0015 16       		.ascii	"\026"
  20              		.text
  21              		.section	.gnu.lto_.inline.e6f647ec4480b524,"",%progbits
  22 0000 789C6362 		.ascii	"x\234cb`b\300\006vBi\240l;c\033##;\003#\003\003\263"
  22      6062C006 
  22      764269A0 
  22      6C3B631B 
  22      23233B03 
  23 0018 02987400 		.ascii	"\002\230t\000\223\011`\262\201\021L-\200P\007 \024\203"
  23      930960B2 
  23      81114C2D 
  23      80500720 
  23      1483
  24 002a C021C60B 		.ascii	"\300!\306\013\257\271\031\354\036\\afb`|\301\316\002"
  24      AFB919EC 
  24      1E5C6166 
  24      62607CC1 
  24      CE02
  25 003c 21410407 		.ascii	"!A\004\007\230\311\001\"\004\300L\001\020\241\000f*"
  25      98C90122 
  25      04C04C01 
  25      10A10066 
  25      2A
  26 004d 80080730 		.ascii	"\200\010\0070\323\001D402A(0\311\004\341\200\335\313"
  26      D3014434 
  26      30324128 
  26      30C904E1 
  26      80DDCB
  27 0060 C860B389 		.ascii	"\310`\263\211\211\221\221\011h\033\003sH\313y\005\006"
  27      89919109 
  27      681B0373 
  27      48CB7905 
  27      06
  28 0071 A1391781 		.ascii	"\2419\027\201v\011]\350ad\001;\034\000j\333\037\011"
  28      76095DE8 
ARM GAS  /tmp/ccZgMH2q.s 			page 2


  28      6164013B 
  28      1C006ADB 
  28      1F09
  29              		.text
  30              		.section	.gnu.lto_.pureconst.e6f647ec4480b524,"",%progbits
  31 0000 789C6362 		.ascii	"x\234cb`b`e\200\000&\006)F)\000\001\006\000A"
  31      60626065 
  31      80002606 
  31      29462900 
  31      01060041 
  32              		.text
  33              		.section	.gnu.lto__pal_lld_init.e6f647ec4480b524,"",%progbits
  34 0000 789CB5DA 		.ascii	"x\234\265\332_L\225u\034\307\361\337\3579\377\377\237"
  34      5F4C9575 
  34      1CC7F1DF 
  34      EF39FFFF 
  34      9F
  35 0011 E4BF8022 		.ascii	"\344\277\200\"\212\377P\216\200\177\300\377\"\012(\010"
  35      8AFF508E 
  35      807FC0FF 
  35      220A2808 
  36 0021 5BB4D5BA 		.ascii	"[\264\325\272hH\353x6\010&\351M\027>\250sl6;sma\336"
  36      6848EB78 
  36      360826E9 
  36      4D173EA8 
  36      736C363B 
  37 0039 E82AA5B6 		.ascii	"\350*\245\266\324\352\206\346\237\230s%6\035\225n\315"
  37      D4EA86E6 
  37      9F987325 
  37      361D956E 
  37      CD
  38 004a 8BC25CB5 		.ascii	"\213\302\\\265\226\233\336\244\344\346\350\371>\337"
  38      969BDEA4 
  38      E4E6E8F9 
  38      3EDF
  39 0058 03CFF7B8 		.ascii	"\003\317\367\270\3479\277\343\316\017V\037 \345\307"
  39      E739BFE3 
  39      CE0F561F 
  39      20E5C7
  40 0067 8BF37B78 		.ascii	"\213\363{x_\2450\205=\377V\240\375\373\372r\306\032"
  40      5FA53085 
  40      3DFF56A0 
  40      FDFBFA72 
  40      C61A
  41 0079 B5F7DCC6 		.ascii	"\265\367\334\306\270\022\277\305X\277[\341\034>`\234"
  41      B812BFC5 
  41      58BF5BE1 
  41      1C3E609C 
  42 0089 1D50F881 		.ascii	"\035P\370\201\327\270\376w\317+#\343\223\223\347&\276"
  42      D7B8FE77 
  42      CF2B23E3 
  42      9393E726 
  42      BE
  43 009a 3B77897F 		.ascii	";w\211\177\246\304\271\302b\234\331`\0340N\0307\357"
  43      A6C4B9C2 
  43      629CD960 
  43      1C304E18 
ARM GAS  /tmp/ccZgMH2q.s 			page 3


  43      37EF
  44 00ac E66C167C 		.ascii	"\346l\026|\224\005\223\015\223\003\223\013\223\007\223"
  44      9405930D 
  44      9303930B 
  44      930793
  45 00bb 0F530033 		.ascii	"\017S\0003\033\246\020\246\010\246\030f\016\314\\\230"
  45      1BA610A6 
  45      08A61866 
  45      0ECC5C98 
  46 00cb 12987930 		.ascii	"\022\230y0\2450\363a\026\300\224\301,\204Y\004\263\030"
  46      A530F361 
  46      16C094C1 
  46      2C845904 
  46      B318
  47 00dd 6609CC52 		.ascii	"f\011\314R\230r\230e0\313a*`\"0+`*a\252`\252aV\302\254"
  47      98729865 
  47      30CB612A 
  47      6022302B 
  47      602A61AA 
  48 00f7 82590DB3 		.ascii	"\202Y\015\263\006\246\006\246\026f-\314:\230\3650\033"
  48      06A606A6 
  48      16662DCC 
  48      3A98F530 
  48      1B
  49 0108 6036C26C 		.ascii	"`6\302l\202\331\014\263\005\246\016f+L=\3146\230\355"
  49      82D90CB3 
  49      05A60E66 
  49      2B4C3DCC 
  49      3698ED
  50 011b 300D308D 		.ascii	"0\0150\2150M0;`v\3024\303\264\300\354\202i\205i\203"
  50      304D303B 
  50      6076C234 
  50      C3B4C0EC 
  50      82698569 
  51 0130 D1DE1CEC 		.ascii	"\321\336\034\354\260\252\306K\030\353\324?m\327\026"
  51      B0AAC64B 
  51      18EBD43F 
  51      6DD716
  52 013f EEE215ED 		.ascii	"\356\342\025\355\365\326\336\333n\262\253w\207\037\217"
  52      F5D6DEDB 
  52      6EB2AB77 
  52      871F8F
  53 014e 291DFC34 		.ascii	")\035\3744w\260(W\312\331\347\352\341\376p\214\363\223"
  53      77B02857 
  53      CAD9E7EA 
  53      E1FE708C 
  53      F393
  54 0160 EC231EE3 		.ascii	"\354#\036\343\312\253\332\330\324G\003\252\235\351\037"
  54      CAABDAD8 
  54      D44703AA 
  54      9DE91F
  55 016f EA97B79B 		.ascii	"\352\227\267\233O]\371Mv\350\033\333\324W\333\242\370"
  55      4F5DF94D 
  55      76E81BDB 
  55      D457DBA2 
  55      F8
  56 0180 F7D9A44D 		.ascii	"\367\331\244M\377\243\253M\370'/vh\024>\007\330\365"
ARM GAS  /tmp/ccZgMH2q.s 			page 4


  56      FFA3AB4D 
  56      F8272F76 
  56      68143E07 
  56      D8F5
  57 0192 FD53073B 		.ascii	"\375S\007;\322=\201\233\261\234\332\001\231\260x\202"
  57      D23D819B 
  57      B19CDA01 
  57      99B07882 
  58 01a2 E5646C94 		.ascii	"\345dl\224\035\034\377\373\276\023\277\276\233\363w"
  58      1D1CFFFB 
  58      BE13BFBE 
  58      9BF377
  59 01b1 D953553B 		.ascii	"\331SU;\300\016G\305Uu_\214;\360,\355{\272\341\014W"
  59      C00E47C5 
  59      55755F8C 
  59      3BF02CED 
  59      7BBAE10C 
  60 01c6 E20CFC65 		.ascii	"\342\014\374e\301\257c\3729#\205\370Y);\255\252\307"
  60      C1AF63FA 
  60      392385F8 
  60      59293BAD 
  60      AAC7
  61 01d8 47FE3BF2 		.ascii	"G\376;\362\003W\217\253\375\217&'C1\356V\330z\016w\006"
  61      03578FAB 
  61      FD8F2627 
  61      4331EE56 
  61      D87A0E77 
  62 01ed 67784AF4 		.ascii	"gxJ\364w^{\362o\033\3747\267\252\202\3669\230\351\221"
  62      775E7BF2 
  62      6F1BFC37 
  62      B7AA82F6 
  62      3998E991 
  63 0201 7685D589 		.ascii	"v\205\325\211\216\354\206\237\365&;xw\342\3671\333\364"
  63      8EEC869F 
  63      F5263B78 
  63      77E2F731 
  63      DBF4
  64 0213 A3831FA8 		.ascii	"\243\203\037\250g\337\327\304\347y\251\366S|\241\355"
  64      67DFD7C4 
  64      E779A9F6 
  64      537CA1ED 
  65 0223 D44FD389 		.ascii	"\324O\323\211\257O\224\317\302\027a\344\303#\3051\356"
  65      AF4F94CF 
  65      C21761E4 
  65      C323C531 
  65      EE
  66 0234 D35E867E 		.ascii	"\323^\206~\025^\033\177\342\225\260'^\011\033|\341W"
  66      155E1B7F 
  66      E295B027 
  66      5E091B7C 
  66      E157
  67 0246 F8326877 		.ascii	"\3702hw1:\346\355\340_N\337\206Z\211\327\321\037\207"
  67      313AE6ED 
  67      E05F4EDF 
  67      865A89D7 
  67      D11F87
  68 0259 AF0D909F 		.ascii	"\257\015\220\237Q\3770q\206}\372\014\355\333\242x\360"
ARM GAS  /tmp/ccZgMH2q.s 			page 5


  68      51FF3071 
  68      867DFA0C 
  68      EDDBA278 
  68      F0
  69 026a FE980D0F 		.ascii	"\376\230\015\017\212\362,8+\234\012\341\220\200p\022"
  69      8AF22C38 
  69      2B9C0AE1 
  69      90807012 
  70 027a 44162286 		.ascii	"D\026\"\206\011\"[\210pI@\270\011\"\033\021\277\020"
  70      09225B88 
  70      704940B8 
  70      09221B11 
  70      BF10
  71 028c 448E10E1 		.ascii	"D\216\020\341\221\200\360\022DN\342\001\"\210\\!\302"
  71      9180F012 
  71      444EE201 
  71      22885C21 
  71      C2
  72 029d 2701E127 		.ascii	"'\001\341'\210\334\3043\361\247\201\310\023\"\002\022"
  72      88DCC433 
  72      F1A781C8 
  72      13220212 
  73 02ad 104182C8 		.ascii	"\020A\202\310K<\023\004\221/D\204$ \302\004\221\217"
  73      4B3C1304 
  73      912F4484 
  73      2420C204 
  73      918F
  74 02bf 69786034 		.ascii	"ix`4KI\273Y/\275`\263:\3709\255s\351Dk\300\210\326\203"
  74      4B49BB59 
  74      2FBD60B3 
  74      3AF839AD 
  74      73E9446B 
  75 02d7 D4D1EAE0 		.ascii	"\324\321\352\340\027\204gvC]\255\252\3655T\353g\275"
  75      17846776 
  75      435DADAA 
  75      F53554EB 
  75      67BD
  76 02e9 5A3F9955 		.ascii	"Z?\231U\253@P\255\"R\255;\311\367r;\365\275\014\230"
  76      AB4050AD 
  76      2252AD3B 
  76      C9F7723B 
  76      F5BD0C98 
  77 02fd 56EB0EDE 		.ascii	"V\353\016\336K\001\255\326m\375\341\230m\375p\024\221"
  77      4B01ADD6 
  77      6DFDE198 
  77      6DFD7014 
  77      91
  78 030e 6A658870 		.ascii	"je\210p\022\304lZ-D\024\012\021.\011\0107A\024\322j"
  78      12C46C5A 
  78      2D44140A 
  78      112E0908 
  78      374114D2 
  79 0323 21A24888 		.ascii	"!\242H\210\360H@x\011\242\210V\013\021\305B\204O\002"
  79      F0484078 
  79      09A28856 
  79      0B11C542 
  79      844F02
ARM GAS  /tmp/ccZgMH2q.s 			page 6


  80 0336 C24F10C5 		.ascii	"\302O\020\305\264Z\210\230#D\004$ \202\0041\207V\013"
  80      B45A8898 
  80      23440424 
  80      20820431 
  80      87560B
  81 0349 11738588 		.ascii	"\021s\205\210\220\004D\230 \346b\033\036\032\325\262"
  81      90044498 
  81      20E6621B 
  81      1E1AD5B2 
  82 0359 A55DAD59 		.ascii	"\245]\255Y3V\255\270Q\255\2072\252e\263\256\326\267"
  82      3356ADB8 
  82      51AD8732 
  82      AA65B3AE 
  82      D6B7
  83 036b 50ADC77A 		.ascii	"P\255\307z\265\3765\253V\211\240Z5\244Z\023\311\367"
  83      B5FE35AB 
  83      5689A05A 
  83      35A45A13 
  83      C9F7
  84 037d F224F5BD 		.ascii	"\362$\365\275\304M\2535\201\367RB\253\365D\1778\346"
  84      C44DAB35 
  84      81F75242 
  84      ABF5447F 
  84      38E6
  85 038f 593F1C35 		.ascii	"Y?\0345\244Z\031\"\234\0041\217V\013\021\245B\204K\002"
  85      A45A1922 
  85      9C04318F 
  85      560B11A5 
  85      42844B02 
  86 03a3 C24D10A5 		.ascii	"\302M\020\245\264Z\210\230/Dx$ \274\0041\237V\013\021"
  86      B45A8898 
  86      2F447824 
  86      20BC0431 
  86      9F560B11 
  87 03b7 0B84089F 		.ascii	"\013\204\010\237\004\204\237 \026\320j!\242L\210\010"
  87      04849F20 
  87      16D06A21 
  87      A24C8808 
  88 03c7 48400409 		.ascii	"H@\004\011\242\214V\013\021\013\205\210\220\004D\230"
  88      A28C560B 
  88      110B8588 
  88      90044498 
  89 03d7 2016621B 		.ascii	" \026b\033\236\032\325\262\247]\255\254\031\253\326"
  89      9E1AD5B2 
  89      A75DADAC 
  89      19ABD6
  90 03e6 A051ADA7 		.ascii	"\240Q\255\2472\252e\267\256\326?P\255\023\012TkP1\251"
  90      32AA65B7 
  90      AED63F50 
  90      AD130A54 
  90      6B5031A9 
  91 03fa D62241B5 		.ascii	"\326\"A\265\332I\265N*I\367\362\221\222\362^\006M\253"
  91      DA49B54E 
  91      2A49F7F2 
  91      9192F25E 
  91      064DAB
  92 040d A59FA17D 		.ascii	"\245\237\241}[Z-8(\312\027[?\034\355\244Z\031\"\234"
ARM GAS  /tmp/ccZgMH2q.s 			page 7


  92      5B5A2D38 
  92      28CA175B 
  92      3F1CEDA4 
  92      5A19229C 
  93 0421 04B19856 		.ascii	"\004\261\230V\013\021K\204\010\227\004\204\233 \226"
  93      0B114B84 
  93      08970484 
  93      9B2096
  94 0430 D06A2162 		.ascii	"\320j!b\251\020\341\221\200\360\022\304RZ-D\224\013"
  94      A910E191 
  94      80F012C4 
  94      525A2D44 
  94      940B
  95 0442 113E0908 		.ascii	"\021>\011\010?A\224\323j!b\231\020\021\220\200\010\022"
  95      3F4194D3 
  95      6A216299 
  95      10119080 
  95      0812
  96 0454 C4325A2D 		.ascii	"\3042Z-D,\027\"B\022\020a\202X\216mxfT\313\221v\265"
  96      442C1722 
  96      42121061 
  96      82588E6D 
  96      786654CB 
  97 046b B267AC5A 		.ascii	"\262g\254Z\247\214j=\223Q-\207u\265\236@\265.\351\325"
  97      A78C6A3D 
  97      93512D87 
  97      75B59E40 
  97      B52EE9D5 
  98 047f BA6856AD 		.ascii	"\272hV\255\012A\265zI\265\256$\337\313\345\324\367r"
  98      0A41B57A 
  98      49B5AE24 
  98      DFCBE5D4 
  98      F772
  99 0491 CAB45A57 		.ascii	"\312\264ZW\360^*h\265.\353\017G\304\372\341\350%\325"
  99      F05E2A68 
  99      B52EEB0F 
  99      47C4FAE1 
  99      E825D5
 100 04a4 CA10E124 		.ascii	"\312\020\341$\210\010\255\026\"V\010\021.\011\0107A"
 100      8808AD16 
 100      22560811 
 100      2E090837 
 100      41
 101 04b5 ACA0D542 		.ascii	"\254\240\325BD\245\020\341\221\200\360\022D%\255\026"
 101      44A510E1 
 101      9180F012 
 101      4425AD16 
 102 04c5 22AA8408 		.ascii	"\"\252\204\010\237\004\204\237 \252h\265\020Q-D\004"
 102      9F04849F 
 102      20AA68B5 
 102      10512D44 
 102      04
 103 04d6 24208204 		.ascii	"$ \202\004QM\253\205\210\225BDH\002\"L\020+\261\015"
 103      514DAB85 
 103      88954244 
 103      4802224C 
 103      102BB10D 
ARM GAS  /tmp/ccZgMH2q.s 			page 8


 104 04ea 037F4C57 		.ascii	"\003\177LW\313\231v\265rf\254ZCF\265\246e\231T\313i"
 104      CB9976B5 
 104      7266AC5A 
 104      4346B5A6 
 104      659954CB 
 105 04ff 5DAD8F3F 		.ascii	"]\255\217?\320\314\277\351\325\372\325\254Z\253\004"
 105      D0CCBFE9 
 105      D5FAD5AC 
 105      5AAB04
 106 050e D57A8F93 		.ascii	"\325z\217\223l\335K\276\230\361\324\0273d\232\255{x"
 106      6CDD4BBE 
 106      98F1D417 
 106      33649AAD 
 106      7B78
 107 0520 31AB68B6 		.ascii	"1\253h\266\306\365\247c\265\365\3231\245pHP8\211b5\355"
 107      C6F5A763 
 107      B5F5D331 
 107      A5704850 
 107      38896235 
 108 0535 162AD688 		.ascii	"\026*\326\210\025.\011\0127Q\254\241\341BE\215X\341"
 108      152E090A 
 108      3751ACA1 
 108      E142458D 
 108      58E1
 109 0547 91A0F012 		.ascii	"\221\240\360\022E\015-\027*j\305\012\237\004\205\237"
 109      450D2D17 
 109      2A6AC50A 
 109      9F04859F 
 110 0557 286A69BA 		.ascii	"(ji\272P\261V\254\010HP\004\211b-m\027*\326\211\025"
 110      50B156AC 
 110      08485004 
 110      89622D6D 
 110      172AD689 
 111 056c 21098A30 		.ascii	"!\011\2120Q\254\303D\0345\342\345J;^\2713\026\257\013"
 111      51ACC344 
 111      1C35E2E5 
 111      4A3B5EB9 
 111      3316AF0B 
 112 0580 46BC8ECA 		.ascii	"F\274\216\312\210\227\313:^\347!^\007m\020\257~\233"
 112      8897CB3A 
 112      5EE7215E 
 112      076D10AF 
 112      7E9B
 113 0592 49BCD60B 		.ascii	"I\274\326\013\3425D\343u\330\226t1\207l)/\346\202i\274"
 113      E23544E3 
 113      75D89674 
 113      31876C29 
 113      2FE68269 
 114 05a7 F433B4EF 		.ascii	"\3643\264\357K\343\005\007E\371\006\353\307c\210\306"
 114      4BE30507 
 114      45F906EB 
 114      C76388C6 
 115 05b7 2B438593 		.ascii	"+C\205\223(6\320x\241b\243X\341\222\240p\023\305F\032"
 115      2836D078 
 115      A162A358 
 115      E192A070 
 115      13C5461A 
ARM GAS  /tmp/ccZgMH2q.s 			page 9


 116 05cb 2F546C12 		.ascii	"/Tl\022+<\022\024^\242\330D\343\205\212\315b\205O\202"
 116      2B3C1214 
 116      5EA2D844 
 116      E3858ACD 
 116      62854F82 
 117 05df C24F149B 		.ascii	"\302O\024\233i\274P\261E\254\010HP\004\211b\013\215"
 117      69BC50B1 
 117      45AC0848 
 117      50048962 
 117      0B8D
 118 05f1 172AEAC4 		.ascii	"\027*\352\304\212\220\004E\230(\3520\021\307\214x\271"
 118      8A900445 
 118      9828EA30 
 118      11C78C78 
 118      B9
 119 0602 D38E57DE 		.ascii	"\323\216W\336\214\305k\330\210\3271\031\361r[\307\353"
 119      8CC56BD8 
 119      88D73119 
 119      F1725BC7 
 119      EB
 120 0613 22C4EB53 		.ascii	"\"\304\353S=^\237\230\305k\253 ^\327h\274\316&_\314"
 120      3D5E9F98 
 120      C56BAB20 
 120      5ED768BC 
 120      CE265FCC 
 121 0627 99D41733 		.ascii	"\231\324\0273l\032\257\263x1[i\274\316\350\217G\275"
 121      6C1AAFB3 
 121      78315B69 
 121      BCCEE88F 
 121      47BD
 122 0639 F5E3718D 		.ascii	"\365\343q\215\306+C\205\223(\352i\274P\261M\254pIP\270"
 122      C62B4385 
 122      9328EA69 
 122      BC50B14D 
 122      AC704950 
 123 064e 89621B8D 		.ascii	"\211b\033\215\027*\266\213\025\036\011\012/Ql\247\361"
 123      172AB68B 
 123      151E090A 
 123      2F516CA7 
 123      F1
 124 065f 42458358 		.ascii	"BE\203X\341\223\240\360\023E\003\215\027*\032\305\212"
 124      E193A0F0 
 124      1345038D 
 124      172A1AC5 
 124      8A
 125 0670 80044590 		.ascii	"\200\004E\220(\032i\274P\321$V\204$(\302D\321\204\211"
 125      281A69BC 
 125      50D12456 
 125      842428C2 
 125      44D18489 
 126 0684 3861C4CB 		.ascii	"8a\304\313\223v\274\362g,^#F\274N\310\210\227\307:^"
 126      9376BCF2 
 126      672C5E23 
 126      46BC4EC8 
 126      8897C73A 
 127 0699 7F41BCAE 		.ascii	"\177A\274\256\353\361\372\336,^;\004\361\032\247\361"
 127      EBF1FADE 
ARM GAS  /tmp/ccZgMH2q.s 			page 10


 127      2C5E3B04 
 127      F11AA7F1 
 128 06a9 BA917C31 		.ascii	"\272\221|1\243\251/f\3044^7\360bv\320x\215\352\217\307"
 128      A3A92F66 
 128      C4345E37 
 128      F06276D0 
 128      788DEA8F 
 129 06be 4EEBC763 		.ascii	"N\353\307c\234\306+C\205\223(v\322x\241\242Y\254pIP"
 129      9CC62B43 
 129      85932876 
 129      D278A1A2 
 129      59AC7049 
 130 06d3 B889A299 		.ascii	"\270\211\242\231\306\013\025-b\205G\202\302K\024-4^"
 130      C60B152D 
 130      62854782 
 130      C24B142D 
 130      345E
 131 06e5 A8D82556 		.ascii	"\250\330%V\370$(\374D\261\213\306\013\025\255bE@\202"
 131      F82428FC 
 131      44B18BC6 
 131      0B15AD62 
 131      454082
 132 06f8 224814AD 		.ascii	"\"H\024\2554^\250h\023+B\022\024a\242hc\354G\326?~\262"
 132      345EA868 
 132      132B4212 
 132      1461A268 
 132      63EC47D6 
 133 070f 6CBA41FA 		.ascii	"l\272A\372[\273\366\273\033\277\245\377\357\330\265"
 133      5BBBF6BB 
 133      1BBFA5FF 
 133      EFD8B5
 134 071e 917D7D7B 		.ascii	"\221}}{#}{;#\235{b\273c=}\021\355\237=\035]\221\336"
 134      237D7B3B 
 134      239D7B62 
 134      BB633D7D 
 134      11ED9F3D 
 135 0736 9EBDEFF4 		.ascii	"\236\275\357\364E^no\251\256\21247\327G\032\332\232"
 135      455E6E6F 
 135      A9AE8A34 
 135      37D7471A 
 135      DA9A
 136 0748 5AF75745 		.ascii	"Z\367WEz;\272\336\350\352z\263\242\2239\242\275\261"
 136      7A3BBADE 
 136      E8EA7AB3 
 136      A29339A2 
 136      BDB1
 137 075a 9E5E6767 		.ascii	"\236^gg\317\333o\305\242\377\003/\333\313\216"
 137      CFDB6FC5 
 137      A2FF032F 
 137      DBCB8E
 138              		.text
 139              		.section	.gnu.lto__pal_lld_setgroupmode.e6f647ec4480b524,"",%progbits
 140 0000 789C9557 		.ascii	"x\234\225W[hTW\024=\347\334{\347\225h\324\210&1j|\277"
 140      5B685457 
 140      143DE7DC 
 140      7BE79568 
 140      D4882631 
ARM GAS  /tmp/ccZgMH2q.s 			page 11


 141 0017 33265143 		.ascii	"3&QC\2141\344\251\005\213\205*\325\217\242yuL\233!\303"
 141      8C31E4A9 
 141      058B852A 
 141      D58FA279 
 141      754C9B21 
 142 002c 24B6D81F 		.ascii	"$\266\330\037'N>\202J\011\022\023\333~T+\022|5\265\342"
 142      274E3E82 
 142      4A091213 
 142      DB7E542B 
 142      127C35B5 
 143 0041 A346248A 		.ascii	"\243F$\212P\245\266\320/\035\261\304\012\352G\305b\241"
 143      50A5B6D0 
 143      2F1DB1C4 
 143      0AEA47C5 
 143      62A1
 144 0053 AD1FB6D3 		.ascii	"\255\037\266\323\275\3679\347\316#\201\231\014\272\317"
 144      BDF739E7 
 144      CE238199 
 144      0CBACF
 145 0062 3D7BEFB5 		.ascii	"={\357\265\356>\353\274n\004\023,\371\267\017\376WL"
 145      EE3EEBBC 
 145      6E04132C 
 145      F9B70FFE 
 145      574C
 146 0074 66EC1368 		.ascii	"f\354\023hy\006\343\242\367g\306\272\\\202\033\362\301"
 146      7906E3A2 
 146      F767C6BA 
 146      5C821BF2 
 146      C1
 147 0085 1066CF12 		.ascii	"\020f\317\022\026\362\270\320f\232\302\242\236\203z"
 147      16F2B8D0 
 147      669AC2A2 
 147      9E837A
 148 0094 1677CA24 		.ascii	"\026w\312$\207~pr\227|p\011O\267\023\022\335\207\177"
 148      877E7072 
 148      977C7009 
 148      4FB71312 
 148      DD877F
 149 00a7 6090E996 		.ascii	"`\220\351\226t7]\036\316\361\201q\266_\030\246\345p"
 149      74375D1E 
 149      CEF18171 
 149      B65F18A6 
 149      E570
 150 00b9 BADC1EBE 		.ascii	"\272\334\036\276\177'\307R2\346\263\023\241P\357\343"
 150      7F27C752 
 150      32E6B313 
 150      A150EFE3 
 151 00c9 A7575EF1 		.ascii	"\247W^\361\317\373F\272\217\207\336D\243\234\267r({"
 151      CFFB46BA 
 151      8F87DE44 
 151      A39CB772 
 151      287B
 152 00db 03674D9C 		.ascii	"\003gM\234\355\200\016/\240F\230\211\343 \354\221\221"
 152      ED800E2F 
 152      A0469889 
 152      E320EC91 
 152      91
ARM GAS  /tmp/ccZgMH2q.s 			page 12


 153 00ec E8C1CF72 		.ascii	"\350\301\317rC\307\017\364\206\376\003h+7\004\253N\023"
 153      43C70FF4 
 153      86FE0368 
 153      2B3704AB 
 153      4E13
 154 00fe D9FB6366 		.ascii	"\331\373cfoWO(\032\335O\260\315i\302\216$\302\266\246"
 154      6F574F28 
 154      1ADD4FB0 
 154      CD69C28E 
 154      24C2B6A6 
 155 0112 09EB4B84 		.ascii	"\011\353K\204\275\227&\254?\021\366~\232\260c\211\260"
 155      BD9726AC 
 155      3F11F67E 
 155      9AB06389 
 155      B0
 156 0123 C634615F 		.ascii	"\3064a_\035\352K\022\363\203\364\220\241\277\232\357"
 156      1DEA4B12 
 156      F383F490 
 156      A1BF9AEF 
 157 0133 84BA47A2 		.ascii	"\204\272G\242\321JB\265\247\211\3727\001\025L\023u\264"
 157      D14A42B5 
 157      A789FA37 
 157      01154C13 
 157      75B4
 158 0145 251EB537 		.ascii	"%\036\2657\025jH\214<\216F\037\335\177\361$\312\247"
 158      156A488C 
 158      3C8E461F 
 158      DD7FF124 
 158      CAA7
 159 0157 6DE2CC8F 		.ascii	"m\342\314\217\313\253\201\237\344\363\231\001\355)h"
 159      CBAB819F 
 159      E4F39901 
 159      ED2968
 160 0166 4D6807A1 		.ascii	"Mh\007\241\265\240=\015\255\003\332\363\320z\270\237"
 160      B5A03D0D 
 160      AD03DAF3 
 160      D07AB89F 
 161 0176 C31E91C9 		.ascii	"\303\036\221\311\231\254\225\233\223\024b2v\262\024"
 161      99AC959B 
 161      93146232 
 161      76B214
 162 0185 6C0A76A6 		.ascii	"l\012v\246*\3544\354dC\347,t\246\003\001\233\201\236"
 162      2AEC34EC 
 162      6443E72C 
 162      74A60301 
 162      9B819E
 163 0198 996872D0 		.ascii	"\231hr\320\344\202ay\2200\004\011\263\260\223\017\235"
 163      E4826179 
 163      90300409 
 163      B3B0930F 
 163      9D
 164 01a9 4BD0990D 		.ascii	"K\320\231\015\331b\016\346\314ES\200f\036\232\005h\026"
 164      D9620EE6 
 164      CC455380 
 164      661E9A05 
 164      6816
 165 01bb A2598466 		.ascii	"\242Y\204f1\232\245\000:\001\240e\310\260\034:\027\240"
ARM GAS  /tmp/ccZgMH2q.s 			page 13


 165      319AA500 
 165      3A01A065 
 165      C8B01C3A 
 165      17A0
 166 01cd B302232B 		.ascii	"\263\002#+\321\254BS\210f5\232\"\314*FS\002\251\027"
 166      D1AC4253 
 166      8866359A 
 166      22CC2A46 
 166      5302A917 
 167 01e1 21750DBA 		.ascii	"!u\015\272\327\242Y\207\246\024M\031\232\365h\312\321"
 167      D7A25987 
 167      A6144D19 
 167      9AF568CA 
 167      D1
 168 01f2 54A0D988 		.ascii	"T\240\331\210\246\022M\025JW\255\004\250Qc\257U\303"
 168      A6124D15 
 168      4A57AD04 
 168      A85163AF 
 168      55C3
 169 0204 AE532AD5 		.ascii	"\256S*\325+\351\340g\261n\330\335\005\322/Q\022#\021"
 169      2BE9E067 
 169      B16ED8DD 
 169      05D22F51 
 169      122311
 170 0217 52219DDD 		.ascii	"R!\235\335D'\3026\260p\214l\347\002\032\343'\026\036"
 170      4427C236 
 170      B0708C6C 
 170      E7021AE3 
 170      27161E
 171 022a 0E478FE6 		.ascii	"\016G\217\3467\360+\334b>\236\341\343\036\234a\323\200"
 171      37F02BDC 
 171      623E9EE1 
 171      E31E9C61 
 171      D380
 172 023c D4BB4C48 		.ascii	"\324\273LH\277\344\207(c\0048\331\277A\00325\000\227"
 172      BFE48728 
 172      630438D9 
 172      BF410332 
 172      350097
 173 024f 0404BF09 		.ascii	"\004\004\277\011\007uh\022Dw\310\243&\201\353\024qM"
 173      07756812 
 173      4477C8A3 
 173      2681EB14 
 173      714D
 174 0261 525C8331 		.ascii	"R\\\2031\256\311\232+g\014W\026D\211+\251\256A\342\312"
 174      AEC99A2B 
 174      670C5716 
 174      44892BA9 
 174      AE41E2CA 
 175 0275 525C6763 		.ascii	"R\\gc\\S4\327\3561\\S!J\\V\"\327i\342\232\252\270\206"
 175      5C5334D7 
 175      EE315C53 
 175      214A5C56 
 175      22D769E2 
 176 028d 625CD334 		.ascii	"b\\\3234W(k\014Y6\204\211\314\231Hv\226\310\262\321"
 176      57286B0C 
 176      59368489 
ARM GAS  /tmp/ccZgMH2q.s 			page 14


 176      CC994876 
 176      96C8B2D1 
 177 02a1 77E0F83D 		.ascii	"w\340\370=K\273q&0\335\320[g;<\302\351m@\232\213\251"
 177      4BBB7126 
 177      30DDD05B 
 177      673B3CC2 
 177      E96D409A 
 178 02b7 041F7710 		.ascii	"\004\037w\020\216\034\262*+\346\220C6c\016\251\247\021"
 178      8E1CB22A 
 178      2BE69043 
 178      36630EA9 
 178      A711
 179 02c9 73C8C912 		.ascii	"s\310\311\022\332\001K\312\307\271\032\326p\377\\]\372"
 179      DA014BCA 
 179      C7B91AD6 
 179      70FF5C5D 
 179      FA
 180 02da 0CF0D2B0 		.ascii	"\014\360\322\260p]\334a\335/\272\212\354\020\371c\033"
 180      705DDC61 
 180      DD2FBA8A 
 180      EC10F963 
 180      1B
 181 02eb 3CC2B88F 		.ascii	"<\302\270\217O\027`\252\334/~\335\023a\002\026\203x"
 181      4F1760AA 
 181      DC2F7EDD 
 181      13610216 
 181      8378
 182 02fd 733FE0E3 		.ascii	"s?\340\343u\356{\243m\021f\300\214\212\303\021pT\273"
 182      75EE7BA3 
 182      6D1166C0 
 182      8C8AC311 
 182      7054BB
 183 0310 FB764598 		.ascii	"\373vE\230\011\263\"\372v\372x\215\373\334hg\204Y\240"
 183      09B322FA 
 183      76FA788D 
 183      FBDC6867 
 183      8459A0
 184 0323 AC3887F1 		.ascii	"\2548\207\361Z\367u\0048\224\014\342\036:\353\335\217"
 184      5AF77504 
 184      38940CE2 
 184      1E3AEBDD 
 184      8F
 185 0334 4677A31A 		.ascii	"Fw\243\032&\353Y\"W\345\363\376\315\366\362\036\242"
 185      26EB5922 
 185      57E5F3FE 
 185      CDF6F21E 
 185      A2
 186 0345 657C81EC 		.ascii	"e|\201\354E\262\227hI\313z\341\347\3433A5\252\332)\347"
 186      45B29768 
 186      49CB7AE1 
 186      E7E33341 
 186      35AADA29 
 187 035a E860F832 		.ascii	"\350`\3702L\306U\032N\016\204\343\026\351\201\227\341"
 187      4CC6551A 
 187      4E0E84E3 
 187      16E98197 
 187      E1
ARM GAS  /tmp/ccZgMH2q.s 			page 15


 188 036b 1B5CC772 		.ascii	"\033\\\307r!L\200\363\341\257mg\036Ml\256\232\321\253"
 188      214C80F3 
 188      E1AF6D67 
 188      1E4D6CAE 
 188      9AD1AB
 189 037e 347543A4 		.ascii	"4uC\244j\236\312\375\035u\224\311\263h\376\263\030\001"
 189      6A9ECAFD 
 189      1D7594C9 
 189      B368FEB3 
 189      1801
 190 0390 88FD431D 		.ascii	"\210\375C\035\312\207h\002\311%\"\311'\275\237\335\274"
 190      CA876802 
 190      C92522C9 
 190      27BD9FDD 
 190      BC
 191 03a1 9CA113A5 		.ascii	"\234\241\023\245\032\316\2703u;\370og\203\024\267\036"
 191      1ACEB833 
 191      753BF86F 
 191      678314B7 
 191      1E
 192 03b2 1EBB1231 		.ascii	"\036\273\0221t\342\234\025\354L\250\033\222\255/\331"
 192      74E29C15 
 192      EC4CA81B 
 192      92AD2FD9 
 193 03c2 17D0387C 		.ascii	"\027\3208||6b%\264\221k8\324q=\374\235\255\300\\z)\351"
 193      7C366225 
 193      B4916B38 
 193      D4713DFC 
 193      9DADC05C 
 194 03d9 7AC67616 		.ascii	"z\306v\026\000\035\204\310\377}\370\231\355\237G!\032"
 194      001D84C8 
 194      FF7DF899 
 194      ED9F4721 
 194      1A
 195 03ea E9ADBBBD 		.ascii	"\351\255\273\275\252FzoW\250<\305\233\001\255\353w\350"
 195      AA467A6F 
 195      57A83CC5 
 195      9B01ADEB 
 195      77E8
 196 03fc FA1FC4D5 		.ascii	"\372\037\304\325\277 E\375|\374\372\027\216W\377\"\240"
 196      BF2045FD 
 196      7CFCFA17 
 196      8E57FF22 
 196      A0
 197 040d 83D098FA 		.ascii	"\203\320\230\372\027Sh\242\365sU\377b]\277S.E\230\317"
 197      175368A2 
 197      F57355FF 
 197      625DBF53 
 197      2E4598CF 
 198 0421 68FF1CCD 		.ascii	"h\377\034\315\275\2246'.\001{H\313h\376q\223-M\236\377"
 198      BD943627 
 198      2E017B48 
 198      CB68FE71 
 198      932D4D9E 
 199 0436 E5104D98 		.ascii	"\345\020M\230\377\0134\377\313\251\264\207\307\256\375"
 199      FF0B34FF 
 199      CBA9B487 
ARM GAS  /tmp/ccZgMH2q.s 			page 16


 199      C7AEFD
 200 0445 6693AC48 		.ascii	"f\223\254H\241\213\210\327\345\206=\324\225\212\014"
 200      A18B88D7 
 200      E5863DD4 
 200      958A0C
 201 0454 74892DF7 		.ascii	"t\211-\367U@\007!\245\313\237\266\277\220B\206\324\345"
 201      55400721 
 201      A5CB9FB6 
 201      BF904286 
 201      D4E5
 202 0466 DB445D4A 		.ascii	"\333D]JS\274\031\320j[\015\016\024j\302\325z\317\011"
 202      53BC19D0 
 202      6A5B0D0E 
 202      146AC2D5 
 202      7ACF09
 203 0479 BDAF3ED5 		.ascii	"\275\257>\325\241\"\210&\351T\254\016p\010&\353T\002"
 203      A1228826 
 203      E954AC0E 
 203      700826EB 
 203      5402
 204 048b D1049D2E 		.ascii	"\321\004\235.\222N%R\247\007q:\255I\241\223\021\257"
 204      924E2552 
 204      A707713A 
 204      AD49A193 
 204      11AF
 205 049d D3137BE8 		.ascii	"\323\023{\350k\025\031\350t\315v\256\003:\010)\235\376"
 205      6B1519E8 
 205      74CD76AE 
 205      033A0829 
 205      9DFE
 206 04af B6FDA514 		.ascii	"\266\375\245\0242'\250\223\241t*\225E\277\216+\272,"
 206      3227A893 
 206      A1742A95 
 206      45BF8E2B 
 206      BA2C
 207 04c1 45D1A65D 		.ascii	"E\321\246]4\324\027[\364\353\251\3562U\337K\333_N!k"
 207      34D4175B 
 207      F4EBA9EE 
 207      3255DF4B 
 207      DB5F4E21 
 208 04d6 82F599AA 		.ascii	"\202\365\231\252\276r\265\370\206c\365U\244\250\317"
 208      BE72B5F8 
 208      8663F555 
 208      A4A8CF
 209 04e5 1ABFBE8D 		.ascii	"\032\277\276\215T_\305\230\372*)$&X\237\245\352\253"
 209      545FC598 
 209      FA2A2924 
 209      26589FA5 
 209      EAAB
 210 04f7 D4FBCF45 		.ascii	"\324\373\317E\027#]\267\303\003y\372j\252R\267\026\303"
 210      17235DB7 
 210      C30379FA 
 210      6AAA52B7 
 210      16C3
 211 0509 FD6A5FB8 		.ascii	"\375j_\270t\307U\341\261z\373\371\315\321C\231vv\322"
 211      74C755E1 
 211      B17AFBF9 
ARM GAS  /tmp/ccZgMH2q.s 			page 17


 211      CDD14399 
 211      7676D2
 212 051c 4586BC6E 		.ascii	"E\206\274n\006\177@\031t\212?\037\260\277|\252ag\214"
 212      067F4019 
 212      748A3F1F 
 212      B0BF7CAA 
 212      61678C
 213 052f E5D5B76B 		.ascii	"\345\325\267k\265>\366\007fk@\015,\221\361>o\344\375"
 213      B53EF607 
 213      666B400D 
 213      2C91F13E 
 213      6FE4FD
 214 0542 5CA3007F 		.ascii	"\\\243\000\177\014\314\322\200Z\230\263\361\000\362"
 214      0CCCD280 
 214      5A98B3F1 
 214      00F2
 215 0550 86AF5580 		.ascii	"\206\257U\200W3u~\035h8^\276\274\336\353(\277'\374\317"
 215      5733757E 
 215      1D68385E 
 215      BEBCDEEB 
 215      28BF27FC 
 216 0565 408E06D4 		.ascii	"@\216\006\324\353{$i\010\362\233\242^\217\337\203\037"
 216      EB7B2469 
 216      08F29BA2 
 216      5E8FDF83 
 216      1F
 217 0576 7EBFB0AE 		.ascii	"~\277\260\256\307\257\237r\373\002\245\33768\004\273"
 217      C7AF9F72 
 217      FB02A5DF 
 217      363804BB 
 218 0586 9DF8BA32 		.ascii	"\235\370\2722\357\336\216\240\267#\330\344m\332\323"
 218      EFDE8EA0 
 218      B723D8E4 
 218      6DDAD3
 219 0595 DAD8DADE 		.ascii	"\332\330\332\336\341\205\177{\032\332\274\201\366`g"
 219      E1857F7B 
 219      1ADABC81 
 219      F66067
 220 05a4 87F7DD6D 		.ascii	"\207\367\335mo\227\024{\267l\251\365nz\347\255\255\037"
 220      6F97147B 
 220      B76CA9F5 
 220      6E7AE7AD 
 220      AD1F
 221 05b6 177B030D 		.ascii	"\027{\003\015m\273\332\332\232\013\233\230\325\330\332"
 221      6DBBDADA 
 221      9A0B9B98 
 221      D5D8DA
 222 05c5 59B8DAF2 		.ascii	"Y\270\332\362\2677\267\004\035\355\235\373\002-Ag{G"
 222      B737B704 
 222      1DED9DFB 
 222      022D4167 
 222      7B47
 223 05d7 A0A5A539 		.ascii	"\240\245\2459h\005\366\006\232\203fC[g\320\200,\027"
 223      6805F606 
 223      9A836643 
 223      5B67D080 
 223      2C17
ARM GAS  /tmp/ccZgMH2q.s 			page 18


 224 05e9 3EF81B3A 		.ascii	">\370\033:>\022\376\"\341/\026\3765\377\003j\246M\252"
 224      3E12FE22 
 224      E12F16FE 
 224      35FF036A 
 224      A64DAA
 225              		.text
 226              		.section	.gnu.lto_.symbol_nodes.e6f647ec4480b524,"",%progbits
 227 0000 789C6362 		.ascii	"x\234cb`bP`\200\002\246V\246z\006\206\011\347\030\030"
 227      60625060 
 227      8002A656 
 227      A67A0686 
 227      09E71818 
 228 0014 EAEBE775 		.ascii	"\352\353\347u02\2651\3253\"\270\014\000\223\326\011"
 228      3032B531 
 228      D53322B8 
 228      0C0093D6 
 228      09
 229 0025 3D       		.ascii	"="
 230              		.text
 231              		.section	.gnu.lto_.refs.e6f647ec4480b524,"",%progbits
 232 0000 789C6362 		.ascii	"x\234cb`b`d\200\002\000\000F\000\006"
 232      60626064 
 232      80020000 
 232      460006
 233              		.text
 234              		.section	.gnu.lto_.decls.e6f647ec4480b524,"",%progbits
 235 0000 789CDD5A 		.ascii	"x\234\335Z}p\023\307\025\337=\311\262\214U\342\220!"
 235      7D7013C7 
 235      15DF3DC9 
 235      B28C55E2 
 235      9021
 236 0012 031DA688 		.ascii	"\003\035\246\210\246i3\231\264\002;M\233\351L\012\310"
 236      A6693399 
 236      B4023B4D 
 236      9BE94C0A 
 236      C8
 237 0023 067B6A62 		.ascii	"\006{jb\215\004m\372\227z\261e\254\251\261TIN\2403\235"
 237      8D046DFA 
 237      977AB165 
 237      ACA9B154 
 237      494EA033 
 238 0038 1E102875 		.ascii	"\036\020(u\233\326qS\010-!&5\324|\204/\007\3027\007"
 238      9BD67153 
 238      082D2126 
 238      35D47C84 
 238      2F07C237 
 239 004d A18CC7A2 		.ascii	"\241\214\307\242\256C\010q\302\227\207\217\232\217f"
 239      AE430871 
 239      C297878F 
 239      9A8F66
 240 005c 8090805D 		.ascii	"\200\220\200]\030\334\267\357\356\244[\241\263\356H"
 240      18DCB7EF 
 240      EEA45BA1 
 240      B3EE48
 241 006b FEEA0DEF 		.ascii	"\376\352\015\357\355\372\356\275\337\376\336\356\336"
 241      EDFAEEBD 
 241      DFFEDEEE 
ARM GAS  /tmp/ccZgMH2q.s 			page 19


 241      DE
 242 0078 EEDB1302 		.ascii	"\356\333\023\002\021\210D\011\031\202\353\221G\010\371"
 242      11884409 
 242      1982EB91 
 242      4708F9
 243 0087 858D10F8 		.ascii	"\205\215\020\370G\236!\351K\000Y\005r\202\334{\261\373"
 243      479E21E9 
 243      4B005905 
 243      7282DC7B 
 243      B1FB
 244 0099 2341F241 		.ascii	"#A\362A.\200L\000\254\032\220\020\310l\220\325p\257"
 244      2E804C00 
 244      AC1A9010 
 244      C86C90D5 
 244      70AF
 245 00ab 0DA4882A 		.ascii	"\015\244\210*v.\220:\250\327\202\234\201\372X\326\026"
 245      762E903A 
 245      A8D7829C 
 245      81FA58D6 
 245      16
 246 00bc D42B41D6 		.ascii	"\324+A\326C}'H?\310n\220K {A\256\200\354\007\271\012"
 246      437D2748 
 246      3FC86E90 
 246      4B207B41 
 246      AE80EC07 
 247 00d2 7200C409 		.ascii	"r\000\304\011\266\357B9\002\312-P\236\0079\014\322\011"
 247      B6EF4239 
 247      02CA2D50 
 247      9E07390C 
 247      D209
 248 00e4 D2057204 		.ascii	"\322\005r\004\244\033\244\007\344(\3101]\014a\360\031"
 248      A41BA407 
 248      E428C831 
 248      5D0C61F0 
 248      19
 249 00f5 01652F48 		.ascii	"\001e/H\014\352q\220\004H#\310\013 /\202\314\005\231"
 249      0CEA7190 
 249      044823C8 
 249      0B202F82 
 249      CC0599
 250 0108 07F24BCA 		.ascii	"\007\362K\312\307\312\342w\202\330I:\226\255\272\330"
 250      C7CAE277 
 250      82D8493A 
 250      96ADBAD8 
 251 0118 593CA741 		.ascii	"Y<\247A\034*G\306\257_\215\343\212\312\223\2528\254"
 251      1C2A47C6 
 251      AF5F8DE3 
 251      8ACA93AA 
 251      38AC
 252 012a 8FC7C11F 		.ascii	"\217\307\301\037_\003\371jF;\343\311J\251\265\257o\321"
 252      5F03F96A 
 252      463BE3C9 
 252      4AA9B5AF 
 252      6FD1
 253 013c D5CD63A5 		.ascii	"\325\315c\245\326\005\362\320\320\017\311\303\344\317"
 253      D605F2D0 
 253      D00FC9C3 
ARM GAS  /tmp/ccZgMH2q.s 			page 20


 253      E4CF
 254 014a 125CAD8B 		.ascii	"\022\\\255\213%\211&D\372\314h\362\034\025\351\310\002"
 254      25892644 
 254      FACC68F2 
 254      1C15E9C8 
 254      02
 255 015b E2C68AAB 		.ascii	"\342\306\212\253\000I\021\"\3227\351\303X\263a\310\244"
 255      00491122 
 255      D237E9C3 
 255      58B361C8 
 255      A4
 256 016c 903449D2 		.ascii	"\2204I\322\002\346X\3369r\024y\005Q\000\244\023\002"
 256      02E658DE 
 256      39721479 
 256      055100A4 
 256      1302
 257 017e 5021FA1E 		.ascii	"P!\372\036\3200\3560\"\217\2226Ij\356\033\034|\303&"
 257      D030EE30 
 257      228F9236 
 257      496AEE1B 
 257      1C7CC326 
 258 0192 494ED5C5 		.ascii	"IN\325\305ml/\3225\364Q\222\333\216Y\266\323Q\344q\262"
 258      6D6C2FD2 
 258      35F45192 
 258      DB8E59B6 
 258      D351E471 
 259 01a7 160C9B25 		.ascii	"\026\014\233%\351\340\017\370\270\261aI\276\321\355"
 259      E9E00FF8 
 259      B8B16149 
 259      BED1ED
 260 01b6 92EC8A29 		.ascii	"\222\354\212)sYK\037\3172\355\310\004\322\312\214\007"
 260      73594B1F 
 260      CF32EDC8 
 260      04D2CA8C 
 260      07
 261 01c7 BB5750A9 		.ascii	"\273WP\251\365 \315\326<\325\232\037\227\212J~\257\233"
 261      F520CDD6 
 261      3CD59A1F 
 261      978A4A7E 
 261      AF9B
 262 01d9 BA45BA01 		.ascii	"\272E\272\001\354\005\362+\312\301\347\204`l6\201\247"
 262      EC05F22B 
 262      CAC1E784 
 262      606C3681 
 262      A7
 263 01ea E2A4B2FD 		.ascii	"\342\244\262\375\223\302v\223\011\266\013\344e\335+"
 263      93C27693 
 263      09B60BE4 
 263      65DD2B
 264 01f9 C632B605 		.ascii	"\3062\266\005dIzPH\326\241TG\341\275\246\266'`\024D"
 264      64497A50 
 264      48D6A154 
 264      47E1BDA6 
 264      B6276014 
 265 020e BA159C04 		.ascii	"\272\025\234\004\322Ay\316\346\201\006\223\207^\241"
 265      D24179CE 
 265      E6810693 
ARM GAS  /tmp/ccZgMH2q.s 			page 21


 265      875EA1
 266 021d 0B61E045 		.ascii	"\013a\340E\272\015\241.g@\2114\277@O\031\377\326\014"
 266      BA0DA12E 
 266      67408934 
 266      BF404F19 
 266      FFD60C
 267 0230 181E3E56 		.ascii	"\030\036>V+l\265x\200X5\027\310\347\330(\353\254lT\325"
 267      2B6CB578 
 267      80583517 
 267      C8E7D828 
 267      EBAC6C54 
 268 0245 AA72A906 		.ascii	"\252r\251\006\\\007\366\015lS:P\353\217\333\226\361"
 268      5C07F60D 
 268      6C533A50 
 268      EB8FDB96 
 268      F1
 269 0256 DCDC80AC 		.ascii	"\334\334\200\254\354v5\213\032\330\002\301\004\230\323"
 269      EC76358B 
 269      1AD802C1 
 269      0498D3
 270 0265 909CBC55 		.ascii	"\220\234\274U\017\326d\031\214g\266]\017\326l\006\254"
 270      0FD66419 
 270      8C67B65D 
 270      0FD66C06 
 270      AC
 271 0276 C898D92E 		.ascii	"\310\230\331.=\330\253\226\301xf\373\364`\313\315\200"
 271      3DD8AB96 
 271      C17866FB 
 271      F460CBCD 
 271      80
 272 0287 8DC9C22C 		.ascii	"\215\311\302,\333\245\177\275D\272\031V\025\221n\241"
 272      DBA57FBD 
 272      44BA1956 
 272      15916EA1 
 273 0297 1340EF44 		.ascii	"\023@\357D\275\033\365^\324\373Q\037@\375.\350\324%"
 273      BD1BF55E 
 273      D4FB511F 
 273      40FD2EE8 
 273      D425
 274 02a9 9095C8A9 		.ascii	"\220\225\310\251=\315\211\177\215s\3152In\256b\001*"
 274      3DCD897F 
 274      8D73CD32 
 274      496EAE62 
 274      012A
 275 02bb 8BC46A53 		.ascii	"\213\304jS`\\\204n\016\3545\035\330\006S`\3377f\266"
 275      605C846E 
 275      0EEC351D 
 275      D8065360 
 275      DF3766B6 
 276 02cf 5907D661 		.ascii	"Y\007\326a\012\314g\314l\207\016l\227)\260\2501\263"
 276      0ACC67CC 
 276      6C870E6C 
 276      9729B0A8 
 276      31B3
 277 02e1 1E1DD801 		.ascii	"\036\035\330\001S`K\2501\265^\035Z\247)\264vj\314\355"
 277      53604BA8 
 277      31B55E1D 
ARM GAS  /tmp/ccZgMH2q.s 			page 22


 277      5AA729B4 
 277      766ACCED 
 278 02f5 9A0EED5F 		.ascii	"\232\016\355_\246\320\344a\270\015\350\320\216\233B"
 278      A6D0E461 
 278      B80DE8D0 
 278      8E9B42
 279 0304 EBCBC64D 		.ascii	"\353\313\306M7\353\225\371\276\016\347\373z\234\321"
 279      37EB95F9 
 279      BE0EE7FB 
 279      7A9CD1
 280 0313 875177A2 		.ascii	"\207Qw\242\356B}\004u7\352\036\324GQ\037\343\347\376"
 280      EE427D04 
 280      7537EA1E 
 280      D447511F 
 280      E3E7FE
 281 0326 29217355 		.ascii	")!sUW\366Q]k\355\251w\214|\321\366\214r\2206Z\230no"
 281      57F6515D 
 281      6BEDA977 
 281      8C7CD1F6 
 281      8C729036 
 282 033e 964DC7AF 		.ascii	"\226M\307\257?\203\3377\310\337$\251\005R\235\213\366"
 282      3F83DF37 
 282      C8DF24A9 
 282      05529D8B 
 282      F6
 283 034f E5926C57 		.ascii	"\345\222lW\\a\237@\263Ut|\326&R\015|\223\254f[\366\313"
 283      5C619F40 
 283      B355747C 
 283      D626520D 
 283      7C93AC66 
 284 0366 D2A2228A 		.ascii	"\322\242\"\212I\021Q\275\270\200?\244\202\376\206\222"
 284      491151BD 
 284      B8803FA4 
 284      82FE8692 
 285 0376 5DC937BB 		.ascii	"]\3117\273\\\315\363\373\206\206\306\233O\255N\346N"
 285      5CCDF3FB 
 285      8686C69B 
 285      4FAD4EE6 
 285      4E
 286 0387 ADB8EC41 		.ascii	"\255\270\354A\320\000\236 \351}\370\3722\033n\350gp"
 286      D0009E20 
 286      E97DF8FA 
 286      321B6EE8 
 286      6770
 287 0399 02DDC9E8 		.ascii	"\002\335\311\350\217\2340\214\307\331\314$\244#\211"
 287      8F9C308C 
 287      C7D9CC24 
 287      A42389
 288 03a8 49C8D9DC 		.ascii	"I\310\331\334I\310K\013\345w\222\272$d\341\260\271\203"
 288      49C84B0B 
 288      E57792BA 
 288      2464E1B0 
 288      B983
 289 03ba 483B7052 		.ascii	"H;pR\232\331\332\177k\243*\265\373\330\332\201\326\216"
 289      9AD9DA7F 
 289      6BA32AB5 
 289      FBD8DA81 
ARM GAS  /tmp/ccZgMH2q.s 			page 23


 289      D68E
 290 03cc 246E2B17 		.ascii	"$n+\027p[\371\243e07\007\266K\017\266\324\014\230\321"
 290      705BF9A3 
 290      65303707 
 290      B64B0FB6 
 290      D40C98D1 
 291 03e0 BE0E607B 		.ascii	"\276\016`{\364`+-\203\361\314\366\351\301\332\314\200"
 291      F4602B2D 
 291      83F1CCF6 
 291      E9C1DACC 
 291      80
 292 03f1 19EDEB00 		.ascii	"\031\355\353\000\326\243\007k\267\014\246g6_>\223\354"
 292      D6A3076B 
 292      B70CA667 
 292      365F3E93 
 292      EC
 293 0402 A2528BEB 		.ascii	"\242R\213\353!\322\"I\363\245V\207\321\244 \004M\244"
 293      21D22249 
 293      F3A55687 
 293      D1A42004 
 293      4DA4
 294 0414 614D447A 		.ascii	"aMDz\203>\304O\322\367\1777\222MRv?w\246\374A\222O\364"
 294      833EC44F 
 294      D2F77F37 
 294      924D5276 
 294      3F77A6FC 
 295 042c 366070CC 		.ascii	"6`p\314\367~\022GI>\225,\224\232\\\332\371gr\3730\304"
 295      F77E1247 
 295      493E952C 
 295      949A5CDA 
 295      F96772FB 
 296 0442 0732DFAE 		.ascii	"\0072\337\256\017\223\202[\271\235\233\367G\311\025"
 296      0F93825B 
 296      B99D9BF7 
 296      47C915
 297 0451 63A4D603 		.ascii	"c\244\326\003Z\206/-\226\036\323\265U\244\265\305\326"
 297      5A862F2D 
 297      961ED3B5 
 297      55A4B5C5 
 297      D6
 298 0462 8F5486FF 		.ascii	"\217T\206\377\272\222\341\337\306@7\332\262f\370&\200"
 298      BA92E1DF 
 298      C64037DA 
 298      B266F826 
 298      80
 299 0473 06936F3D 		.ascii	"\006\223o=\215@w\021\350\035[\346N`\313\310\357m\374"
 299      8D407711 
 299      E81D5BE6 
 299      4E60CBC8 
 299      EF6DFC
 300 0486 5B6D2B48 		.ascii	"[m+HW\206\206l\304\232\261@\016b\203\003\351\371\307"
 300      5786866C 
 300      C49AB140 
 300      0E628303 
 300      E9F9C7
 301 0499 913493DB 		.ascii	"\2214\223\333/\303\256\323z\342\260e\274\242\2141\021"
 301      2FC3AED3 
ARM GAS  /tmp/ccZgMH2q.s 			page 24


 301      7AE2B065 
 301      BCA28C31 
 301      11
 302 04aa C891FB9D 		.ascii	"\310\221\373\2356\272\310\265\235\362s\334\377n\361"
 302      36BAC8B5 
 302      9DF273DC 
 302      FF6EF1
 303 04b9 FB6DB799 		.ascii	"\373m\267\231\227.[\376\253\276\301\327\364o\360\373"
 303      972E5BFE 
 303      ABBEC1D7 
 303      F46FF0FB 
 304 04c9 96C1DC1C 		.ascii	"\226\301\334\034\330\247z\260^3`ncf\237\351\301NY\006"
 304      D8A77AB0 
 304      5E33606E 
 304      63669FE9 
 304      C14E5906 
 305 04dd E399DDD4 		.ascii	"\343\231\335\324\203\2355\003\366\330p\203\302\215O"
 305      839D3503 
 305      F6D87083 
 305      C28D4F
 306 04ec 7A3714E9 		.ascii	"z7\024\3519\334\256\316\343H\365\243\276\204\372\012"
 306      39DCAECE 
 306      E348F5A3 
 306      BE84FA0A 
 307 04fc EA4F505F 		.ascii	"\352OP_E}\035\365b\201\351%\250\233P\377^\310\221\337"
 307      457D1DF5 
 307      6281E925 
 307      A89B50FF 
 307      5EC891DF 
 308 0510 A81F126E 		.ascii	"\250\037\022n\265\214c\253\331iLW\376\235\361\256q\231"
 308      B58C63AB 
 308      D9694C57 
 308      FE9DF1AE 
 308      7199
 309 0522 81B2D51B 		.ascii	"\201\262\325\033\2556\315B\241\301\242r\31735\3550}"
 309      AD36CD42 
 309      A1C1A272 
 309      CF3335ED 
 309      307D
 310 0534 E697F7B6 		.ascii	"\346\227\367\266\214f\034[\004\326\353\327\357Y\017"
 310      8C661C5B 
 310      04D6EBD7 
 310      EF590F
 311 0543 D8CACAB5 		.ascii	"\330\312\312\265g\352\300o\231\305\361Q\202H\227\"\207"
 311      67EAC06F 
 311      99C5F151 
 311      82489722 
 311      87
 312 0554 BB5F1287 		.ascii	"\273_\022\207\214\244\3627\366\254I\345\205\215\203"
 312      8CA4F237 
 312      F6AC49E5 
 312      858D83
 313 0563 6A52A98C 		.ascii	"jR\251\214\322\353hv\3020\251dV\252\257<\330\265\001"
 313      D2EB6876 
 313      C230A964 
 313      56AAAF3C 
 313      D8B501
ARM GAS  /tmp/ccZgMH2q.s 			page 25


 314 0576 F61F41EB 		.ascii	"\366\037A\353\2747s\2702+\315\365v\327\032\305U\211"
 314      BC3773B8 
 314      322BCDF5 
 314      76D71AC5 
 314      5589
 315 0588 F9EF395C 		.ascii	"\371\3579\\\231\025\321RY\371V\323\302V*9R\311\354\211"
 315      9915D152 
 315      59F956D3 
 315      C2562A39 
 315      52C9EC89 
 316 059c CC6476B9 		.ascii	"\314dv\271\300%\263Y\362E\331\311\235\260\324\335a\347"
 316      C025B359 
 316      F245D9C9 
 316      9DB0D4DD 
 316      61E7
 317 05ae 39792DDD 		.ascii	"9y-\335\"IE\220 \013,\363<\231\321i\271\2210\361\026"
 317      22494590 
 317      200B2CF3 
 317      3C99D169 
 317      B99130F1 
 318 05c3 3236C737 		.ascii	"26\3077\372;)\356:\354I\356\344\263\243\277S\2001y\311"
 318      FA3B29EE 
 318      3AEC49EE 
 318      E4B3A3BF 
 318      53803179 
 319 05d8 A62D0617 		.ascii	"\246-\006\027\221\006s\276\277\264\361m\326~\213K\203"
 319      910673BE 
 319      BFB4F16D 
 319      D67E8B4B 
 319      83
 320 05e9 BB6219CE 		.ascii	"\273b\031\316\315\301m\347\341n\230\201\033&u\334\301"
 320      CDC16DE7 
 320      E16E9881 
 320      1B2675DC 
 320      C1
 321 05fa C30D5886 		.ascii	"\303\015X\206\343\331\355\342\341\356\230\201\033&}"
 321      E3D9EDE2 
 321      E1EE9881 
 321      1B267D
 322 0609 DCC3C32D 		.ascii	"\334\303\303-\312\263\012\307\263\333\307\303\375\301"
 322      CAB30AC7 
 322      B3DBC7C3 
 322      FDC1
 323 0617 0C9CD1D6 		.ascii	"\014\234\321\326\010\251T\217\006\247d\200\313,\303"
 323      08A9548F 
 323      06A76480 
 323      CB2CC3
 324 0626 F1EC8EF2 		.ascii	"\361\354\216\362\354V\231\201s\033\367\3351\036n\235"
 324      EC569981 
 324      731BF7DD 
 324      311E6E9D 
 325 0636 65381D3B 		.ascii	"e8\035;x\215\216\367;\001\355A\322\254\344\247l\327"
 325      788D8EF7 
 325      3B01ED41 
 325      D2ACE4A7 
 325      6CD7
 326 0648 6061ABB6 		.ascii	"`a\253\266\223\371\271!\322\335\302\203X\303UXJm4\256"
ARM GAS  /tmp/ccZgMH2q.s 			page 26


 326      93F9B921 
 326      D2DDC283 
 326      58C35558 
 326      4A6D34AE 
 327 065c 82ACCD33 		.ascii	"\202\254\3153\217=\3122\223~\005\324\212\366\011^ \035"
 327      8F3DCA32 
 327      937E05D4 
 327      8AF6095E 
 327      201D
 328 066e 992170AD 		.ascii	"\231!p\255\016\263-\253=\322\313\367\310^3=2\321\030"
 328      0EB32DAB 
 328      3DD2CBF7 
 328      C85E333D 
 328      32D118
 329 0681 EE631EEE 		.ascii	"\356c\036\356\037\226\341\370\341?\311\303\375\323\014"
 329      1F96E1F8 
 329      E13FC9C3 
 329      FDD30C
 330 0690 9CE187B8 		.ascii	"\234\341\207\270\005\362i~r~`\031\216gw\215gw\306\014"
 330      05F2697E 
 330      727E6019 
 330      8E67778D 
 330      6777C60C 
 331 06a4 DC64E3BE 		.ascii	"\334d\343\276\373\224\207\353\267\014\307O\316\317p"
 331      FB9487EB 
 331      B70CC74F 
 331      CECF70
 332 06b3 722AB34E 		.ascii	"r*\263N W\315\314\223rcr7yr\203f\310\371\214\341\006"
 332      2057CDCC 
 332      93726372 
 332      37797283 
 332      66C8F98C 
 333 06c9 78B8850E 		.ascii	"x\270\205\016\253p\374H\374\227\207{\331\014\334s\306"
 333      AB70FC48 
 333      FC97877B 
 333      D90CDC73 
 333      C6
 334 06da F3E44EC6 		.ascii	"\363\344N\306\"f\031\216gw7c\0213\003\3673\343\276k"
 334      2266198E 
 334      67773763 
 334      113303F7 
 334      33E3BE6B 
 335 06ee BECCC1AD 		.ascii	"\276\314\301\255\267\014\307\317\223\226\313\372y\262"
 335      B70CC7CF 
 335      9396CBFA 
 335      79B2
 336 06fc 2D132DDB 		.ascii	"-\023-\333<\2513&\367*On\277\031rF\037\250\001n)\017"
 336      3CA93326 
 336      F72A4F6E 
 336      BF197246 
 336      1FA8016E 
 337 0712 77C8321C 		.ascii	"w\3102\034\037\353k\\\254\235fb\235kL\356/<\271\243"
 337      1FEB6B5C 
 337      AC9D6662 
 337      9D6B4CEE 
 337      2F3CB9A3 
 338 0726 66C84946 		.ascii	"f\310IF_\274\001o\005\217\327k\035\317M\014/}\026(\322"
ARM GAS  /tmp/ccZgMH2q.s 			page 27


 338      5FBC016F 
 338      058FD76B 
 338      1DCF4D0C 
 338      2F7D1628 
 339 073b D5023B72 		.ascii	"\325\002;r\255\301\303S;\352u\2507\240\336\210z3\352"
 339      ADC1C353 
 339      3BEA75A8 
 339      37A0DE88 
 339      7A33EA
 340 074e ADA8DF46 		.ascii	"\255\250\337F\275\035\365\016\324\273P\357C-\243>\210"
 340      BD1DF50E 
 340      D4BB50EF 
 340      432DA33E 
 340      88
 341 075f FA10EAC3 		.ascii	"\372\020\352\303\250;Qw\241>\202\272\033u\017\352\243"
 341      A83B5177 
 341      A13E82BA 
 341      1B750FEA 
 341      A3
 342 0770 A88FA13E 		.ascii	"\250\217\241>\216\272\027\365\307\250O\242>\215\272"
 342      8EBA17F5 
 342      C7A84FA2 
 342      3E8DBA
 343 077f 0FF559FD 		.ascii	"\017\365Y\375!/\343\260\266\312\240\227X\334\347\205"
 343      212FE3B0 
 343      B6CAA097 
 343      58DCE785 
 344 078f C2AC5E06 		.ascii	"\302\254^\006\277\253s\277\005\210\364-<\234n\342>\277"
 344      BFAB73BF 
 344      0588F42D 
 344      3C9C6EE2 
 344      3EBF
 345 07a1 5BFE79CB 		.ascii	"[\376y\313\210\332\205453l\310\027g\222:\001\312_\302"
 345      88DA8534 
 345      35336CC8 
 345      1767923A 
 345      01CA5FC2 
 346 07b5 F763F651 		.ascii	"\367c\366Q^\276\326\267\372\354E\312\216\007\322\320"
 346      5EBED6B7 
 346      FAEC45CA 
 346      8E07D2D0 
 347 07c5 D0AFA9F9 		.ascii	"\320\257\251\371\017\363\227\005\356\303\274"
 347      0FF39705 
 347      EEC3BC
 348 07d0 72724EFD 		.ascii	"rrN\375\241vM\306\241\361\234#\333\241QZ\036*W\334\005"
 348      A1764DC6 
 348      A1F19C23 
 348      DBA1515A 
 348      1E2A57DC 
 349 07e5 F21FB4B8 		.ascii	"\362\037\264\270$\030\235\334\230\225\346\366\327\303"
 349      24189DDC 
 349      9895E6F6 
 349      D7C3
 350 07f3 AE66AA34 		.ascii	"\256f\2524%\322\217\2500\254\243JH\375\365b\267\344"
 350      25D28FA8 
 350      30ACA34A 
 350      48FDF562 
ARM GAS  /tmp/ccZgMH2q.s 			page 28


 350      B7E4
 351 0805 1B933AEF 		.ascii	"\033\223:\3571'\356U\373\204?\357}\213\254a\253\317"
 351      3127EE55 
 351      FB843FEF 
 351      7D8BAC61 
 351      ABCF
 352 0817 50B2733E 		.ascii	"P\262s>\373\217\014\272Q\327?\227\266\266\026\375\177"
 352      FB8F0CBA 
 352      51D73F97 
 352      B6B616FD 
 352      7F
 353 0828 3F244F7B 		.ascii	"?$O{\032\3431O<V\355\251\256\013?\037\216\304=\360\257"
 353      1AE3314F 
 353      3C56EDA9 
 353      AE0B3F1F 
 353      8EC43DF0 
 354 083d 4EACF744 		.ascii	"N\254\367D#\261D\334\023\2309\243\244\330SYY\352\231"
 354      23B144DC 
 354      139839A3 
 354      A4D85359 
 354      59EA99
 355 0850 EEABA87A 		.ascii	"\356\253\250z\241\330\023\025\353\203\365\3655\337\251"
 355      A1D81315 
 355      EB83F5F5 
 355      35DFA9
 356 085f BE6FCF3A 		.ascii	"\276o\317:\342\230\376\354,\267\227\214\212'\346\224"
 356      E298FEEC 
 356      2CB7978C 
 356      8A27E694 
 357 086f 14076747 		.ascii	"\024\007gG\303\221`<\224h\214\006\023_G\314pCu}cM\310"
 357      C391603C 
 357      94688C06 
 357      135F47CC 
 357      7043757D 
 358 0886 D3107AB1 		.ascii	"\323\020z\261>\374\274'>/\356\011\306\0235\341\206\004"
 358      3EFCBC27 
 358      3E2FEE09 
 358      C61335E1 
 358      8604
 359 0898 383B1BA1 		.ascii	"8;\033\241\004\267\304\267\263\331\316\021\201LC\310"
 359      04B7C4B7 
 359      B3D9CE11 
 359      814C43C8 
 360 08a8 13AC09D5 		.ascii	"\023\254\011\325\212\215\365\211`b^4\024\007\267\021"
 360      8A8DF589 
 360      60625E34 
 360      1407B711 
 361 08b8 C1A0E698 		.ascii	"\301\240\346\2307'R\023\2129\"\354Q,?\022\217\206B5"
 361      37275213 
 361      8A3922EC 
 361      512C3F12 
 361      8F864235 
 362 08cc B1BC6863 		.ascii	"\261\274hc\264&f\213\324\304\354bm\254\236\251:\207"
 362      B426668B 
 362      D4C4EC62 
 362      6DAC9EA9 
 362      3A87
ARM GAS  /tmp/ccZgMH2q.s 			page 29


 363 08de 6F4AA998 		.ascii	"oJ\251\230\020\035\276\251J\341U\212R\245(S\212iJ1]"
 363      101DBEA9 
 363      4AE1558A 
 363      52A52853 
 363      8A694A31 
 364 08f3 29CA95A2 		.ascii	")\312\225\242\202\025\005\276)\225\336HCmx\366W\202"
 364      821505BE 
 364      2995DE48 
 364      436D78F6 
 364      5782
 365 0905 6AF0C170 		.ascii	"j\360\301pC8\341\250\306\233.]\370\211\274\031U\245"
 365      4338E1A8 
 365      C69B2E5D 
 365      F889BC19 
 365      55A5
 366 0917 657E47D5 		.ascii	"e~G\325\314\237\372\312\374\371U\001_YY\251?\3177\313"
 366      CC9FFACA 
 366      FCF95501 
 366      5F5959A9 
 366      3FCF37CB 
 367 092b 57EAB755 		.ascii	"W\352\267U\200T\225\372\351O0\364IO\005\023j0\254j\203"
 367      805495FA 
 367      E94F30F4 
 367      494F0513 
 367      6A30AC6A 
 368 0940 9ECBABAE 		.ascii	"\236\313\253\256\017\2111Zn\237\032\360\373\355\225"
 368      0F89315A 
 368      6E9F1AF0 
 368      FBED95
 369 094f DE1FF9ED 		.ascii	"\336\037\371\355S\246\371+\231*\267M\365\373G\204#l"
 369      53A6F92B 
 369      992AB74D 
 369      F5FB4784 
 369      236C
 370 0961 4CC235C1 		.ascii	"L\3025\301\204K\251\316\021\343?\017&\234\341\010\353"
 370      844BA9CE 
 370      11E33F0F 
 370      269CE108 
 370      EB
 371 0972 8A606274 		.ascii	"\212`bt\212\037\240\315\216E\032\243\354\276\235Y\332"
 371      8A1FA0CD 
 371      8E451AA3 
 371      ECBE9D59 
 371      DA
 372 0983 99A99DFD 		.ascii	"\231\251\235\375\351\3116\336\241\271\011\217wF\240"
 372      E9C936DE 
 372      A1B9098F 
 372      7746A0
 373 0992 2200E3ED 		.ascii	"\"\000\343\355\301\200j\237\234\370\275\271s\241\307"
 373      C1806A9F 
 373      9CF8BDB9 
 373      73A1C7
 374 09a1 0BFD5E6F 		.ascii	"\013\375^op&\364qi\250V\360\372\363}\225\225\336i\323"
 374      7026F471 
 374      69A856F0 
 374      FAF37D95 
 374      95DE69D3 
ARM GAS  /tmp/ccZgMH2q.s 			page 30


 375 09b5 FD76A66C 		.ascii	"\375v\246l\336\012\277sJ\371\324I\376\300L\254\024k"
 375      DE0ABF73 
 375      4AF9D449 
 375      FEC04CAC 
 375      146B
 376 09c7 95125629 		.ascii	"\225\022V)\360\227\005\312\374?.+\235\350\234\342\323"
 376      F09705CA 
 376      FC3F2E2B 
 376      9DE89CE2 
 376      D3
 377 09d8 8C7C8A51 		.ascii	"\214|\212Q\352\331\244|\006P\366\254\237\225\305jY\002"
 377      EAD9A47C 
 377      0650F6AC 
 377      9F95C56A 
 377      5902
 378 09ea 65CAA238 		.ascii	"e\312\2428\237y\343\023\037Z\244\236\224\0240\337J\037"
 378      9F79E313 
 378      1F5AA49E 
 378      941430DF 
 378      4A1F
 379 09fc BBC7BC53 		.ascii	"\273\307\274S\265\022\245\246\331=Y\300\020\324\247"
 379      B512A5A6 
 379      D93D59C0 
 379      10D4A7
 380 0a0b 3ECD4E7B 		.ascii	">\315N{\372]\373\324R/\304\022H\337z*/\020\360N\367"
 380      FA5DFBD4 
 380      522FC412 
 380      48DF7A2A 
 380      2F10F04E 
 381 0a20 8F80602B 		.ascii	"\217\200`+\212\003,T'\033r6\310yLE\377\007l\370ty"
 381      8A032C54 
 381      271B7236 
 381      C8794C45 
 381      FF076CF8 
 382              		.text
 383              		.section	.gnu.lto_.symtab.e6f647ec4480b524,"",%progbits
 384 0000 5F70616C 		.ascii	"_pal_lld_init\000\000\000\000\000\000\000\000\000\000"
 384      5F6C6C64 
 384      5F696E69 
 384      74000000 
 384      00000000 
 385 0017 0000A100 		.ascii	"\000\000\241\000\000\000_pal_lld_setgroupmode\000\000"
 385      00005F70 
 385      616C5F6C 
 385      6C645F73 
 385      65746772 
 386 0034 00000000 		.ascii	"\000\000\000\000\000\000\000\000\000\000\333\000\000"
 386      00000000 
 386      0000DB00 
 386      00
 387 0041 00       		.ascii	"\000"
 388              		.text
 389              		.section	.gnu.lto_.opts,"",%progbits
 390 0000 272D6D63 		.ascii	"'-mcpu=cortex-m4' '-mno-thumb-interwork' '-mthumb' "
 390      70753D63 
 390      6F727465 
 390      782D6D34 
ARM GAS  /tmp/ccZgMH2q.s 			page 31


 390      2720272D 
 391 0033 272D6767 		.ascii	"'-ggdb' '-O2' '-fomit-frame-pointer' '-falign-funct"
 391      64622720 
 391      272D4F32 
 391      2720272D 
 391      666F6D69 
 392 0066 696F6E73 		.ascii	"ions=16' '-ffunction-sections' '-fdata-sections' '-"
 392      3D313627 
 392      20272D66 
 392      66756E63 
 392      74696F6E 
 393 0099 666E6F2D 		.ascii	"fno-common' '-flto'\000"
 393      636F6D6D 
 393      6F6E2720 
 393      272D666C 
 393      746F2700 
 394              		.text
 395              		.cfi_sections	.debug_frame
 396              		.section	.text._pal_lld_init,"ax",%progbits
 397              		.align	2
 398              		.p2align 4,,15
 399              		.global	_pal_lld_init
 400              		.thumb
 401              		.thumb_func
 402              		.type	_pal_lld_init, %function
 403              	_pal_lld_init:
 404              	.LFB261:
 405              		.file 1 "/usr/src/chibios/os/hal/ports/STM32/LLD/GPIOv2/pal_lld.c"
 406              		.loc 1 92 0
 407              		.cfi_startproc
 408              		@ args = 0, pretend = 0, frame = 0
 409              		@ frame_needed = 0, uses_anonymous_args = 0
 410              		@ link register save eliminated.
 411              	.LVL0:
 412 0000 2DE9F00F 		push	{r4, r5, r6, r7, r8, r9, r10, fp}
 413              		.cfi_def_cfa_offset 32
 414              		.cfi_offset 4, -32
 415              		.cfi_offset 5, -28
 416              		.cfi_offset 6, -24
 417              		.cfi_offset 7, -20
 418              		.cfi_offset 8, -16
 419              		.cfi_offset 9, -12
 420              		.cfi_offset 10, -8
 421              		.cfi_offset 11, -4
 422              		.loc 1 105 0
 423 0004 DFF8AC91 		ldr	r9, .L2+28
 424              	.LBB20:
 425              	.LBB21:
 426              		.loc 1 67 0
 427 0008 DFF8AC81 		ldr	r8, .L2+32
 428              	.LBE21:
 429              	.LBE20:
 430              		.loc 1 105 0
 431 000c D9F830B0 		ldr	fp, [r9, #48]
 432              	.LBB23:
 433              	.LBB24:
 434              		.loc 1 67 0
ARM GAS  /tmp/ccZgMH2q.s 			page 32


 435 0010 DFF8A8C1 		ldr	ip, .L2+36
 436              	.LBE24:
 437              	.LBE23:
 438              	.LBB26:
 439              	.LBB27:
 440 0014 604F     		ldr	r7, .L2
 441              	.LBE27:
 442              	.LBE26:
 443              	.LBB29:
 444              	.LBB30:
 445 0016 614E     		ldr	r6, .L2+4
 446              	.LBE30:
 447              	.LBE29:
 448              	.LBB32:
 449              	.LBB33:
 450 0018 614D     		ldr	r5, .L2+8
 451              	.LBE33:
 452              	.LBE32:
 453              	.LBB35:
 454              	.LBB36:
 455 001a 624C     		ldr	r4, .L2+12
 456              	.LBE36:
 457              	.LBE35:
 458              	.LBB38:
 459              	.LBB39:
 460 001c 6249     		ldr	r1, .L2+16
 461              	.LBE39:
 462              	.LBE38:
 463              	.LBB41:
 464              	.LBB42:
 465 001e 634A     		ldr	r2, .L2+20
 466              	.LBE42:
 467              	.LBE41:
 468              		.loc 1 105 0
 469 0020 40F2FF1A 		movw	r10, #511
 470 0024 4BEA0A0B 		orr	fp, fp, r10
 471 0028 C9F830B0 		str	fp, [r9, #48]
 472              		.loc 1 106 0
 473 002c D9F850B0 		ldr	fp, [r9, #80]
 474 0030 4BEA0A0A 		orr	r10, fp, r10
 475 0034 C9F850A0 		str	r10, [r9, #80]
 476              	.LVL1:
 477              	.LBB44:
 478              	.LBB22:
 479              		.loc 1 67 0
 480 0038 4368     		ldr	r3, [r0, #4]
 481 003a C8F80430 		str	r3, [r8, #4]
 482              		.loc 1 68 0
 483 003e 8368     		ldr	r3, [r0, #8]
 484 0040 C8F80830 		str	r3, [r8, #8]
 485              		.loc 1 69 0
 486 0044 C368     		ldr	r3, [r0, #12]
 487 0046 C8F80C30 		str	r3, [r8, #12]
 488              		.loc 1 70 0
 489 004a 0369     		ldr	r3, [r0, #16]
 490 004c C8F81430 		str	r3, [r8, #20]
 491              		.loc 1 71 0
ARM GAS  /tmp/ccZgMH2q.s 			page 33


 492 0050 4369     		ldr	r3, [r0, #20]
 493 0052 C8F82030 		str	r3, [r8, #32]
 494              		.loc 1 72 0
 495 0056 8369     		ldr	r3, [r0, #24]
 496 0058 C8F82430 		str	r3, [r8, #36]
 497              		.loc 1 73 0
 498 005c 0368     		ldr	r3, [r0]
 499 005e C8F80030 		str	r3, [r8]
 500              	.LVL2:
 501              	.LBE22:
 502              	.LBE44:
 503              	.LBB45:
 504              	.LBB25:
 505              		.loc 1 67 0
 506 0062 036A     		ldr	r3, [r0, #32]
 507 0064 CCF80430 		str	r3, [ip, #4]
 508              		.loc 1 68 0
 509 0068 436A     		ldr	r3, [r0, #36]
 510 006a CCF80830 		str	r3, [ip, #8]
 511              		.loc 1 69 0
 512 006e 836A     		ldr	r3, [r0, #40]
 513 0070 CCF80C30 		str	r3, [ip, #12]
 514              		.loc 1 70 0
 515 0074 C36A     		ldr	r3, [r0, #44]
 516 0076 CCF81430 		str	r3, [ip, #20]
 517              		.loc 1 71 0
 518 007a 036B     		ldr	r3, [r0, #48]
 519 007c CCF82030 		str	r3, [ip, #32]
 520              		.loc 1 72 0
 521 0080 436B     		ldr	r3, [r0, #52]
 522 0082 CCF82430 		str	r3, [ip, #36]
 523              		.loc 1 73 0
 524 0086 C369     		ldr	r3, [r0, #28]
 525 0088 CCF80030 		str	r3, [ip]
 526              	.LVL3:
 527              	.LBE25:
 528              	.LBE45:
 529              	.LBB46:
 530              	.LBB28:
 531              		.loc 1 67 0
 532 008c C36B     		ldr	r3, [r0, #60]
 533 008e 7B60     		str	r3, [r7, #4]
 534              		.loc 1 68 0
 535 0090 036C     		ldr	r3, [r0, #64]
 536 0092 BB60     		str	r3, [r7, #8]
 537              		.loc 1 69 0
 538 0094 436C     		ldr	r3, [r0, #68]
 539 0096 FB60     		str	r3, [r7, #12]
 540              		.loc 1 70 0
 541 0098 836C     		ldr	r3, [r0, #72]
 542 009a 7B61     		str	r3, [r7, #20]
 543              		.loc 1 71 0
 544 009c C36C     		ldr	r3, [r0, #76]
 545 009e 3B62     		str	r3, [r7, #32]
 546              		.loc 1 72 0
 547 00a0 036D     		ldr	r3, [r0, #80]
 548 00a2 7B62     		str	r3, [r7, #36]
ARM GAS  /tmp/ccZgMH2q.s 			page 34


 549              		.loc 1 73 0
 550 00a4 836B     		ldr	r3, [r0, #56]
 551 00a6 3B60     		str	r3, [r7]
 552              	.LVL4:
 553              	.LBE28:
 554              	.LBE46:
 555              	.LBB47:
 556              	.LBB31:
 557              		.loc 1 67 0
 558 00a8 876D     		ldr	r7, [r0, #88]
 559 00aa 7760     		str	r7, [r6, #4]
 560              		.loc 1 68 0
 561 00ac C76D     		ldr	r7, [r0, #92]
 562 00ae B760     		str	r7, [r6, #8]
 563              		.loc 1 69 0
 564 00b0 076E     		ldr	r7, [r0, #96]
 565 00b2 F760     		str	r7, [r6, #12]
 566              		.loc 1 70 0
 567 00b4 476E     		ldr	r7, [r0, #100]
 568 00b6 7761     		str	r7, [r6, #20]
 569              		.loc 1 71 0
 570 00b8 876E     		ldr	r7, [r0, #104]
 571 00ba 3762     		str	r7, [r6, #32]
 572              		.loc 1 72 0
 573 00bc C76E     		ldr	r7, [r0, #108]
 574 00be 7762     		str	r7, [r6, #36]
 575              		.loc 1 73 0
 576 00c0 476D     		ldr	r7, [r0, #84]
 577 00c2 3760     		str	r7, [r6]
 578              	.LVL5:
 579              	.LBE31:
 580              	.LBE47:
 581              	.LBB48:
 582              	.LBB34:
 583              		.loc 1 67 0
 584 00c4 466F     		ldr	r6, [r0, #116]
 585 00c6 6E60     		str	r6, [r5, #4]
 586              		.loc 1 68 0
 587 00c8 866F     		ldr	r6, [r0, #120]
 588 00ca AE60     		str	r6, [r5, #8]
 589              		.loc 1 69 0
 590 00cc C66F     		ldr	r6, [r0, #124]
 591 00ce EE60     		str	r6, [r5, #12]
 592              		.loc 1 70 0
 593 00d0 D0F88060 		ldr	r6, [r0, #128]
 594 00d4 6E61     		str	r6, [r5, #20]
 595              		.loc 1 71 0
 596 00d6 D0F88460 		ldr	r6, [r0, #132]
 597 00da 2E62     		str	r6, [r5, #32]
 598              		.loc 1 72 0
 599 00dc D0F88860 		ldr	r6, [r0, #136]
 600 00e0 6E62     		str	r6, [r5, #36]
 601              		.loc 1 73 0
 602 00e2 066F     		ldr	r6, [r0, #112]
 603 00e4 2E60     		str	r6, [r5]
 604              	.LVL6:
 605              	.LBE34:
ARM GAS  /tmp/ccZgMH2q.s 			page 35


 606              	.LBE48:
 607              	.LBB49:
 608              	.LBB37:
 609              		.loc 1 67 0
 610 00e6 D0F89050 		ldr	r5, [r0, #144]
 611 00ea 6560     		str	r5, [r4, #4]
 612              		.loc 1 68 0
 613 00ec D0F89450 		ldr	r5, [r0, #148]
 614 00f0 A560     		str	r5, [r4, #8]
 615              		.loc 1 69 0
 616 00f2 D0F89850 		ldr	r5, [r0, #152]
 617 00f6 E560     		str	r5, [r4, #12]
 618              		.loc 1 70 0
 619 00f8 D0F89C50 		ldr	r5, [r0, #156]
 620 00fc 6561     		str	r5, [r4, #20]
 621              		.loc 1 71 0
 622 00fe D0F8A050 		ldr	r5, [r0, #160]
 623 0102 2562     		str	r5, [r4, #32]
 624              		.loc 1 72 0
 625 0104 D0F8A450 		ldr	r5, [r0, #164]
 626 0108 6562     		str	r5, [r4, #36]
 627              		.loc 1 73 0
 628 010a D0F88C50 		ldr	r5, [r0, #140]
 629 010e 2560     		str	r5, [r4]
 630              	.LVL7:
 631              	.LBE37:
 632              	.LBE49:
 633              	.LBB50:
 634              	.LBB40:
 635              		.loc 1 67 0
 636 0110 D0F8AC40 		ldr	r4, [r0, #172]
 637 0114 4C60     		str	r4, [r1, #4]
 638              		.loc 1 68 0
 639 0116 D0F8B040 		ldr	r4, [r0, #176]
 640 011a 8C60     		str	r4, [r1, #8]
 641              		.loc 1 69 0
 642 011c D0F8B440 		ldr	r4, [r0, #180]
 643 0120 CC60     		str	r4, [r1, #12]
 644              		.loc 1 70 0
 645 0122 D0F8B840 		ldr	r4, [r0, #184]
 646 0126 4C61     		str	r4, [r1, #20]
 647              		.loc 1 71 0
 648 0128 D0F8BC40 		ldr	r4, [r0, #188]
 649 012c 0C62     		str	r4, [r1, #32]
 650              		.loc 1 72 0
 651 012e D0F8C040 		ldr	r4, [r0, #192]
 652 0132 4C62     		str	r4, [r1, #36]
 653              		.loc 1 73 0
 654 0134 D0F8A840 		ldr	r4, [r0, #168]
 655 0138 0C60     		str	r4, [r1]
 656              	.LVL8:
 657              	.LBE40:
 658              	.LBE50:
 659              	.LBB51:
 660              	.LBB43:
 661              		.loc 1 67 0
 662 013a D0F8C810 		ldr	r1, [r0, #200]
ARM GAS  /tmp/ccZgMH2q.s 			page 36


 663 013e 5160     		str	r1, [r2, #4]
 664              		.loc 1 68 0
 665 0140 D0F8CC10 		ldr	r1, [r0, #204]
 666 0144 9160     		str	r1, [r2, #8]
 667              		.loc 1 69 0
 668 0146 D0F8D010 		ldr	r1, [r0, #208]
 669 014a D160     		str	r1, [r2, #12]
 670              		.loc 1 70 0
 671 014c D0F8D410 		ldr	r1, [r0, #212]
 672 0150 5161     		str	r1, [r2, #20]
 673              		.loc 1 71 0
 674 0152 D0F8D810 		ldr	r1, [r0, #216]
 675 0156 1162     		str	r1, [r2, #32]
 676              		.loc 1 72 0
 677 0158 D0F8DC10 		ldr	r1, [r0, #220]
 678 015c 5162     		str	r1, [r2, #36]
 679              		.loc 1 73 0
 680 015e D0F8C410 		ldr	r1, [r0, #196]
 681 0162 1160     		str	r1, [r2]
 682              	.LVL9:
 683              	.LBE43:
 684              	.LBE51:
 685              	.LBB52:
 686              	.LBB53:
 687              		.loc 1 67 0
 688 0164 124B     		ldr	r3, .L2+24
 689 0166 D0F8E420 		ldr	r2, [r0, #228]
 690 016a 5A60     		str	r2, [r3, #4]
 691              		.loc 1 68 0
 692 016c D0F8E820 		ldr	r2, [r0, #232]
 693 0170 9A60     		str	r2, [r3, #8]
 694              		.loc 1 69 0
 695 0172 D0F8EC20 		ldr	r2, [r0, #236]
 696 0176 DA60     		str	r2, [r3, #12]
 697              		.loc 1 70 0
 698 0178 D0F8F020 		ldr	r2, [r0, #240]
 699 017c 5A61     		str	r2, [r3, #20]
 700              		.loc 1 71 0
 701 017e D0F8F420 		ldr	r2, [r0, #244]
 702 0182 1A62     		str	r2, [r3, #32]
 703              		.loc 1 72 0
 704 0184 D0F8F820 		ldr	r2, [r0, #248]
 705 0188 5A62     		str	r2, [r3, #36]
 706              		.loc 1 73 0
 707 018a D0F8E020 		ldr	r2, [r0, #224]
 708 018e 1A60     		str	r2, [r3]
 709              	.LBE53:
 710              	.LBE52:
 711              		.loc 1 139 0
 712 0190 BDE8F00F 		pop	{r4, r5, r6, r7, r8, r9, r10, fp}
 713 0194 7047     		bx	lr
 714              	.L3:
 715 0196 00BF     		.align	2
 716              	.L2:
 717 0198 00080240 		.word	1073874944
 718 019c 000C0240 		.word	1073875968
 719 01a0 00100240 		.word	1073876992
ARM GAS  /tmp/ccZgMH2q.s 			page 37


 720 01a4 00140240 		.word	1073878016
 721 01a8 00180240 		.word	1073879040
 722 01ac 001C0240 		.word	1073880064
 723 01b0 00200240 		.word	1073881088
 724 01b4 00380240 		.word	1073887232
 725 01b8 00000240 		.word	1073872896
 726 01bc 00040240 		.word	1073873920
 727              		.cfi_endproc
 728              	.LFE261:
 729              		.size	_pal_lld_init, .-_pal_lld_init
 730              		.section	.text._pal_lld_setgroupmode,"ax",%progbits
 731              		.align	2
 732              		.p2align 4,,15
 733              		.global	_pal_lld_setgroupmode
 734              		.thumb
 735              		.thumb_func
 736              		.type	_pal_lld_setgroupmode, %function
 737              	_pal_lld_setgroupmode:
 738              	.LFB262:
 739              		.loc 1 157 0
 740              		.cfi_startproc
 741              		@ args = 0, pretend = 0, frame = 0
 742              		@ frame_needed = 0, uses_anonymous_args = 0
 743              		@ link register save eliminated.
 744              	.LVL10:
 745 0000 2DE9F00F 		push	{r4, r5, r6, r7, r8, r9, r10, fp}
 746              		.cfi_def_cfa_offset 32
 747              		.cfi_offset 4, -32
 748              		.cfi_offset 5, -28
 749              		.cfi_offset 6, -24
 750              		.cfi_offset 7, -20
 751              		.cfi_offset 8, -16
 752              		.cfi_offset 9, -12
 753              		.cfi_offset 10, -8
 754              		.cfi_offset 11, -4
 755              		.loc 1 164 0
 756 0004 0023     		movs	r3, #0
 757              		.loc 1 159 0
 758 0006 02F00307 		and	r7, r2, #3
 759              	.LVL11:
 760              		.loc 1 160 0
 761 000a C2F38006 		ubfx	r6, r2, #2, #1
 762              	.LVL12:
 763              		.loc 1 161 0
 764 000e C2F3C105 		ubfx	r5, r2, #3, #2
 765              	.LVL13:
 766              		.loc 1 162 0
 767 0012 C2F34114 		ubfx	r4, r2, #5, #2
 768              	.LVL14:
 769              	.LBB54:
 770              		.loc 1 170 0
 771 0016 4FF00F09 		mov	r9, #15
 772              	.LBE54:
 773              		.loc 1 163 0
 774 001a C2F3C312 		ubfx	r2, r2, #7, #4
 775              	.LVL15:
 776              	.LBB55:
ARM GAS  /tmp/ccZgMH2q.s 			page 38


 777              		.loc 1 175 0
 778 001e 4FF0010A 		mov	r10, #1
 779 0022 38E0     		b	.L9
 780              	.LVL16:
 781              	.L14:
 782              		.loc 1 172 0
 783 0024 D0F820B0 		ldr	fp, [r0, #32]
 784 0028 2BEA0C0C 		bic	ip, fp, ip
 785              	.LVL17:
 786 002c 4CEA0808 		orr	r8, ip, r8
 787              	.LVL18:
 788 0030 C0F82080 		str	r8, [r0, #32]
 789              	.L7:
 790              	.LVL19:
 791              		.loc 1 176 0
 792 0034 D0F804C0 		ldr	ip, [r0, #4]
 793              		.loc 1 175 0
 794 0038 0AFA03F8 		lsl	r8, r10, r3
 795              		.loc 1 176 0
 796 003c 2CEA080C 		bic	ip, ip, r8
 797 0040 4CEA060C 		orr	ip, ip, r6
 798 0044 C0F804C0 		str	ip, [r0, #4]
 799              	.LVL20:
 800              		.loc 1 177 0
 801 0048 4FF0030B 		mov	fp, #3
 802 004c 4FEA430C 		lsl	ip, r3, #1
 803              		.loc 1 178 0
 804 0050 D0F80880 		ldr	r8, [r0, #8]
 805              		.loc 1 177 0
 806 0054 0BFA0CFC 		lsl	ip, fp, ip
 807              	.LVL21:
 808              		.loc 1 178 0
 809 0058 6FEA0C0C 		mvn	ip, ip
 810              	.LVL22:
 811 005c 0CEA0808 		and	r8, ip, r8
 812 0060 48EA0508 		orr	r8, r8, r5
 813 0064 C0F80880 		str	r8, [r0, #8]
 814              		.loc 1 179 0
 815 0068 D0F80C80 		ldr	r8, [r0, #12]
 816 006c 0CEA0808 		and	r8, ip, r8
 817 0070 48EA0408 		orr	r8, r8, r4
 818 0074 C0F80C80 		str	r8, [r0, #12]
 819              		.loc 1 180 0
 820 0078 D0F80080 		ldr	r8, [r0]
 821 007c 0CEA080C 		and	ip, ip, r8
 822              	.LVL23:
 823 0080 4CEA070C 		orr	ip, ip, r7
 824 0084 C0F800C0 		str	ip, [r0]
 825              	.LVL24:
 826              	.L5:
 827              	.LBE55:
 828              		.loc 1 183 0
 829 0088 4908     		lsrs	r1, r1, #1
 830              	.LVL25:
 831 008a 1AD0     		beq	.L4
 832              		.loc 1 185 0
 833 008c 7600     		lsls	r6, r6, #1
ARM GAS  /tmp/ccZgMH2q.s 			page 39


 834              	.LVL26:
 835              		.loc 1 186 0
 836 008e AD00     		lsls	r5, r5, #2
 837              	.LVL27:
 838              		.loc 1 187 0
 839 0090 A400     		lsls	r4, r4, #2
 840              	.LVL28:
 841              		.loc 1 188 0
 842 0092 BF00     		lsls	r7, r7, #2
 843              	.LVL29:
 844              		.loc 1 189 0
 845 0094 0133     		adds	r3, r3, #1
 846              	.LVL30:
 847              	.L9:
 848              	.LBB56:
 849              		.loc 1 169 0
 850 0096 03F0070C 		and	ip, r3, #7
 851 009a 4FEA8C0C 		lsl	ip, ip, #2
 852              	.LBE56:
 853              		.loc 1 166 0
 854 009e 11F0010F 		tst	r1, #1
 855              	.LBB57:
 856              		.loc 1 169 0
 857 00a2 02FA0CF8 		lsl	r8, r2, ip
 858              	.LVL31:
 859              		.loc 1 170 0
 860 00a6 09FA0CFC 		lsl	ip, r9, ip
 861              	.LVL32:
 862              	.LBE57:
 863              		.loc 1 166 0
 864 00aa EDD0     		beq	.L5
 865              	.LBB58:
 866              		.loc 1 171 0
 867 00ac 072B     		cmp	r3, #7
 868 00ae B9D9     		bls	.L14
 869              		.loc 1 174 0
 870 00b0 D0F824B0 		ldr	fp, [r0, #36]
 871 00b4 2BEA0C0C 		bic	ip, fp, ip
 872              	.LVL33:
 873 00b8 4CEA0808 		orr	r8, ip, r8
 874              	.LVL34:
 875 00bc C0F82480 		str	r8, [r0, #36]
 876 00c0 B8E7     		b	.L7
 877              	.L4:
 878              	.LBE58:
 879              		.loc 1 191 0
 880 00c2 BDE8F00F 		pop	{r4, r5, r6, r7, r8, r9, r10, fp}
 881              	.LVL35:
 882 00c6 7047     		bx	lr
 883              		.cfi_endproc
 884              	.LFE262:
 885              		.size	_pal_lld_setgroupmode, .-_pal_lld_setgroupmode
 886              		.text
 887              	.Letext0:
 888              		.file 2 "/usr/include/newlib/machine/_default_types.h"
 889              		.file 3 "/usr/include/newlib/sys/_stdint.h"
 890              		.file 4 "/usr/src/chibios/os/rt/ports/ARMCMx/compilers/GCC/chtypes.h"
ARM GAS  /tmp/ccZgMH2q.s 			page 40


 891              		.file 5 "/usr/src/chibios/os/rt/include/chsystypes.h"
 892              		.file 6 "/usr/src/chibios/os/rt/include/chschd.h"
 893              		.file 7 "/usr/src/chibios/os/ext/CMSIS/ST/stm32f407xx.h"
 894              		.file 8 "/usr/src/chibios/os/rt/ports/ARMCMx/chcore.h"
 895              		.file 9 "/usr/src/chibios/os/rt/ports/ARMCMx/chcore_v7m.h"
 896              		.file 10 "/usr/src/chibios/os/rt/include/chtm.h"
 897              		.file 11 "/usr/src/chibios/os/rt/include/chsem.h"
 898              		.file 12 "/usr/src/chibios/os/rt/include/chmtx.h"
 899              		.file 13 "/usr/src/chibios/os/hal/ports/STM32/LLD/GPIOv2/pal_lld.h"
 900              		.file 14 "/usr/src/chibios/os/ext/CMSIS/include/core_cm4.h"
 901              		.section	.debug_info,"",%progbits
 902              	.Ldebug_info0:
 903 0000 6D0C0000 		.4byte	0xc6d
 904 0004 0400     		.2byte	0x4
 905 0006 00000000 		.4byte	.Ldebug_abbrev0
 906 000a 04       		.byte	0x4
 907 000b 01       		.uleb128 0x1
 908 000c 0C030000 		.4byte	.LASF172
 909 0010 01       		.byte	0x1
 910 0011 2A010000 		.4byte	.LASF173
 911 0015 F0000000 		.4byte	.Ldebug_ranges0+0xf0
 912 0019 00000000 		.4byte	0
 913 001d 00000000 		.4byte	.Ldebug_line0
 914 0021 02       		.uleb128 0x2
 915 0022 04       		.byte	0x4
 916 0023 05       		.byte	0x5
 917 0024 696E7400 		.ascii	"int\000"
 918 0028 03       		.uleb128 0x3
 919 0029 04       		.byte	0x4
 920 002a 07       		.byte	0x7
 921 002b 30020000 		.4byte	.LASF0
 922 002f 03       		.uleb128 0x3
 923 0030 01       		.byte	0x1
 924 0031 06       		.byte	0x6
 925 0032 00010000 		.4byte	.LASF1
 926 0036 04       		.uleb128 0x4
 927 0037 36000000 		.4byte	.LASF4
 928 003b 02       		.byte	0x2
 929 003c 1D       		.byte	0x1d
 930 003d 41000000 		.4byte	0x41
 931 0041 03       		.uleb128 0x3
 932 0042 01       		.byte	0x1
 933 0043 08       		.byte	0x8
 934 0044 FE040000 		.4byte	.LASF2
 935 0048 03       		.uleb128 0x3
 936 0049 02       		.byte	0x2
 937 004a 05       		.byte	0x5
 938 004b 21050000 		.4byte	.LASF3
 939 004f 04       		.uleb128 0x4
 940 0050 FB050000 		.4byte	.LASF5
 941 0054 02       		.byte	0x2
 942 0055 2B       		.byte	0x2b
 943 0056 5A000000 		.4byte	0x5a
 944 005a 03       		.uleb128 0x3
 945 005b 02       		.byte	0x2
 946 005c 07       		.byte	0x7
 947 005d 6B020000 		.4byte	.LASF6
ARM GAS  /tmp/ccZgMH2q.s 			page 41


 948 0061 04       		.uleb128 0x4
 949 0062 E1020000 		.4byte	.LASF7
 950 0066 02       		.byte	0x2
 951 0067 3F       		.byte	0x3f
 952 0068 6C000000 		.4byte	0x6c
 953 006c 03       		.uleb128 0x3
 954 006d 04       		.byte	0x4
 955 006e 05       		.byte	0x5
 956 006f 7F010000 		.4byte	.LASF8
 957 0073 04       		.uleb128 0x4
 958 0074 3D060000 		.4byte	.LASF9
 959 0078 02       		.byte	0x2
 960 0079 41       		.byte	0x41
 961 007a 7E000000 		.4byte	0x7e
 962 007e 03       		.uleb128 0x3
 963 007f 04       		.byte	0x4
 964 0080 07       		.byte	0x7
 965 0081 D3050000 		.4byte	.LASF10
 966 0085 03       		.uleb128 0x3
 967 0086 08       		.byte	0x8
 968 0087 05       		.byte	0x5
 969 0088 F2000000 		.4byte	.LASF11
 970 008c 04       		.uleb128 0x4
 971 008d 78040000 		.4byte	.LASF12
 972 0091 02       		.byte	0x2
 973 0092 5B       		.byte	0x5b
 974 0093 97000000 		.4byte	0x97
 975 0097 03       		.uleb128 0x3
 976 0098 08       		.byte	0x8
 977 0099 07       		.byte	0x7
 978 009a 7C000000 		.4byte	.LASF13
 979 009e 04       		.uleb128 0x4
 980 009f F1060000 		.4byte	.LASF14
 981 00a3 03       		.byte	0x3
 982 00a4 14       		.byte	0x14
 983 00a5 36000000 		.4byte	0x36
 984 00a9 04       		.uleb128 0x4
 985 00aa AB010000 		.4byte	.LASF15
 986 00ae 03       		.byte	0x3
 987 00af 1A       		.byte	0x1a
 988 00b0 4F000000 		.4byte	0x4f
 989 00b4 04       		.uleb128 0x4
 990 00b5 F6040000 		.4byte	.LASF16
 991 00b9 03       		.byte	0x3
 992 00ba 1F       		.byte	0x1f
 993 00bb 61000000 		.4byte	0x61
 994 00bf 04       		.uleb128 0x4
 995 00c0 A2050000 		.4byte	.LASF17
 996 00c4 03       		.byte	0x3
 997 00c5 20       		.byte	0x20
 998 00c6 73000000 		.4byte	0x73
 999 00ca 04       		.uleb128 0x4
 1000 00cb 2D000000 		.4byte	.LASF18
 1001 00cf 03       		.byte	0x3
 1002 00d0 26       		.byte	0x26
 1003 00d1 8C000000 		.4byte	0x8c
 1004 00d5 05       		.uleb128 0x5
ARM GAS  /tmp/ccZgMH2q.s 			page 42


 1005 00d6 B4000000 		.4byte	0xb4
 1006 00da 05       		.uleb128 0x5
 1007 00db BF000000 		.4byte	0xbf
 1008 00df 04       		.uleb128 0x4
 1009 00e0 A3060000 		.4byte	.LASF19
 1010 00e4 04       		.byte	0x4
 1011 00e5 45       		.byte	0x45
 1012 00e6 BF000000 		.4byte	0xbf
 1013 00ea 04       		.uleb128 0x4
 1014 00eb B5020000 		.4byte	.LASF20
 1015 00ef 04       		.byte	0x4
 1016 00f0 48       		.byte	0x48
 1017 00f1 9E000000 		.4byte	0x9e
 1018 00f5 04       		.uleb128 0x4
 1019 00f6 A2010000 		.4byte	.LASF21
 1020 00fa 04       		.byte	0x4
 1021 00fb 49       		.byte	0x49
 1022 00fc 9E000000 		.4byte	0x9e
 1023 0100 04       		.uleb128 0x4
 1024 0101 8D040000 		.4byte	.LASF22
 1025 0105 04       		.byte	0x4
 1026 0106 4A       		.byte	0x4a
 1027 0107 9E000000 		.4byte	0x9e
 1028 010b 04       		.uleb128 0x4
 1029 010c D8040000 		.4byte	.LASF23
 1030 0110 04       		.byte	0x4
 1031 0111 4C       		.byte	0x4c
 1032 0112 BF000000 		.4byte	0xbf
 1033 0116 04       		.uleb128 0x4
 1034 0117 9A020000 		.4byte	.LASF24
 1035 011b 04       		.byte	0x4
 1036 011c 4D       		.byte	0x4d
 1037 011d B4000000 		.4byte	0xb4
 1038 0121 04       		.uleb128 0x4
 1039 0122 D5020000 		.4byte	.LASF25
 1040 0126 04       		.byte	0x4
 1041 0127 4F       		.byte	0x4f
 1042 0128 BF000000 		.4byte	0xbf
 1043 012c 04       		.uleb128 0x4
 1044 012d 2A020000 		.4byte	.LASF26
 1045 0131 04       		.byte	0x4
 1046 0132 51       		.byte	0x51
 1047 0133 B4000000 		.4byte	0xb4
 1048 0137 04       		.uleb128 0x4
 1049 0138 1F060000 		.4byte	.LASF27
 1050 013c 05       		.byte	0x5
 1051 013d 33       		.byte	0x33
 1052 013e BF000000 		.4byte	0xbf
 1053 0142 04       		.uleb128 0x4
 1054 0143 0F060000 		.4byte	.LASF28
 1055 0147 05       		.byte	0x5
 1056 0148 3F       		.byte	0x3f
 1057 0149 4D010000 		.4byte	0x14d
 1058 014d 06       		.uleb128 0x6
 1059 014e 85020000 		.4byte	.LASF48
 1060 0152 44       		.byte	0x44
 1061 0153 06       		.byte	0x6
ARM GAS  /tmp/ccZgMH2q.s 			page 43


 1062 0154 C2       		.byte	0xc2
 1063 0155 3A020000 		.4byte	0x23a
 1064 0159 07       		.uleb128 0x7
 1065 015a 15040000 		.4byte	.LASF29
 1066 015e 06       		.byte	0x6
 1067 015f C3       		.byte	0xc3
 1068 0160 45020000 		.4byte	0x245
 1069 0164 00       		.byte	0
 1070 0165 07       		.uleb128 0x7
 1071 0166 C7040000 		.4byte	.LASF30
 1072 016a 06       		.byte	0x6
 1073 016b C5       		.byte	0xc5
 1074 016c 45020000 		.4byte	0x245
 1075 0170 04       		.byte	0x4
 1076 0171 07       		.uleb128 0x7
 1077 0172 EB000000 		.4byte	.LASF31
 1078 0176 06       		.byte	0x6
 1079 0177 C7       		.byte	0xc7
 1080 0178 0B010000 		.4byte	0x10b
 1081 017c 08       		.byte	0x8
 1082 017d 07       		.uleb128 0x7
 1083 017e 4A070000 		.4byte	.LASF32
 1084 0182 06       		.byte	0x6
 1085 0183 C8       		.byte	0xc8
 1086 0184 20060000 		.4byte	0x620
 1087 0188 0C       		.byte	0xc
 1088 0189 07       		.uleb128 0x7
 1089 018a BD010000 		.4byte	.LASF33
 1090 018e 06       		.byte	0x6
 1091 018f CA       		.byte	0xca
 1092 0190 45020000 		.4byte	0x245
 1093 0194 10       		.byte	0x10
 1094 0195 07       		.uleb128 0x7
 1095 0196 30040000 		.4byte	.LASF34
 1096 019a 06       		.byte	0x6
 1097 019b CB       		.byte	0xcb
 1098 019c 45020000 		.4byte	0x245
 1099 01a0 14       		.byte	0x14
 1100 01a1 07       		.uleb128 0x7
 1101 01a2 06070000 		.4byte	.LASF35
 1102 01a6 06       		.byte	0x6
 1103 01a7 D2       		.byte	0xd2
 1104 01a8 9F070000 		.4byte	0x79f
 1105 01ac 18       		.byte	0x18
 1106 01ad 07       		.uleb128 0x7
 1107 01ae 2B050000 		.4byte	.LASF36
 1108 01b2 06       		.byte	0x6
 1109 01b3 DD       		.byte	0xdd
 1110 01b4 F5000000 		.4byte	0xf5
 1111 01b8 1C       		.byte	0x1c
 1112 01b9 07       		.uleb128 0x7
 1113 01ba 52050000 		.4byte	.LASF37
 1114 01be 06       		.byte	0x6
 1115 01bf E1       		.byte	0xe1
 1116 01c0 EA000000 		.4byte	0xea
 1117 01c4 1D       		.byte	0x1d
 1118 01c5 07       		.uleb128 0x7
ARM GAS  /tmp/ccZgMH2q.s 			page 44


 1119 01c6 D1060000 		.4byte	.LASF38
 1120 01ca 06       		.byte	0x6
 1121 01cb E6       		.byte	0xe6
 1122 01cc 00010000 		.4byte	0x100
 1123 01d0 1E       		.byte	0x1e
 1124 01d1 08       		.uleb128 0x8
 1125 01d2 705F7500 		.ascii	"p_u\000"
 1126 01d6 06       		.byte	0x6
 1127 01d7 3101     		.2byte	0x131
 1128 01d9 DA060000 		.4byte	0x6da
 1129 01dd 20       		.byte	0x20
 1130 01de 09       		.uleb128 0x9
 1131 01df D2030000 		.4byte	.LASF39
 1132 01e3 06       		.byte	0x6
 1133 01e4 3601     		.2byte	0x136
 1134 01e6 4B020000 		.4byte	0x24b
 1135 01ea 24       		.byte	0x24
 1136 01eb 09       		.uleb128 0x9
 1137 01ec 4C020000 		.4byte	.LASF40
 1138 01f0 06       		.byte	0x6
 1139 01f1 3C01     		.2byte	0x13c
 1140 01f3 6F020000 		.4byte	0x26f
 1141 01f7 28       		.byte	0x28
 1142 01f8 09       		.uleb128 0x9
 1143 01f9 29070000 		.4byte	.LASF41
 1144 01fd 06       		.byte	0x6
 1145 01fe 4001     		.2byte	0x140
 1146 0200 16010000 		.4byte	0x116
 1147 0204 30       		.byte	0x30
 1148 0205 09       		.uleb128 0x9
 1149 0206 8D050000 		.4byte	.LASF42
 1150 020a 06       		.byte	0x6
 1151 020b 4601     		.2byte	0x146
 1152 020d 21010000 		.4byte	0x121
 1153 0211 34       		.byte	0x34
 1154 0212 09       		.uleb128 0x9
 1155 0213 17050000 		.4byte	.LASF43
 1156 0217 06       		.byte	0x6
 1157 0218 4D01     		.2byte	0x14d
 1158 021a 99070000 		.4byte	0x799
 1159 021e 38       		.byte	0x38
 1160 021f 09       		.uleb128 0x9
 1161 0220 29060000 		.4byte	.LASF44
 1162 0224 06       		.byte	0x6
 1163 0225 5101     		.2byte	0x151
 1164 0227 0B010000 		.4byte	0x10b
 1165 022b 3C       		.byte	0x3c
 1166 022c 09       		.uleb128 0x9
 1167 022d 1A010000 		.4byte	.LASF45
 1168 0231 06       		.byte	0x6
 1169 0232 5801     		.2byte	0x158
 1170 0234 22030000 		.4byte	0x322
 1171 0238 40       		.byte	0x40
 1172 0239 00       		.byte	0
 1173 023a 04       		.uleb128 0x4
 1174 023b E5030000 		.4byte	.LASF46
 1175 023f 05       		.byte	0x5
ARM GAS  /tmp/ccZgMH2q.s 			page 45


 1176 0240 44       		.byte	0x44
 1177 0241 45020000 		.4byte	0x245
 1178 0245 0A       		.uleb128 0xa
 1179 0246 04       		.byte	0x4
 1180 0247 42010000 		.4byte	0x142
 1181 024b 04       		.uleb128 0x4
 1182 024c FD020000 		.4byte	.LASF47
 1183 0250 05       		.byte	0x5
 1184 0251 49       		.byte	0x49
 1185 0252 56020000 		.4byte	0x256
 1186 0256 06       		.uleb128 0x6
 1187 0257 C3050000 		.4byte	.LASF49
 1188 025b 04       		.byte	0x4
 1189 025c 06       		.byte	0x6
 1190 025d B0       		.byte	0xb0
 1191 025e 6F020000 		.4byte	0x26f
 1192 0262 07       		.uleb128 0x7
 1193 0263 15040000 		.4byte	.LASF29
 1194 0267 06       		.byte	0x6
 1195 0268 B1       		.byte	0xb1
 1196 0269 45020000 		.4byte	0x245
 1197 026d 00       		.byte	0
 1198 026e 00       		.byte	0
 1199 026f 04       		.uleb128 0x4
 1200 0270 B8060000 		.4byte	.LASF50
 1201 0274 05       		.byte	0x5
 1202 0275 50       		.byte	0x50
 1203 0276 7A020000 		.4byte	0x27a
 1204 027a 06       		.uleb128 0x6
 1205 027b D0000000 		.4byte	.LASF51
 1206 027f 08       		.byte	0x8
 1207 0280 06       		.byte	0x6
 1208 0281 B7       		.byte	0xb7
 1209 0282 9F020000 		.4byte	0x29f
 1210 0286 07       		.uleb128 0x7
 1211 0287 15040000 		.4byte	.LASF29
 1212 028b 06       		.byte	0x6
 1213 028c B8       		.byte	0xb8
 1214 028d 45020000 		.4byte	0x245
 1215 0291 00       		.byte	0
 1216 0292 07       		.uleb128 0x7
 1217 0293 C7040000 		.4byte	.LASF30
 1218 0297 06       		.byte	0x6
 1219 0298 B9       		.byte	0xb9
 1220 0299 45020000 		.4byte	0x245
 1221 029d 04       		.byte	0x4
 1222 029e 00       		.byte	0
 1223 029f 04       		.uleb128 0x4
 1224 02a0 13000000 		.4byte	.LASF52
 1225 02a4 05       		.byte	0x5
 1226 02a5 57       		.byte	0x57
 1227 02a6 AA020000 		.4byte	0x2aa
 1228 02aa 0B       		.uleb128 0xb
 1229 02ab C7020000 		.4byte	.LASF53
 1230 02af 1C       		.byte	0x1c
 1231 02b0 06       		.byte	0x6
 1232 02b1 9001     		.2byte	0x190
ARM GAS  /tmp/ccZgMH2q.s 			page 46


 1233 02b3 06030000 		.4byte	0x306
 1234 02b7 09       		.uleb128 0x9
 1235 02b8 B2050000 		.4byte	.LASF54
 1236 02bc 06       		.byte	0x6
 1237 02bd 9101     		.2byte	0x191
 1238 02bf 6F020000 		.4byte	0x26f
 1239 02c3 00       		.byte	0
 1240 02c4 09       		.uleb128 0x9
 1241 02c5 3D050000 		.4byte	.LASF55
 1242 02c9 06       		.byte	0x6
 1243 02ca 9201     		.2byte	0x192
 1244 02cc 0B010000 		.4byte	0x10b
 1245 02d0 08       		.byte	0x8
 1246 02d1 09       		.uleb128 0x9
 1247 02d2 38040000 		.4byte	.LASF56
 1248 02d6 06       		.byte	0x6
 1249 02d7 9401     		.2byte	0x194
 1250 02d9 20060000 		.4byte	0x620
 1251 02dd 0C       		.byte	0xc
 1252 02de 09       		.uleb128 0x9
 1253 02df D5010000 		.4byte	.LASF57
 1254 02e3 06       		.byte	0x6
 1255 02e4 9701     		.2byte	0x197
 1256 02e6 45020000 		.4byte	0x245
 1257 02ea 10       		.byte	0x10
 1258 02eb 09       		.uleb128 0x9
 1259 02ec 85060000 		.4byte	.LASF58
 1260 02f0 06       		.byte	0x6
 1261 02f1 9801     		.2byte	0x198
 1262 02f3 45020000 		.4byte	0x245
 1263 02f7 14       		.byte	0x14
 1264 02f8 09       		.uleb128 0x9
 1265 02f9 65040000 		.4byte	.LASF59
 1266 02fd 06       		.byte	0x6
 1267 02fe 9B01     		.2byte	0x19b
 1268 0300 45020000 		.4byte	0x245
 1269 0304 18       		.byte	0x18
 1270 0305 00       		.byte	0
 1271 0306 04       		.uleb128 0x4
 1272 0307 34060000 		.4byte	.LASF60
 1273 030b 05       		.byte	0x5
 1274 030c 5C       		.byte	0x5c
 1275 030d 11030000 		.4byte	0x311
 1276 0311 0A       		.uleb128 0xa
 1277 0312 04       		.byte	0x4
 1278 0313 17030000 		.4byte	0x317
 1279 0317 0C       		.uleb128 0xc
 1280 0318 22030000 		.4byte	0x322
 1281 031c 0D       		.uleb128 0xd
 1282 031d 22030000 		.4byte	0x322
 1283 0321 00       		.byte	0
 1284 0322 0E       		.uleb128 0xe
 1285 0323 04       		.byte	0x4
 1286 0324 04       		.uleb128 0x4
 1287 0325 C2030000 		.4byte	.LASF61
 1288 0329 05       		.byte	0x5
 1289 032a 61       		.byte	0x61
ARM GAS  /tmp/ccZgMH2q.s 			page 47


 1290 032b 2F030000 		.4byte	0x32f
 1291 032f 0B       		.uleb128 0xb
 1292 0330 6F050000 		.4byte	.LASF62
 1293 0334 14       		.byte	0x14
 1294 0335 06       		.byte	0x6
 1295 0336 6B01     		.2byte	0x16b
 1296 0338 7E030000 		.4byte	0x37e
 1297 033c 09       		.uleb128 0x9
 1298 033d 3D020000 		.4byte	.LASF63
 1299 0341 06       		.byte	0x6
 1300 0342 6C01     		.2byte	0x16c
 1301 0344 B1070000 		.4byte	0x7b1
 1302 0348 00       		.byte	0
 1303 0349 09       		.uleb128 0x9
 1304 034a EB010000 		.4byte	.LASF64
 1305 034e 06       		.byte	0x6
 1306 034f 6D01     		.2byte	0x16d
 1307 0351 B1070000 		.4byte	0x7b1
 1308 0355 04       		.byte	0x4
 1309 0356 09       		.uleb128 0x9
 1310 0357 BA050000 		.4byte	.LASF65
 1311 035b 06       		.byte	0x6
 1312 035c 6E01     		.2byte	0x16e
 1313 035e 37010000 		.4byte	0x137
 1314 0362 08       		.byte	0x8
 1315 0363 09       		.uleb128 0x9
 1316 0364 50070000 		.4byte	.LASF66
 1317 0368 06       		.byte	0x6
 1318 0369 6F01     		.2byte	0x16f
 1319 036b 06030000 		.4byte	0x306
 1320 036f 0C       		.byte	0xc
 1321 0370 09       		.uleb128 0x9
 1322 0371 AB060000 		.4byte	.LASF67
 1323 0375 06       		.byte	0x6
 1324 0376 7101     		.2byte	0x171
 1325 0378 22030000 		.4byte	0x322
 1326 037c 10       		.byte	0x10
 1327 037d 00       		.byte	0
 1328 037e 04       		.uleb128 0x4
 1329 037f AD000000 		.4byte	.LASF68
 1330 0383 05       		.byte	0x5
 1331 0384 66       		.byte	0x66
 1332 0385 89030000 		.4byte	0x389
 1333 0389 0B       		.uleb128 0xb
 1334 038a F8030000 		.4byte	.LASF69
 1335 038e 10       		.byte	0x10
 1336 038f 06       		.byte	0x6
 1337 0390 7B01     		.2byte	0x17b
 1338 0392 CB030000 		.4byte	0x3cb
 1339 0396 09       		.uleb128 0x9
 1340 0397 3D020000 		.4byte	.LASF63
 1341 039b 06       		.byte	0x6
 1342 039c 7C01     		.2byte	0x17c
 1343 039e B1070000 		.4byte	0x7b1
 1344 03a2 00       		.byte	0
 1345 03a3 09       		.uleb128 0x9
 1346 03a4 EB010000 		.4byte	.LASF64
ARM GAS  /tmp/ccZgMH2q.s 			page 48


 1347 03a8 06       		.byte	0x6
 1348 03a9 7E01     		.2byte	0x17e
 1349 03ab B1070000 		.4byte	0x7b1
 1350 03af 04       		.byte	0x4
 1351 03b0 09       		.uleb128 0x9
 1352 03b1 BA050000 		.4byte	.LASF65
 1353 03b5 06       		.byte	0x6
 1354 03b6 8001     		.2byte	0x180
 1355 03b8 37010000 		.4byte	0x137
 1356 03bc 08       		.byte	0x8
 1357 03bd 09       		.uleb128 0x9
 1358 03be 24040000 		.4byte	.LASF70
 1359 03c2 06       		.byte	0x6
 1360 03c3 8801     		.2byte	0x188
 1361 03c5 37010000 		.4byte	0x137
 1362 03c9 0C       		.byte	0xc
 1363 03ca 00       		.byte	0
 1364 03cb 04       		.uleb128 0x4
 1365 03cc 53000000 		.4byte	.LASF71
 1366 03d0 05       		.byte	0x5
 1367 03d1 6B       		.byte	0x6b
 1368 03d2 D6030000 		.4byte	0x3d6
 1369 03d6 0B       		.uleb128 0xb
 1370 03d7 E0040000 		.4byte	.LASF72
 1371 03db 04       		.byte	0x4
 1372 03dc 06       		.byte	0x6
 1373 03dd A201     		.2byte	0x1a2
 1374 03df F1030000 		.4byte	0x3f1
 1375 03e3 09       		.uleb128 0x9
 1376 03e4 51060000 		.4byte	.LASF73
 1377 03e8 06       		.byte	0x6
 1378 03e9 AA01     		.2byte	0x1aa
 1379 03eb B7070000 		.4byte	0x7b7
 1380 03ef 00       		.byte	0
 1381 03f0 00       		.byte	0
 1382 03f1 04       		.uleb128 0x4
 1383 03f2 A9020000 		.4byte	.LASF74
 1384 03f6 05       		.byte	0x5
 1385 03f7 70       		.byte	0x70
 1386 03f8 FC030000 		.4byte	0x3fc
 1387 03fc 0F       		.uleb128 0xf
 1388 03fd 75010000 		.4byte	.LASF75
 1389 0401 5001     		.2byte	0x150
 1390 0403 06       		.byte	0x6
 1391 0404 C201     		.2byte	0x1c2
 1392 0406 58040000 		.4byte	0x458
 1393 040a 09       		.uleb128 0x9
 1394 040b EB060000 		.4byte	.LASF76
 1395 040f 06       		.byte	0x6
 1396 0410 C601     		.2byte	0x1c6
 1397 0412 9F020000 		.4byte	0x29f
 1398 0416 00       		.byte	0
 1399 0417 09       		.uleb128 0x9
 1400 0418 F3010000 		.4byte	.LASF77
 1401 041c 06       		.byte	0x6
 1402 041d CA01     		.2byte	0x1ca
 1403 041f 7E030000 		.4byte	0x37e
ARM GAS  /tmp/ccZgMH2q.s 			page 49


 1404 0423 1C       		.byte	0x1c
 1405 0424 08       		.uleb128 0x8
 1406 0425 64626700 		.ascii	"dbg\000"
 1407 0429 06       		.byte	0x6
 1408 042a CE01     		.2byte	0x1ce
 1409 042c CB030000 		.4byte	0x3cb
 1410 0430 2C       		.byte	0x2c
 1411 0431 09       		.uleb128 0x9
 1412 0432 A2000000 		.4byte	.LASF78
 1413 0436 06       		.byte	0x6
 1414 0437 D201     		.2byte	0x1d2
 1415 0439 42010000 		.4byte	0x142
 1416 043d 30       		.byte	0x30
 1417 043e 08       		.uleb128 0x8
 1418 043f 746D00   		.ascii	"tm\000"
 1419 0442 06       		.byte	0x6
 1420 0443 D701     		.2byte	0x1d7
 1421 0445 CF060000 		.4byte	0x6cf
 1422 0449 74       		.byte	0x74
 1423 044a 09       		.uleb128 0x9
 1424 044b 1B020000 		.4byte	.LASF79
 1425 044f 06       		.byte	0x6
 1426 0450 E301     		.2byte	0x1e3
 1427 0452 BC070000 		.4byte	0x7bc
 1428 0456 78       		.byte	0x78
 1429 0457 00       		.byte	0
 1430 0458 03       		.uleb128 0x3
 1431 0459 04       		.byte	0x4
 1432 045a 07       		.byte	0x7
 1433 045b DC030000 		.4byte	.LASF80
 1434 045f 10       		.uleb128 0x10
 1435 0460 BF000000 		.4byte	0xbf
 1436 0464 6F040000 		.4byte	0x46f
 1437 0468 11       		.uleb128 0x11
 1438 0469 58040000 		.4byte	0x458
 1439 046d 01       		.byte	0x1
 1440 046e 00       		.byte	0
 1441 046f 12       		.uleb128 0x12
 1442 0470 88       		.byte	0x88
 1443 0471 07       		.byte	0x7
 1444 0472 6702     		.2byte	0x267
 1445 0474 FE050000 		.4byte	0x5fe
 1446 0478 08       		.uleb128 0x8
 1447 0479 435200   		.ascii	"CR\000"
 1448 047c 07       		.byte	0x7
 1449 047d 6902     		.2byte	0x269
 1450 047f DA000000 		.4byte	0xda
 1451 0483 00       		.byte	0
 1452 0484 09       		.uleb128 0x9
 1453 0485 C5010000 		.4byte	.LASF81
 1454 0489 07       		.byte	0x7
 1455 048a 6A02     		.2byte	0x26a
 1456 048c DA000000 		.4byte	0xda
 1457 0490 04       		.byte	0x4
 1458 0491 09       		.uleb128 0x9
 1459 0492 1C070000 		.4byte	.LASF82
 1460 0496 07       		.byte	0x7
ARM GAS  /tmp/ccZgMH2q.s 			page 50


 1461 0497 6B02     		.2byte	0x26b
 1462 0499 DA000000 		.4byte	0xda
 1463 049d 08       		.byte	0x8
 1464 049e 08       		.uleb128 0x8
 1465 049f 43495200 		.ascii	"CIR\000"
 1466 04a3 07       		.byte	0x7
 1467 04a4 6C02     		.2byte	0x26c
 1468 04a6 DA000000 		.4byte	0xda
 1469 04aa 0C       		.byte	0xc
 1470 04ab 09       		.uleb128 0x9
 1471 04ac 11010000 		.4byte	.LASF83
 1472 04b0 07       		.byte	0x7
 1473 04b1 6D02     		.2byte	0x26d
 1474 04b3 DA000000 		.4byte	0xda
 1475 04b7 10       		.byte	0x10
 1476 04b8 09       		.uleb128 0x9
 1477 04b9 06060000 		.4byte	.LASF84
 1478 04bd 07       		.byte	0x7
 1479 04be 6E02     		.2byte	0x26e
 1480 04c0 DA000000 		.4byte	0xda
 1481 04c4 14       		.byte	0x14
 1482 04c5 09       		.uleb128 0x9
 1483 04c6 A0020000 		.4byte	.LASF85
 1484 04ca 07       		.byte	0x7
 1485 04cb 6F02     		.2byte	0x26f
 1486 04cd DA000000 		.4byte	0xda
 1487 04d1 18       		.byte	0x18
 1488 04d2 09       		.uleb128 0x9
 1489 04d3 95040000 		.4byte	.LASF86
 1490 04d7 07       		.byte	0x7
 1491 04d8 7002     		.2byte	0x270
 1492 04da BF000000 		.4byte	0xbf
 1493 04de 1C       		.byte	0x1c
 1494 04df 09       		.uleb128 0x9
 1495 04e0 6F040000 		.4byte	.LASF87
 1496 04e4 07       		.byte	0x7
 1497 04e5 7102     		.2byte	0x271
 1498 04e7 DA000000 		.4byte	0xda
 1499 04eb 20       		.byte	0x20
 1500 04ec 09       		.uleb128 0x9
 1501 04ed 8F010000 		.4byte	.LASF88
 1502 04f1 07       		.byte	0x7
 1503 04f2 7202     		.2byte	0x272
 1504 04f4 DA000000 		.4byte	0xda
 1505 04f8 24       		.byte	0x24
 1506 04f9 09       		.uleb128 0x9
 1507 04fa 9F040000 		.4byte	.LASF89
 1508 04fe 07       		.byte	0x7
 1509 04ff 7302     		.2byte	0x273
 1510 0501 5F040000 		.4byte	0x45f
 1511 0505 28       		.byte	0x28
 1512 0506 09       		.uleb128 0x9
 1513 0507 0D070000 		.4byte	.LASF90
 1514 050b 07       		.byte	0x7
 1515 050c 7402     		.2byte	0x274
 1516 050e DA000000 		.4byte	0xda
 1517 0512 30       		.byte	0x30
ARM GAS  /tmp/ccZgMH2q.s 			page 51


 1518 0513 09       		.uleb128 0x9
 1519 0514 75060000 		.4byte	.LASF91
 1520 0518 07       		.byte	0x7
 1521 0519 7502     		.2byte	0x275
 1522 051b DA000000 		.4byte	0xda
 1523 051f 34       		.byte	0x34
 1524 0520 09       		.uleb128 0x9
 1525 0521 1C040000 		.4byte	.LASF92
 1526 0525 07       		.byte	0x7
 1527 0526 7602     		.2byte	0x276
 1528 0528 DA000000 		.4byte	0xda
 1529 052c 38       		.byte	0x38
 1530 052d 09       		.uleb128 0x9
 1531 052e A9040000 		.4byte	.LASF93
 1532 0532 07       		.byte	0x7
 1533 0533 7702     		.2byte	0x277
 1534 0535 BF000000 		.4byte	0xbf
 1535 0539 3C       		.byte	0x3c
 1536 053a 09       		.uleb128 0x9
 1537 053b 62060000 		.4byte	.LASF94
 1538 053f 07       		.byte	0x7
 1539 0540 7802     		.2byte	0x278
 1540 0542 DA000000 		.4byte	0xda
 1541 0546 40       		.byte	0x40
 1542 0547 09       		.uleb128 0x9
 1543 0548 60050000 		.4byte	.LASF95
 1544 054c 07       		.byte	0x7
 1545 054d 7902     		.2byte	0x279
 1546 054f DA000000 		.4byte	0xda
 1547 0553 44       		.byte	0x44
 1548 0554 09       		.uleb128 0x9
 1549 0555 B3040000 		.4byte	.LASF96
 1550 0559 07       		.byte	0x7
 1551 055a 7A02     		.2byte	0x27a
 1552 055c 5F040000 		.4byte	0x45f
 1553 0560 48       		.byte	0x48
 1554 0561 09       		.uleb128 0x9
 1555 0562 E1000000 		.4byte	.LASF97
 1556 0566 07       		.byte	0x7
 1557 0567 7B02     		.2byte	0x27b
 1558 0569 DA000000 		.4byte	0xda
 1559 056d 50       		.byte	0x50
 1560 056e 09       		.uleb128 0x9
 1561 056f 3E040000 		.4byte	.LASF98
 1562 0573 07       		.byte	0x7
 1563 0574 7C02     		.2byte	0x27c
 1564 0576 DA000000 		.4byte	0xda
 1565 057a 54       		.byte	0x54
 1566 057b 09       		.uleb128 0x9
 1567 057c 33050000 		.4byte	.LASF99
 1568 0580 07       		.byte	0x7
 1569 0581 7D02     		.2byte	0x27d
 1570 0583 DA000000 		.4byte	0xda
 1571 0587 58       		.byte	0x58
 1572 0588 09       		.uleb128 0x9
 1573 0589 BD040000 		.4byte	.LASF100
 1574 058d 07       		.byte	0x7
ARM GAS  /tmp/ccZgMH2q.s 			page 52


 1575 058e 7E02     		.2byte	0x27e
 1576 0590 BF000000 		.4byte	0xbf
 1577 0594 5C       		.byte	0x5c
 1578 0595 09       		.uleb128 0x9
 1579 0596 98010000 		.4byte	.LASF101
 1580 059a 07       		.byte	0x7
 1581 059b 7F02     		.2byte	0x27f
 1582 059d DA000000 		.4byte	0xda
 1583 05a1 60       		.byte	0x60
 1584 05a2 09       		.uleb128 0x9
 1585 05a3 BD020000 		.4byte	.LASF102
 1586 05a7 07       		.byte	0x7
 1587 05a8 8002     		.2byte	0x280
 1588 05aa DA000000 		.4byte	0xda
 1589 05ae 64       		.byte	0x64
 1590 05af 09       		.uleb128 0x9
 1591 05b0 98050000 		.4byte	.LASF103
 1592 05b4 07       		.byte	0x7
 1593 05b5 8102     		.2byte	0x281
 1594 05b7 5F040000 		.4byte	0x45f
 1595 05bb 68       		.byte	0x68
 1596 05bc 09       		.uleb128 0x9
 1597 05bd E6060000 		.4byte	.LASF104
 1598 05c1 07       		.byte	0x7
 1599 05c2 8202     		.2byte	0x282
 1600 05c4 DA000000 		.4byte	0xda
 1601 05c8 70       		.byte	0x70
 1602 05c9 08       		.uleb128 0x8
 1603 05ca 43535200 		.ascii	"CSR\000"
 1604 05ce 07       		.byte	0x7
 1605 05cf 8302     		.2byte	0x283
 1606 05d1 DA000000 		.4byte	0xda
 1607 05d5 74       		.byte	0x74
 1608 05d6 09       		.uleb128 0x9
 1609 05d7 CE040000 		.4byte	.LASF105
 1610 05db 07       		.byte	0x7
 1611 05dc 8402     		.2byte	0x284
 1612 05de 5F040000 		.4byte	0x45f
 1613 05e2 78       		.byte	0x78
 1614 05e3 09       		.uleb128 0x9
 1615 05e4 B2060000 		.4byte	.LASF106
 1616 05e8 07       		.byte	0x7
 1617 05e9 8502     		.2byte	0x285
 1618 05eb DA000000 		.4byte	0xda
 1619 05ef 80       		.byte	0x80
 1620 05f0 09       		.uleb128 0x9
 1621 05f1 8F020000 		.4byte	.LASF107
 1622 05f5 07       		.byte	0x7
 1623 05f6 8602     		.2byte	0x286
 1624 05f8 DA000000 		.4byte	0xda
 1625 05fc 84       		.byte	0x84
 1626 05fd 00       		.byte	0
 1627 05fe 13       		.uleb128 0x13
 1628 05ff 69010000 		.4byte	.LASF108
 1629 0603 07       		.byte	0x7
 1630 0604 8802     		.2byte	0x288
 1631 0606 6F040000 		.4byte	0x46f
ARM GAS  /tmp/ccZgMH2q.s 			page 53


 1632 060a 04       		.uleb128 0x4
 1633 060b E2010000 		.4byte	.LASF109
 1634 060f 08       		.byte	0x8
 1635 0610 65       		.byte	0x65
 1636 0611 22030000 		.4byte	0x322
 1637 0615 04       		.uleb128 0x4
 1638 0616 F2020000 		.4byte	.LASF110
 1639 061a 08       		.byte	0x8
 1640 061b 6D       		.byte	0x6d
 1641 061c CA000000 		.4byte	0xca
 1642 0620 06       		.uleb128 0x6
 1643 0621 7D060000 		.4byte	.LASF111
 1644 0625 04       		.byte	0x4
 1645 0626 08       		.byte	0x8
 1646 0627 89       		.byte	0x89
 1647 0628 39060000 		.4byte	0x639
 1648 062c 14       		.uleb128 0x14
 1649 062d 72313300 		.ascii	"r13\000"
 1650 0631 08       		.byte	0x8
 1651 0632 8A       		.byte	0x8a
 1652 0633 B4060000 		.4byte	0x6b4
 1653 0637 00       		.byte	0
 1654 0638 00       		.byte	0
 1655 0639 06       		.uleb128 0x6
 1656 063a 47000000 		.4byte	.LASF112
 1657 063e 24       		.byte	0x24
 1658 063f 09       		.byte	0x9
 1659 0640 F4       		.byte	0xf4
 1660 0641 B4060000 		.4byte	0x6b4
 1661 0645 08       		.uleb128 0x8
 1662 0646 723400   		.ascii	"r4\000"
 1663 0649 09       		.byte	0x9
 1664 064a 0701     		.2byte	0x107
 1665 064c 0A060000 		.4byte	0x60a
 1666 0650 00       		.byte	0
 1667 0651 08       		.uleb128 0x8
 1668 0652 723500   		.ascii	"r5\000"
 1669 0655 09       		.byte	0x9
 1670 0656 0801     		.2byte	0x108
 1671 0658 0A060000 		.4byte	0x60a
 1672 065c 04       		.byte	0x4
 1673 065d 08       		.uleb128 0x8
 1674 065e 723600   		.ascii	"r6\000"
 1675 0661 09       		.byte	0x9
 1676 0662 0901     		.2byte	0x109
 1677 0664 0A060000 		.4byte	0x60a
 1678 0668 08       		.byte	0x8
 1679 0669 08       		.uleb128 0x8
 1680 066a 723700   		.ascii	"r7\000"
 1681 066d 09       		.byte	0x9
 1682 066e 0A01     		.2byte	0x10a
 1683 0670 0A060000 		.4byte	0x60a
 1684 0674 0C       		.byte	0xc
 1685 0675 08       		.uleb128 0x8
 1686 0676 723800   		.ascii	"r8\000"
 1687 0679 09       		.byte	0x9
 1688 067a 0B01     		.2byte	0x10b
ARM GAS  /tmp/ccZgMH2q.s 			page 54


 1689 067c 0A060000 		.4byte	0x60a
 1690 0680 10       		.byte	0x10
 1691 0681 08       		.uleb128 0x8
 1692 0682 723900   		.ascii	"r9\000"
 1693 0685 09       		.byte	0x9
 1694 0686 0C01     		.2byte	0x10c
 1695 0688 0A060000 		.4byte	0x60a
 1696 068c 14       		.byte	0x14
 1697 068d 08       		.uleb128 0x8
 1698 068e 72313000 		.ascii	"r10\000"
 1699 0692 09       		.byte	0x9
 1700 0693 0D01     		.2byte	0x10d
 1701 0695 0A060000 		.4byte	0x60a
 1702 0699 18       		.byte	0x18
 1703 069a 08       		.uleb128 0x8
 1704 069b 72313100 		.ascii	"r11\000"
 1705 069f 09       		.byte	0x9
 1706 06a0 0E01     		.2byte	0x10e
 1707 06a2 0A060000 		.4byte	0x60a
 1708 06a6 1C       		.byte	0x1c
 1709 06a7 08       		.uleb128 0x8
 1710 06a8 6C7200   		.ascii	"lr\000"
 1711 06ab 09       		.byte	0x9
 1712 06ac 0F01     		.2byte	0x10f
 1713 06ae 0A060000 		.4byte	0x60a
 1714 06b2 20       		.byte	0x20
 1715 06b3 00       		.byte	0
 1716 06b4 0A       		.uleb128 0xa
 1717 06b5 04       		.byte	0x4
 1718 06b6 39060000 		.4byte	0x639
 1719 06ba 15       		.uleb128 0x15
 1720 06bb 04       		.byte	0x4
 1721 06bc 0A       		.byte	0xa
 1722 06bd 38       		.byte	0x38
 1723 06be CF060000 		.4byte	0x6cf
 1724 06c2 07       		.uleb128 0x7
 1725 06c3 5B060000 		.4byte	.LASF113
 1726 06c7 0A       		.byte	0xa
 1727 06c8 3C       		.byte	0x3c
 1728 06c9 DF000000 		.4byte	0xdf
 1729 06cd 00       		.byte	0
 1730 06ce 00       		.byte	0
 1731 06cf 04       		.uleb128 0x4
 1732 06d0 48040000 		.4byte	.LASF114
 1733 06d4 0A       		.byte	0xa
 1734 06d5 3D       		.byte	0x3d
 1735 06d6 BA060000 		.4byte	0x6ba
 1736 06da 16       		.uleb128 0x16
 1737 06db 04       		.byte	0x4
 1738 06dc 06       		.byte	0x6
 1739 06dd FA       		.byte	0xfa
 1740 06de 37070000 		.4byte	0x737
 1741 06e2 17       		.uleb128 0x17
 1742 06e3 26000000 		.4byte	.LASF115
 1743 06e7 06       		.byte	0x6
 1744 06e8 0101     		.2byte	0x101
 1745 06ea 16010000 		.4byte	0x116
ARM GAS  /tmp/ccZgMH2q.s 			page 55


 1746 06ee 17       		.uleb128 0x17
 1747 06ef 99000000 		.4byte	.LASF116
 1748 06f3 06       		.byte	0x6
 1749 06f4 0801     		.2byte	0x108
 1750 06f6 16010000 		.4byte	0x116
 1751 06fa 17       		.uleb128 0x17
 1752 06fb FF060000 		.4byte	.LASF117
 1753 06ff 06       		.byte	0x6
 1754 0700 0F01     		.2byte	0x10f
 1755 0702 22030000 		.4byte	0x322
 1756 0706 17       		.uleb128 0x17
 1757 0707 20000000 		.4byte	.LASF118
 1758 070b 06       		.byte	0x6
 1759 070c 1601     		.2byte	0x116
 1760 070e 37070000 		.4byte	0x737
 1761 0712 17       		.uleb128 0x17
 1762 0713 45020000 		.4byte	.LASF119
 1763 0717 06       		.byte	0x6
 1764 0718 1E01     		.2byte	0x11e
 1765 071a 62070000 		.4byte	0x762
 1766 071e 17       		.uleb128 0x17
 1767 071f AB050000 		.4byte	.LASF120
 1768 0723 06       		.byte	0x6
 1769 0724 2701     		.2byte	0x127
 1770 0726 99070000 		.4byte	0x799
 1771 072a 17       		.uleb128 0x17
 1772 072b 4B050000 		.4byte	.LASF121
 1773 072f 06       		.byte	0x6
 1774 0730 2F01     		.2byte	0x12f
 1775 0732 21010000 		.4byte	0x121
 1776 0736 00       		.byte	0
 1777 0737 0A       		.uleb128 0xa
 1778 0738 04       		.byte	0x4
 1779 0739 3A020000 		.4byte	0x23a
 1780 073d 06       		.uleb128 0x6
 1781 073e 80050000 		.4byte	.LASF122
 1782 0742 0C       		.byte	0xc
 1783 0743 0B       		.byte	0xb
 1784 0744 34       		.byte	0x34
 1785 0745 62070000 		.4byte	0x762
 1786 0749 07       		.uleb128 0x7
 1787 074a 21070000 		.4byte	.LASF123
 1788 074e 0B       		.byte	0xb
 1789 074f 35       		.byte	0x35
 1790 0750 6F020000 		.4byte	0x26f
 1791 0754 00       		.byte	0
 1792 0755 07       		.uleb128 0x7
 1793 0756 11050000 		.4byte	.LASF124
 1794 075a 0B       		.byte	0xb
 1795 075b 37       		.byte	0x37
 1796 075c 2C010000 		.4byte	0x12c
 1797 0760 08       		.byte	0x8
 1798 0761 00       		.byte	0
 1799 0762 0A       		.uleb128 0xa
 1800 0763 04       		.byte	0x4
 1801 0764 3D070000 		.4byte	0x73d
 1802 0768 06       		.uleb128 0x6
ARM GAS  /tmp/ccZgMH2q.s 			page 56


 1803 0769 C8060000 		.4byte	.LASF125
 1804 076d 10       		.byte	0x10
 1805 076e 0C       		.byte	0xc
 1806 076f 39       		.byte	0x39
 1807 0770 99070000 		.4byte	0x799
 1808 0774 07       		.uleb128 0x7
 1809 0775 22010000 		.4byte	.LASF126
 1810 0779 0C       		.byte	0xc
 1811 077a 3A       		.byte	0x3a
 1812 077b 6F020000 		.4byte	0x26f
 1813 077f 00       		.byte	0
 1814 0780 07       		.uleb128 0x7
 1815 0781 42070000 		.4byte	.LASF127
 1816 0785 0C       		.byte	0xc
 1817 0786 3C       		.byte	0x3c
 1818 0787 45020000 		.4byte	0x245
 1819 078b 08       		.byte	0x8
 1820 078c 07       		.uleb128 0x7
 1821 078d 18060000 		.4byte	.LASF128
 1822 0791 0C       		.byte	0xc
 1823 0792 3E       		.byte	0x3e
 1824 0793 D7070000 		.4byte	0x7d7
 1825 0797 0C       		.byte	0xc
 1826 0798 00       		.byte	0
 1827 0799 0A       		.uleb128 0xa
 1828 079a 04       		.byte	0x4
 1829 079b 68070000 		.4byte	0x768
 1830 079f 0A       		.uleb128 0xa
 1831 07a0 04       		.byte	0x4
 1832 07a1 A5070000 		.4byte	0x7a5
 1833 07a5 18       		.uleb128 0x18
 1834 07a6 AA070000 		.4byte	0x7aa
 1835 07aa 03       		.uleb128 0x3
 1836 07ab 01       		.byte	0x1
 1837 07ac 08       		.byte	0x8
 1838 07ad EA050000 		.4byte	.LASF129
 1839 07b1 0A       		.uleb128 0xa
 1840 07b2 04       		.byte	0x4
 1841 07b3 24030000 		.4byte	0x324
 1842 07b7 05       		.uleb128 0x5
 1843 07b8 9F070000 		.4byte	0x79f
 1844 07bc 10       		.uleb128 0x10
 1845 07bd 15060000 		.4byte	0x615
 1846 07c1 CC070000 		.4byte	0x7cc
 1847 07c5 11       		.uleb128 0x11
 1848 07c6 58040000 		.4byte	0x458
 1849 07ca 1A       		.byte	0x1a
 1850 07cb 00       		.byte	0
 1851 07cc 04       		.uleb128 0x4
 1852 07cd 0C020000 		.4byte	.LASF130
 1853 07d1 0C       		.byte	0xc
 1854 07d2 34       		.byte	0x34
 1855 07d3 68070000 		.4byte	0x768
 1856 07d7 0A       		.uleb128 0xa
 1857 07d8 04       		.byte	0x4
 1858 07d9 CC070000 		.4byte	0x7cc
 1859 07dd 03       		.uleb128 0x3
ARM GAS  /tmp/ccZgMH2q.s 			page 57


 1860 07de 01       		.byte	0x1
 1861 07df 02       		.byte	0x2
 1862 07e0 F0040000 		.4byte	.LASF131
 1863 07e4 15       		.uleb128 0x15
 1864 07e5 04       		.byte	0x4
 1865 07e6 0D       		.byte	0xd
 1866 07e7 B3       		.byte	0xb3
 1867 07e8 05080000 		.4byte	0x805
 1868 07ec 14       		.uleb128 0x14
 1869 07ed 73657400 		.ascii	"set\000"
 1870 07f1 0D       		.byte	0xd
 1871 07f2 B4       		.byte	0xb4
 1872 07f3 A9000000 		.4byte	0xa9
 1873 07f7 00       		.byte	0
 1874 07f8 07       		.uleb128 0x7
 1875 07f9 0F040000 		.4byte	.LASF132
 1876 07fd 0D       		.byte	0xd
 1877 07fe B5       		.byte	0xb5
 1878 07ff A9000000 		.4byte	0xa9
 1879 0803 02       		.byte	0x2
 1880 0804 00       		.byte	0
 1881 0805 16       		.uleb128 0x16
 1882 0806 04       		.byte	0x4
 1883 0807 0D       		.byte	0xd
 1884 0808 B1       		.byte	0xb1
 1885 0809 20080000 		.4byte	0x820
 1886 080d 19       		.uleb128 0x19
 1887 080e 5700     		.ascii	"W\000"
 1888 0810 0D       		.byte	0xd
 1889 0811 B2       		.byte	0xb2
 1890 0812 BF000000 		.4byte	0xbf
 1891 0816 19       		.uleb128 0x19
 1892 0817 4800     		.ascii	"H\000"
 1893 0819 0D       		.byte	0xd
 1894 081a B6       		.byte	0xb6
 1895 081b E4070000 		.4byte	0x7e4
 1896 081f 00       		.byte	0
 1897 0820 15       		.uleb128 0x15
 1898 0821 2C       		.byte	0x2c
 1899 0822 0D       		.byte	0xd
 1900 0823 A9       		.byte	0xa9
 1901 0824 AD080000 		.4byte	0x8ad
 1902 0828 07       		.uleb128 0x7
 1903 0829 76000000 		.4byte	.LASF133
 1904 082d 0D       		.byte	0xd
 1905 082e AB       		.byte	0xab
 1906 082f DA000000 		.4byte	0xda
 1907 0833 00       		.byte	0
 1908 0834 07       		.uleb128 0x7
 1909 0835 40000000 		.4byte	.LASF134
 1910 0839 0D       		.byte	0xd
 1911 083a AC       		.byte	0xac
 1912 083b DA000000 		.4byte	0xda
 1913 083f 04       		.byte	0x4
 1914 0840 07       		.uleb128 0x7
 1915 0841 CD010000 		.4byte	.LASF135
 1916 0845 0D       		.byte	0xd
ARM GAS  /tmp/ccZgMH2q.s 			page 58


 1917 0846 AD       		.byte	0xad
 1918 0847 DA000000 		.4byte	0xda
 1919 084b 08       		.byte	0x8
 1920 084c 07       		.uleb128 0x7
 1921 084d 93000000 		.4byte	.LASF136
 1922 0851 0D       		.byte	0xd
 1923 0852 AE       		.byte	0xae
 1924 0853 DA000000 		.4byte	0xda
 1925 0857 0C       		.byte	0xc
 1926 0858 14       		.uleb128 0x14
 1927 0859 49445200 		.ascii	"IDR\000"
 1928 085d 0D       		.byte	0xd
 1929 085e AF       		.byte	0xaf
 1930 085f DA000000 		.4byte	0xda
 1931 0863 10       		.byte	0x10
 1932 0864 14       		.uleb128 0x14
 1933 0865 4F445200 		.ascii	"ODR\000"
 1934 0869 0D       		.byte	0xd
 1935 086a B0       		.byte	0xb0
 1936 086b DA000000 		.4byte	0xda
 1937 086f 14       		.byte	0x14
 1938 0870 07       		.uleb128 0x7
 1939 0871 0C010000 		.4byte	.LASF137
 1940 0875 0D       		.byte	0xd
 1941 0876 B7       		.byte	0xb7
 1942 0877 AD080000 		.4byte	0x8ad
 1943 087b 18       		.byte	0x18
 1944 087c 07       		.uleb128 0x7
 1945 087d 5F020000 		.4byte	.LASF138
 1946 0881 0D       		.byte	0xd
 1947 0882 B8       		.byte	0xb8
 1948 0883 DA000000 		.4byte	0xda
 1949 0887 1C       		.byte	0x1c
 1950 0888 07       		.uleb128 0x7
 1951 0889 88040000 		.4byte	.LASF139
 1952 088d 0D       		.byte	0xd
 1953 088e B9       		.byte	0xb9
 1954 088f DA000000 		.4byte	0xda
 1955 0893 20       		.byte	0x20
 1956 0894 07       		.uleb128 0x7
 1957 0895 83040000 		.4byte	.LASF140
 1958 0899 0D       		.byte	0xd
 1959 089a BA       		.byte	0xba
 1960 089b DA000000 		.4byte	0xda
 1961 089f 24       		.byte	0x24
 1962 08a0 14       		.uleb128 0x14
 1963 08a1 42525200 		.ascii	"BRR\000"
 1964 08a5 0D       		.byte	0xd
 1965 08a6 BB       		.byte	0xbb
 1966 08a7 DA000000 		.4byte	0xda
 1967 08ab 28       		.byte	0x28
 1968 08ac 00       		.byte	0
 1969 08ad 05       		.uleb128 0x5
 1970 08ae 05080000 		.4byte	0x805
 1971 08b2 04       		.uleb128 0x4
 1972 08b3 FA010000 		.4byte	.LASF141
 1973 08b7 0D       		.byte	0xd
ARM GAS  /tmp/ccZgMH2q.s 			page 59


 1974 08b8 BC       		.byte	0xbc
 1975 08b9 20080000 		.4byte	0x820
 1976 08bd 15       		.uleb128 0x15
 1977 08be 1C       		.byte	0x1c
 1978 08bf 0D       		.byte	0xd
 1979 08c0 C1       		.byte	0xc1
 1980 08c1 1A090000 		.4byte	0x91a
 1981 08c5 07       		.uleb128 0x7
 1982 08c6 63010000 		.4byte	.LASF142
 1983 08ca 0D       		.byte	0xd
 1984 08cb C3       		.byte	0xc3
 1985 08cc BF000000 		.4byte	0xbf
 1986 08d0 00       		.byte	0
 1987 08d1 07       		.uleb128 0x7
 1988 08d2 64020000 		.4byte	.LASF143
 1989 08d6 0D       		.byte	0xd
 1990 08d7 C5       		.byte	0xc5
 1991 08d8 BF000000 		.4byte	0xbf
 1992 08dc 04       		.byte	0x4
 1993 08dd 07       		.uleb128 0x7
 1994 08de 57020000 		.4byte	.LASF144
 1995 08e2 0D       		.byte	0xd
 1996 08e3 C7       		.byte	0xc7
 1997 08e4 BF000000 		.4byte	0xbf
 1998 08e8 08       		.byte	0x8
 1999 08e9 07       		.uleb128 0x7
 2000 08ea F9060000 		.4byte	.LASF145
 2001 08ee 0D       		.byte	0xd
 2002 08ef C9       		.byte	0xc9
 2003 08f0 BF000000 		.4byte	0xbf
 2004 08f4 0C       		.byte	0xc
 2005 08f5 14       		.uleb128 0x14
 2006 08f6 6F647200 		.ascii	"odr\000"
 2007 08fa 0D       		.byte	0xd
 2008 08fb CB       		.byte	0xcb
 2009 08fc BF000000 		.4byte	0xbf
 2010 0900 10       		.byte	0x10
 2011 0901 07       		.uleb128 0x7
 2012 0902 0C050000 		.4byte	.LASF146
 2013 0906 0D       		.byte	0xd
 2014 0907 CD       		.byte	0xcd
 2015 0908 BF000000 		.4byte	0xbf
 2016 090c 14       		.byte	0x14
 2017 090d 07       		.uleb128 0x7
 2018 090e 59040000 		.4byte	.LASF147
 2019 0912 0D       		.byte	0xd
 2020 0913 CF       		.byte	0xcf
 2021 0914 BF000000 		.4byte	0xbf
 2022 0918 18       		.byte	0x18
 2023 0919 00       		.byte	0
 2024 091a 04       		.uleb128 0x4
 2025 091b 00000000 		.4byte	.LASF148
 2026 091f 0D       		.byte	0xd
 2027 0920 D0       		.byte	0xd0
 2028 0921 BD080000 		.4byte	0x8bd
 2029 0925 15       		.uleb128 0x15
 2030 0926 FC       		.byte	0xfc
ARM GAS  /tmp/ccZgMH2q.s 			page 60


 2031 0927 0D       		.byte	0xd
 2032 0928 D9       		.byte	0xd9
 2033 0929 9A090000 		.4byte	0x99a
 2034 092d 07       		.uleb128 0x7
 2035 092e 44050000 		.4byte	.LASF149
 2036 0932 0D       		.byte	0xd
 2037 0933 DC       		.byte	0xdc
 2038 0934 1A090000 		.4byte	0x91a
 2039 0938 00       		.byte	0
 2040 0939 07       		.uleb128 0x7
 2041 093a 14020000 		.4byte	.LASF150
 2042 093e 0D       		.byte	0xd
 2043 093f E0       		.byte	0xe0
 2044 0940 1A090000 		.4byte	0x91a
 2045 0944 1C       		.byte	0x1c
 2046 0945 07       		.uleb128 0x7
 2047 0946 15070000 		.4byte	.LASF151
 2048 094a 0D       		.byte	0xd
 2049 094b E4       		.byte	0xe4
 2050 094c 1A090000 		.4byte	0x91a
 2051 0950 38       		.byte	0x38
 2052 0951 07       		.uleb128 0x7
 2053 0952 5E040000 		.4byte	.LASF152
 2054 0956 0D       		.byte	0xd
 2055 0957 E8       		.byte	0xe8
 2056 0958 1A090000 		.4byte	0x91a
 2057 095c 54       		.byte	0x54
 2058 095d 07       		.uleb128 0x7
 2059 095e 88010000 		.4byte	.LASF153
 2060 0962 0D       		.byte	0xd
 2061 0963 EC       		.byte	0xec
 2062 0964 1A090000 		.4byte	0x91a
 2063 0968 70       		.byte	0x70
 2064 0969 07       		.uleb128 0x7
 2065 096a 7E020000 		.4byte	.LASF154
 2066 096e 0D       		.byte	0xd
 2067 096f F0       		.byte	0xf0
 2068 0970 1A090000 		.4byte	0x91a
 2069 0974 8C       		.byte	0x8c
 2070 0975 07       		.uleb128 0x7
 2071 0976 EB020000 		.4byte	.LASF155
 2072 097a 0D       		.byte	0xd
 2073 097b F4       		.byte	0xf4
 2074 097c 1A090000 		.4byte	0x91a
 2075 0980 A8       		.byte	0xa8
 2076 0981 07       		.uleb128 0x7
 2077 0982 6F000000 		.4byte	.LASF156
 2078 0986 0D       		.byte	0xd
 2079 0987 F8       		.byte	0xf8
 2080 0988 1A090000 		.4byte	0x91a
 2081 098c C4       		.byte	0xc4
 2082 098d 07       		.uleb128 0x7
 2083 098e 68050000 		.4byte	.LASF157
 2084 0992 0D       		.byte	0xd
 2085 0993 FC       		.byte	0xfc
 2086 0994 1A090000 		.4byte	0x91a
 2087 0998 E0       		.byte	0xe0
ARM GAS  /tmp/ccZgMH2q.s 			page 61


 2088 0999 00       		.byte	0
 2089 099a 04       		.uleb128 0x4
 2090 099b 38070000 		.4byte	.LASF158
 2091 099f 0D       		.byte	0xd
 2092 09a0 FE       		.byte	0xfe
 2093 09a1 25090000 		.4byte	0x925
 2094 09a5 13       		.uleb128 0x13
 2095 09a6 62000000 		.4byte	.LASF159
 2096 09aa 0D       		.byte	0xd
 2097 09ab 0E01     		.2byte	0x10e
 2098 09ad BF000000 		.4byte	0xbf
 2099 09b1 13       		.uleb128 0x13
 2100 09b2 2F070000 		.4byte	.LASF160
 2101 09b6 0D       		.byte	0xd
 2102 09b7 1301     		.2byte	0x113
 2103 09b9 BF000000 		.4byte	0xbf
 2104 09bd 13       		.uleb128 0x13
 2105 09be 6A060000 		.4byte	.LASF161
 2106 09c2 0D       		.byte	0xd
 2107 09c3 1B01     		.2byte	0x11b
 2108 09c5 C9090000 		.4byte	0x9c9
 2109 09c9 0A       		.uleb128 0xa
 2110 09ca 04       		.byte	0x4
 2111 09cb B2080000 		.4byte	0x8b2
 2112 09cf 1A       		.uleb128 0x1a
 2113 09d0 48060000 		.4byte	.LASF174
 2114 09d4 01       		.byte	0x1
 2115 09d5 41       		.byte	0x41
 2116 09d6 01       		.byte	0x1
 2117 09d7 F2090000 		.4byte	0x9f2
 2118 09db 1B       		.uleb128 0x1b
 2119 09dc 5A050000 		.4byte	.LASF162
 2120 09e0 01       		.byte	0x1
 2121 09e1 41       		.byte	0x41
 2122 09e2 C9090000 		.4byte	0x9c9
 2123 09e6 1B       		.uleb128 0x1b
 2124 09e7 F4050000 		.4byte	.LASF163
 2125 09eb 01       		.byte	0x1
 2126 09ec 41       		.byte	0x41
 2127 09ed F2090000 		.4byte	0x9f2
 2128 09f1 00       		.byte	0
 2129 09f2 0A       		.uleb128 0xa
 2130 09f3 04       		.byte	0x4
 2131 09f4 F8090000 		.4byte	0x9f8
 2132 09f8 18       		.uleb128 0x18
 2133 09f9 1A090000 		.4byte	0x91a
 2134 09fd 1C       		.uleb128 0x1c
 2135 09fe D8060000 		.4byte	.LASF164
 2136 0a02 01       		.byte	0x1
 2137 0a03 5C       		.byte	0x5c
 2138 0a04 00000000 		.4byte	.LFB261
 2139 0a08 C0010000 		.4byte	.LFE261-.LFB261
 2140 0a0c 01       		.uleb128 0x1
 2141 0a0d 9C       		.byte	0x9c
 2142 0a0e 760B0000 		.4byte	0xb76
 2143 0a12 1D       		.uleb128 0x1d
 2144 0a13 F4050000 		.4byte	.LASF163
ARM GAS  /tmp/ccZgMH2q.s 			page 62


 2145 0a17 01       		.byte	0x1
 2146 0a18 5C       		.byte	0x5c
 2147 0a19 760B0000 		.4byte	0xb76
 2148 0a1d 01       		.uleb128 0x1
 2149 0a1e 50       		.byte	0x50
 2150 0a1f 1E       		.uleb128 0x1e
 2151 0a20 CF090000 		.4byte	0x9cf
 2152 0a24 08000000 		.4byte	.LBB20
 2153 0a28 00000000 		.4byte	.Ldebug_ranges0+0
 2154 0a2c 01       		.byte	0x1
 2155 0a2d 71       		.byte	0x71
 2156 0a2e 430A0000 		.4byte	0xa43
 2157 0a32 1F       		.uleb128 0x1f
 2158 0a33 E6090000 		.4byte	0x9e6
 2159 0a37 01       		.uleb128 0x1
 2160 0a38 50       		.byte	0x50
 2161 0a39 20       		.uleb128 0x20
 2162 0a3a DB090000 		.4byte	0x9db
 2163 0a3e 00000240 		.4byte	0x40020000
 2164 0a42 00       		.byte	0
 2165 0a43 1E       		.uleb128 0x1e
 2166 0a44 CF090000 		.4byte	0x9cf
 2167 0a48 10000000 		.4byte	.LBB23
 2168 0a4c 18000000 		.4byte	.Ldebug_ranges0+0x18
 2169 0a50 01       		.byte	0x1
 2170 0a51 74       		.byte	0x74
 2171 0a52 690A0000 		.4byte	0xa69
 2172 0a56 1F       		.uleb128 0x1f
 2173 0a57 E6090000 		.4byte	0x9e6
 2174 0a5b 03       		.uleb128 0x3
 2175 0a5c 70       		.byte	0x70
 2176 0a5d 1C       		.sleb128 28
 2177 0a5e 9F       		.byte	0x9f
 2178 0a5f 20       		.uleb128 0x20
 2179 0a60 DB090000 		.4byte	0x9db
 2180 0a64 00040240 		.4byte	0x40020400
 2181 0a68 00       		.byte	0
 2182 0a69 1E       		.uleb128 0x1e
 2183 0a6a CF090000 		.4byte	0x9cf
 2184 0a6e 14000000 		.4byte	.LBB26
 2185 0a72 30000000 		.4byte	.Ldebug_ranges0+0x30
 2186 0a76 01       		.byte	0x1
 2187 0a77 77       		.byte	0x77
 2188 0a78 8F0A0000 		.4byte	0xa8f
 2189 0a7c 1F       		.uleb128 0x1f
 2190 0a7d E6090000 		.4byte	0x9e6
 2191 0a81 03       		.uleb128 0x3
 2192 0a82 70       		.byte	0x70
 2193 0a83 38       		.sleb128 56
 2194 0a84 9F       		.byte	0x9f
 2195 0a85 20       		.uleb128 0x20
 2196 0a86 DB090000 		.4byte	0x9db
 2197 0a8a 00080240 		.4byte	0x40020800
 2198 0a8e 00       		.byte	0
 2199 0a8f 1E       		.uleb128 0x1e
 2200 0a90 CF090000 		.4byte	0x9cf
 2201 0a94 16000000 		.4byte	.LBB29
ARM GAS  /tmp/ccZgMH2q.s 			page 63


 2202 0a98 48000000 		.4byte	.Ldebug_ranges0+0x48
 2203 0a9c 01       		.byte	0x1
 2204 0a9d 7A       		.byte	0x7a
 2205 0a9e B60A0000 		.4byte	0xab6
 2206 0aa2 1F       		.uleb128 0x1f
 2207 0aa3 E6090000 		.4byte	0x9e6
 2208 0aa7 04       		.uleb128 0x4
 2209 0aa8 70       		.byte	0x70
 2210 0aa9 D400     		.sleb128 84
 2211 0aab 9F       		.byte	0x9f
 2212 0aac 20       		.uleb128 0x20
 2213 0aad DB090000 		.4byte	0x9db
 2214 0ab1 000C0240 		.4byte	0x40020c00
 2215 0ab5 00       		.byte	0
 2216 0ab6 1E       		.uleb128 0x1e
 2217 0ab7 CF090000 		.4byte	0x9cf
 2218 0abb 18000000 		.4byte	.LBB32
 2219 0abf 60000000 		.4byte	.Ldebug_ranges0+0x60
 2220 0ac3 01       		.byte	0x1
 2221 0ac4 7D       		.byte	0x7d
 2222 0ac5 DD0A0000 		.4byte	0xadd
 2223 0ac9 1F       		.uleb128 0x1f
 2224 0aca E6090000 		.4byte	0x9e6
 2225 0ace 04       		.uleb128 0x4
 2226 0acf 70       		.byte	0x70
 2227 0ad0 F000     		.sleb128 112
 2228 0ad2 9F       		.byte	0x9f
 2229 0ad3 20       		.uleb128 0x20
 2230 0ad4 DB090000 		.4byte	0x9db
 2231 0ad8 00100240 		.4byte	0x40021000
 2232 0adc 00       		.byte	0
 2233 0add 1E       		.uleb128 0x1e
 2234 0ade CF090000 		.4byte	0x9cf
 2235 0ae2 1A000000 		.4byte	.LBB35
 2236 0ae6 78000000 		.4byte	.Ldebug_ranges0+0x78
 2237 0aea 01       		.byte	0x1
 2238 0aeb 80       		.byte	0x80
 2239 0aec 040B0000 		.4byte	0xb04
 2240 0af0 1F       		.uleb128 0x1f
 2241 0af1 E6090000 		.4byte	0x9e6
 2242 0af5 04       		.uleb128 0x4
 2243 0af6 70       		.byte	0x70
 2244 0af7 8C01     		.sleb128 140
 2245 0af9 9F       		.byte	0x9f
 2246 0afa 20       		.uleb128 0x20
 2247 0afb DB090000 		.4byte	0x9db
 2248 0aff 00140240 		.4byte	0x40021400
 2249 0b03 00       		.byte	0
 2250 0b04 1E       		.uleb128 0x1e
 2251 0b05 CF090000 		.4byte	0x9cf
 2252 0b09 1C000000 		.4byte	.LBB38
 2253 0b0d 90000000 		.4byte	.Ldebug_ranges0+0x90
 2254 0b11 01       		.byte	0x1
 2255 0b12 83       		.byte	0x83
 2256 0b13 2B0B0000 		.4byte	0xb2b
 2257 0b17 1F       		.uleb128 0x1f
 2258 0b18 E6090000 		.4byte	0x9e6
ARM GAS  /tmp/ccZgMH2q.s 			page 64


 2259 0b1c 04       		.uleb128 0x4
 2260 0b1d 70       		.byte	0x70
 2261 0b1e A801     		.sleb128 168
 2262 0b20 9F       		.byte	0x9f
 2263 0b21 20       		.uleb128 0x20
 2264 0b22 DB090000 		.4byte	0x9db
 2265 0b26 00180240 		.4byte	0x40021800
 2266 0b2a 00       		.byte	0
 2267 0b2b 1E       		.uleb128 0x1e
 2268 0b2c CF090000 		.4byte	0x9cf
 2269 0b30 1E000000 		.4byte	.LBB41
 2270 0b34 A8000000 		.4byte	.Ldebug_ranges0+0xa8
 2271 0b38 01       		.byte	0x1
 2272 0b39 86       		.byte	0x86
 2273 0b3a 520B0000 		.4byte	0xb52
 2274 0b3e 1F       		.uleb128 0x1f
 2275 0b3f E6090000 		.4byte	0x9e6
 2276 0b43 04       		.uleb128 0x4
 2277 0b44 70       		.byte	0x70
 2278 0b45 C401     		.sleb128 196
 2279 0b47 9F       		.byte	0x9f
 2280 0b48 20       		.uleb128 0x20
 2281 0b49 DB090000 		.4byte	0x9db
 2282 0b4d 001C0240 		.4byte	0x40021c00
 2283 0b51 00       		.byte	0
 2284 0b52 21       		.uleb128 0x21
 2285 0b53 CF090000 		.4byte	0x9cf
 2286 0b57 64010000 		.4byte	.LBB52
 2287 0b5b 2C000000 		.4byte	.LBE52-.LBB52
 2288 0b5f 01       		.byte	0x1
 2289 0b60 89       		.byte	0x89
 2290 0b61 1F       		.uleb128 0x1f
 2291 0b62 E6090000 		.4byte	0x9e6
 2292 0b66 04       		.uleb128 0x4
 2293 0b67 70       		.byte	0x70
 2294 0b68 E001     		.sleb128 224
 2295 0b6a 9F       		.byte	0x9f
 2296 0b6b 20       		.uleb128 0x20
 2297 0b6c DB090000 		.4byte	0x9db
 2298 0b70 00200240 		.4byte	0x40022000
 2299 0b74 00       		.byte	0
 2300 0b75 00       		.byte	0
 2301 0b76 0A       		.uleb128 0xa
 2302 0b77 04       		.byte	0x4
 2303 0b78 7C0B0000 		.4byte	0xb7c
 2304 0b7c 18       		.uleb128 0x18
 2305 0b7d 9A090000 		.4byte	0x99a
 2306 0b81 1C       		.uleb128 0x1c
 2307 0b82 8D060000 		.4byte	.LASF165
 2308 0b86 01       		.byte	0x1
 2309 0b87 9B       		.byte	0x9b
 2310 0b88 00000000 		.4byte	.LFB262
 2311 0b8c C8000000 		.4byte	.LFE262-.LFB262
 2312 0b90 01       		.uleb128 0x1
 2313 0b91 9C       		.byte	0x9c
 2314 0b92 590C0000 		.4byte	0xc59
 2315 0b96 1D       		.uleb128 0x1d
ARM GAS  /tmp/ccZgMH2q.s 			page 65


 2316 0b97 07020000 		.4byte	.LASF166
 2317 0b9b 01       		.byte	0x1
 2318 0b9c 9B       		.byte	0x9b
 2319 0b9d BD090000 		.4byte	0x9bd
 2320 0ba1 01       		.uleb128 0x1
 2321 0ba2 50       		.byte	0x50
 2322 0ba3 22       		.uleb128 0x22
 2323 0ba4 DD010000 		.4byte	.LASF167
 2324 0ba8 01       		.byte	0x1
 2325 0ba9 9C       		.byte	0x9c
 2326 0baa A5090000 		.4byte	0x9a5
 2327 0bae 00000000 		.4byte	.LLST0
 2328 0bb2 22       		.uleb128 0x22
 2329 0bb3 EF050000 		.4byte	.LASF168
 2330 0bb7 01       		.byte	0x1
 2331 0bb8 9D       		.byte	0x9d
 2332 0bb9 B1090000 		.4byte	0x9b1
 2333 0bbd 2D000000 		.4byte	.LLST1
 2334 0bc1 23       		.uleb128 0x23
 2335 0bc2 63010000 		.4byte	.LASF142
 2336 0bc6 01       		.byte	0x1
 2337 0bc7 9F       		.byte	0x9f
 2338 0bc8 BF000000 		.4byte	0xbf
 2339 0bcc 4E000000 		.4byte	.LLST2
 2340 0bd0 23       		.uleb128 0x23
 2341 0bd1 64020000 		.4byte	.LASF143
 2342 0bd5 01       		.byte	0x1
 2343 0bd6 A0       		.byte	0xa0
 2344 0bd7 BF000000 		.4byte	0xbf
 2345 0bdb 61000000 		.4byte	.LLST3
 2346 0bdf 23       		.uleb128 0x23
 2347 0be0 57020000 		.4byte	.LASF144
 2348 0be4 01       		.byte	0x1
 2349 0be5 A1       		.byte	0xa1
 2350 0be6 BF000000 		.4byte	0xbf
 2351 0bea 74000000 		.4byte	.LLST4
 2352 0bee 23       		.uleb128 0x23
 2353 0bef F9060000 		.4byte	.LASF145
 2354 0bf3 01       		.byte	0x1
 2355 0bf4 A2       		.byte	0xa2
 2356 0bf5 BF000000 		.4byte	0xbf
 2357 0bf9 87000000 		.4byte	.LLST5
 2358 0bfd 24       		.uleb128 0x24
 2359 0bfe E5050000 		.4byte	.LASF169
 2360 0c02 01       		.byte	0x1
 2361 0c03 A3       		.byte	0xa3
 2362 0c04 BF000000 		.4byte	0xbf
 2363 0c08 01       		.uleb128 0x1
 2364 0c09 52       		.byte	0x52
 2365 0c0a 25       		.uleb128 0x25
 2366 0c0b 62697400 		.ascii	"bit\000"
 2367 0c0f 01       		.byte	0x1
 2368 0c10 A4       		.byte	0xa4
 2369 0c11 BF000000 		.4byte	0xbf
 2370 0c15 9A000000 		.4byte	.LLST6
 2371 0c19 26       		.uleb128 0x26
 2372 0c1a C0000000 		.4byte	.Ldebug_ranges0+0xc0
ARM GAS  /tmp/ccZgMH2q.s 			page 66


 2373 0c1e 23       		.uleb128 0x23
 2374 0c1f B4010000 		.4byte	.LASF170
 2375 0c23 01       		.byte	0x1
 2376 0c24 A7       		.byte	0xa7
 2377 0c25 BF000000 		.4byte	0xbf
 2378 0c29 B9000000 		.4byte	.LLST7
 2379 0c2d 25       		.uleb128 0x25
 2380 0c2e 6D3100   		.ascii	"m1\000"
 2381 0c31 01       		.byte	0x1
 2382 0c32 A7       		.byte	0xa7
 2383 0c33 BF000000 		.4byte	0xbf
 2384 0c37 FF000000 		.4byte	.LLST8
 2385 0c3b 25       		.uleb128 0x25
 2386 0c3c 6D3200   		.ascii	"m2\000"
 2387 0c3f 01       		.byte	0x1
 2388 0c40 A7       		.byte	0xa7
 2389 0c41 BF000000 		.4byte	0xbf
 2390 0c45 16010000 		.4byte	.LLST9
 2391 0c49 25       		.uleb128 0x25
 2392 0c4a 6D3400   		.ascii	"m4\000"
 2393 0c4d 01       		.byte	0x1
 2394 0c4e A7       		.byte	0xa7
 2395 0c4f BF000000 		.4byte	0xbf
 2396 0c53 59010000 		.4byte	.LLST10
 2397 0c57 00       		.byte	0
 2398 0c58 00       		.byte	0
 2399 0c59 27       		.uleb128 0x27
 2400 0c5a C3000000 		.4byte	.LASF171
 2401 0c5e 0E       		.byte	0xe
 2402 0c5f A706     		.2byte	0x6a7
 2403 0c61 D5000000 		.4byte	0xd5
 2404 0c65 28       		.uleb128 0x28
 2405 0c66 636800   		.ascii	"ch\000"
 2406 0c69 06       		.byte	0x6
 2407 0c6a 0902     		.2byte	0x209
 2408 0c6c F1030000 		.4byte	0x3f1
 2409 0c70 00       		.byte	0
 2410              		.section	.debug_abbrev,"",%progbits
 2411              	.Ldebug_abbrev0:
 2412 0000 01       		.uleb128 0x1
 2413 0001 11       		.uleb128 0x11
 2414 0002 01       		.byte	0x1
 2415 0003 25       		.uleb128 0x25
 2416 0004 0E       		.uleb128 0xe
 2417 0005 13       		.uleb128 0x13
 2418 0006 0B       		.uleb128 0xb
 2419 0007 03       		.uleb128 0x3
 2420 0008 0E       		.uleb128 0xe
 2421 0009 55       		.uleb128 0x55
 2422 000a 17       		.uleb128 0x17
 2423 000b 11       		.uleb128 0x11
 2424 000c 01       		.uleb128 0x1
 2425 000d 10       		.uleb128 0x10
 2426 000e 17       		.uleb128 0x17
 2427 000f 00       		.byte	0
 2428 0010 00       		.byte	0
 2429 0011 02       		.uleb128 0x2
ARM GAS  /tmp/ccZgMH2q.s 			page 67


 2430 0012 24       		.uleb128 0x24
 2431 0013 00       		.byte	0
 2432 0014 0B       		.uleb128 0xb
 2433 0015 0B       		.uleb128 0xb
 2434 0016 3E       		.uleb128 0x3e
 2435 0017 0B       		.uleb128 0xb
 2436 0018 03       		.uleb128 0x3
 2437 0019 08       		.uleb128 0x8
 2438 001a 00       		.byte	0
 2439 001b 00       		.byte	0
 2440 001c 03       		.uleb128 0x3
 2441 001d 24       		.uleb128 0x24
 2442 001e 00       		.byte	0
 2443 001f 0B       		.uleb128 0xb
 2444 0020 0B       		.uleb128 0xb
 2445 0021 3E       		.uleb128 0x3e
 2446 0022 0B       		.uleb128 0xb
 2447 0023 03       		.uleb128 0x3
 2448 0024 0E       		.uleb128 0xe
 2449 0025 00       		.byte	0
 2450 0026 00       		.byte	0
 2451 0027 04       		.uleb128 0x4
 2452 0028 16       		.uleb128 0x16
 2453 0029 00       		.byte	0
 2454 002a 03       		.uleb128 0x3
 2455 002b 0E       		.uleb128 0xe
 2456 002c 3A       		.uleb128 0x3a
 2457 002d 0B       		.uleb128 0xb
 2458 002e 3B       		.uleb128 0x3b
 2459 002f 0B       		.uleb128 0xb
 2460 0030 49       		.uleb128 0x49
 2461 0031 13       		.uleb128 0x13
 2462 0032 00       		.byte	0
 2463 0033 00       		.byte	0
 2464 0034 05       		.uleb128 0x5
 2465 0035 35       		.uleb128 0x35
 2466 0036 00       		.byte	0
 2467 0037 49       		.uleb128 0x49
 2468 0038 13       		.uleb128 0x13
 2469 0039 00       		.byte	0
 2470 003a 00       		.byte	0
 2471 003b 06       		.uleb128 0x6
 2472 003c 13       		.uleb128 0x13
 2473 003d 01       		.byte	0x1
 2474 003e 03       		.uleb128 0x3
 2475 003f 0E       		.uleb128 0xe
 2476 0040 0B       		.uleb128 0xb
 2477 0041 0B       		.uleb128 0xb
 2478 0042 3A       		.uleb128 0x3a
 2479 0043 0B       		.uleb128 0xb
 2480 0044 3B       		.uleb128 0x3b
 2481 0045 0B       		.uleb128 0xb
 2482 0046 01       		.uleb128 0x1
 2483 0047 13       		.uleb128 0x13
 2484 0048 00       		.byte	0
 2485 0049 00       		.byte	0
 2486 004a 07       		.uleb128 0x7
ARM GAS  /tmp/ccZgMH2q.s 			page 68


 2487 004b 0D       		.uleb128 0xd
 2488 004c 00       		.byte	0
 2489 004d 03       		.uleb128 0x3
 2490 004e 0E       		.uleb128 0xe
 2491 004f 3A       		.uleb128 0x3a
 2492 0050 0B       		.uleb128 0xb
 2493 0051 3B       		.uleb128 0x3b
 2494 0052 0B       		.uleb128 0xb
 2495 0053 49       		.uleb128 0x49
 2496 0054 13       		.uleb128 0x13
 2497 0055 38       		.uleb128 0x38
 2498 0056 0B       		.uleb128 0xb
 2499 0057 00       		.byte	0
 2500 0058 00       		.byte	0
 2501 0059 08       		.uleb128 0x8
 2502 005a 0D       		.uleb128 0xd
 2503 005b 00       		.byte	0
 2504 005c 03       		.uleb128 0x3
 2505 005d 08       		.uleb128 0x8
 2506 005e 3A       		.uleb128 0x3a
 2507 005f 0B       		.uleb128 0xb
 2508 0060 3B       		.uleb128 0x3b
 2509 0061 05       		.uleb128 0x5
 2510 0062 49       		.uleb128 0x49
 2511 0063 13       		.uleb128 0x13
 2512 0064 38       		.uleb128 0x38
 2513 0065 0B       		.uleb128 0xb
 2514 0066 00       		.byte	0
 2515 0067 00       		.byte	0
 2516 0068 09       		.uleb128 0x9
 2517 0069 0D       		.uleb128 0xd
 2518 006a 00       		.byte	0
 2519 006b 03       		.uleb128 0x3
 2520 006c 0E       		.uleb128 0xe
 2521 006d 3A       		.uleb128 0x3a
 2522 006e 0B       		.uleb128 0xb
 2523 006f 3B       		.uleb128 0x3b
 2524 0070 05       		.uleb128 0x5
 2525 0071 49       		.uleb128 0x49
 2526 0072 13       		.uleb128 0x13
 2527 0073 38       		.uleb128 0x38
 2528 0074 0B       		.uleb128 0xb
 2529 0075 00       		.byte	0
 2530 0076 00       		.byte	0
 2531 0077 0A       		.uleb128 0xa
 2532 0078 0F       		.uleb128 0xf
 2533 0079 00       		.byte	0
 2534 007a 0B       		.uleb128 0xb
 2535 007b 0B       		.uleb128 0xb
 2536 007c 49       		.uleb128 0x49
 2537 007d 13       		.uleb128 0x13
 2538 007e 00       		.byte	0
 2539 007f 00       		.byte	0
 2540 0080 0B       		.uleb128 0xb
 2541 0081 13       		.uleb128 0x13
 2542 0082 01       		.byte	0x1
 2543 0083 03       		.uleb128 0x3
ARM GAS  /tmp/ccZgMH2q.s 			page 69


 2544 0084 0E       		.uleb128 0xe
 2545 0085 0B       		.uleb128 0xb
 2546 0086 0B       		.uleb128 0xb
 2547 0087 3A       		.uleb128 0x3a
 2548 0088 0B       		.uleb128 0xb
 2549 0089 3B       		.uleb128 0x3b
 2550 008a 05       		.uleb128 0x5
 2551 008b 01       		.uleb128 0x1
 2552 008c 13       		.uleb128 0x13
 2553 008d 00       		.byte	0
 2554 008e 00       		.byte	0
 2555 008f 0C       		.uleb128 0xc
 2556 0090 15       		.uleb128 0x15
 2557 0091 01       		.byte	0x1
 2558 0092 27       		.uleb128 0x27
 2559 0093 19       		.uleb128 0x19
 2560 0094 01       		.uleb128 0x1
 2561 0095 13       		.uleb128 0x13
 2562 0096 00       		.byte	0
 2563 0097 00       		.byte	0
 2564 0098 0D       		.uleb128 0xd
 2565 0099 05       		.uleb128 0x5
 2566 009a 00       		.byte	0
 2567 009b 49       		.uleb128 0x49
 2568 009c 13       		.uleb128 0x13
 2569 009d 00       		.byte	0
 2570 009e 00       		.byte	0
 2571 009f 0E       		.uleb128 0xe
 2572 00a0 0F       		.uleb128 0xf
 2573 00a1 00       		.byte	0
 2574 00a2 0B       		.uleb128 0xb
 2575 00a3 0B       		.uleb128 0xb
 2576 00a4 00       		.byte	0
 2577 00a5 00       		.byte	0
 2578 00a6 0F       		.uleb128 0xf
 2579 00a7 13       		.uleb128 0x13
 2580 00a8 01       		.byte	0x1
 2581 00a9 03       		.uleb128 0x3
 2582 00aa 0E       		.uleb128 0xe
 2583 00ab 0B       		.uleb128 0xb
 2584 00ac 05       		.uleb128 0x5
 2585 00ad 3A       		.uleb128 0x3a
 2586 00ae 0B       		.uleb128 0xb
 2587 00af 3B       		.uleb128 0x3b
 2588 00b0 05       		.uleb128 0x5
 2589 00b1 01       		.uleb128 0x1
 2590 00b2 13       		.uleb128 0x13
 2591 00b3 00       		.byte	0
 2592 00b4 00       		.byte	0
 2593 00b5 10       		.uleb128 0x10
 2594 00b6 01       		.uleb128 0x1
 2595 00b7 01       		.byte	0x1
 2596 00b8 49       		.uleb128 0x49
 2597 00b9 13       		.uleb128 0x13
 2598 00ba 01       		.uleb128 0x1
 2599 00bb 13       		.uleb128 0x13
 2600 00bc 00       		.byte	0
ARM GAS  /tmp/ccZgMH2q.s 			page 70


 2601 00bd 00       		.byte	0
 2602 00be 11       		.uleb128 0x11
 2603 00bf 21       		.uleb128 0x21
 2604 00c0 00       		.byte	0
 2605 00c1 49       		.uleb128 0x49
 2606 00c2 13       		.uleb128 0x13
 2607 00c3 2F       		.uleb128 0x2f
 2608 00c4 0B       		.uleb128 0xb
 2609 00c5 00       		.byte	0
 2610 00c6 00       		.byte	0
 2611 00c7 12       		.uleb128 0x12
 2612 00c8 13       		.uleb128 0x13
 2613 00c9 01       		.byte	0x1
 2614 00ca 0B       		.uleb128 0xb
 2615 00cb 0B       		.uleb128 0xb
 2616 00cc 3A       		.uleb128 0x3a
 2617 00cd 0B       		.uleb128 0xb
 2618 00ce 3B       		.uleb128 0x3b
 2619 00cf 05       		.uleb128 0x5
 2620 00d0 01       		.uleb128 0x1
 2621 00d1 13       		.uleb128 0x13
 2622 00d2 00       		.byte	0
 2623 00d3 00       		.byte	0
 2624 00d4 13       		.uleb128 0x13
 2625 00d5 16       		.uleb128 0x16
 2626 00d6 00       		.byte	0
 2627 00d7 03       		.uleb128 0x3
 2628 00d8 0E       		.uleb128 0xe
 2629 00d9 3A       		.uleb128 0x3a
 2630 00da 0B       		.uleb128 0xb
 2631 00db 3B       		.uleb128 0x3b
 2632 00dc 05       		.uleb128 0x5
 2633 00dd 49       		.uleb128 0x49
 2634 00de 13       		.uleb128 0x13
 2635 00df 00       		.byte	0
 2636 00e0 00       		.byte	0
 2637 00e1 14       		.uleb128 0x14
 2638 00e2 0D       		.uleb128 0xd
 2639 00e3 00       		.byte	0
 2640 00e4 03       		.uleb128 0x3
 2641 00e5 08       		.uleb128 0x8
 2642 00e6 3A       		.uleb128 0x3a
 2643 00e7 0B       		.uleb128 0xb
 2644 00e8 3B       		.uleb128 0x3b
 2645 00e9 0B       		.uleb128 0xb
 2646 00ea 49       		.uleb128 0x49
 2647 00eb 13       		.uleb128 0x13
 2648 00ec 38       		.uleb128 0x38
 2649 00ed 0B       		.uleb128 0xb
 2650 00ee 00       		.byte	0
 2651 00ef 00       		.byte	0
 2652 00f0 15       		.uleb128 0x15
 2653 00f1 13       		.uleb128 0x13
 2654 00f2 01       		.byte	0x1
 2655 00f3 0B       		.uleb128 0xb
 2656 00f4 0B       		.uleb128 0xb
 2657 00f5 3A       		.uleb128 0x3a
ARM GAS  /tmp/ccZgMH2q.s 			page 71


 2658 00f6 0B       		.uleb128 0xb
 2659 00f7 3B       		.uleb128 0x3b
 2660 00f8 0B       		.uleb128 0xb
 2661 00f9 01       		.uleb128 0x1
 2662 00fa 13       		.uleb128 0x13
 2663 00fb 00       		.byte	0
 2664 00fc 00       		.byte	0
 2665 00fd 16       		.uleb128 0x16
 2666 00fe 17       		.uleb128 0x17
 2667 00ff 01       		.byte	0x1
 2668 0100 0B       		.uleb128 0xb
 2669 0101 0B       		.uleb128 0xb
 2670 0102 3A       		.uleb128 0x3a
 2671 0103 0B       		.uleb128 0xb
 2672 0104 3B       		.uleb128 0x3b
 2673 0105 0B       		.uleb128 0xb
 2674 0106 01       		.uleb128 0x1
 2675 0107 13       		.uleb128 0x13
 2676 0108 00       		.byte	0
 2677 0109 00       		.byte	0
 2678 010a 17       		.uleb128 0x17
 2679 010b 0D       		.uleb128 0xd
 2680 010c 00       		.byte	0
 2681 010d 03       		.uleb128 0x3
 2682 010e 0E       		.uleb128 0xe
 2683 010f 3A       		.uleb128 0x3a
 2684 0110 0B       		.uleb128 0xb
 2685 0111 3B       		.uleb128 0x3b
 2686 0112 05       		.uleb128 0x5
 2687 0113 49       		.uleb128 0x49
 2688 0114 13       		.uleb128 0x13
 2689 0115 00       		.byte	0
 2690 0116 00       		.byte	0
 2691 0117 18       		.uleb128 0x18
 2692 0118 26       		.uleb128 0x26
 2693 0119 00       		.byte	0
 2694 011a 49       		.uleb128 0x49
 2695 011b 13       		.uleb128 0x13
 2696 011c 00       		.byte	0
 2697 011d 00       		.byte	0
 2698 011e 19       		.uleb128 0x19
 2699 011f 0D       		.uleb128 0xd
 2700 0120 00       		.byte	0
 2701 0121 03       		.uleb128 0x3
 2702 0122 08       		.uleb128 0x8
 2703 0123 3A       		.uleb128 0x3a
 2704 0124 0B       		.uleb128 0xb
 2705 0125 3B       		.uleb128 0x3b
 2706 0126 0B       		.uleb128 0xb
 2707 0127 49       		.uleb128 0x49
 2708 0128 13       		.uleb128 0x13
 2709 0129 00       		.byte	0
 2710 012a 00       		.byte	0
 2711 012b 1A       		.uleb128 0x1a
 2712 012c 2E       		.uleb128 0x2e
 2713 012d 01       		.byte	0x1
 2714 012e 03       		.uleb128 0x3
ARM GAS  /tmp/ccZgMH2q.s 			page 72


 2715 012f 0E       		.uleb128 0xe
 2716 0130 3A       		.uleb128 0x3a
 2717 0131 0B       		.uleb128 0xb
 2718 0132 3B       		.uleb128 0x3b
 2719 0133 0B       		.uleb128 0xb
 2720 0134 27       		.uleb128 0x27
 2721 0135 19       		.uleb128 0x19
 2722 0136 20       		.uleb128 0x20
 2723 0137 0B       		.uleb128 0xb
 2724 0138 01       		.uleb128 0x1
 2725 0139 13       		.uleb128 0x13
 2726 013a 00       		.byte	0
 2727 013b 00       		.byte	0
 2728 013c 1B       		.uleb128 0x1b
 2729 013d 05       		.uleb128 0x5
 2730 013e 00       		.byte	0
 2731 013f 03       		.uleb128 0x3
 2732 0140 0E       		.uleb128 0xe
 2733 0141 3A       		.uleb128 0x3a
 2734 0142 0B       		.uleb128 0xb
 2735 0143 3B       		.uleb128 0x3b
 2736 0144 0B       		.uleb128 0xb
 2737 0145 49       		.uleb128 0x49
 2738 0146 13       		.uleb128 0x13
 2739 0147 00       		.byte	0
 2740 0148 00       		.byte	0
 2741 0149 1C       		.uleb128 0x1c
 2742 014a 2E       		.uleb128 0x2e
 2743 014b 01       		.byte	0x1
 2744 014c 3F       		.uleb128 0x3f
 2745 014d 19       		.uleb128 0x19
 2746 014e 03       		.uleb128 0x3
 2747 014f 0E       		.uleb128 0xe
 2748 0150 3A       		.uleb128 0x3a
 2749 0151 0B       		.uleb128 0xb
 2750 0152 3B       		.uleb128 0x3b
 2751 0153 0B       		.uleb128 0xb
 2752 0154 27       		.uleb128 0x27
 2753 0155 19       		.uleb128 0x19
 2754 0156 11       		.uleb128 0x11
 2755 0157 01       		.uleb128 0x1
 2756 0158 12       		.uleb128 0x12
 2757 0159 06       		.uleb128 0x6
 2758 015a 40       		.uleb128 0x40
 2759 015b 18       		.uleb128 0x18
 2760 015c 9742     		.uleb128 0x2117
 2761 015e 19       		.uleb128 0x19
 2762 015f 01       		.uleb128 0x1
 2763 0160 13       		.uleb128 0x13
 2764 0161 00       		.byte	0
 2765 0162 00       		.byte	0
 2766 0163 1D       		.uleb128 0x1d
 2767 0164 05       		.uleb128 0x5
 2768 0165 00       		.byte	0
 2769 0166 03       		.uleb128 0x3
 2770 0167 0E       		.uleb128 0xe
 2771 0168 3A       		.uleb128 0x3a
ARM GAS  /tmp/ccZgMH2q.s 			page 73


 2772 0169 0B       		.uleb128 0xb
 2773 016a 3B       		.uleb128 0x3b
 2774 016b 0B       		.uleb128 0xb
 2775 016c 49       		.uleb128 0x49
 2776 016d 13       		.uleb128 0x13
 2777 016e 02       		.uleb128 0x2
 2778 016f 18       		.uleb128 0x18
 2779 0170 00       		.byte	0
 2780 0171 00       		.byte	0
 2781 0172 1E       		.uleb128 0x1e
 2782 0173 1D       		.uleb128 0x1d
 2783 0174 01       		.byte	0x1
 2784 0175 31       		.uleb128 0x31
 2785 0176 13       		.uleb128 0x13
 2786 0177 52       		.uleb128 0x52
 2787 0178 01       		.uleb128 0x1
 2788 0179 55       		.uleb128 0x55
 2789 017a 17       		.uleb128 0x17
 2790 017b 58       		.uleb128 0x58
 2791 017c 0B       		.uleb128 0xb
 2792 017d 59       		.uleb128 0x59
 2793 017e 0B       		.uleb128 0xb
 2794 017f 01       		.uleb128 0x1
 2795 0180 13       		.uleb128 0x13
 2796 0181 00       		.byte	0
 2797 0182 00       		.byte	0
 2798 0183 1F       		.uleb128 0x1f
 2799 0184 05       		.uleb128 0x5
 2800 0185 00       		.byte	0
 2801 0186 31       		.uleb128 0x31
 2802 0187 13       		.uleb128 0x13
 2803 0188 02       		.uleb128 0x2
 2804 0189 18       		.uleb128 0x18
 2805 018a 00       		.byte	0
 2806 018b 00       		.byte	0
 2807 018c 20       		.uleb128 0x20
 2808 018d 05       		.uleb128 0x5
 2809 018e 00       		.byte	0
 2810 018f 31       		.uleb128 0x31
 2811 0190 13       		.uleb128 0x13
 2812 0191 1C       		.uleb128 0x1c
 2813 0192 06       		.uleb128 0x6
 2814 0193 00       		.byte	0
 2815 0194 00       		.byte	0
 2816 0195 21       		.uleb128 0x21
 2817 0196 1D       		.uleb128 0x1d
 2818 0197 01       		.byte	0x1
 2819 0198 31       		.uleb128 0x31
 2820 0199 13       		.uleb128 0x13
 2821 019a 11       		.uleb128 0x11
 2822 019b 01       		.uleb128 0x1
 2823 019c 12       		.uleb128 0x12
 2824 019d 06       		.uleb128 0x6
 2825 019e 58       		.uleb128 0x58
 2826 019f 0B       		.uleb128 0xb
 2827 01a0 59       		.uleb128 0x59
 2828 01a1 0B       		.uleb128 0xb
ARM GAS  /tmp/ccZgMH2q.s 			page 74


 2829 01a2 00       		.byte	0
 2830 01a3 00       		.byte	0
 2831 01a4 22       		.uleb128 0x22
 2832 01a5 05       		.uleb128 0x5
 2833 01a6 00       		.byte	0
 2834 01a7 03       		.uleb128 0x3
 2835 01a8 0E       		.uleb128 0xe
 2836 01a9 3A       		.uleb128 0x3a
 2837 01aa 0B       		.uleb128 0xb
 2838 01ab 3B       		.uleb128 0x3b
 2839 01ac 0B       		.uleb128 0xb
 2840 01ad 49       		.uleb128 0x49
 2841 01ae 13       		.uleb128 0x13
 2842 01af 02       		.uleb128 0x2
 2843 01b0 17       		.uleb128 0x17
 2844 01b1 00       		.byte	0
 2845 01b2 00       		.byte	0
 2846 01b3 23       		.uleb128 0x23
 2847 01b4 34       		.uleb128 0x34
 2848 01b5 00       		.byte	0
 2849 01b6 03       		.uleb128 0x3
 2850 01b7 0E       		.uleb128 0xe
 2851 01b8 3A       		.uleb128 0x3a
 2852 01b9 0B       		.uleb128 0xb
 2853 01ba 3B       		.uleb128 0x3b
 2854 01bb 0B       		.uleb128 0xb
 2855 01bc 49       		.uleb128 0x49
 2856 01bd 13       		.uleb128 0x13
 2857 01be 02       		.uleb128 0x2
 2858 01bf 17       		.uleb128 0x17
 2859 01c0 00       		.byte	0
 2860 01c1 00       		.byte	0
 2861 01c2 24       		.uleb128 0x24
 2862 01c3 34       		.uleb128 0x34
 2863 01c4 00       		.byte	0
 2864 01c5 03       		.uleb128 0x3
 2865 01c6 0E       		.uleb128 0xe
 2866 01c7 3A       		.uleb128 0x3a
 2867 01c8 0B       		.uleb128 0xb
 2868 01c9 3B       		.uleb128 0x3b
 2869 01ca 0B       		.uleb128 0xb
 2870 01cb 49       		.uleb128 0x49
 2871 01cc 13       		.uleb128 0x13
 2872 01cd 02       		.uleb128 0x2
 2873 01ce 18       		.uleb128 0x18
 2874 01cf 00       		.byte	0
 2875 01d0 00       		.byte	0
 2876 01d1 25       		.uleb128 0x25
 2877 01d2 34       		.uleb128 0x34
 2878 01d3 00       		.byte	0
 2879 01d4 03       		.uleb128 0x3
 2880 01d5 08       		.uleb128 0x8
 2881 01d6 3A       		.uleb128 0x3a
 2882 01d7 0B       		.uleb128 0xb
 2883 01d8 3B       		.uleb128 0x3b
 2884 01d9 0B       		.uleb128 0xb
 2885 01da 49       		.uleb128 0x49
ARM GAS  /tmp/ccZgMH2q.s 			page 75


 2886 01db 13       		.uleb128 0x13
 2887 01dc 02       		.uleb128 0x2
 2888 01dd 17       		.uleb128 0x17
 2889 01de 00       		.byte	0
 2890 01df 00       		.byte	0
 2891 01e0 26       		.uleb128 0x26
 2892 01e1 0B       		.uleb128 0xb
 2893 01e2 01       		.byte	0x1
 2894 01e3 55       		.uleb128 0x55
 2895 01e4 17       		.uleb128 0x17
 2896 01e5 00       		.byte	0
 2897 01e6 00       		.byte	0
 2898 01e7 27       		.uleb128 0x27
 2899 01e8 34       		.uleb128 0x34
 2900 01e9 00       		.byte	0
 2901 01ea 03       		.uleb128 0x3
 2902 01eb 0E       		.uleb128 0xe
 2903 01ec 3A       		.uleb128 0x3a
 2904 01ed 0B       		.uleb128 0xb
 2905 01ee 3B       		.uleb128 0x3b
 2906 01ef 05       		.uleb128 0x5
 2907 01f0 49       		.uleb128 0x49
 2908 01f1 13       		.uleb128 0x13
 2909 01f2 3F       		.uleb128 0x3f
 2910 01f3 19       		.uleb128 0x19
 2911 01f4 3C       		.uleb128 0x3c
 2912 01f5 19       		.uleb128 0x19
 2913 01f6 00       		.byte	0
 2914 01f7 00       		.byte	0
 2915 01f8 28       		.uleb128 0x28
 2916 01f9 34       		.uleb128 0x34
 2917 01fa 00       		.byte	0
 2918 01fb 03       		.uleb128 0x3
 2919 01fc 08       		.uleb128 0x8
 2920 01fd 3A       		.uleb128 0x3a
 2921 01fe 0B       		.uleb128 0xb
 2922 01ff 3B       		.uleb128 0x3b
 2923 0200 05       		.uleb128 0x5
 2924 0201 49       		.uleb128 0x49
 2925 0202 13       		.uleb128 0x13
 2926 0203 3F       		.uleb128 0x3f
 2927 0204 19       		.uleb128 0x19
 2928 0205 3C       		.uleb128 0x3c
 2929 0206 19       		.uleb128 0x19
 2930 0207 00       		.byte	0
 2931 0208 00       		.byte	0
 2932 0209 00       		.byte	0
 2933              		.section	.debug_loc,"",%progbits
 2934              	.Ldebug_loc0:
 2935              	.LLST0:
 2936 0000 00000000 		.4byte	.LVL10
 2937 0004 88000000 		.4byte	.LVL24
 2938 0008 0100     		.2byte	0x1
 2939 000a 51       		.byte	0x51
 2940 000b 88000000 		.4byte	.LVL24
 2941 000f 8A000000 		.4byte	.LVL25
 2942 0013 0500     		.2byte	0x5
ARM GAS  /tmp/ccZgMH2q.s 			page 76


 2943 0015 71       		.byte	0x71
 2944 0016 00       		.sleb128 0
 2945 0017 31       		.byte	0x31
 2946 0018 25       		.byte	0x25
 2947 0019 9F       		.byte	0x9f
 2948 001a 8A000000 		.4byte	.LVL25
 2949 001e C8000000 		.4byte	.LFE262
 2950 0022 0100     		.2byte	0x1
 2951 0024 51       		.byte	0x51
 2952 0025 00000000 		.4byte	0
 2953 0029 00000000 		.4byte	0
 2954              	.LLST1:
 2955 002d 00000000 		.4byte	.LVL10
 2956 0031 1E000000 		.4byte	.LVL15
 2957 0035 0100     		.2byte	0x1
 2958 0037 52       		.byte	0x52
 2959 0038 1E000000 		.4byte	.LVL15
 2960 003c C8000000 		.4byte	.LFE262
 2961 0040 0400     		.2byte	0x4
 2962 0042 F3       		.byte	0xf3
 2963 0043 01       		.uleb128 0x1
 2964 0044 52       		.byte	0x52
 2965 0045 9F       		.byte	0x9f
 2966 0046 00000000 		.4byte	0
 2967 004a 00000000 		.4byte	0
 2968              	.LLST2:
 2969 004e 0A000000 		.4byte	.LVL11
 2970 0052 C6000000 		.4byte	.LVL35
 2971 0056 0100     		.2byte	0x1
 2972 0058 57       		.byte	0x57
 2973 0059 00000000 		.4byte	0
 2974 005d 00000000 		.4byte	0
 2975              	.LLST3:
 2976 0061 0E000000 		.4byte	.LVL12
 2977 0065 C6000000 		.4byte	.LVL35
 2978 0069 0100     		.2byte	0x1
 2979 006b 56       		.byte	0x56
 2980 006c 00000000 		.4byte	0
 2981 0070 00000000 		.4byte	0
 2982              	.LLST4:
 2983 0074 12000000 		.4byte	.LVL13
 2984 0078 C6000000 		.4byte	.LVL35
 2985 007c 0100     		.2byte	0x1
 2986 007e 55       		.byte	0x55
 2987 007f 00000000 		.4byte	0
 2988 0083 00000000 		.4byte	0
 2989              	.LLST5:
 2990 0087 16000000 		.4byte	.LVL14
 2991 008b C6000000 		.4byte	.LVL35
 2992 008f 0100     		.2byte	0x1
 2993 0091 54       		.byte	0x54
 2994 0092 00000000 		.4byte	0
 2995 0096 00000000 		.4byte	0
 2996              	.LLST6:
 2997 009a 1E000000 		.4byte	.LVL15
 2998 009e 24000000 		.4byte	.LVL16
 2999 00a2 0200     		.2byte	0x2
ARM GAS  /tmp/ccZgMH2q.s 			page 77


 3000 00a4 30       		.byte	0x30
 3001 00a5 9F       		.byte	0x9f
 3002 00a6 24000000 		.4byte	.LVL16
 3003 00aa C8000000 		.4byte	.LFE262
 3004 00ae 0100     		.2byte	0x1
 3005 00b0 53       		.byte	0x53
 3006 00b1 00000000 		.4byte	0
 3007 00b5 00000000 		.4byte	0
 3008              	.LLST7:
 3009 00b9 24000000 		.4byte	.LVL16
 3010 00bd 30000000 		.4byte	.LVL18
 3011 00c1 0100     		.2byte	0x1
 3012 00c3 58       		.byte	0x58
 3013 00c4 30000000 		.4byte	.LVL18
 3014 00c8 96000000 		.4byte	.LVL30
 3015 00cc 0A00     		.2byte	0xa
 3016 00ce 72       		.byte	0x72
 3017 00cf 00       		.sleb128 0
 3018 00d0 73       		.byte	0x73
 3019 00d1 00       		.sleb128 0
 3020 00d2 37       		.byte	0x37
 3021 00d3 1A       		.byte	0x1a
 3022 00d4 32       		.byte	0x32
 3023 00d5 24       		.byte	0x24
 3024 00d6 24       		.byte	0x24
 3025 00d7 9F       		.byte	0x9f
 3026 00d8 A6000000 		.4byte	.LVL31
 3027 00dc BC000000 		.4byte	.LVL34
 3028 00e0 0100     		.2byte	0x1
 3029 00e2 58       		.byte	0x58
 3030 00e3 BC000000 		.4byte	.LVL34
 3031 00e7 C8000000 		.4byte	.LFE262
 3032 00eb 0A00     		.2byte	0xa
 3033 00ed 72       		.byte	0x72
 3034 00ee 00       		.sleb128 0
 3035 00ef 73       		.byte	0x73
 3036 00f0 00       		.sleb128 0
 3037 00f1 37       		.byte	0x37
 3038 00f2 1A       		.byte	0x1a
 3039 00f3 32       		.byte	0x32
 3040 00f4 24       		.byte	0x24
 3041 00f5 24       		.byte	0x24
 3042 00f6 9F       		.byte	0x9f
 3043 00f7 00000000 		.4byte	0
 3044 00fb 00000000 		.4byte	0
 3045              	.LLST8:
 3046 00ff 34000000 		.4byte	.LVL19
 3047 0103 88000000 		.4byte	.LVL24
 3048 0107 0500     		.2byte	0x5
 3049 0109 31       		.byte	0x31
 3050 010a 73       		.byte	0x73
 3051 010b 00       		.sleb128 0
 3052 010c 24       		.byte	0x24
 3053 010d 9F       		.byte	0x9f
 3054 010e 00000000 		.4byte	0
 3055 0112 00000000 		.4byte	0
 3056              	.LLST9:
ARM GAS  /tmp/ccZgMH2q.s 			page 78


 3057 0116 48000000 		.4byte	.LVL20
 3058 011a 58000000 		.4byte	.LVL21
 3059 011e 0700     		.2byte	0x7
 3060 0120 33       		.byte	0x33
 3061 0121 73       		.byte	0x73
 3062 0122 00       		.sleb128 0
 3063 0123 31       		.byte	0x31
 3064 0124 24       		.byte	0x24
 3065 0125 24       		.byte	0x24
 3066 0126 9F       		.byte	0x9f
 3067 0127 58000000 		.4byte	.LVL21
 3068 012b 5C000000 		.4byte	.LVL22
 3069 012f 0100     		.2byte	0x1
 3070 0131 5C       		.byte	0x5c
 3071 0132 5C000000 		.4byte	.LVL22
 3072 0136 80000000 		.4byte	.LVL23
 3073 013a 0400     		.2byte	0x4
 3074 013c 7C       		.byte	0x7c
 3075 013d 00       		.sleb128 0
 3076 013e 20       		.byte	0x20
 3077 013f 9F       		.byte	0x9f
 3078 0140 80000000 		.4byte	.LVL23
 3079 0144 88000000 		.4byte	.LVL24
 3080 0148 0700     		.2byte	0x7
 3081 014a 33       		.byte	0x33
 3082 014b 73       		.byte	0x73
 3083 014c 00       		.sleb128 0
 3084 014d 31       		.byte	0x31
 3085 014e 24       		.byte	0x24
 3086 014f 24       		.byte	0x24
 3087 0150 9F       		.byte	0x9f
 3088 0151 00000000 		.4byte	0
 3089 0155 00000000 		.4byte	0
 3090              	.LLST10:
 3091 0159 24000000 		.4byte	.LVL16
 3092 015d 2C000000 		.4byte	.LVL17
 3093 0161 0100     		.2byte	0x1
 3094 0163 5C       		.byte	0x5c
 3095 0164 2C000000 		.4byte	.LVL17
 3096 0168 96000000 		.4byte	.LVL30
 3097 016c 0A00     		.2byte	0xa
 3098 016e 79       		.byte	0x79
 3099 016f 00       		.sleb128 0
 3100 0170 73       		.byte	0x73
 3101 0171 00       		.sleb128 0
 3102 0172 37       		.byte	0x37
 3103 0173 1A       		.byte	0x1a
 3104 0174 32       		.byte	0x32
 3105 0175 24       		.byte	0x24
 3106 0176 24       		.byte	0x24
 3107 0177 9F       		.byte	0x9f
 3108 0178 AA000000 		.4byte	.LVL32
 3109 017c B8000000 		.4byte	.LVL33
 3110 0180 0100     		.2byte	0x1
 3111 0182 5C       		.byte	0x5c
 3112 0183 B8000000 		.4byte	.LVL33
 3113 0187 C6000000 		.4byte	.LVL35
ARM GAS  /tmp/ccZgMH2q.s 			page 79


 3114 018b 0A00     		.2byte	0xa
 3115 018d 79       		.byte	0x79
 3116 018e 00       		.sleb128 0
 3117 018f 73       		.byte	0x73
 3118 0190 00       		.sleb128 0
 3119 0191 37       		.byte	0x37
 3120 0192 1A       		.byte	0x1a
 3121 0193 32       		.byte	0x32
 3122 0194 24       		.byte	0x24
 3123 0195 24       		.byte	0x24
 3124 0196 9F       		.byte	0x9f
 3125 0197 C6000000 		.4byte	.LVL35
 3126 019b C8000000 		.4byte	.LFE262
 3127 019f 0900     		.2byte	0x9
 3128 01a1 3F       		.byte	0x3f
 3129 01a2 73       		.byte	0x73
 3130 01a3 00       		.sleb128 0
 3131 01a4 37       		.byte	0x37
 3132 01a5 1A       		.byte	0x1a
 3133 01a6 32       		.byte	0x32
 3134 01a7 24       		.byte	0x24
 3135 01a8 24       		.byte	0x24
 3136 01a9 9F       		.byte	0x9f
 3137 01aa 00000000 		.4byte	0
 3138 01ae 00000000 		.4byte	0
 3139              		.section	.debug_aranges,"",%progbits
 3140 0000 24000000 		.4byte	0x24
 3141 0004 0200     		.2byte	0x2
 3142 0006 00000000 		.4byte	.Ldebug_info0
 3143 000a 04       		.byte	0x4
 3144 000b 00       		.byte	0
 3145 000c 0000     		.2byte	0
 3146 000e 0000     		.2byte	0
 3147 0010 00000000 		.4byte	.LFB261
 3148 0014 C0010000 		.4byte	.LFE261-.LFB261
 3149 0018 00000000 		.4byte	.LFB262
 3150 001c C8000000 		.4byte	.LFE262-.LFB262
 3151 0020 00000000 		.4byte	0
 3152 0024 00000000 		.4byte	0
 3153              		.section	.debug_ranges,"",%progbits
 3154              	.Ldebug_ranges0:
 3155 0000 08000000 		.4byte	.LBB20
 3156 0004 0C000000 		.4byte	.LBE20
 3157 0008 38000000 		.4byte	.LBB44
 3158 000c 62000000 		.4byte	.LBE44
 3159 0010 00000000 		.4byte	0
 3160 0014 00000000 		.4byte	0
 3161 0018 10000000 		.4byte	.LBB23
 3162 001c 14000000 		.4byte	.LBE23
 3163 0020 62000000 		.4byte	.LBB45
 3164 0024 8C000000 		.4byte	.LBE45
 3165 0028 00000000 		.4byte	0
 3166 002c 00000000 		.4byte	0
 3167 0030 14000000 		.4byte	.LBB26
 3168 0034 16000000 		.4byte	.LBE26
 3169 0038 8C000000 		.4byte	.LBB46
 3170 003c A8000000 		.4byte	.LBE46
ARM GAS  /tmp/ccZgMH2q.s 			page 80


 3171 0040 00000000 		.4byte	0
 3172 0044 00000000 		.4byte	0
 3173 0048 16000000 		.4byte	.LBB29
 3174 004c 18000000 		.4byte	.LBE29
 3175 0050 A8000000 		.4byte	.LBB47
 3176 0054 C4000000 		.4byte	.LBE47
 3177 0058 00000000 		.4byte	0
 3178 005c 00000000 		.4byte	0
 3179 0060 18000000 		.4byte	.LBB32
 3180 0064 1A000000 		.4byte	.LBE32
 3181 0068 C4000000 		.4byte	.LBB48
 3182 006c E6000000 		.4byte	.LBE48
 3183 0070 00000000 		.4byte	0
 3184 0074 00000000 		.4byte	0
 3185 0078 1A000000 		.4byte	.LBB35
 3186 007c 1C000000 		.4byte	.LBE35
 3187 0080 E6000000 		.4byte	.LBB49
 3188 0084 10010000 		.4byte	.LBE49
 3189 0088 00000000 		.4byte	0
 3190 008c 00000000 		.4byte	0
 3191 0090 1C000000 		.4byte	.LBB38
 3192 0094 1E000000 		.4byte	.LBE38
 3193 0098 10010000 		.4byte	.LBB50
 3194 009c 3A010000 		.4byte	.LBE50
 3195 00a0 00000000 		.4byte	0
 3196 00a4 00000000 		.4byte	0
 3197 00a8 1E000000 		.4byte	.LBB41
 3198 00ac 20000000 		.4byte	.LBE41
 3199 00b0 3A010000 		.4byte	.LBB51
 3200 00b4 64010000 		.4byte	.LBE51
 3201 00b8 00000000 		.4byte	0
 3202 00bc 00000000 		.4byte	0
 3203 00c0 16000000 		.4byte	.LBB54
 3204 00c4 1A000000 		.4byte	.LBE54
 3205 00c8 1E000000 		.4byte	.LBB55
 3206 00cc 88000000 		.4byte	.LBE55
 3207 00d0 96000000 		.4byte	.LBB56
 3208 00d4 9E000000 		.4byte	.LBE56
 3209 00d8 A2000000 		.4byte	.LBB57
 3210 00dc AA000000 		.4byte	.LBE57
 3211 00e0 AC000000 		.4byte	.LBB58
 3212 00e4 C2000000 		.4byte	.LBE58
 3213 00e8 00000000 		.4byte	0
 3214 00ec 00000000 		.4byte	0
 3215 00f0 00000000 		.4byte	.LFB261
 3216 00f4 C0010000 		.4byte	.LFE261
 3217 00f8 00000000 		.4byte	.LFB262
 3218 00fc C8000000 		.4byte	.LFE262
 3219 0100 00000000 		.4byte	0
 3220 0104 00000000 		.4byte	0
 3221              		.section	.debug_line,"",%progbits
 3222              	.Ldebug_line0:
 3223 0000 A4020000 		.section	.debug_str,"MS",%progbits,1
 3223      0200F101 
 3223      00000201 
 3223      FB0E0D00 
 3223      01010101 
ARM GAS  /tmp/ccZgMH2q.s 			page 81


 3224              	.LASF148:
 3225 0000 73746D33 		.ascii	"stm32_gpio_setup_t\000"
 3225      325F6770 
 3225      696F5F73 
 3225      65747570 
 3225      5F7400
 3226              	.LASF52:
 3227 0013 72656164 		.ascii	"ready_list_t\000"
 3227      795F6C69 
 3227      73745F74 
 3227      00
 3228              	.LASF118:
 3229 0020 77747472 		.ascii	"wttrp\000"
 3229      7000
 3230              	.LASF115:
 3231 0026 7264796D 		.ascii	"rdymsg\000"
 3231      736700
 3232              	.LASF18:
 3233 002d 75696E74 		.ascii	"uint64_t\000"
 3233      36345F74 
 3233      00
 3234              	.LASF4:
 3235 0036 5F5F7569 		.ascii	"__uint8_t\000"
 3235      6E74385F 
 3235      7400
 3236              	.LASF134:
 3237 0040 4F545950 		.ascii	"OTYPER\000"
 3237      455200
 3238              	.LASF112:
 3239 0047 706F7274 		.ascii	"port_intctx\000"
 3239      5F696E74 
 3239      63747800 
 3240              	.LASF71:
 3241 0053 73797374 		.ascii	"system_debug_t\000"
 3241      656D5F64 
 3241      65627567 
 3241      5F7400
 3242              	.LASF159:
 3243 0062 696F706F 		.ascii	"ioportmask_t\000"
 3243      72746D61 
 3243      736B5F74 
 3243      00
 3244              	.LASF156:
 3245 006f 50484461 		.ascii	"PHData\000"
 3245      746100
 3246              	.LASF133:
 3247 0076 4D4F4445 		.ascii	"MODER\000"
 3247      5200
 3248              	.LASF13:
 3249 007c 6C6F6E67 		.ascii	"long long unsigned int\000"
 3249      206C6F6E 
 3249      6720756E 
 3249      7369676E 
 3249      65642069 
 3250              	.LASF136:
 3251 0093 50555044 		.ascii	"PUPDR\000"
 3251      5200
ARM GAS  /tmp/ccZgMH2q.s 			page 82


 3252              	.LASF116:
 3253 0099 65786974 		.ascii	"exitcode\000"
 3253      636F6465 
 3253      00
 3254              	.LASF78:
 3255 00a2 6D61696E 		.ascii	"mainthread\000"
 3255      74687265 
 3255      616400
 3256              	.LASF68:
 3257 00ad 76697274 		.ascii	"virtual_timers_list_t\000"
 3257      75616C5F 
 3257      74696D65 
 3257      72735F6C 
 3257      6973745F 
 3258              	.LASF171:
 3259 00c3 49544D5F 		.ascii	"ITM_RxBuffer\000"
 3259      52784275 
 3259      66666572 
 3259      00
 3260              	.LASF51:
 3261 00d0 63685F74 		.ascii	"ch_threads_queue\000"
 3261      68726561 
 3261      64735F71 
 3261      75657565 
 3261      00
 3262              	.LASF97:
 3263 00e1 41484231 		.ascii	"AHB1LPENR\000"
 3263      4C50454E 
 3263      5200
 3264              	.LASF31:
 3265 00eb 705F7072 		.ascii	"p_prio\000"
 3265      696F00
 3266              	.LASF11:
 3267 00f2 6C6F6E67 		.ascii	"long long int\000"
 3267      206C6F6E 
 3267      6720696E 
 3267      7400
 3268              	.LASF1:
 3269 0100 7369676E 		.ascii	"signed char\000"
 3269      65642063 
 3269      68617200 
 3270              	.LASF137:
 3271 010c 42535252 		.ascii	"BSRR\000"
 3271      00
 3272              	.LASF83:
 3273 0111 41484231 		.ascii	"AHB1RSTR\000"
 3273      52535452 
 3273      00
 3274              	.LASF45:
 3275 011a 705F6D70 		.ascii	"p_mpool\000"
 3275      6F6F6C00 
 3276              	.LASF126:
 3277 0122 6D5F7175 		.ascii	"m_queue\000"
 3277      65756500 
 3278              	.LASF173:
 3279 012a 2F757372 		.ascii	"/usr/src/chibios/os/hal/ports/STM32/LLD/GPIOv2/pal_"
 3279      2F737263 
ARM GAS  /tmp/ccZgMH2q.s 			page 83


 3279      2F636869 
 3279      62696F73 
 3279      2F6F732F 
 3280 015d 6C6C642E 		.ascii	"lld.c\000"
 3280      6300
 3281              	.LASF142:
 3282 0163 6D6F6465 		.ascii	"moder\000"
 3282      7200
 3283              	.LASF108:
 3284 0169 5243435F 		.ascii	"RCC_TypeDef\000"
 3284      54797065 
 3284      44656600 
 3285              	.LASF75:
 3286 0175 63685F73 		.ascii	"ch_system\000"
 3286      79737465 
 3286      6D00
 3287              	.LASF8:
 3288 017f 6C6F6E67 		.ascii	"long int\000"
 3288      20696E74 
 3288      00
 3289              	.LASF153:
 3290 0188 50454461 		.ascii	"PEData\000"
 3290      746100
 3291              	.LASF88:
 3292 018f 41504232 		.ascii	"APB2RSTR\000"
 3292      52535452 
 3292      00
 3293              	.LASF101:
 3294 0198 41504231 		.ascii	"APB1LPENR\000"
 3294      4C50454E 
 3294      5200
 3295              	.LASF21:
 3296 01a2 74737461 		.ascii	"tstate_t\000"
 3296      74655F74 
 3296      00
 3297              	.LASF15:
 3298 01ab 75696E74 		.ascii	"uint16_t\000"
 3298      31365F74 
 3298      00
 3299              	.LASF170:
 3300 01b4 616C7472 		.ascii	"altrmask\000"
 3300      6D61736B 
 3300      00
 3301              	.LASF33:
 3302 01bd 705F6E65 		.ascii	"p_newer\000"
 3302      77657200 
 3303              	.LASF81:
 3304 01c5 504C4C43 		.ascii	"PLLCFGR\000"
 3304      46475200 
 3305              	.LASF135:
 3306 01cd 4F535045 		.ascii	"OSPEEDR\000"
 3306      45445200 
 3307              	.LASF57:
 3308 01d5 725F6E65 		.ascii	"r_newer\000"
 3308      77657200 
 3309              	.LASF167:
 3310 01dd 6D61736B 		.ascii	"mask\000"
ARM GAS  /tmp/ccZgMH2q.s 			page 84


 3310      00
 3311              	.LASF109:
 3312 01e2 72656761 		.ascii	"regarm_t\000"
 3312      726D5F74 
 3312      00
 3313              	.LASF64:
 3314 01eb 76745F70 		.ascii	"vt_prev\000"
 3314      72657600 
 3315              	.LASF77:
 3316 01f3 76746C69 		.ascii	"vtlist\000"
 3316      737400
 3317              	.LASF141:
 3318 01fa 73746D33 		.ascii	"stm32_gpio_t\000"
 3318      325F6770 
 3318      696F5F74 
 3318      00
 3319              	.LASF166:
 3320 0207 706F7274 		.ascii	"port\000"
 3320      00
 3321              	.LASF130:
 3322 020c 6D757465 		.ascii	"mutex_t\000"
 3322      785F7400 
 3323              	.LASF150:
 3324 0214 50424461 		.ascii	"PBData\000"
 3324      746100
 3325              	.LASF79:
 3326 021b 69646C65 		.ascii	"idle_thread_wa\000"
 3326      5F746872 
 3326      6561645F 
 3326      776100
 3327              	.LASF26:
 3328 022a 636E745F 		.ascii	"cnt_t\000"
 3328      7400
 3329              	.LASF0:
 3330 0230 756E7369 		.ascii	"unsigned int\000"
 3330      676E6564 
 3330      20696E74 
 3330      00
 3331              	.LASF63:
 3332 023d 76745F6E 		.ascii	"vt_next\000"
 3332      65787400 
 3333              	.LASF119:
 3334 0245 77747365 		.ascii	"wtsemp\000"
 3334      6D7000
 3335              	.LASF40:
 3336 024c 705F6D73 		.ascii	"p_msgqueue\000"
 3336      67717565 
 3336      756500
 3337              	.LASF144:
 3338 0257 6F737065 		.ascii	"ospeedr\000"
 3338      65647200 
 3339              	.LASF138:
 3340 025f 4C434B52 		.ascii	"LCKR\000"
 3340      00
 3341              	.LASF143:
 3342 0264 6F747970 		.ascii	"otyper\000"
 3342      657200
ARM GAS  /tmp/ccZgMH2q.s 			page 85


 3343              	.LASF6:
 3344 026b 73686F72 		.ascii	"short unsigned int\000"
 3344      7420756E 
 3344      7369676E 
 3344      65642069 
 3344      6E7400
 3345              	.LASF154:
 3346 027e 50464461 		.ascii	"PFData\000"
 3346      746100
 3347              	.LASF48:
 3348 0285 63685F74 		.ascii	"ch_thread\000"
 3348      68726561 
 3348      6400
 3349              	.LASF107:
 3350 028f 504C4C49 		.ascii	"PLLI2SCFGR\000"
 3350      32534346 
 3350      475200
 3351              	.LASF24:
 3352 029a 6D73675F 		.ascii	"msg_t\000"
 3352      7400
 3353              	.LASF85:
 3354 02a0 41484233 		.ascii	"AHB3RSTR\000"
 3354      52535452 
 3354      00
 3355              	.LASF74:
 3356 02a9 63685F73 		.ascii	"ch_system_t\000"
 3356      79737465 
 3356      6D5F7400 
 3357              	.LASF20:
 3358 02b5 746D6F64 		.ascii	"tmode_t\000"
 3358      655F7400 
 3359              	.LASF102:
 3360 02bd 41504232 		.ascii	"APB2LPENR\000"
 3360      4C50454E 
 3360      5200
 3361              	.LASF53:
 3362 02c7 63685F72 		.ascii	"ch_ready_list\000"
 3362      65616479 
 3362      5F6C6973 
 3362      7400
 3363              	.LASF25:
 3364 02d5 6576656E 		.ascii	"eventmask_t\000"
 3364      746D6173 
 3364      6B5F7400 
 3365              	.LASF7:
 3366 02e1 5F5F696E 		.ascii	"__int32_t\000"
 3366      7433325F 
 3366      7400
 3367              	.LASF155:
 3368 02eb 50474461 		.ascii	"PGData\000"
 3368      746100
 3369              	.LASF110:
 3370 02f2 73746B61 		.ascii	"stkalign_t\000"
 3370      6C69676E 
 3370      5F7400
 3371              	.LASF47:
 3372 02fd 74687265 		.ascii	"threads_list_t\000"
ARM GAS  /tmp/ccZgMH2q.s 			page 86


 3372      6164735F 
 3372      6C697374 
 3372      5F7400
 3373              	.LASF172:
 3374 030c 474E5520 		.ascii	"GNU C 4.8.4 20141219 (release) -mcpu=cortex-m4 -mno"
 3374      4320342E 
 3374      382E3420 
 3374      32303134 
 3374      31323139 
 3375 033f 2D746875 		.ascii	"-thumb-interwork -mthumb -ggdb -O2 -fomit-frame-poi"
 3375      6D622D69 
 3375      6E746572 
 3375      776F726B 
 3375      202D6D74 
 3376 0372 6E746572 		.ascii	"nter -falign-functions=16 -ffunction-sections -fdat"
 3376      202D6661 
 3376      6C69676E 
 3376      2D66756E 
 3376      6374696F 
 3377 03a5 612D7365 		.ascii	"a-sections -fno-common -flto\000"
 3377      6374696F 
 3377      6E73202D 
 3377      666E6F2D 
 3377      636F6D6D 
 3378              	.LASF61:
 3379 03c2 76697274 		.ascii	"virtual_timer_t\000"
 3379      75616C5F 
 3379      74696D65 
 3379      725F7400 
 3380              	.LASF39:
 3381 03d2 705F7761 		.ascii	"p_waiting\000"
 3381      6974696E 
 3381      6700
 3382              	.LASF80:
 3383 03dc 73697A65 		.ascii	"sizetype\000"
 3383      74797065 
 3383      00
 3384              	.LASF46:
 3385 03e5 74687265 		.ascii	"thread_reference_t\000"
 3385      61645F72 
 3385      65666572 
 3385      656E6365 
 3385      5F7400
 3386              	.LASF69:
 3387 03f8 63685F76 		.ascii	"ch_virtual_timers_list\000"
 3387      69727475 
 3387      616C5F74 
 3387      696D6572 
 3387      735F6C69 
 3388              	.LASF132:
 3389 040f 636C6561 		.ascii	"clear\000"
 3389      7200
 3390              	.LASF29:
 3391 0415 705F6E65 		.ascii	"p_next\000"
 3391      787400
 3392              	.LASF92:
 3393 041c 41484233 		.ascii	"AHB3ENR\000"
ARM GAS  /tmp/ccZgMH2q.s 			page 87


 3393      454E5200 
 3394              	.LASF70:
 3395 0424 76745F6C 		.ascii	"vt_lasttime\000"
 3395      61737474 
 3395      696D6500 
 3396              	.LASF34:
 3397 0430 705F6F6C 		.ascii	"p_older\000"
 3397      64657200 
 3398              	.LASF56:
 3399 0438 725F6374 		.ascii	"r_ctx\000"
 3399      7800
 3400              	.LASF98:
 3401 043e 41484232 		.ascii	"AHB2LPENR\000"
 3401      4C50454E 
 3401      5200
 3402              	.LASF114:
 3403 0448 746D5F63 		.ascii	"tm_calibration_t\000"
 3403      616C6962 
 3403      72617469 
 3403      6F6E5F74 
 3403      00
 3404              	.LASF147:
 3405 0459 61667268 		.ascii	"afrh\000"
 3405      00
 3406              	.LASF152:
 3407 045e 50444461 		.ascii	"PDData\000"
 3407      746100
 3408              	.LASF59:
 3409 0465 725F6375 		.ascii	"r_current\000"
 3409      7272656E 
 3409      7400
 3410              	.LASF87:
 3411 046f 41504231 		.ascii	"APB1RSTR\000"
 3411      52535452 
 3411      00
 3412              	.LASF12:
 3413 0478 5F5F7569 		.ascii	"__uint64_t\000"
 3413      6E743634 
 3413      5F7400
 3414              	.LASF140:
 3415 0483 41465248 		.ascii	"AFRH\000"
 3415      00
 3416              	.LASF139:
 3417 0488 4146524C 		.ascii	"AFRL\000"
 3417      00
 3418              	.LASF22:
 3419 048d 74726566 		.ascii	"trefs_t\000"
 3419      735F7400 
 3420              	.LASF86:
 3421 0495 52455345 		.ascii	"RESERVED0\000"
 3421      52564544 
 3421      3000
 3422              	.LASF89:
 3423 049f 52455345 		.ascii	"RESERVED1\000"
 3423      52564544 
 3423      3100
 3424              	.LASF93:
ARM GAS  /tmp/ccZgMH2q.s 			page 88


 3425 04a9 52455345 		.ascii	"RESERVED2\000"
 3425      52564544 
 3425      3200
 3426              	.LASF96:
 3427 04b3 52455345 		.ascii	"RESERVED3\000"
 3427      52564544 
 3427      3300
 3428              	.LASF100:
 3429 04bd 52455345 		.ascii	"RESERVED4\000"
 3429      52564544 
 3429      3400
 3430              	.LASF30:
 3431 04c7 705F7072 		.ascii	"p_prev\000"
 3431      657600
 3432              	.LASF105:
 3433 04ce 52455345 		.ascii	"RESERVED6\000"
 3433      52564544 
 3433      3600
 3434              	.LASF23:
 3435 04d8 74707269 		.ascii	"tprio_t\000"
 3435      6F5F7400 
 3436              	.LASF72:
 3437 04e0 63685F73 		.ascii	"ch_system_debug\000"
 3437      79737465 
 3437      6D5F6465 
 3437      62756700 
 3438              	.LASF131:
 3439 04f0 5F426F6F 		.ascii	"_Bool\000"
 3439      6C00
 3440              	.LASF16:
 3441 04f6 696E7433 		.ascii	"int32_t\000"
 3441      325F7400 
 3442              	.LASF2:
 3443 04fe 756E7369 		.ascii	"unsigned char\000"
 3443      676E6564 
 3443      20636861 
 3443      7200
 3444              	.LASF146:
 3445 050c 6166726C 		.ascii	"afrl\000"
 3445      00
 3446              	.LASF124:
 3447 0511 735F636E 		.ascii	"s_cnt\000"
 3447      7400
 3448              	.LASF43:
 3449 0517 705F6D74 		.ascii	"p_mtxlist\000"
 3449      786C6973 
 3449      7400
 3450              	.LASF3:
 3451 0521 73686F72 		.ascii	"short int\000"
 3451      7420696E 
 3451      7400
 3452              	.LASF36:
 3453 052b 705F7374 		.ascii	"p_state\000"
 3453      61746500 
 3454              	.LASF99:
 3455 0533 41484233 		.ascii	"AHB3LPENR\000"
 3455      4C50454E 
ARM GAS  /tmp/ccZgMH2q.s 			page 89


 3455      5200
 3456              	.LASF55:
 3457 053d 725F7072 		.ascii	"r_prio\000"
 3457      696F00
 3458              	.LASF149:
 3459 0544 50414461 		.ascii	"PAData\000"
 3459      746100
 3460              	.LASF121:
 3461 054b 65776D61 		.ascii	"ewmask\000"
 3461      736B00
 3462              	.LASF37:
 3463 0552 705F666C 		.ascii	"p_flags\000"
 3463      61677300 
 3464              	.LASF162:
 3465 055a 6770696F 		.ascii	"gpiop\000"
 3465      7000
 3466              	.LASF95:
 3467 0560 41504232 		.ascii	"APB2ENR\000"
 3467      454E5200 
 3468              	.LASF157:
 3469 0568 50494461 		.ascii	"PIData\000"
 3469      746100
 3470              	.LASF62:
 3471 056f 63685F76 		.ascii	"ch_virtual_timer\000"
 3471      69727475 
 3471      616C5F74 
 3471      696D6572 
 3471      00
 3472              	.LASF122:
 3473 0580 63685F73 		.ascii	"ch_semaphore\000"
 3473      656D6170 
 3473      686F7265 
 3473      00
 3474              	.LASF42:
 3475 058d 705F6570 		.ascii	"p_epending\000"
 3475      656E6469 
 3475      6E6700
 3476              	.LASF103:
 3477 0598 52455345 		.ascii	"RESERVED5\000"
 3477      52564544 
 3477      3500
 3478              	.LASF17:
 3479 05a2 75696E74 		.ascii	"uint32_t\000"
 3479      33325F74 
 3479      00
 3480              	.LASF120:
 3481 05ab 77746D74 		.ascii	"wtmtxp\000"
 3481      787000
 3482              	.LASF54:
 3483 05b2 725F7175 		.ascii	"r_queue\000"
 3483      65756500 
 3484              	.LASF65:
 3485 05ba 76745F64 		.ascii	"vt_delta\000"
 3485      656C7461 
 3485      00
 3486              	.LASF49:
 3487 05c3 63685F74 		.ascii	"ch_threads_list\000"
ARM GAS  /tmp/ccZgMH2q.s 			page 90


 3487      68726561 
 3487      64735F6C 
 3487      69737400 
 3488              	.LASF10:
 3489 05d3 6C6F6E67 		.ascii	"long unsigned int\000"
 3489      20756E73 
 3489      69676E65 
 3489      6420696E 
 3489      7400
 3490              	.LASF169:
 3491 05e5 616C7472 		.ascii	"altr\000"
 3491      00
 3492              	.LASF129:
 3493 05ea 63686172 		.ascii	"char\000"
 3493      00
 3494              	.LASF168:
 3495 05ef 6D6F6465 		.ascii	"mode\000"
 3495      00
 3496              	.LASF163:
 3497 05f4 636F6E66 		.ascii	"config\000"
 3497      696700
 3498              	.LASF5:
 3499 05fb 5F5F7569 		.ascii	"__uint16_t\000"
 3499      6E743136 
 3499      5F7400
 3500              	.LASF84:
 3501 0606 41484232 		.ascii	"AHB2RSTR\000"
 3501      52535452 
 3501      00
 3502              	.LASF28:
 3503 060f 74687265 		.ascii	"thread_t\000"
 3503      61645F74 
 3503      00
 3504              	.LASF128:
 3505 0618 6D5F6E65 		.ascii	"m_next\000"
 3505      787400
 3506              	.LASF27:
 3507 061f 73797374 		.ascii	"systime_t\000"
 3507      696D655F 
 3507      7400
 3508              	.LASF44:
 3509 0629 705F7265 		.ascii	"p_realprio\000"
 3509      616C7072 
 3509      696F00
 3510              	.LASF60:
 3511 0634 76746675 		.ascii	"vtfunc_t\000"
 3511      6E635F74 
 3511      00
 3512              	.LASF9:
 3513 063d 5F5F7569 		.ascii	"__uint32_t\000"
 3513      6E743332 
 3513      5F7400
 3514              	.LASF174:
 3515 0648 696E6974 		.ascii	"initgpio\000"
 3515      6770696F 
 3515      00
 3516              	.LASF73:
ARM GAS  /tmp/ccZgMH2q.s 			page 91


 3517 0651 70616E69 		.ascii	"panic_msg\000"
 3517      635F6D73 
 3517      6700
 3518              	.LASF113:
 3519 065b 6F666673 		.ascii	"offset\000"
 3519      657400
 3520              	.LASF94:
 3521 0662 41504231 		.ascii	"APB1ENR\000"
 3521      454E5200 
 3522              	.LASF161:
 3523 066a 696F706F 		.ascii	"ioportid_t\000"
 3523      72746964 
 3523      5F7400
 3524              	.LASF91:
 3525 0675 41484232 		.ascii	"AHB2ENR\000"
 3525      454E5200 
 3526              	.LASF111:
 3527 067d 636F6E74 		.ascii	"context\000"
 3527      65787400 
 3528              	.LASF58:
 3529 0685 725F6F6C 		.ascii	"r_older\000"
 3529      64657200 
 3530              	.LASF165:
 3531 068d 5F70616C 		.ascii	"_pal_lld_setgroupmode\000"
 3531      5F6C6C64 
 3531      5F736574 
 3531      67726F75 
 3531      706D6F64 
 3532              	.LASF19:
 3533 06a3 7274636E 		.ascii	"rtcnt_t\000"
 3533      745F7400 
 3534              	.LASF67:
 3535 06ab 76745F70 		.ascii	"vt_par\000"
 3535      617200
 3536              	.LASF106:
 3537 06b2 53534347 		.ascii	"SSCGR\000"
 3537      5200
 3538              	.LASF50:
 3539 06b8 74687265 		.ascii	"threads_queue_t\000"
 3539      6164735F 
 3539      71756575 
 3539      655F7400 
 3540              	.LASF125:
 3541 06c8 63685F6D 		.ascii	"ch_mutex\000"
 3541      75746578 
 3541      00
 3542              	.LASF38:
 3543 06d1 705F7265 		.ascii	"p_refs\000"
 3543      667300
 3544              	.LASF164:
 3545 06d8 5F70616C 		.ascii	"_pal_lld_init\000"
 3545      5F6C6C64 
 3545      5F696E69 
 3545      7400
 3546              	.LASF104:
 3547 06e6 42444352 		.ascii	"BDCR\000"
 3547      00
ARM GAS  /tmp/ccZgMH2q.s 			page 92


 3548              	.LASF76:
 3549 06eb 726C6973 		.ascii	"rlist\000"
 3549      7400
 3550              	.LASF14:
 3551 06f1 75696E74 		.ascii	"uint8_t\000"
 3551      385F7400 
 3552              	.LASF145:
 3553 06f9 70757064 		.ascii	"pupdr\000"
 3553      7200
 3554              	.LASF117:
 3555 06ff 77746F62 		.ascii	"wtobjp\000"
 3555      6A7000
 3556              	.LASF35:
 3557 0706 705F6E61 		.ascii	"p_name\000"
 3557      6D6500
 3558              	.LASF90:
 3559 070d 41484231 		.ascii	"AHB1ENR\000"
 3559      454E5200 
 3560              	.LASF151:
 3561 0715 50434461 		.ascii	"PCData\000"
 3561      746100
 3562              	.LASF82:
 3563 071c 43464752 		.ascii	"CFGR\000"
 3563      00
 3564              	.LASF123:
 3565 0721 735F7175 		.ascii	"s_queue\000"
 3565      65756500 
 3566              	.LASF41:
 3567 0729 705F6D73 		.ascii	"p_msg\000"
 3567      6700
 3568              	.LASF160:
 3569 072f 696F6D6F 		.ascii	"iomode_t\000"
 3569      64655F74 
 3569      00
 3570              	.LASF158:
 3571 0738 50414C43 		.ascii	"PALConfig\000"
 3571      6F6E6669 
 3571      6700
 3572              	.LASF127:
 3573 0742 6D5F6F77 		.ascii	"m_owner\000"
 3573      6E657200 
 3574              	.LASF32:
 3575 074a 705F6374 		.ascii	"p_ctx\000"
 3575      7800
 3576              	.LASF66:
 3577 0750 76745F66 		.ascii	"vt_func\000"
 3577      756E6300 
 3578              		.comm	__gnu_lto_v1,1,1
 3579              		.ident	"GCC: (4.8.4-1+11-1) 4.8.4 20141219 (release)"
ARM GAS  /tmp/ccZgMH2q.s 			page 93


DEFINED SYMBOLS
                            *ABS*:00000000 pal_lld.c
     /tmp/ccZgMH2q.s:397    .text._pal_lld_init:00000000 $t
     /tmp/ccZgMH2q.s:403    .text._pal_lld_init:00000000 _pal_lld_init
     /tmp/ccZgMH2q.s:717    .text._pal_lld_init:00000198 $d
     /tmp/ccZgMH2q.s:731    .text._pal_lld_setgroupmode:00000000 $t
     /tmp/ccZgMH2q.s:737    .text._pal_lld_setgroupmode:00000000 _pal_lld_setgroupmode
                            *COM*:00000001 __gnu_lto_v1
                     .debug_frame:00000010 $d

NO UNDEFINED SYMBOLS
