ARM GAS  /tmp/ccwytk7H.s 			page 1


   1              		.syntax unified
   2              		.cpu cortex-m4
   3              		.fpu softvfp
   4              		.eabi_attribute 20, 1
   5              		.eabi_attribute 21, 1
   6              		.eabi_attribute 23, 3
   7              		.eabi_attribute 24, 1
   8              		.eabi_attribute 25, 1
   9              		.eabi_attribute 26, 1
  10              		.eabi_attribute 30, 2
  11              		.eabi_attribute 34, 1
  12              		.eabi_attribute 18, 4
  13              		.thumb
  14              		.file	"pwm.c"
  15              		.text
  16              	.Ltext0:
  17              		.section	.gnu.lto_.jmpfuncs.21a78ed62c12c3a0,"",%progbits
  18 0000 789C6362 		.ascii	"x\234cb`b\300\006B\24047\020322132003\002\011\026fV"
  18      6062C006 
  18      42A03437 
  18      10333232 
  18      31333230 
  19 001b 7666201B 		.ascii	"vf \033(Z\006\246\230\200\024\0333\023\\\210\035\244"
  19      285A06A6 
  19      9880141B 
  19      33135C88 
  19      1DA4
  20 002d 8A034470 		.ascii	"\212\003Dp\"\211r!\261\031\000\203\026\003%"
  20      22897221 
  20      B1190083 
  20      160325
  21              		.text
  22              		.section	.gnu.lto_.inline.21a78ed62c12c3a0,"",%progbits
  23 0000 789C7D8F 		.ascii	"x\234}\217M\016\203 \020F?~\012\003bl\223\272\366\006"
  23      4D0E8320 
  23      10463F7E 
  23      0A03626C 
  23      93BAF606 
  24 0014 6EBB73E9 		.ascii	"n\273s\351\322\263y\004\227\036\303#\364(\036\301\001"
  24      D2B37904 
  24      971EC323 
  24      F4281EC1 
  24      01
  25 0025 AC691AED 		.ascii	"\254i\032\355\220@\362\33670HH\234\325K\344\263\000"
  25      9040F2DE 
  25      37304848 
  25      9CD54BE4 
  25      B300
  26 0037 74102964 		.ascii	"t\020)d\246&e\205\217\033\254a\254\247\006~\351\022"
  26      A6266585 
  26      8F1BAC61 
  26      ACA7067E 
  26      E912
  27 0049 97084F46 		.ascii	"\227\010OFn\356Q\314}F\334.\306A\301=\330\230\265\005"
  27      6EEE51CC 
  27      7D46DC2E 
  27      C641C13D 
ARM GAS  /tmp/ccwytk7H.s 			page 2


  27      D898B505 
  28 005d ADEDB7D1 		.ascii	"\255\355\267\321p$\270\230(Z\272\254\345\273\3221sC"
  28      7024B898 
  28      285ABAAC 
  28      E5BBD231 
  28      7343
  29 006f 595F4A5D 		.ascii	"Y_J]2\035\207\270\314Y\216'K9\025\370\261\230\262\260"
  29      321D87B8 
  29      CC598E27 
  29      4B3915F8 
  29      B198B2B0 
  30 0083 D53EF1E7 		.ascii	"\325>\361\347'\373\020ti\034\350\376c\216\373\374\037"
  30      27FB1074 
  30      691CE8FE 
  30      638EFBFC 
  30      1F
  31 0094 870D55D3 		.ascii	"\207\015U\323#\231"
  31      2399
  32              		.text
  33              		.section	.gnu.lto_.pureconst.21a78ed62c12c3a0,"",%progbits
  34 0000 789C6362 		.ascii	"x\234cb`b\020g\200\000n\006\011F)&+f+\026+V+6+v+\016"
  34      60621067 
  34      80006E06 
  34      09462926 
  34      2B662B16 
  35 001c 2B4E2B2E 		.ascii	"+N+.+\000\034i\002\232"
  35      2B001C69 
  35      029A
  36              		.text
  37              		.section	.gnu.lto_pwmInit.21a78ed62c12c3a0,"",%progbits
  38 0000 789C6362 		.ascii	"x\234cb`b@\007\222@\\\011\304*@\314\310\314\300\310"
  38      60624007 
  38      92405C09 
  38      C42A40CC 
  38      C8CCC0C8 
  39 0014 34E11C03 		.ascii	"4\341\034\003C#\007\023##\210\301\300\310P\317\304X"
  39      43230713 
  39      232388C1 
  39      C0C850CF 
  39      C458
  40 0026 1FC90856 		.ascii	"\037\311\010V\273\236\351\300\203\377\377\327}\330\370"
  40      BB9EE9C0 
  40      83FFFFD7 
  40      7DD8F8
  41 0035 B01AA894 		.ascii	"\260\032\250\224\201\201\225\241\245\241a\202\002\003"
  41      818195A1 
  41      A5A16182 
  41      0203
  42 0043 4332583E 		.ascii	"C2X>\004H\2024\20522\201h\346\363\014\315\017~\331%"
  42      04488234 
  42      85323281 
  42      68E6F30C 
  42      CD0F7ED9 
  43 0058 322E6464 		.ascii	"2.dd\005\312V3\374j\350h\020\310d\004\252\206\030\227"
  43      05CA5633 
  43      FC6AE868 
  43      10C86404 
ARM GAS  /tmp/ccwytk7H.s 			page 3


  43      AA861897 
  44 006c 09A22F32 		.ascii	"\011\242/24>\370\315\004S\004\001!@\011\240\001 \307"
  44      343EF8CD 
  44      04530401 
  44      214009A0 
  44      0120C7
  45 007f 2AE99716 		.ascii	"*\351\227\026\027\351\027\027%\353'gd&e\346\027\353"
  45      17E91717 
  45      25EB2767 
  45      642665E6 
  45      17EB
  46 0091 03514662 		.ascii	"\003QFb\016X\250\240<W/\231\001\000@4.H"
  46      0E58A8A0 
  46      3C572F99 
  46      01004034 
  46      2E48
  47              		.text
  48              		.section	.gnu.lto_pwmObjectInit.21a78ed62c12c3a0,"",%progbits
  49 0000 789C6362 		.ascii	"x\234cb`b@\007\222@\034\314\310\300\240\002\244\031"
  49      60624007 
  49      92401CCC 
  49      C8C0A002 
  49      A419
  50 0012 99191899 		.ascii	"\231\031\030\231&\234c`h\344`bd\0041\030\030\031\352"
  50      269C6360 
  50      68E46062 
  50      64043118 
  50      1819EA
  51 0025 9918EB23 		.ascii	"\231\030\353#\031\301j\3273\035x\360\377\377\272\031"
  51      19C16AD7 
  51      331D78F0 
  51      FFFFBA19 
  52 0035 C796DD61 		.ascii	"\307\226\335a\234\311\304\316\304\230\013\026gehih\230"
  52      9CC9C4CE 
  52      C4980B16 
  52      67656869 
  52      6898
  53 0047 A0C0C090 		.ascii	"\240\300\300\220\014\346\206\000I\220\336PF&\020\315"
  53      0CE68600 
  53      4990DE50 
  53      462610CD 
  54 0057 7C96A169 		.ascii	"|\226\241i\307\215\307\027\230\022\031\0272\2622h3\254"
  54      C78DC717 
  54      98121917 
  54      32B23268 
  54      33AC
  55 0069 6A0002FE 		.ascii	"j\000\002\376LF\206\331\014\263\0303\031\031\323\031"
  55      4C4686D9 
  55      0CB31833 
  55      1919D319 
  56 0079 99228034 		.ascii	"\231\"\2004\304iI\020\233\030@\"\014 6H\367\017,\272"
  56      C4694910 
  56      9B184022 
  56      0C203648 
  56      F70F2CBA 
  57 008d 99B1EB66 		.ascii	"\231\261\353f\204\353ff\200\352\236\361\014S7\013v\335"
  57      84EB6666 
ARM GAS  /tmp/ccwytk7H.s 			page 4


  57      80EA9EF1 
  57      0C53370B 
  57      76DD
  58 009f 4C70DD2C 		.ascii	"Lp\335,0\335;\260\350f\305\256\233\031\256\233\025\304"
  58      30DD3BB0 
  58      E866C5AE 
  58      9B19AE9B 
  58      15C4
  59 00b1 B8C8D0F8 		.ascii	"\270\310\320\370`\2562D/\014\204\000\035\010\014\023"
  59      60AE3244 
  59      2F0C8400 
  59      1D080C13 
  60 00c1 900E25FD 		.ascii	"\220\016%\375\322\342\"\375\342\242d\375\344\214\314"
  60      D2E222FD 
  60      E2A264FD 
  60      E48CCC
  61 00d0 A4CCFC62 		.ascii	"\244\314\374b} \312H\314\001\013\025\224\347\352%3\000"
  61      7D20CA48 
  61      CC010B15 
  61      94E7EA25 
  61      3300
  62 00e2 00635959 		.ascii	"\000cYY\210"
  62      88
  63              		.text
  64              		.section	.gnu.lto_pwmStart.21a78ed62c12c3a0,"",%progbits
  65 0000 789C8553 		.ascii	"x\234\205SKh\023Q\024\275\367M~6\232d+H\010\021qa\351"
  65      4B681351 
  65      14BDF74D 
  65      7E369A64 
  65      2B480811 
  66 0017 28086E95 		.ascii	"(\010n\225\202\340\"\233\246\242\256d2\206d \323\204"
  66      82E0229B 
  66      A6A2AE64 
  66      32866420 
  66      D384
  67 0029 99A4B6B8 		.ascii	"\231\244\266\270\350$f\341\302E\020\244\321*X\335UT"
  67      E82466E1 
  67      C24510A4 
  67      D12A58DD 
  67      5554
  68 003b 70D30811 		.ascii	"p\323\010\021\002\202X\213\021\267\202\022]\010UA\232"
  68      0282588B 
  68      11B78212 
  68      5D085541 
  68      9A
  69 004c 82C4A2C4 		.ascii	"\202\304\242\304\373f&\323&M\365\315\274\3779\357\334"
  69      FB6626D3 
  69      264DF5CD 
  69      BCFF39EF 
  69      DC
  70 005d 3BEF0C03 		.ascii	";\357\014\003\006\203e?\325y\001\340\017\365(\000\262"
  70      0683653F 
  70      D57901E0 
  70      0FF52800 
  70      B2
  71 006e 4A13A0E8 		.ascii	"J\023\240\350c\210|\000\010s\014\347.\240\211}\302\032"
  71      63887C00 
ARM GAS  /tmp/ccwytk7H.s 			page 5


  71      08730CE7 
  71      2EA0897D 
  71      C21A
  72 0080 AD6EF771 		.ascii	"\255n\367q\373e\375;\336a\001\001U\004\0275\350\001"
  72      FB65FD3B 
  72      DE610101 
  72      55041735 
  72      E801
  73 0092 C544B8A1 		.ascii	"\305D\270\241l\030\225\210\212\244#\233+\223\324\362"
  73      6C189588 
  73      8AA4239B 
  73      2B93D4F2 
  74 00a2 83CED212 		.ascii	"\203\316\322\022\365\302\012\224|\000QX4\214\033\255"
  74      F5C20A94 
  74      7C005158 
  74      348C1BAD 
  75 00b2 85F5E5D1 		.ascii	"\205\365\345\321[F\243|\317\370\335\355\"*H\240s\310"
  75      5B46A37C 
  75      CFF8DDED 
  75      222A48A0 
  75      73C8
  76 00c4 99E769C2 		.ascii	"\231\347i\302\"f'\270\372\003\346k\030\241A\023J\353"
  76      226627B8 
  76      FA03E66B 
  76      18A14113 
  76      4AEB
  77 00d6 CF5F3CBD 		.ascii	"\317_<\275.\330\252=\371\306\362\346\217\020\223\360"
  77      2ED8AA3D 
  77      F9C6F2E6 
  77      8F1093F0 
  78 00e6 3E469D90 		.ascii	">F\235\220\032\017o\326\375\007\234\331\332\374\207"
  78      1A0F6FD6 
  78      FD079CD9 
  78      DAFC87
  79 00f5 A03359FD 		.ascii	"\2403Y\375\370\211\362\227p\021\335$\315\345\031U\201"
  79      F889F297 
  79      7011DD24 
  79      CDE51955 
  79      81
  80 0106 AAA98CF4 		.ascii	"\252\251\214\364|\246)\245$X\337/\014\033x\327\250\236"
  80      7CA629A5 
  80      2458DF2F 
  80      0C1B78D7 
  80      A89E
  81 0118 542C8013 		.ascii	"T,\200\023\320\326\376O{\337m\205\374\006J\253\325v"
  81      D0D6FE4F 
  81      7BDF6D85 
  81      FC064AAB 
  81      D576
  82 012a 83591A47 		.ascii	"\203Y\032G`\311\240\022T\320\263\000\267\211\354M\241"
  82      60C9A012 
  82      54D0B300 
  82      B789EC4D 
  82      A1
  83 013b C00FF199 		.ascii	"\300\017\361\231\340\204\365\255!\305O'\346\373Z\273"
  83      E084F5AD 
  83      21C54F27 
ARM GAS  /tmp/ccwytk7H.s 			page 6


  83      E6FB5ABB 
  84 014b 2158CC14 		.ascii	"!X\314\024z89\244\340\036\2139B \316\364\330L\233\312"
  84      7A3839A4 
  84      E01E8B39 
  84      4220CEF4 
  84      D84C9BCA 
  85 015f 692B9591 		.ascii	"i+\225\221A9\377p9f\313\321!o\241\334z}\325&\002\\\201"
  85      4139FF70 
  85      3966CBD1 
  85      216FA1DC 
  85      7A7DD526 
  86 0176 4DE31A97 		.ascii	"M\343\032\227\333+\333\251\020U\301}\246@\255\323~\265"
  86      DB2BDBA9 
  86      1055C17D 
  86      A640ADD3 
  86      7EB5
  87 0188 23A3C070 		.ascii	"#\243\300p\011\301\271\271\200\035^\255\272\321\301"
  87      09C1B9B9 
  87      801D5EAD 
  87      BAD1C1
  88 0197 41767038 		.ascii	"Avp8\333\345\260\203<\326~\013\255\325\007,$\341\003"
  88      DBE5B083 
  88      3CD67E0B 
  88      ADD5072C 
  88      24E103
  89 01aa F302FFEB 		.ascii	"\363\002\377\353!\370\247\207\276\376\342\036z\326\357"
  89      21F8A787 
  89      BEFEE21E 
  89      7AD6EF
  90 01b9 A16FFEB0 		.ascii	"\241o\376\260c\362mf\352l3\323\227\242{\313L\036\252"
  90      63F26D66 
  90      EA6C33D3 
  90      97A27BCB 
  90      4C1EAA
  91 01cc 5EAE2353 		.ascii	"^\256#S2;\375$\341\022\015\234`z\376\221\360\021\206"
  91      323BFD24 
  91      E1120D9C 
  91      607AFE91 
  91      F01186
  92 01df AD40DF41 		.ascii	"\255@\337A\261\325<\330\273\017\253L\022\232~%\016\215"
  92      B1D53CD8 
  92      BB0FAB4C 
  92      129A7E25 
  92      0E8D
  93 01f1 8A055D13 		.ascii	"\212\005]\023uM\026\345\264\222P\262\272HoZ\312\230"
  93      754D16E5 
  93      B49250B2 
  93      BA486F5A 
  93      CA98
  94 0203 4BB9CBEA 		.ascii	"K\271\313\352\230\014\307\206A\264\274\230\313jy]<5"
  94      980CC786 
  94      41B4BC98 
  94      CB6A795D 
  94      3C35
  95 0215 111B8FCD 		.ascii	"\021\033\217\315\320\226\234\325\222\027\247O\250ci"
  95      D0969CD5 
  95      9217A74F 
ARM GAS  /tmp/ccwytk7H.s 			page 7


  95      A86369
  96 0224 704F4B99 		.ascii	"pOK\231B\362\3700^r&/\216\307\342g\342\2422%g\012\227"
  96      42F2F830 
  96      5E72262F 
  96      8EC7E267 
  96      E2A23225 
  97 023b 92A2C993 		.ascii	"\222\242\311\223\325\323\205)\231\250\207w\021s\320"
  97      D5D38529 
  97      99A88777 
  97      1173D0
  98 024a 697D56DF 		.ascii	"i}V\337\015\307\343\316\352\324\020\201\367\204\013"
  98      0DC7E3CE 
  98      EAD41081 
  98      F7840B
  99 0259 C5E21391 		.ascii	"\305\342\023\221\204\244's\2322\0329t\024\230\006^5"
  99      84A42773 
  99      9A321A39 
  99      74149806 
  99      5E35
 100 026b A966B559 		.ascii	"\251f\265Y\370\013\014\324,T"
 100      F80B0CD4 
 100      2C54
 101              		.text
 102              		.section	.gnu.lto_pwmStop.21a78ed62c12c3a0,"",%progbits
 103 0000 789C8552 		.ascii	"x\234\205R\317k\023Q\020\236y\35361=4WA\302\022\021"
 103      CF6B1351 
 103      109E79EB 
 103      36313D34 
 103      5741C212 
 104 0015 0F96AE82 		.ascii	"\017\226\256\202\340U)\024z\310\245\251\250'\331\254"
 104      E0552914 
 104      7AC8A5A9 
 104      A827D9AC 
 105 0025 8B59C876 		.ascii	"\213Y\310v\303nR[<\364%\344\340\301C\021\304j\221Z\275"
 105      C36E525B 
 105      3CF425E4 
 105      E0C14311 
 105      C46A915A 
 106 003a D55FA087 		.ascii	"\325_\240\207z\250\022\360\240\"V\374\003\204\370\343"
 106      7AA812F0 
 106      A02256FC 
 106      0384F8E3 
 107 004a 5205A588 		.ascii	"R\005\245\210Rc5\316{\233l\222\232\352\333\235}3\363"
 107      526335CE 
 107      7B9B6C92 
 107      9AEADB9D 
 107      7D33F3
 108 005d E6E39B9D 		.ascii	"\346\343\233\235\3571`\260u\355\"\373@\351_\264\243"
 108      EF3160B0 
 108      75ED22FB 
 108      40E95FB4 
 108      A3
 109 006e 02C86657 		.ascii	"\002\310fW\001JQ\206(\034@\230a8s\022e\355=V\2555\032"
 109      014A5186 
 109      281C4098 
 109      61387312 
 109      65ED3D56 
ARM GAS  /tmp/ccwytk7H.s 			page 8


 110 0085 771F3F5D 		.ascii	"w\037?]\270\215\013,\246\240#\363*T8\237\325\034\244"
 110      B88D0B2C 
 110      A6A023F3 
 110      2A54389F 
 110      D51CA4
 111 0098 C8949971 		.ascii	"\310\224\231q\372\012\3701dbW\236C9\012\220\204E\316"
 111      FA0AF831 
 111      6462579E 
 111      43390A90 
 111      8445CE
 112 00ab 2FD6E6D7 		.ascii	"/\326\346\327\227\007\257\360j\345:\337l4\020m\244\256"
 112      9707AFF0 
 112      6AE53ADF 
 112      6C34106D 
 112      A4AE
 113 00bd 8EA3409E 		.ascii	"\216\243@\236\240\0005\271\261\035\335m\212\034h\344"
 113      A00035B9 
 113      B11DDD6D 
 113      8A1C68E4 
 114 00cd AC4279FD 		.ascii	"\254By\375\321\223\373\027\224&k\213\276\272\\\377\022"
 114      D193FB17 
 114      94266B8B 
 114      BEBA5CFF 
 114      12
 115 00de 6706DEC0 		.ascii	"g\006\336\300d\330R\365\326\245\225\376\335a\264v\371"
 115      64D852F5 
 115      D6A595FE 
 115      DD61B476 
 115      F9
 116 00ef CD4018BC 		.ascii	"\315@\030\274\370\366V\0010p\021U\242\026\364\214L!"
 116      F8F65601 
 116      30701155 
 116      A216F48C 
 116      4C21
 117 0101 93CC48CF 		.ascii	"\223\314H\317;\012i2J0\265\004|\305k|\356\210M\331\316"
 117      3B0A6932 
 117      4A30B504 
 117      7CC56B7C 
 117      EE884DD9 
 118 0116 86DAE7DF 		.ascii	"\206\332\347\337\233\347\315\326_A\245\366\371}$\240"
 118      9BE7CDD6 
 118      5F41A5F6 
 118      F97D24A0 
 119 0126 00380775 		.ascii	"\0008\007u~\236\307mTM\031\003\234A\305\306>\200\227"
 119      7E9EC76D 
 119      544D1903 
 119      9C41C5C6 
 119      3E8097
 120 0139 507EB8F1 		.ascii	"P~\270\361\363\031\013*\367\303\022\2475`cd\036\256"
 120      F3190B2A 
 120      F7C312A7 
 120      35606364 
 120      1EAE
 121 014b 124B94EA 		.ascii	"\022K\224\352\004\333N\011\312`{ \021\341\010\364\334"
 121      04DB4E09 
 121      CA607B20 
 121      11E108F4 
ARM GAS  /tmp/ccwytk7H.s 			page 9


 121      DC
 122 015c EFBFD1B1 		.ascii	"\357\277\321\261\336h\014\3211\341v+\263\266\262E\031"
 122      DE680CD1 
 122      31E1762B 
 122      B3B6B245 
 122      19
 123 016d 036FCAB9 		.ascii	"\003o\312\271\374W\032\370\2474\037\177\010i\036tK\363"
 123      FC571AF8 
 123      A7341F7F 
 123      08691E74 
 123      4BF3
 124 017f A93F11DE 		.ascii	"\251?\021\336\235\016\2156:4\332,\251m\215\372\310\344"
 124      9D0E8D36 
 124      3A34DA2C 
 124      A96D8DFA 
 124      C8E4
 125 0191 1F9B18ED 		.ascii	"\037\233\030\355!\223\201K\344\204\315\264d1\360\016"
 125      2193814B 
 125      E484CDB4 
 125      6431F00E 
 126 01a1 2682CC6B 		.ascii	"&\202\314k(\325\352{Zz\004k\234\006B7T\224&\365\242"
 126      28D5EA7B 
 126      5A7A046B 
 126      9C064237 
 126      549426F5 
 127 01b6 EFE9BE67 		.ascii	"\357\351\276g\352f\326\316\330\256\257\323\2335r2\225"
 127      EA66D6CE 
 127      D8AEAFD3 
 127      9B357232 
 127      95
 128 01c7 3FEB0C99 		.ascii	"?\353\014\231p\260W\211W\320\363\256W\360\365\243c\251"
 128      70B05789 
 128      57D0F3AE 
 128      57F0F5A3 
 128      63A9
 129 01d9 E1D4141D 		.ascii	"\341\324\024\035\231\256g\235\232<\354\014eA\2354rE"
 129      99AE679D 
 129      9A3CEC0C 
 129      65419D34 
 129      7245
 130 01eb EB502F9C 		.ascii	"\353P/\2345U\320\207S\351\321\264nO\230\271\342iK\227"
 130      3555D087 
 130      53E9D1B4 
 130      6E4F98B9 
 130      E2694B97 
 131 01ff 38D31929 		.ascii	"8\323\031)N\230\004\335\267\015YX\235\365\247\375\355"
 131      4E9804DD 
 131      B70D5958 
 131      9DF5A7FD 
 131      ED
 132 0210 EA44DFAE 		.ascii	"\352D\337\256O\037\002\210\235\352\342\251\364\230\226"
 132      4F1F0288 
 132      9DEAE2A9 
 132      F49896
 133 021f 317C2BEF 		.ascii	"1|+\357\331\203\332\336\003\300<\2108\226\343z\323\360"
 133      D983DADE 
 133      03C03C88 
ARM GAS  /tmp/ccwytk7H.s 			page 10


 133      3896E37A 
 133      D3F0
 134 0231 077F7309 		.ascii	"\007\177s\011S"
 134      53
 135              		.text
 136              		.section	.gnu.lto_pwmChangePeriod.21a78ed62c12c3a0,"",%progbits
 137 0000 789C8552 		.ascii	"x\234\205RKh\023Q\024\275\367\275L&\032\241\335\026"
 137      4B681351 
 137      14BDF7BD 
 137      4C261AA1 
 137      DD16
 138 0012 24844011 		.ascii	"$\204@\021\264t\024\004\267JA\350\"\233\246\342g#\223"
 138      B4741404 
 138      B74A41E8 
 138      229BA6E2 
 138      672393
 139 0025 71480632 		.ascii	"qH\0062M\230Ij\273\3524\315B\324E\021\304O\021\254\356"
 139      4D98496A 
 139      BBEA34CD 
 139      42D44511 
 139      C44F11AC 
 140 003a 525410B1 		.ascii	"RT\020\261.\"\004]I\261\342\302\245\020\272\253.\244"
 140      2E22045D 
 140      49B1E2C2 
 140      A510BAAB 
 140      2EA4
 141 004c 08A2A2A4 		.ascii	"\010\242\242\244\367\275\311L\232\232\3327\363\376\347"
 141      F7BDC94C 
 141      9A9ADA37 
 141      F3FEE7
 142 005b DC73E79E 		.ascii	"\334s\347\236a\300`w\033\242\256p\200\2774#\007d\213"
 142      61C06077 
 142      1BA2AE70 
 142      80BF3423 
 142      07648B
 143 006e EB00F331 		.ascii	"\353\000\3631\206(\026\2000\307p\356\"J\3543\326l\265"
 143      86281680 
 143      30C770EE 
 143      224AEC33 
 143      D66CB5
 144 0081 DB4F5F5E 		.ascii	"\333O_^o4\260\316\016q\264\021\"4`\024,\004\225\006"
 144      6F34B0CE 
 144      0E71B411 
 144      22346014 
 144      2C049506 
 145 0095 8153A0E6 		.ascii	"\201S\240\346y\213I\033I\314\220\304I\032E\264stD3\177"
 145      798B491B 
 145      49CC90C4 
 145      491A45B4 
 145      73744433 
 146 00aa 07D51840 		.ascii	"\007\325\030@\012\226=\357Vkiku\344\236\327\254=\364"
 146      0A963DEF 
 146      566B696B 
 146      75E49ED7 
 146      AC3DF4
 147 00bd FEB4DB88 		.ascii	"\376\264\333\210\0262\006\347Q0/\320\206'\345\024\211"
 147      163206E7 
ARM GAS  /tmp/ccwytk7H.s 			page 11


 147      51302FD0 
 147      8627E514 
 147      89
 148 00ce F4662DCE 		.ascii	"\364f-\316X\222\026\353P\335z\375\366\371M\336Q\015"
 148      589216EB 
 148      50DD7AFD 
 148      F6F94DDE 
 148      510D
 149 00e0 E49BABBF 		.ascii	"\344\233\253\277\277\0152\035\037a*L\251\271r\273\021"
 149      BF0D321D 
 149      1F612A4C 
 149      A9B972BB 
 149      11
 150 00f1 3F1CEE36 		.ascii	"?\034\3566\357|\036\0107k\0376\250\010:.\243B\322B\236"
 150      EF7C1E08 
 150      376B1F36 
 150      A8083A2E 
 150      A342D242 
 151 0106 51E7D4A5 		.ascii	"Q\347\324\2452\322\263A[\372$\356\0271\001\337\361\201"
 151      32D2B341 
 151      5BFA24EE 
 151      173101DF 
 151      F181
 152 0118 77F7B445 		.ascii	"w\367\264E\204\235\011u\357\177t\356\243~\312\357\241"
 152      849D0975 
 152      EF7F74EE 
 152      A37ECAEF 
 152      A1
 153 0129 BAF6AA3E 		.ascii	"\272\366\252>\344K\034\203\243\026\252Kp\237h\261\034"
 153      E44B1C83 
 153      A316AA4B 
 153      709F68B1 
 153      1C
 154 013a 72413F20 		.ascii	"rA? aY\277\324\220\023\302\304\271\344\023r\030\225"
 154      6159BFD4 
 154      9013C2C4 
 154      B9E41372 
 154      1895
 155 014c 1CE8CFE9 		.ascii	"\034\350\317\351\220\210\260p\215\007\014\225b\010\020"
 155      9088B070 
 155      8D070C95 
 155      620810
 156 015b B6A90DC8 		.ascii	"\266\251\015\310\3337\343\201~\335\253\321\325A?\\\234"
 156      DB37E381 
 156      7EDDABD1 
 156      D5413F5C 
 156      9C
 157 016c C20B2474 		.ascii	"\302\013$t\302\261N\012*@\257W\233\215]^\351\370XVj"
 157      C2B14E0A 
 157      2A40AF57 
 157      9B8D5D5E 
 157      E9F85856 
 158 0181 5FB3E0BF 		.ascii	"_\263\340\277f}\371%\314z\321k\326\327x\"\374\233v\270"
 158      667DF925 
 158      CC7AD16B 
 158      D6D77822 
 158      FC9B76B8 
ARM GAS  /tmp/ccwytk7H.s 			page 12


 159 0195 F6B3EBDA 		.ascii	"\366\263\353\332\215OU\245\353\232\350\262\330\006%"
 159      8D4F55A5 
 159      EB9AE8B2 
 159      D80625
 160 01a4 FEAF713A 		.ascii	"\376\257q:\326i\021&\023\030\245\343\023L\370\211~\204"
 160      D6691126 
 160      1318A5E3 
 160      134CF889 
 160      7E84
 161 01b6 F9D6CAB0 		.ascii	"\371\326\312\260\037.h\223T[\372g\0054\245U\\Gs\035"
 161      1F2E6893 
 161      545BFA67 
 161      0534A555 
 161      5C47731D 
 162 01ca 4333F256 		.ascii	"C3\362V\326*\272\032\275y\275 \217JW\355Q\003N\364\203"
 162      D62ABA1A 
 162      BD79BD20 
 162      8F4A57ED 
 162      51034EF4 
 163 01df 3865AD54 		.ascii	"8e\255Tt\312\256vf\"=\226\236\241+\243\350\230\227\247"
 163      74CAAE76 
 163      66223D96 
 163      9EA12BA3 
 163      E89897A7 
 164 01f3 4FD9A379 		.ascii	"O\331\243yP\246\365B\305<\331\217g\316\224\265\261t"
 164      50A6F542 
 164      C53CD98F 
 164      67CE94B5 
 164      B174
 165 0205 663CA359 		.ascii	"f<\243YSF\241r\305\324$\317\260\317V\246\014\242\036"
 165      5346A172 
 165      C5D424CF 
 165      B0CF56A6 
 165      0CA21E
 166 0218 D9432C44 		.ascii	"\331C,D\347\335Yw/\234\310\273\350\322@\0041\023n0\235"
 166      E7DD5977 
 166      2F9CC8BB 
 166      E8D24004 
 166      31136E30 
 167 022d 99486675 		.ascii	"\231Hfu\327,9\326Hr\37080\007T\333\264\213\316,l\003"
 167      D72C39D6 
 167      4872F838 
 167      300754DB 
 167      B48BCE2C 
 168 0243 041106C5 		.ascii	"\004\021\006\305"
 169              		.text
 170              		.section	.gnu.lto_pwmEnableChannel.21a78ed62c12c3a0,"",%progbits
 171 0000 789C8D52 		.ascii	"x\234\215RMh\023A\024~of\263\211\311\241\271\026$\204"
 171      4D681341 
 171      147E6F66 
 171      B389C9A1 
 171      B9162484 
 172 0014 40F160E9 		.ascii	"@\361`\351*\010zT\012B\017\2714\025\365$\233uI\026\262"
 172      2A087A54 
 172      0A420FB9 
 172      3415F524 
 172      9B754916 
ARM GAS  /tmp/ccwytk7H.s 			page 13


 173 0029 4DD84D6A 		.ascii	"M\330Mj\213\207N\323\036<\364P\004Q[\004\253\007\241"
 173      8B874ED3 
 173      1E3CF450 
 173      04515B04 
 173      AB07A1
 174 003c D20A7A88 		.ascii	"\322\012z\210B\205\200')\255x\025\204\320\223U\261\024"
 174      42858027 
 174      29AD7815 
 174      84D09355 
 174      B114
 175 004e 41B428E9 		.ascii	"A\264(\351\233\335f\233\364G\335df\336\274\367\276\367"
 175      9BDD669B 
 175      F447DD64 
 175      66DEBCF7 
 175      BEF7
 176 0060 BD996F18 		.ascii	"\275\231o\0300\330\377u\3238\307\001\376\320\212\034"
 176      30D8FF75 
 176      D338C701 
 176      FED08A1C 
 177 0070 90CDAC01 		.ascii	"\220\315\254\001LD\030\2424\000a\234\341\370U\364r\237"
 177      4C4418A2 
 177      3400619C 
 177      E1F855F4 
 177      729F
 178 0082 B17AA3D9 		.ascii	"\261z\243\331\\\232]y2\215K\254\213\243\215\240\200"
 178      5C9A5D79 
 178      328D4BAC 
 178      8BA38DA0 
 178      80
 179 0093 8510220B 		.ascii	"\205\020\"\013U\2620,\267\0219E\311'\351B0%\304L\322"
 179      55B2302C 
 179      B7113945 
 179      C927E942 
 179      3025C44C 
 180 00a8 A6E26078 		.ascii	"\246\342`xu\206h\226\305/Q\234V\376\026\252\021\200"
 180      75866896 
 180      C52F519C 
 180      56FE16AA 
 180      1180
 181 00ba 14CC0B71 		.ascii	"\024\314\013q\2731\267U\353\275/\352S\017\305\357f\023"
 181      BB31B755 
 181      EBBD2FEA 
 181      530FC5EF 
 181      6613
 182 00cc D142C6E0 		.ascii	"\321B\306\3402J\344\025\332\360\244\267(J\347!\244\217"
 182      324AE415 
 182      DAF0A4B7 
 182      284AE721 
 182      A48F
 183 00de 25C95883 		.ascii	"%\311X\203\352\326\3537\317\247\371.k\213\276^\333\336"
 183      EAD6EB37 
 183      CFA7F92E 
 183      6B8BBE5E 
 183      DBDE
 184 00f0 8C331D1F 		.ascii	"\2143\035\037a*h\251\376\364\316r\354x\260\333\270\373"
 184      612A68A9 
 184      FEF4CE72 
ARM GAS  /tmp/ccwytk7H.s 			page 14


 184      EC78B0DB 
 184      B8FB
 185 0102 B12BD8AC 		.ascii	"\261+\330\254|]\247vu\234\307\020QKzF\203\323\360\230"
 185      7C5DA776 
 185      759CC710 
 185      514B7A46 
 185      83D3F098 
 186 0116 917EEBB4 		.ascii	"\221~\353\264\245\363q\377N\023\360\035\037\210{\347"
 186      A5F371FF 
 186      4E13F01D 
 186      1F887BE7 
 187 0126 2D02B437 		.ascii	"-\002\2647\264\027\377\261\033W\375\226W\241\372\341"
 187      B417FFB1 
 187      1B57FD96 
 187      57A1FAE1 
 188 0136 65ADDBA7 		.ascii	"e\255\333\247\310\241r\022\026\204\020q\013\303s0K\350"
 188      C8A17212 
 188      16841071 
 188      0BC37330 
 188      4BE8
 189 0148 480EB9AC 		.ascii	"H\016\271\254r\314\313\316b\353\250\204\373\306[(5'"
 189      72CCCBCE 
 189      62EBA884 
 189      FBC65B28 
 189      3527
 190 015a E9566172 		.ascii	"\351Var1p\205%\210\332\313I\"\212\274\012\"TQ\241\270"
 190      31708525 
 190      88DACB49 
 190      228ABC0A 
 190      225451A1 
 191 016f 5762C077 		.ascii	"Wb\300w\376\037)A\001\336\201\352c\000n\302\266\270"
 191      FE1F2941 
 191      01DE81EA 
 191      63006EC2 
 191      B6B8
 192 0181 255151C3 		.ascii	"%QQ\303?-ep\352$\207Q\013c\000\235zn,\357\323S\307\307"
 192      3F2D6570 
 192      EA248751 
 192      0B63009D 
 192      7A6E2CEF 
 193 0199 DE6DFE53 		.ascii	"\336m\376SP\370\253\240\237\177IA_t\012\372%\226\010"
 193      50F8ABA0 
 193      9F7F4941 
 193      5F740AFA 
 193      259608
 194 01ac 5E5C9BB2 		.ascii	"^\\\233\262?\333\224\335\254\206\366\224Ui\204%\217"
 194      3FDB94DD 
 194      AC86F694 
 194      55698425 
 194      8F
 195 01bd 41673C28 		.ascii	"Ag<(\256\216\013d\004\315\264\304\324q\021\023~\243"
 195      AE8E0B64 
 195      04CDB4C4 
 195      D4711113 
 195      7EA3
 196 01cf EF61A2F1 		.ascii	"\357a\242\361\251\247u3\3767D\017\206\336\265LMi\025"
 196      A9A77533 
ARM GAS  /tmp/ccwytk7H.s 			page 15


 196      FE37440F 
 196      86DEB54C 
 196      4D6915
 197 01e2 D7D15CC7 		.ascii	"\327\321\\\307\320\214\274\225\265\212\256F\377\274"
 197      D08CBC95 
 197      B58AAE46 
 197      FFBC
 198 01f0 5EF05CA5 		.ascii	"^\360\\\245\033v\237\001\247\017Kq\312Z\251\350\224"
 198      1B769F01 
 198      A70F4B71 
 198      CA5AA9E8 
 198      94
 199 0201 5DEDC260 		.ascii	"]\355\302`\272?=J!\243\350\230\327F\316\332}y\010\215"
 199      BA3F3D4A 
 199      21A3E898 
 199      D746CEDA 
 199      7D79088D 
 200 0215 E8858A79 		.ascii	"\350\205\212y\3460\2349Z\326\372\323\231\201\214f\015"
 200      E6309C39 
 200      5AD6FAD3 
 200      99818C66 
 200      0D
 201 0226 1B85CA75 		.ascii	"\033\205\312uS\363p\206}\2612l\020\364\304\021dAv\336"
 201      53F37086 
 201      7DB1326C 
 201      10F4C411 
 201      644176DE 
 202 023a 1D738FCA 		.ascii	"\035s\217\312\223}\027]\232\010 W\312\213\2473\203\311"
 202      937D175D 
 202      9A082057 
 202      CA8BA733 
 202      83C9
 203 024c ACEE9A25 		.ascii	"\254\356\232%\307\352M\366\234\002\346@\3306\355\242"
 203      C7EA4DF6 
 203      9C02E640 
 203      D836EDA2 
 204 025c 33063B50 		.ascii	"3\006;P\302\020m"
 204      C2106D
 205              		.text
 206              		.section	.gnu.lto_pwmDisableChannel.21a78ed62c12c3a0,"",%progbits
 207 0000 789C8D52 		.ascii	"x\234\215RMh\023A\024~o&\233M\314\241\271\026$\204\200"
 207      4D681341 
 207      147E6F26 
 207      9B4DCCA1 
 207      B9162484 
 208 0015 F460E92A 		.ascii	"\364`\351*\010^\225\202\330C.ME=\311f]\222\205l\023"
 208      085E9582 
 208      D8432E4D 
 208      453DC966 
 208      5D92856C 
 209 002a 7693DAE2 		.ascii	"v\223\332\342\241\323\264\007A\017A\020\253A\260z\253"
 209      A1D3B407 
 209      410F4110 
 209      AB41B07A 
 209      AB
 210 003b 54410F45 		.ascii	"TA\017E\214\030\020\004\017\211x\025\204\240 TA)\202"
 210      8C181004 
ARM GAS  /tmp/ccwytk7H.s 			page 16


 210      0F897815 
 210      84A02054 
 210      412982
 211 004e 6851E29B 		.ascii	"hQ\342\233\335f\233\326V\235\335\371yo\276o\2767\357"
 211      DD669BD6 
 211      569DDDF9 
 211      796FBE6F 
 211      BE37EF
 212 0061 0D03063B 		.ascii	"\015\003\006;\333 \365\223\034\340\027\315\310\001Y"
 212      DB20F593 
 212      1CE017CD 
 212      C80159
 213 0070 AD0D3017 		.ascii	"\255\0150\027a\210r\001\010\263\014g\317\242\207}\300"
 213      61887201 
 213      08B30C67 
 213      CFA2877D 
 213      C0
 214 0081 9A9D6EF7 		.ascii	"\232\235n\367~\255\375\254\201\217\331\000G\033!\004"
 214      7EADFDAC 
 214      818FD900 
 214      471B2104 
 215 0091 1682422B 		.ascii	"\026\202B+\014\323\012UiF\344\020\225\0035\005\026\204"
 215      0CD30A55 
 215      6946E410 
 215      95033505 
 215      1684
 216 00a3 A8256D24 		.ascii	"\250%m$m\303\363L\320(\017?E.\232\371K\250F\000R\260"
 216      6DC3F34C 
 216      D0280F3F 
 216      452E9AF9 
 216      4BA84600 
 217 00b9 24C4D54E 		.ascii	"$\304\325N}}u\370\206h.\334\026?\273]D\013\031\203\323"
 217      7D7D75F8 
 217      86682EDC 
 217      163FBB5D 
 217      440B1983 
 218 00ce 289967C8 		.ascii	"(\231g\310\340Io\012\205\266_B\372X\222\026m\250\256"
 218      E0496F0A 
 218      85B65F42 
 218      FA589216 
 218      6DA8AE
 219 00e1 3F7DFEF0 		.ascii	"?}\376\360\012\337T\355\3117W7\276\304\231\216w0\025"
 219      0ADF54ED 
 219      C9375737 
 219      BEC4998E 
 219      773015
 220 00f4 84D4BC77 		.ascii	"\204\324\274w\255\021\333\037Xk\327\337\016\004\306"
 220      AD11DB1F 
 220      586BD7DF 
 220      0E04C6
 221 0103 E517EF29 		.ascii	"\345\027\357)':.\241B\322R\236Q\347\324=e\244\357\035"
 221      273A2EA1 
 221      42D2529E 
 221      51E7D43D 
 221      65A4EF1D 
 222 0117 997425EE 		.ascii	"\231t%\356\3474\001_\361\226X<f\021\241?\240\255\375"
 222      E734015F 
ARM GAS  /tmp/ccwytk7H.s 			page 17


 222      F196583C 
 222      6611A13F 
 222      A0ADFD
 223 012a 6F9BFB61 		.ascii	"o\233\373a?\344\026T\337,~\030\364%r\030:\010\313B\210"
 223      3FE41654 
 223      DF2C7E18 
 223      F4257218 
 223      3A08CB42 
 224 013f B8856A1D 		.ascii	"\270\205j\035n\022;\222C.O\211z\350,\366\256J\274\317"
 224      6E123B92 
 224      432E4F89 
 224      7AE82CF6 
 224      AE4ABCCF 
 225 0153 BCC70AE7 		.ascii	"\274\307\012\347\244\\\013\346W\002\227*I\024^N\012"
 225      A45C0BE6 
 225      5702972A 
 225      49145E4E 
 225      0A
 226 0164 11B811EC 		.ascii	"\021\270\021\354\320\211\252\007~\022\270\242$L\033"
 226      D089AA07 
 226      7E12B8A2 
 226      244C1B
 227 0173 1E70CC77 		.ascii	"\036p\314w\376_\0349i\277\002\305\347\000\\\204\015"
 227      FE5F1C39 
 227      69BF02C5 
 227      E7005C84 
 227      0D
 228 0184 7149B2F6 		.ascii	"qI\262\366\031~\002\010\301)8\013c\000\333\353\273\326"
 228      197E0208 
 228      C129380B 
 228      6300DBEB 
 228      BBD6
 229 0196 D8515F1D 		.ascii	"\330Q_\035\357z\331\375g\201\341\257\005\376\370C\026"
 229      EF7AD9FD 
 229      6781E1AF 
 229      05FEF843 
 229      16
 230 01a7 F8D1F602 		.ascii	"\370\321\366\002\177\212%\202\027\330W\351\357}\225"
 230      7F8A2582 
 230      17D857E9 
 230      EF7D95
 231 01b6 6ECD2B5B 		.ascii	"n\315+[\225\016SW\245\216AY\371\263\330:.\323\"\010"
 231      950E5357 
 231      A58E4159 
 231      F9B3D83A 
 231      2ED32208 
 232 01ca A6575C1D 		.ascii	"\246W\\\035W0\341\007\372\032\346:\365\241^Z\3746A\017"
 232      5730E107 
 232      FA1AE63A 
 232      F5A15E5A 
 232      FC36410F 
 233 01de 88DEB984 		.ascii	"\210\336\271\204\246\264\212\353h\256chF\336\312ZEW"
 233      A6B48AEB 
 233      68AE6368 
 233      46DECA5A 
 233      4557
 234 01f0 A33FAF17 		.ascii	"\243?\257\027<W\351\202=b\300\341\335 NY+\025\235\262"
ARM GAS  /tmp/ccwytk7H.s 			page 18


 234      3C57E982 
 234      3D62C0E1 
 234      DD204E59 
 234      2B159DB2 
 235 0204 AB1D1F4F 		.ascii	"\253\035\037O\217\246\247i\313(:\346\271\251\243\366"
 235      8FA6A769 
 235      CB283AE6 
 235      B9A9A3F6 
 236 0214 481E9429 		.ascii	"H\036\224)\275P1\217\354\3063\247\313\332h:3\226\321"
 236      BD50318F 
 236      ECC633A7 
 236      CBDA683A 
 236      3396D1
 237 0227 AC49A350 		.ascii	"\254I\243P9oj\036\317\260OT&\015\242\016\355!\026\240"
 237      396F6A1E 
 237      CFB04F54 
 237      260DA20E 
 237      ED2116A0 
 238 023b F3EE8CBB 		.ascii	"\363\356\214\273\027N\306]ti \202\234\011\027Og\306"
 238      174EC65D 
 238      74692082 
 238      9C09174F 
 238      67C6
 239 024d 9359DD35 		.ascii	"\223Y\3355K\2165\234<p\010\230\003\252m\332Eg\006~\003"
 239      4B8E359C 
 239      3C700898 
 239      03AA6DDA 
 239      4567067E 
 240 0262 00441346 		.ascii	"\000D\023F"
 241              		.text
 242              		.section	.gnu.lto_pwmEnablePeriodicNotification.21a78ed62c12c3a0,"",%progbits
 243 0000 789C8592 		.ascii	"x\234\205\222Ah\023Q\020\206g\336\272m\240\007s-HX\002"
 243      41681351 
 243      108667DE 
 243      BA6DA007 
 243      732D4858 
 244 0015 D24BE953 		.ascii	"\322K\351S\020\274*\005\301C.M\213z\222\355si\026\262"
 244      10BC2A05 
 244      C1432E4D 
 244      8B7A92ED 
 244      736916B2 
 245 0029 DDB09BD4 		.ascii	"\335\260\233\324\026\017}\2559\010z(\005\261E\004\333"
 245      160F7DAD 
 245      39087A28 
 245      05B14504 
 245      DB
 246 003a DE5AB5E0 		.ascii	"\336Z\265\340\301^\"\006<\251\220\322\273\205\240^j"
 246      C15E2206 
 246      3CA990D2 
 246      BB85A05E 
 246      6A
 247 004b 0FA51444 		.ascii	"\017\245\024DKK\234\367\222l\232\222\352\333\2357o\346"
 247      4B4B9CF7 
 247      926C9A92 
 247      EADB9D37 
 247      6FE6
 248 005d CDF00FDF 		.ascii	"\315\360\017\337.\003\006\247W/\331\030\245\217\311"
ARM GAS  /tmp/ccwytk7H.s 			page 19


 248      2E0306A7 
 248      572FD918 
 248      A58FC9
 249 006c A301C8E6 		.ascii	"\243\001\310\346*\00031\206\250\016\2000\315p\372\016"
 249      2A003331 
 249      86A80E80 
 249      30CD70FA 
 249      0E
 250 007d EADA7556 		.ascii	"\352\332uV\256\326jo\276V\336\275\302\022\213\031\350"
 250      AED66A6F 
 250      BE56DEBD 
 250      C2128B19 
 250      E8
 251 008e E9BC0945 		.ascii	"\351\274\011E)\347,\017)\022:3L\273j\037A\246\274\361"
 251      29E72C0F 
 251      29123A33 
 251      4CBB6A1F 
 251      41A6BCF1 
 252 00a2 09666300 		.ascii	"\011fc\000IX\222r\276\372|\177\243\177Q\226\213/\345"
 252      49589272 
 252      BEFA7C7F 
 252      A37F5196 
 252      8B2FE5
 253 00b5 51AD86E8 		.ascii	"Q\255\206\350\"Mu\013U\347m\012\320\322\216\235k\037"
 253      224D750B 
 253      55E76D0A 
 253      D0D28E9D 
 253      6B1F
 254 00c7 53E5C0A2 		.ascii	"S\345\300\242C\005f\367\337\177|\373\304h\2506\345\313"
 254      430566F7 
 254      DF7F7CFB 
 254      C468A836 
 254      E5CB
 255 00d9 1B877B71 		.ascii	"\033\207{qf\3432&\243\221\312kOK=\027\242h\347\331\366"
 255      66E33226 
 255      A391CA6B 
 255      4F4B3D17 
 255      A268E7D9 
 256 00ee F92878BC 		.ascii	"\371(x\274\375\335\000\260q\011M\222V\362\214\314 \323"
 256      FDDD00B0 
 256      71094D92 
 256      56F28CCC 
 256      20D3
 257 0100 CA48CF37 		.ascii	"\312H\3177\012\211\214Q\247\226\200\003|!\027\256\271"
 257      0A898C51 
 257      A7968003 
 257      7C2117AE 
 257      B9
 258 0111 943D3950 		.ascii	"\224=9P\353\376W\343\2761\372&\024\253\037\306\352\012"
 258      EBFE57E3 
 258      BE31FA26 
 258      14AB1FC6 
 258      EA0A
 259 0123 000FE050 		.ascii	"\000\017\340P>\222q\027M\241c\242\216\206\213]\000\355"
 259      3E927117 
 259      4DA163A2 
 259      8E868B5D 
ARM GAS  /tmp/ccwytk7H.s 			page 20


 259      00ED
 260 0135 70764AA7 		.ascii	"pvJ\247\340\330\270\242G\373/\035\370'\235\237\177\024"
 260      E0D8B8A2 
 260      47FB2F1D 
 260      F8279D9F 
 260      7F14
 261 0147 9DF5763A 		.ascii	"\235\365v:\273=\211\350\363\235\300\364\273\205\351"
 261      BB3D89E8 
 261      F39DC0F4 
 261      BB85E9
 262 0156 CB8F8766 		.ascii	"\313\217\207f\013S\027Y\267\322\021\030\353@\312\306"
 262      0B531759 
 262      B7D21118 
 262      EB40CAC6 
 263 0166 553A44C3 		.ascii	"U:D\3034\311\330\370\032\023\365\314\026\314T?\3675"
 263      34C9D8F8 
 263      1A13F5CC 
 263      16CC543F 
 263      F735
 264 0178 99D4D730 		.ascii	"\231\324\3270\321\247\237D\225&y!\014x\030\010.2\356"
 264      D1A79F44 
 264      95267921 
 264      0C781808 
 264      2E32EE
 265 018b A8EB879C 		.ascii	"\250\353\207\234\336\214\235\325\251\334}o@\300\345"
 265      DE8C9DD5 
 265      A9DC7D6F 
 265      40C0E5
 266 019a 4E25419E 		.ascii	"N%A\236\347\374 \037\362\353C\251\301\324$]\011?p\356"
 266      E7FC201F 
 266      F2EB43A9 
 266      C1D4245D 
 266      093F70EE 
 267 01ae 4E5CF506 		.ascii	"N\\\365\0062`N\330\331\202s\245S\2373\231\347\203\251"
 267      32604ED8 
 267      D98273A5 
 267      539F3399 
 267      E783A9
 268 01c1 F4CD3477 		.ascii	"\364\3154w\307E\266p\317\341\272Ox7\012\343\202Z\373"
 268      C745B670 
 268      CFE1BA4F 
 268      78370AE3 
 268      825AFB
 269 01d4 CE108BAA 		.ascii	"\316\020\213\2523\341TxV\235\232\333\017i\243\006\345"
 269      33E15478 
 269      569D9ADB 
 269      0F69A306 
 269      E5
 270 01e5 A92E9E4A 		.ascii	"\251.\236J\017Y\243v\350\344\002\267\337\272x\011X\000"
 270      0F59A376 
 270      E8E402B7 
 270      DFBA7809 
 270      5800
 271 01f7 DD9EE3F9 		.ascii	"\335\236\343\371\301\024\374\005\3066\355\311"
 271      C114FC05 
 271      C636EDC9 
 272              		.text
ARM GAS  /tmp/ccwytk7H.s 			page 21


 273              		.section	.gnu.lto_pwmDisablePeriodicNotification.21a78ed62c12c3a0,"",%progbits
 274 0000 789C8592 		.ascii	"x\234\205\222\317k\023Q\020\307g\336v\333@\017\315U"
 274      CF6B1351 
 274      10C767DE 
 274      76DB400F 
 274      CD55
 275 0012 90B004A4 		.ascii	"\220\260\004\244\227\322\247 x\265\024\004\017\2714"
 275      97D2A720 
 275      78B51404 
 275      0FB934
 276 0021 95EA49B6 		.ascii	"\225\352I\266\257K\263\220\355\206\335\244\266x\350"
 276      AF4BB390 
 276      ED86DDA4 
 276      B678E8
 277 0030 6B9B83A0 		.ascii	"k\233\203\240`\021\212\212\012\375q\253\330B/\201Ri"
 277      60118A8A 
 277      0AFD71AB 
 277      D8422F81 
 277      5269
 278 0042 A027112A 		.ascii	"\240'\021*\376\001B\320S\025\224\242\024[*q\336K\262"
 278      FE0142D0 
 278      531594A2 
 278      145B2A71 
 278      DE4BB2
 279 0055 694AAA6F 		.ascii	"iJ\252ow\336\274\2317\303w\370\3542`pv] \033\247\364"
 279      77DEBC99 
 279      37C377F8 
 279      EC326070 
 279      765D201B 
 280 006b 1FF26800 		.ascii	"\037\362h\000\262\205=\200\331\030CT\007@\230a8s\007"
 280      B2853D80 
 280      D9184354 
 280      07409861 
 280      387307
 281 007e 75ED062B 		.ascii	"u\355\006+W\252\325\365\255\307\245\227\270\303b\006"
 281      57AAD5F5 
 281      ADC7A597 
 281      B8C36206 
 282 008e 7A3A6F42 		.ascii	"z:oBQ\312\005\313C\212\204\316\014\323\256\332o!S\336"
 282      51CA05CB 
 282      438A84CE 
 282      0CD3AEDA 
 282      6F2153DE 
 283 00a2 78077331 		.ascii	"x\007s1\200$,K\371\244\362\342\240\324\367\\\226\213"
 283      80242C4B 
 283      F9A4F2E2 
 283      A0D4F75C 
 283      968B
 284 00b4 4BF2A45A 		.ascii	"K\362\244ZEt\221\246\032A\325y\233\002\264\264c\035"
 284      457491A6 
 284      1A41D579 
 284      9B02B4B4 
 284      631D
 285 00c6 AD63AA1C 		.ascii	"\255c\252\034Xt\330\203\271\203\267\273\233\217\214"
 285      5874D883 
 285      B983B7BB 
 285      9B8F8C
ARM GAS  /tmp/ccwytk7H.s 			page 22


 286 00d5 BA6A43BE 		.ascii	"\272jC\276\\:\376\021g6\256`2\032\251\374zq\273\373"
 286      5C3AFE11 
 286      6736AE60 
 286      321AA9FC 
 286      7A71BBFB 
 287 00e9 6214ED3F 		.ascii	"b\024\355?\375\324\023\005\357\177}1\000l\\F\223\244"
 287      FDD41305 
 287      EF7F7D31 
 287      006C5C46 
 287      93A4
 288 00fb 953C2333 		.ascii	"\225<#3\310\2642\322\363\231B\"c\324\250%\340'\276\222"
 288      C8B432D2 
 288      F3994222 
 288      63D4A825 
 288      E027BE92 
 289 010f CFAEBB94 		.ascii	"\317\256\273\224==P\363\376\260~_\037\375\003\024+\337"
 289      3D3D50F3 
 289      FEB07E5F 
 289      1FFD0314 
 289      2BDF
 290 0121 C76B0A00 		.ascii	"\307k\012\000\367\341X>\220q\027M\241c\242\216\206\213"
 290      F7E1583E 
 290      9071174D 
 290      A163A28E 
 290      868B
 291 0133 9D00AD70 		.ascii	"\235\000\255p\366\267\317\300\261qU\217\366_:\360O:"
 291      F6B7CFC0 
 291      B171558F 
 291      F65F3AF0 
 291      4F3A
 292 0145 5F8F149D 		.ascii	"_\217\024\235\215V:\337\272\023\321\347;\205\351w\023"
 292      8D563ADF 
 292      BA13D1E7 
 292      3B85E977 
 292      13
 293 0156 D3C39379 		.ascii	"\323\303\223y\263\211\251\223\254K\351\010\214\265!"
 293      B389A993 
 293      AC4BE908 
 293      8CB521
 294 0165 65E31A1D 		.ascii	"e\343\032\035\242a\032dl|\203\211Z\346#\314V\216z\033"
 294      A2611A64 
 294      6C7C8389 
 294      5AE623CC 
 294      568E7A1B 
 295 0179 4C6A6B98 		.ascii	"Ljk\230\350\323O\242J\223\274\020\006<\014\004\027\031"
 295      E8D34FA2 
 295      4A93BC10 
 295      063C0C04 
 295      1719
 296 018b 77D4F543 		.ascii	"w\324\365CNo\306\316\352T\356\236\327/\340J\273\222"
 296      4E6FC6CE 
 296      EA54EE9E 
 296      D72FE04A 
 296      BB92
 297 019d 20CF737E 		.ascii	" \317s~\220\017\371\300Pj05EW\302\017\234\273\223\327"
 297      900FF9C0 
 297      506A3035 
ARM GAS  /tmp/ccwytk7H.s 			page 23


 297      4557C20F 
 297      9CBB93D7 
 298 01b1 BCFE0C98 		.ascii	"\274\376\014\230\223v\266\340\\m\327\347L\345\371`*"
 298      9376B6E0 
 298      5C6DD7E7 
 298      4CE5F960 
 298      2A
 299 01c2 7D33CDDD 		.ascii	"}3\315\335\011\221-\2149\\\367\011\357FaBPk\3579bQu"
 299      09912D8C 
 299      395CF709 
 299      EF466142 
 299      506BEF39 
 300 01d9 269C0ECF 		.ascii	"&\234\016\317\253Ss\373!m\324\240<\325\305S\351!k\324"
 300      AB5373FB 
 300      216DD4A0 
 300      3CD5C553 
 300      E9216BD4 
 301 01ed 0E9D5CE0 		.ascii	"\016\235\\\340\366Y\227.\003\013\240\313s<?\230\206"
 301      F659972E 
 301      030BA0CB 
 301      733C3F98 
 301      86
 302 01fe BF9A9CED 		.ascii	"\277\232\234\355\351"
 302      E9
 303              		.text
 304              		.section	.gnu.lto_pwmEnableChannelNotification.21a78ed62c12c3a0,"",%progbits
 305 0000 789C8552 		.ascii	"x\234\205ROH\024Q\030\377\2767;\272\341\241\275\006"
 305      4F481451 
 305      18FFBE37 
 305      3BBAE1A1 
 305      BD06
 306 0012 B10C0B12 		.ascii	"\261\014\013\022\202\370\022\202\256\205\020t\330\213"
 306      82F81282 
 306      AE851074 
 306      D88B
 307 0020 AB54A718 		.ascii	"\253T\247\030_\203\373`\307YfvM\361\340SV\020\352 \202"
 307      5F83FB60 
 307      C7596676 
 307      4DF1E053 
 307      5610EA20 
 308 0035 68589075 		.ascii	"hX\220u36\241\213\027\203\215N\035T\274t\013\026\351"
 308      3336A18B 
 308      17838D4E 
 308      1D54BC74 
 308      0B16E9
 309 0048 621D4282 		.ascii	"b\035B\202()\266\357\315\356\216\273\262\326\233\371"
 309      2829B6EF 
 309      CDEE8EBB 
 309      B2D69BF9 
 310 0058 DE7BDFBF 		.ascii	"\336{\337\277\367\373\315\357\015\003\006g\307%2\217"
 310      F7FBCDEF 
 310      0D030667 
 310      C725328F 
 311 0068 C27F6845 		.ascii	"\302\177hE\003\220-\355\001\314\305\031\242\336\000"
 311      03902DED 
 311      01CCC519 
 311      A2DE00
ARM GAS  /tmp/ccwytk7H.s 			page 24


 312 0077 C22CC3D9 		.ascii	"\302,\303\331{\030\326n\261J\265V{\375ty\367\035\226"
 312      7B18D66E 
 312      B14AB556 
 312      7BFD7479 
 312      F71D96
 313 008a FB2E18E8 		.ascii	"\373.\030\350\"\304h\322Y\023JJ-Y.\322Y\",\037\241Y"
 313      22C468D2 
 313      59134A4A 
 313      2D592ED2 
 313      59222C1F 
 314 00a0 9F314A21 		.ascii	"\2371J!Z\215\0170\037\007H\301\206R\313\325\365\343"
 314      5A8D0F30 
 314      1F0748C1 
 314      8652CBD5 
 314      F5E3
 315 00b2 EDFE27AA 		.ascii	"\355\376'\252Rz\256~\327j\210\022\211\332\035\324\235"
 315      527AAE7E 
 315      D76A8812 
 315      89DA1DD4 
 315      9D
 316 00c3 77C9412B 		.ascii	"w\311A+\\X\254\235\253\216\201E\233=\230?~\373\376\315"
 316      5C58AC9D 
 316      AB8E8145 
 316      9B3D983F 
 316      7EFBFECD 
 317 00d7 63A381DA 		.ascii	"c\243\201\332\204\257l\237|K0\033_`*\242Ty\265\262\323"
 317      84AF6C9F 
 317      7C4B301B 
 317      5F602AA2 
 317      5479B5B2 
 318 00ec 7339F28E 		.ascii	"s9\362\216V?]\214\234G\273\237\015\000\0337\320$h\015"
 318      563F5D8C 
 318      9C47BB9F 
 318      0D001B37 
 318      D024680D 
 319 0100 CFC80CB2 		.ascii	"\317\310\014\262\020\031\3519$\227>\311\250K\227\204"
 319      1019E939 
 319      24973EC9 
 319      A84B9784 
 320 0110 EFF84CAD 		.ascii	"\357\370L\255\335\220\024m%t\232\377\321\3107\250\357"
 320      DD90146D 
 320      25749AFF 
 320      D1C837A8 
 320      EF
 321 0121 C3427553 		.ascii	"\303BuS\326\021\000f\340D-\252\204DS\204>\3008\032\343"
 321      D6110066 
 321      E0442DAA 
 321      84445384 
 321      3EC0381A 
 322 0136 1893D805 		.ascii	"\030\223\330\005\320\256\317\321\316\031}l|\031\262"
 322      D0AECFD1 
 322      CE197D6C 
 322      7C19B2
 323 0145 FBAF40F0 		.ascii	"\373\257@\360O\201\276\374\322\002m\265\013\364\265"
 323      4F81BEFC 
 323      D2026DB5 
 323      0BF4B5
ARM GAS  /tmp/ccwytk7H.s 			page 25


 324 0154 2719DD60 		.ascii	"'\031\335`\213R?[\224\372X2O\225\352\"\353\3268\002"
 324      8B523F5B 
 324      94FA5832 
 324      4F95EA22 
 324      EBD63802 
 325 0168 E31DC4B2 		.ascii	"\343\035\304\262q\2236\021\231\24686\2261Y\217\034\300"
 325      71933611 
 325      99A63836 
 325      9631598F 
 325      1CC0
 326 017a 5CB5DCD7 		.ascii	"\\\265\334\327\224\245>F\350\002\350?\321\245)^\014"
 326      94A53E46 
 326      E802E83F 
 326      D1A5295E 
 326      0C
 327 018b 7C1EF882 		.ascii	"|\036\370\202\213\254\034\223^\300\351\315\332\2710"
 327      8BAC1C93 
 327      5EC0E9CD 
 327      DAB930
 328 019a 947FE80E 		.ascii	"\224\177\350\016\010\030\354T\342\027x\336\363\013\001"
 328      0818EC54 
 328      E21778DE 
 328      F30B01
 329 01a9 BF399C1E 		.ascii	"\2779\234\036JOQJx\276s\177\362\272;\220\005s\322\316"
 329      4A4F514A 
 329      78BE737F 
 329      F2BA3B90 
 329      0573D2CE 
 330 01bd 159D6B9D 		.ascii	"\025\235k\235\372\234\251\002\037Jgng\270\234\020\271"
 330      FA9CA902 
 330      1F4A676E 
 330      67B89C10 
 330      B9
 331 01ce E2038787 		.ascii	"\342\003\207\207}\302\275U\234\020\324z\345\034\260"
 331      7DC2BD55 
 331      9C10D47A 
 331      E51CB0
 332 01dd A83A1B4C 		.ascii	"\250:\033L\007\347\325i\336^@\0235\350\225\352\022\351"
 332      07E7D569 
 332      DE5E4013 
 332      35E895EA 
 332      12E9
 333 01ef CCB03566 		.ascii	"\314\2605f\007N\336\227\375V\357U`>t\273\216\353\371"
 333      074EDE97 
 333      FD56EF55 
 333      603E74BB 
 333      8EEBF9
 334 0202 D3F01708 		.ascii	"\323\360\027\010\267\355\362"
 334      B7EDF2
 335              		.text
 336              		.section	.gnu.lto_pwmDisableChannelNotification.21a78ed62c12c3a0,"",%progbits
 337 0000 789C8552 		.ascii	"x\234\205RMh\023A\024~o6\333Fz0WA\302\022\020)\224\216"
 337      4D681341 
 337      147E6F36 
 337      DB467A30 
 337      5741C212 
 338 0018 82E0D552 		.ascii	"\202\340\325R\020<\344\322\264\250'\331\216K3\220\355"
ARM GAS  /tmp/ccwytk7H.s 			page 26


 338      103CE4D2 
 338      B4A827D9 
 338      8E4B3390 
 338      ED
 339 0029 86DDA43F 		.ascii	"\206\335\244?x\350\264D(\324C\221\226*\"X\275)Z\360"
 339      78E8B444 
 339      28D44391 
 339      962A2258 
 339      BD295AF0 
 340 003d D24B8548 		.ascii	"\322K\205HO=X\021\317J\020Ab\017\245X\212\026%\276\331"
 340      4F3D5811 
 340      CF4A1041 
 340      620FA558 
 340      8A1625BE 
 341 0052 24DBA4A4 		.ascii	"$\333\244\244:\273of\336\337|\337~\263\014\030\034\037"
 341      3ABB6F66 
 341      DEDF7CDF 
 341      7EB30C18 
 341      1C1F
 342 0064 67C83C0A 		.ascii	"g\310<\012\377\241\025\015@\266\270\0150\033g\210z\003"
 342      FFA1150D 
 342      40B6B80D 
 342      301B6788 
 342      7A03
 343 0076 08330C67 		.ascii	"\0103\014gnbX\273\306\312\225Z\355\325\322\307wo\261"
 343      6E6258BB 
 343      C6CA955A 
 343      EDD5D2C7 
 343      776FB1
 344 0089 DA7BCA40 		.ascii	"\332{\312@\027!F\223\316\232PRj\321r\221\316\022a\371"
 344      17214693 
 344      CE9A5052 
 344      6AD17291 
 344      CE1261F9 
 345 009d 30CDFA8C 		.ascii	"0\315\372\214\021\012\321jl\301\\\034 \005\253J\335"
 345      110AD16A 
 345      6CC15C1C 
 345      2005AB4A 
 345      DD
 346 00ae AF3CDA5B 		.ascii	"\257<\332[\357{\250\312\245'\352w\255\206(\221\250]"
 346      EF7BA8CA 
 346      A527EA77 
 346      AD862891 
 346      A85D
 347 00c0 47DD7983 		.ascii	"G\335y\203\034\264\302\205\305\332\271\352\030X\264"
 347      1CB4C285 
 347      C5DAB9EA 
 347      1858B4
 348 00cf D986B9BD 		.ascii	"\331\206\271\2757\233\257\357\031\015\324&|y\375p7\301"
 348      379BAFEF 
 348      190DD426 
 348      7C79FD70 
 348      37C1
 349 00e1 6C7C8AA9 		.ascii	"l|\212\251\210R\371\305\362F\317\331\310\253\256|:\035"
 349      8852F9C5 
 349      F246CFD9 
 349      C8ABAE7C 
ARM GAS  /tmp/ccwytk7H.s 			page 27


 349      3A1D
 350 00f3 390BDFBE 		.ascii	"9\013\337\276\032\0006\256\242I\320\032\236\221\031"
 350      1A0036AE 
 350      A249D01A 
 350      9E9119
 351 0102 642132D2 		.ascii	"d!2\322\363\205\\\372$\243.]\022~\340c\365\340\212\244"
 351      F3855CFA 
 351      24A32E5D 
 351      127EE063 
 351      F5E08AA4 
 352 0116 682BA1A3 		.ascii	"h+\241\243\374A#\337\240\376\036\356V>\313:\002\300"
 352      FC4123DF 
 352      A0FE1EEE 
 352      563ECB3A 
 352      02C0
 353 0128 1D3854F3 		.ascii	"\0358T\363*!\321\024\241\0170\206\306\030\306$v\001"
 353      2A21D114 
 353      A10F3086 
 353      C618C624 
 353      7601
 354 013a B4EB53DD 		.ascii	"\264\353S\3358\246\217\215\317Bv\377\025\010\376)\320"
 354      38A68F8D 
 354      CF4276FF 
 354      1508FE29 
 354      D0
 355 014b F75F5AA0 		.ascii	"\367_Z\240\265v\201vz\222\321\015\266(\365\263E\251"
 355      B5768176 
 355      7A92D10D 
 355      B628F5B3 
 355      45A9
 356 015d FD9279A4 		.ascii	"\375\222y\244T\027Y\267\306\021\030\357 \226\215\317"
 356      541759B7 
 356      C61118EF 
 356      20968DCF 
 357 016d 69139169 		.ascii	"i\023\221i\212c\343KL\326#\037`\266R\355m\312R\037\303"
 357      8A63E34B 
 357      4CD6231F 
 357      60B652ED 
 357      6DCA521F 
 358 0182 7401F49F 		.ascii	"t\001\364\237\350\322\024/\006>\017|\301EV\216J/\340"
 358      E8D2142F 
 358      063E0F7C 
 358      C145568E 
 358      4A2FE0
 359 0195 F466ED5C 		.ascii	"\364f\355\\\030\312O\272\375\002.v*\361\013<\357\371"
 359      18CA4FBA 
 359      FD022E76 
 359      2AF10B3C 
 359      EFF9
 360 01a7 85800F0C 		.ascii	"\205\200\017\014\245\007\323S\224\022\236\357\334\232"
 360      A507D353 
 360      94129EEF 
 360      DC9A
 361 01b5 B8ECF667 		.ascii	"\270\354\366g\301\234\260sE\347R\247>g\252\300\007\323"
 361      C19CB073 
 361      45E752A7 
 361      3E67AAC0 
ARM GAS  /tmp/ccwytk7H.s 			page 28


 361      07D3
 362 01c7 996B192E 		.ascii	"\231k\031.\307E\256x\333\341a\237p\257\026\307\005\265"
 362      C745AE78 
 362      DBE1619F 
 362      70AF16C7 
 362      05B5
 363 01d9 9E3F012C 		.ascii	"\236?\001,\252\316\006\323\301Iu\232\267\027\320D\015"
 363      AACE06D3 
 363      C149759A 
 363      B717D044 
 363      0D
 364 01ea 7AA5BA44 		.ascii	"z\245\272D:3d\215\332\201\223\367e\237u\356\0020\037"
 364      3A33648D 
 364      DA8193F7 
 364      659F75EE 
 364      02301F
 365 01fd BA5DC7F5 		.ascii	"\272]\307\365\374i\370\013\261V\357\017"
 365      FC69F80B 
 365      B156EF0F 
 366              		.text
 367              		.section	.gnu.lto_.symbol_nodes.21a78ed62c12c3a0,"",%progbits
 368 0000 789C4DC8 		.ascii	"x\234M\310I\012\302@\024\204\341\327\325\306\304\230"
 368      490AC240 
 368      1484E1D7 
 368      D5C6C498 
 369 0010 98680EE0 		.ascii	"\230h\016\340\011=C\005\3248\017 \210\210\210\340Q\334"
 369      093D4305 
 369      D4380F20 
 369      888888E0 
 369      51DC
 370 0022 7B06C5AD 		.ascii	"{\006\305\255g\020\207\006\373\325\346\347+\010\244"
 370      67108706 
 370      FBD5E6E7 
 370      2B08A4
 371 0031 67C40D03 		.ascii	"g\304\015\003Pd}\025!\217c\203!h\024+\020\212#\320*"
 371      50647D15 
 371      218F6383 
 371      2168142B 
 371      108A23D0 
 372 0046 8EC19AE2 		.ascii	"\216\301\232\342\004\014\024\247`]q\006\206\212s0R\\"
 372      040C14A7 
 372      605D7106 
 372      868A7330 
 372      525C
 373 0058 800DC525 		.ascii	"\200\015\305%\030{\232\025\330t,Kc\326`\342\265\001"
 373      187B9A15 
 373      D8742C4B 
 373      63D660E2 
 373      B501
 374 006a 53AF2DD8 		.ascii	"S\257-\330\362\332\201\231\327\036\314\275\016`\333"
 374      F2DA8199 
 374      D71ECCBD 
 374      0E60DB
 375 0079 EB0876BC 		.ascii	"\353\010v\274N`\361\227\225\246\364o/c\221\310\371\376"
 375      4E60F197 
 375      95A6F46F 
 375      2F6391C8 
ARM GAS  /tmp/ccwytk7H.s 			page 29


 375      F9FE
 376 008b A94DE5F2 		.ascii	"\251M\345\362u\320\222\307\327\365L\372\325\263k\303"
 376      75D092C7 
 376      D7F54CFA 
 376      D5B36BC3 
 377 009b DCFD51DB 		.ascii	"\334\375Q\333\265\321q\215\213_\345\015n)n\304"
 377      B5D1718D 
 377      8B5FE50D 
 377      6E296EC4 
 378              		.text
 379              		.section	.gnu.lto_.refs.21a78ed62c12c3a0,"",%progbits
 380 0000 789C6362 		.ascii	"x\234cb`b`d\200\002\000\000F\000\006"
 380      60626064 
 380      80020000 
 380      460006
 381              		.text
 382              		.section	.gnu.lto_.decls.21a78ed62c12c3a0,"",%progbits
 383 0000 789CAD5A 		.ascii	"x\234\255Z\013p\024E\032\356\236\311\023\002\202\245"
 383      0B701445 
 383      1AEE9EC9 
 383      130282A5 
 384 0010 C2D5A944 		.ascii	"\302\325\251DO<\313\2733\020<\340\254;\225\013\234\244"
 384      4F3CCBBB 
 384      33103CE0 
 384      AC3B950B 
 384      9CA4
 385 0022 24C86D42 		.ascii	"$\310mB\341\225Z\353\260Y\310\352\262\211\331\015\230"
 385      E1955AEB 
 385      B059C8EA 
 385      B289D90D 
 385      98
 386 0033 B23C2684 		.ascii	"\262<&\204\247\200\206\227 `\010\017\203\240H\016A)"
 386      A7808697 
 386      2060080F 
 386      83A0480E 
 386      4129
 387 0045 9E8B84C7 		.ascii	"\236\213\204\307\221(\201 \341\241\270\036x\310\011"
 387      91288120 
 387      E1A1B81E 
 387      78C809
 388 0054 160FB150 		.ascii	"\026\017\261P\221\275\277{fv{z{63)\267\362\367L\317"
 388      91BDBF7B 
 388      66767B7A 
 388      7B363329 
 388      B7F2F74C 
 389 0069 F6FFFDFF 		.ascii	"\366\377\375\377\367\367?\375\312JHBE\251\010E\3413"
 389      F7F73FFD 
 389      CA4A4842 
 389      45A90845 
 389      E133
 390 007b AF0F42DF 		.ascii	"\257\017B\337\303}\026B\350a\024\377\334\002\262\034"
 390      C37D1642 
 390      E86114FF 
 390      DC02B21C 
 391 008b A41E6400 		.ascii	"\244\036d\000F\350\021\220<\220\307AF\201\270A< cA\374"
 391      46E81190 
 391      3C90C741 
ARM GAS  /tmp/ccwytk7H.s 			page 30


 391      4681B841 
 391      3C206341 
 392 00a0 202F8004 		.ascii	" /\200\004A*@&\200T\202\274\004\3622\310D\220*\214\022"
 392      412A4026 
 392      805482BC 
 392      04F232C8 
 392      44902A8C 
 393 00b5 3E045F02 		.ascii	">\004_\002\251\206\357V\350\317$\375\371\013\202\366"
 393      A986EF56 
 393      E8CF24FD 
 393      F90B82F6 
 394 00c5 C4973490 		.ascii	"\304\2274\220\006\220\265 k@\266\203\\\000\271\014\222"
 394      0690B520 
 394      6B40B683 
 394      5C00B90C 
 394      92
 395 00d6 02B21E64 		.ascii	"\002\262\036d\033\310y\220K X\327#\327\0079L\302\253"
 395      1BC87990 
 395      4B2058D7 
 395      23D70739 
 395      4CC2AB
 396 00e9 1B5CD341 		.ascii	"\033\\\323A\032A\272\"-\016\223\341\371t\254a\033v^"
 396      1A41BA22 
 396      2D0E93E1 
 396      F974AC61 
 396      1B765E
 397 00fc 81FA0EB8 		.ascii	"\201\372\016\2706\203\034\001Y\255\333%\276\244\352"
 397      36831C01 
 397      59ADDB25 
 397      BEA4EA
 398 010b 369B40BE 		.ascii	"6\233@\276\321m\023?2u\0333A^\005\231\0032_\217\323"
 398      D16D133F 
 398      32751B33 
 398      415E0599 
 398      03325F8F 
 399 0120 9B207520 		.ascii	"\233 u +Adh\367g\270\376\005\244\236\363\221\304\275"
 399      2B416468 
 399      F767B8FE 
 399      05A49EF3 
 399      91C4BD
 400 0133 B3857FAC 		.ascii	"\263\205\177\254\037\206\237\015z\014Y\037\036\021\370"
 400      1F869F0D 
 400      7A0C591F 
 400      1E11F8
 401 0142 50C1F940 		.ascii	"P\301\371@t\006\301u\035g\237\3649\261y#I\234\232\031"
 401      7406C175 
 401      1D679FF4 
 401      39B17923 
 401      499C9A19 
 402 0156 FBA9508F 		.ascii	"\373\251P\217\"\215\023\211\305\317 \277\206g\031:\026"
 402      228D1389 
 402      C5CF20BF 
 402      8667193A 
 402      16
 403 0167 EF071F87 		.ascii	"\357\007\037\207\241p\315\007\331\300\371\361\270\356"
 403      A170CD07 
 403      D9C0F9F1 
ARM GAS  /tmp/ccwytk7H.s 			page 31


 403      B8EE
 404 0175 47BADECF 		.ascii	"G\272\336\317\"?\3308|\010\365aX\353\367\363z\034\036"
 404      223FD838 
 404      7C08F561 
 404      58EBF7F3 
 404      7A1C1E
 405 0188 17D89FC0 		.ascii	"\027\330\237\300\371@\260\377\016W\027H\021\310f\316"
 405      F940B0FF 
 405      0E571748 
 405      11C866CE 
 406 0198 8F510EFD 		.ascii	"\217Q\016\375\330\016\365'9?F\011\374\250\024\304\342"
 406      D80EF527 
 406      393F4609 
 406      FCA814C4 
 406      E2
 407 01a9 69B83E43 		.ascii	"i\270>C\362\216\363\201\274{V}a\344\004\322m\271\005"
 407      F28EF381 
 407      BC7B567D 
 407      61E404D2 
 407      6DB905
 408 01bc B65E12F4 		.ascii	"\266^\022\364\275\002\327\335\234\035\217\003;\036\201"
 408      BD02D7DD 
 408      9C1D8F03 
 408      3B1E81
 409 01cb 9D970576 		.ascii	"\235\227\005v\274p\335\317\331\031\233\304\216\021?"
 409      BC70DDCF 
 409      D9199BC4 
 409      8E113F
 410 01da C3CE5881 		.ascii	"\303\316X\201\235\211\202\330\371\340\372\034\310\307"
 410      9D8982D8 
 410      F9E0FA1C 
 410      C8C7
 411 01e8 9C2DBF03 		.ascii	"\234-\277\003[~\201\255*\201\255\000\\KA\016s\266z\241"
 411      5B7E81AD 
 411      2A81AD00 
 411      5C4B410E 
 411      73B67AA1 
 412 01fc 5AB52E12 		.ascii	"Z\265.\022\231R\333\204\325\271\352\365hTF\267\241\005"
 412      9952DB84 
 412      D5B9EAF5 
 412      685446B7 
 412      A105
 413 020e 2A7CEAA6 		.ascii	"*|\352\246\252*\016)\370\341[\301\240\202\273f\242l"
 413      AA2A0E29 
 413      F8E15BC1 
 413      A082BB66 
 413      A26C
 414 0220 7A939549 		.ascii	"z\223\225I\223\212t\307\012|\233~7R\326\340$\324\033"
 414      938A74C7 
 414      0A7C9B7E 
 414      3752D6E0 
 414      24D41B
 415 0233 A3FBD11A 		.ascii	"\243\373\321\032\320\257Q\325\025=\220\350s/z\213\030"
 415      D0AF51D5 
 415      153D90E8 
 415      732F7A8B 
 415      18
ARM GAS  /tmp/ccwytk7H.s 			page 32


 416 0244 50DF5665 		.ascii	"P\337Ve\012O\000\226\343^l\023\005\257\304R\242\237"
 416      0A4F0096 
 416      E35E6C13 
 416      05AFC452 
 416      A29F
 417 0256 E1457BB3 		.ascii	"\341E{\263j\252\"\321h/\373N\256\326\235\224i\337\302"
 417      6AAA22D1 
 417      682FFB4E 
 417      AED69D94 
 417      69DFC2
 418 0269 40F58AAA 		.ascii	"@\365\212\252N\"\212C\367w\275\031\315!(\331\373\273"
 418      4E228A43 
 418      F777BD19 
 418      CD2128D9 
 418      FBBB
 419 027b 22433F82 		.ascii	"\"C?\202\015\200\333\241uo\264\012\230D\216\257\233"
 419      0D80DBA1 
 419      756FB40A 
 419      98448EAF 
 419      9B
 420 028c FD90AA66 		.ascii	"\375\220\252f(x-\276\031`\236\302\200\273\012\337\257"
 420      28782DBE 
 420      19609EC2 
 420      80BB0ADF 
 420      AF
 421 029d FBD62E8A 		.ascii	"\373\326.\212\202\337\0056\012^\007\332\232\"\305U#"
 421      82DF0536 
 421      0A5E07DA 
 421      9A22C555 
 421      23
 422 02ae 4BF65D9F 		.ascii	"K\366]\237\202\253\200\202\366\0352\301\232>w\241:p"
 422      82AB8082 
 422      F61D32C1 
 422      9A3E77A1 
 422      3A70
 423 02c0 3BFC535B 		.ascii	";\374S[m\0175\022\306\351h*a\021\2312\251\347\242\270"
 423      6D0F3512 
 423      C6E9682A 
 423      61119932 
 423      A9E7A2B8 
 424 02d4 D50CC328 		.ascii	"\325\014\303(f\\\377a\226L]o\000%\011\325b\263\3576"
 424      665CFF61 
 424      964C5D6F 
 424      002509D5 
 424      62B3EF36 
 425 02e8 808857EF 		.ascii	"\200\210W\357\2032\353yx\323\324\233\324\024\355y\022"
 425      8332EB79 
 425      78D3D49B 
 425      D414ED79 
 425      12
 426 02f9 AF69CC25 		.ascii	"\257i\314%\264\006k\341H\311\214?\333\030\177\206\231"
 426      B4066BE1 
 426      48C98C3F 
 426      DB187F86 
 426      99
 427 030a A6DBE38F 		.ascii	"\246\333\343\217\215\376'U\234\031\277\211\232S\230"
 427      8DFE2755 
ARM GAS  /tmp/ccwytk7H.s 			page 33


 427      9C19BF89 
 427      9A5398
 428 0319 754EC11B 		.ascii	"uN\301\033qo(7aY\250&\241}\224?\011\266\210\252~\033"
 428      716F2837 
 428      6159A826 
 428      A17D943F 
 428      09B688AA 
 429 032f B7DBD5A8 		.ascii	"\267\333\325\250\350\035\000=\326\370_<\257Z\335\337"
 429      E81D003D 
 429      D6F85F3C 
 429      AF5ADDDF 
 430 033f 479448D0 		.ascii	"G\224H\320\0043YP'\033\210\017\306:$|\274\015g\0132"
 430      04335950 
 430      271B880F 
 430      C63A247C 
 430      BC0D670B 
 431 0354 C6DC56C1 		.ascii	"\306\334V\301;\201H\273\315H\303]\\R\2057\035\315\""
 431      3B8148BB 
 431      CD48C35D 
 431      5C528537 
 431      1DCD22
 432 0367 5DB3CB56 		.ascii	"]\263\313VB\035:Z\373+\265\356#\210\317\3648\033$|\231"
 432      421D3A5A 
 432      FB2BB5EE 
 432      2388CFF4 
 432      381B247C 
 433 037c F484DAFA 		.ascii	"\364\204\332\372\352\252\337\323\204j\304\244\217.r"
 433      EAAADFD3 
 433      846AC4A4 
 433      8F2E72
 434 038b 09651FE8 		.ascii	"\011e\037\350\312\301\3069\270\232&\377>\012\265Z2C"
 434      CAC1C639 
 434      B89A26FF 
 434      3E0AB55A 
 434      3243
 435 039d 29383D93 		.ascii	")8=\223u\231\326\215\006\004/=3~C\026\2127!\247\315"
 435      7599D68D 
 435      06042F3D 
 435      337E4316 
 435      8A3721A7 
 436 03b2 25B4811A 		.ascii	"%\264\201\032\335\025O\010\223\2536\022bZ\333\247ZB"
 436      DD154F08 
 436      93AB3612 
 436      625ADBA7 
 436      5A42
 437 03c4 D8661E3E 		.ascii	"\330f\036>>\357V\322C\315\224\365\266\004\326\215\330"
 437      3EEF56D2 
 437      43CD94F5 
 437      B604D68D 
 437      D8
 438 03d5 316D09ED 		.ascii	"1m\011\355q\314#\333\224\010?\350\211`Jkm\364L\322\207"
 438      71CC23DB 
 438      94083FE8 
 438      89604A6B 
 438      6DF44CD2 
 439 03ea C7CFCDBE 		.ascii	"\307\317\315\276\217&\303!P\224P3\307\305&\030\341x"
 439      8F26C321 
ARM GAS  /tmp/ccwytk7H.s 			page 34


 439      50945033 
 439      C7C52618 
 439      E178
 440 03fc 0400C4C9 		.ascii	"\004\000\304\311\232\360\235\204N\330!\233a\325i0\356"
 440      9AF09D84 
 440      4ED8219B 
 440      61D56930 
 440      EE
 441 040d 4E3B039D 		.ascii	"N;\003\235\246B\247uG5\372+f\274\302\2172\235\367(\213"
 441      A642A775 
 441      4735FA2B 
 441      66BCC28F 
 441      329DF728 
 442 0422 A577DE92 		.ascii	"\245w\336\222\2438[\301\307\350DpZ\022\316\004\326\030"
 442      A3385BC1 
 442      C7E84470 
 442      5A12CE04 
 442      D618
 443 0434 84CD49FE 		.ascii	"\204\315I\376\205\275\322J_\330\223\366f\200V\207/l"
 443      85BDD24A 
 443      5FD893F6 
 443      66805687 
 443      2F6C
 444 0446 7889966D 		.ascii	"x\211\226m\247h\266}\367\313d\333\015\012s\262\243o"
 444      A768B67D 
 444      F7CB64DB 
 444      0D0A73B2 
 444      A36F
 445 0458 4D78A19E 		.ascii	"Mx\241\236mZ\342(\370S:?:\301\313\026\305\310\240\020"
 445      6D5AE228 
 445      F8533A3F 
 445      3AC1CB16 
 445      C5C8A010 
 446 046c 0FB1823F 		.ascii	"\017\261\202?\2433\302\347\370.(\377\003e\354\243\003"
 446      A333C2E7 
 446      F82E28FF 
 446      0365ECA3 
 446      03
 447 047d A992819F 		.ascii	"\251\222\201\237\255k\267\341\356\364\216\206X\215e"
 447      AD6BB7E1 
 447      EEF48E86 
 447      588D65
 448 048c 2FB4B04A 		.ascii	"/\264\260J\336\323z\014c\216\3527\372\252\010\002V-"
 448      DED37A0C 
 448      638EEA37 
 448      FAAA0802 
 448      562D
 449 049e 73196B36 		.ascii	"s\031k6+J\331lS\304\226\266e\325(\306\240;\213G\023"
 449      2B4AD96C 
 449      53C496B6 
 449      65D528C6 
 449      A03B8B47 
 450 04b3 85EB3E6B 		.ascii	"\205\353>k\260\243,X\215\035\260>\202\276d\002\256\205"
 450      B0A32C58 
 450      8D1DB03E 
 450      82BE6402 
 450      AE85
ARM GAS  /tmp/ccwytk7H.s 			page 35


 451 04c5 FA231AEA 		.ascii	"\372#\032\352\3354\324M\264l\241\345QZ~E\313\263l\027"
 451      DD34D44D 
 451      B46CA1E5 
 451      515A7E45 
 451      CBB36C17 
 452 04d9 486881CC 		.ascii	"Hh\201\314\347\2436o1\330\361\011\0169C\267\352\255"
 452      E7A3366F 
 452      31D8F109 
 452      0E3943B7 
 452      EAAD
 453 04eb EDB873DC 		.ascii	"\355\270s\334\201e2\267 p8n.>ACI\306r\005\037\214-\363"
 453      816532B7 
 453      2070386E 
 453      2E3E4143 
 453      49C67205 
 454 0503 3A322E4D 		.ascii	":2.M\012o `\366\337\354\235\332\233}\201vc}B$;\364f"
 454      0A6F2060 
 454      F6DFEC9D 
 454      DA9B7D81 
 454      76637D42 
 455 051b 6FB0138F 		.ascii	"o\260\023\217$y\272\365\204\266B\325YD\336R\333Y\241"
 455      2479BAF5 
 455      84B642D5 
 455      5944DE52 
 455      DB59A1
 456 052e 8637B5DE 		.ascii	"\2067\265\336BX\\\246,\266\310\302\345D\3730\260.y\375"
 456      42585CA6 
 456      2CB6C8C2 
 456      E544FB30 
 456      B02E79FD 
 457 0542 77742ABA 		.ascii	"wt*\272J\201\366u\030\350\312\301\332\201\024\350\032"
 457      4A81F675 
 457      18E8CAC1 
 457      DA8114E8 
 457      1A
 458 0553 053A9810 		.ascii	"\005:\230\020W>\254\330\034\326\244k\325_\260\255\202"
 458      573EACD8 
 458      1CD6A46B 
 458      D55FB0AD 
 458      82
 459 0564 CFF0E926 		.ascii	"\317\360\351&Z\314v\263L7X\314\036=\252\255]\214\261"
 459      5ACC76B3 
 459      4C3758CC 
 459      1E3DAAAD 
 459      5D8CB1
 460 0577 E0B89DDE 		.ascii	"\340\270\235\3367!\232{\377\312\342e\211\253\010\301"
 460      37219A7B 
 460      FFCAE265 
 460      89AB08C1 
 461 0587 32564D33 		.ascii	"2VM3\300\236\215\007>z\352j\177\032\370(\235\\\027\247"
 461      C09E8D07 
 461      3E7AEA6A 
 461      7F1AF828 
 461      9D5C17A7 
 462 059b B4BBCD32 		.ascii	"\264\273\3152\303\220\220L\222\270\311\365\347\023t"
 462      C390904C 
 462      92B8C9F5 
ARM GAS  /tmp/ccwytk7H.s 			page 36


 462      E71374
 463 05aa 7225CFDB 		.ascii	"r%\317\333\231\\'W\207\243'\226\306'\327\352\244\257"
 463      995C2757 
 463      87A32796 
 463      C627D7EA 
 463      A4AF
 464 05bc A082F7D0 		.ascii	"\240\202\367\320\321\316\316;UO\231\020\027:0[\202["
 464      D1CECE3B 
 464      554F9910 
 464      173A305B 
 464      825B
 465 05ce 3527E918 		.ascii	"5'\351\0303E\"]\264\3261X\266\011l.\013\366\236\035"
 465      3345225D 
 465      B4D63158 
 465      B6096C2E 
 465      0BF69E1D 
 466 05e2 30AB010B 		.ascii	"0\253\001\013\300\346\263`\357;\0063{\366:\013\266\331"
 466      C0E6B360 
 466      EF3B0633 
 466      7BF63A0B 
 466      B6D9
 467 05f4 0E98556E 		.ascii	"\016\230Un\003\330\"\026l\253c0\263g\213Y\260\235v\300"
 467      03D82216 
 467      6CAB6330 
 467      B3678B59 
 467      B09D76C0 
 468 0608 7A5A7BB6 		.ascii	"zZ{\266\224\005\333\343\030\314\354Y-\013\326d\007,"
 468      9405DBE3 
 468      18CCEC59 
 468      2D0BD664 
 468      072C
 469 061a DBDAB306 		.ascii	"\333\332\263\006\026\254\3051\230\331\263\015,\330\021"
 469      16ACC531 
 469      98D9B30D 
 469      2CD811
 470 0629 3B60F759 		.ascii	";`\367Y{\266\221\005;\346\030\314\354\331\007,\330g"
 470      7BB69105 
 470      3BE618CC 
 470      ECD9072C 
 470      D867
 471 063b 76C044AB 		.ascii	"v\300D\253\037\012V\025\336\374T\215\022\337Dh\250\306"
 471      1F0A5615 
 471      DEFC548D 
 471      12DF4468 
 471      A8C6
 472 064d E884CDA9 		.ascii	"\350\204\315\251\3056#\303\255E3\005/\227\272\353w\247"
 472      C53623C3 
 472      AD453305 
 472      2F97BAEB 
 472      77A7
 473 065f D9B986A9 		.ascii	"\331\271\206\251J(\302\373m\206\0219n\216\302\0266\012"
 473      4A28C2FB 
 473      6D861139 
 473      6E8EC216 
 473      360A
 474 0671 67EC44E1 		.ascii	"g\354D\341Qk\260m,\3309;`C\255;{\007\013v\3011\230\331"
 474      516BB06D 
ARM GAS  /tmp/ccwytk7H.s 			page 37


 474      2CD8393B 
 474      6043AD3B 
 474      7B070B76 
 475 0689 B31616EC 		.ascii	"\263\026\026\354\262\035\260\021\326\236\035f\301\256"
 475      B21DB011 
 475      D69E1D66 
 475      C1AE
 476 0697 3A06633D 		.ascii	":\006c=\253\012\037\211g\016\3310\232R\207\3334\232"
 476      AB0A1F89 
 476      670ED930 
 476      9A5287DB 
 476      349A
 477 06a9 9A31A993 		.ascii	"\2321\251\223\260\267\\/9\335\2724H\342\255\013\273"
 477      B0B75C2F 
 477      39DDBA34 
 477      48E2AD0B 
 477      BB
 478 06ba 1889B702 		.ascii	"\030\211\267\002\332?\361\264MN\350\267O\012b(\372\260"
 478      DA3FF1B4 
 478      4D4EE8B7 
 478      4F0A6228 
 478      FAB0
 479 06cc 13B682AB 		.ascii	"\023\266\202\253%2\243N\226\310J~\032-g\320r&-g\323"
 479      2532A34E 
 479      96C84A7E 
 479      1A2D67D0 
 479      72262D67 
 480 06e1 F2355ACE 		.ascii	"\3625Z\316\241\345<Z.\240\345BZ\276A\313%\264|\223\226"
 480      A1E53C5A 
 480      2EA0E542 
 480      5ABE41CB 
 480      25B47C93 
 481 06f6 CB68B992 		.ascii	"\313h\271\222\226o\321r5-\327\320\362\035Z\256\223l"
 481      966FD172 
 481      352DD7D0 
 481      F21D5AAE 
 481      936C
 482 0708 EC1A6EB0 		.ascii	"\354\032n\260\273\0065\325\306:I4\007\210\203\260\216"
 482      BB0635D5 
 482      C63A4934 
 482      078883B0 
 482      8E
 483 0719 D9AFBE47 		.ascii	"\331\257\276G\227\025\353\351vf\033-\277\241\345yZ^"
 483      9715EBE9 
 483      76661B2D 
 483      BFA1E579 
 483      5A5E
 484 072b A2E54FB4 		.ascii	"\242\345O\264\374\331\316fgM\334\355\3701=\34509\325"
 484      FCD9CE66 
 484      674DDCED 
 484      F8313DE5 
 484      3039D5
 485 073e BCBEBA07 		.ascii	"\274\276\272\007\255T\325\271\221)\247\257\311o\250"
 485      AD54D5B9 
 485      9129A7AF 
 485      C96FA8
 486 074d E1144D55 		.ascii	"\341\024MUBsi\263z\334\313b\031\244\033\320\017\365"
ARM GAS  /tmp/ccwytk7H.s 			page 38


 486      427369B3 
 486      7ADCCB62 
 486      19A41BD0 
 486      0FF5
 487 075f 67AB53BA 		.ascii	"g\253S\272\341\330\251~=\177\252\377\276$:\325\277\354"
 487      E1D8A97E 
 487      3D7FAAFF 
 487      BE243AD5 
 487      BFEC
 488 0771 FC547FB3 		.ascii	"\374T\177\263d:\325\327\334\210U\364\035\036Gx\241\220"
 488      643AD5D7 
 488      DC8855F4 
 488      1D1E4778 
 488      A190
 489 0783 B07AB578 		.ascii	"\260z\265x\250\246\256\340M\022YP\177(%\345\252\253"
 489      A8A6AEE0 
 489      4D125950 
 489      7F2825E5 
 489      AAAB
 490 0795 B57A876A 		.ascii	"\265z\207j\206\024\374?\234\\m{\222\020\021-S\210\266"
 490      8614FC3F 
 490      9C5C6D7B 
 490      9210112D 
 490      5388B6
 491 07a8 0A43B463 		.ascii	"\012C\264c\237\036\"\355\024MBub2Wx2;\223\223\261\360"
 491      9F1E22ED 
 491      144D4275 
 491      62325778 
 491      323B9393 
 492 07be 6A27EF55 		.ascii	"j'\357UX\350\325\007\007\034w\\c\322\216k\326&"
 492      58E8D507 
 492      071C775C 
 492      63D28E6B 
 492      D626
 493 07d0 38AEE3DE 		.ascii	"8\256\343\336\026s\235\347\345\270\356\266\325q\207"
 493      16739DE7 
 493      E5B8EEB6 
 493      D57187
 494 07df 881ABB5F 		.ascii	"\210\032\273_\267V\323\335\021\206h7\037\242}\302\020"
 494      B756D3DD 
 494      11866837 
 494      1FA27DC2 
 494      10
 495 07f0 BDDEE438 		.ascii	"\275\336\3448D\315ICtY\363\251\235\220m\026\207l\001"
 495      44CD4943 
 495      7459F3A9 
 495      9D906D16 
 495      876C01
 496 0803 1FB2263B 		.ascii	"\037\262&;!\013\2771\263\276\207\372\254\261G\3777\305"
 496      210BBF31 
 496      B3BE87FA 
 496      ACB147FF 
 496      37C5
 497 0815 66344DDB 		.ascii	"f4M\333N\335C]s\311\314U\260\243\222\214\303\356C\274"
 497      4EDD435D 
 497      73C9CC55 
 497      B0A3928C 
ARM GAS  /tmp/ccwytk7H.s 			page 39


 497      C3EE43BC 
 498 0829 6AB28087 		.ascii	"j\262\200\207\027\316\254\256\303jZ,\344M|\310[\204"
 498      17CEACAE 
 498      C36A5A2C 
 498      E44D7CC8 
 498      5B84
 499 083b 21AFF9C4 		.ascii	"!\257\371\304q\310\217\331\0119\027\3426q\210\027\362"
 499      71C88FD9 
 499      093917E2 
 499      36718817 
 499      F2
 500 084c 216EB395 		.ascii	"!n\263\225\225\237?\323S3\244\340V^M\024_\213\254l\343"
 500      959F3FD3 
 500      5333A4E0 
 500      565E4D14 
 500      5F8BAC6C 
 501 0861 43745218 		.ascii	"CtR\030\242\317>\341\206\223sb2;y2_th8\371\202\367*"
 501      A2CF3EE1 
 501      86937362 
 501      323B7932 
 501      5F746838 
 502 0879 22F46ACB 		.ascii	"\"\364j\313A\316\253iiB\257\016\361^\235\356\220W\247"
 502      41CEAB69 
 502      6942AF0E 
 502      F15E9DEE 
 502      9057A7
 503 088c 79AFCE08 		.ascii	"y\257\316\010\275Zz8\346\025I\023\330\316\213\275\332"
 503      BD5A7A38 
 503      E6154913 
 503      D8CE8BBD 
 503      DA
 504 089d CE7B75D6 		.ascii	"\316{u\326V\307\317\333\333\271\217\271\347\317v\250"
 504      56C7CFDB 
 504      DBB98FB9 
 504      E7CF76A8 
 505 08ad E7CFF26C 		.ascii	"\347\317\362l\276\026\262\231\337\312\261\331-f\223"
 505      BE16B299 
 505      DFCAB1D9 
 505      2D6693
 506 08bc D0F3E76D 		.ascii	"\320\363\347m\261Y\220\300\346|\207\330\234\347\331"
 506      B15990C0 
 506      E67C87D8 
 506      9CE7D9
 507 08cb 5C486413 		.ascii	"\\Hd\023\251!\377}\233\206\347T\327\355W/\222\263\026"
 507      A921FF7D 
 507      9B86E754 
 507      D7ED572F 
 507      92B316
 508 08de ED270912 		.ascii	"\355'\011\022\372\222\343d\200\\\026\201\204O\235\232"
 508      FA92E364 
 508      805C1681 
 508      844F9D9A 
 509 08ee A56273E2 		.ascii	"\245bs\342}k\001\360\235\020\340b\"\300u\013\200\357"
 509      7D6B01F0 
 509      9D10E062 
 509      22C0750B 
 509      80EF
ARM GAS  /tmp/ccwytk7H.s 			page 40


 510 0900 85009759 		.ascii	"\205\000\227Y\200f\332-3\322\305\000\327\204\000\327"
 510      8066DA2D 
 510      33D2C500 
 510      D78400D7 
 511 0910 5800AD5F 		.ascii	"X\000\255_\353,\000~\024\002\374\230Ha\263\005\300u"
 511      EB2C007E 
 511      1402FC98 
 511      4861B305 
 511      C075
 512 0922 21C0F544 		.ascii	"!\300\365D\200\317-\000n\010\001n$R\250\316\020\003"
 512      80CF2D00 
 512      6E08016E 
 512      2452A8CE 
 512      1003
 513 0934 A8B20860 		.ascii	"\250\262\010`\356\027\011\000\253-\000&\231\001\270"
 513      EE170900 
 513      AB2D0026 
 513      9901B8
 514 0943 7F53AE48 		.ascii	"\177S\256H\362o\312j9\266\234\216m\312\026ue\016\227"
 514      F26FCA6A 
 514      39B69C8E 
 514      6DCA1675 
 514      650E97
 515 0956 7B26395B 		.ascii	"{&9[&\277\211\201\251p\212L\246\302\346\014\356\247"
 515      26BF8981 
 515      A9708A4C 
 515      A6C2E60C 
 515      EEA7
 516 0968 3871F748 		.ascii	"8q\367H\003\362!\372\332\275q\027\3051\370n\006\274"
 516      03F221FA 
 516      DABD7117 
 516      C531F86E 
 516      06BC
 517 097a A46B4D96 		.ascii	"\244kM\226\215S\203\330n\3158qX\324US\327U\007\032\252"
 517      8D5383D8 
 517      6ECD3871 
 517      58D45553 
 517      D755071A 
 518 098f E9BAC274 		.ascii	"\351\272\302t\331\351\266q\206,\3366\246\351$b\377\304"
 518      D9E9B671 
 518      862CDE36 
 518      A6E92462 
 518      FFC4
 519 09a1 08273941 		.ascii	"\010'9A\375\330\346\011*\351\340\360\305Hk\375\361\227"
 519      FDD8E609 
 519      2AE9E0F0 
 519      C5486BFD 
 519      F197
 520 09b3 DFDDA0AA 		.ascii	"\337\335\240\2523\324\033\321\211U\223\261\361\266\377"
 520      33D41BD1 
 520      895593B1 
 520      F1B6FF
 521 09c2 90D0CBA2 		.ascii	"\220\320\313\242_\030\315\224\271\021eVb\026\201\221"
 521      5F18CD94 
 521      B9116556 
 521      62168191 
 522 09d2 C56B0F3D 		.ascii	"\305k\017=\005\333\237\311j4:\361.\303\302\272L;\026"
ARM GAS  /tmp/ccwytk7H.s 			page 41


 522      05DB9FC9 
 522      6A343AF1 
 522      2EC3C2BA 
 522      4C3B16
 523 09e5 5EE52DBC 		.ascii	"^\345-\274&\264p\352\235/K\023,\234\263ea\016oa\256"
 523      26B470EA 
 523      9D2F4B13 
 523      2C9CB365 
 523      610E6F61 
 524 09fa D042DBFA 		.ascii	"\320B\333\372]\263\360\234\365SU\3626L\\\026\256I\261"
 524      5DB3F09C 
 524      F55355F2 
 524      364C5C16 
 524      AE49B1
 525 0a0d BF125A20 		.ascii	"\277\022Z s+\241F:\226\233\327\343\235Xg\365_\356|\320"
 525      732BA146 
 525      3A969BD7 
 525      E39D5867 
 525      F55FEE7C 
 526 0a22 49CF6763 		.ascii	"I\317gc\222\206M\0356\376\257\320H5\346\313VSH\243i"
 526      92864D1D 
 526      36FEAFD0 
 526      4835E6CB 
 526      565348A3 
 527 0a37 2AB85235 		.ascii	"*\270R5\242g\214\363|\236\363B!\347\326\372K\377\024"
 527      A2678CF3 
 527      7C9EF342 
 527      21E7D6FA 
 527      4BFF14
 528 0a4a 25C7814E 		.ascii	"%\307\201Nv\002\373&o\244\326\"9.=\235\320u\307lY\250"
 528      7602FB26 
 528      6FA4D622 
 528      392E3D9D 
 528      D075C76C 
 529 0a60 E32D2CB7 		.ascii	"\343-,\267H\216C\225\011\026\316\330\262\260\222\267"
 529      488E4395 
 529      0916CED8 
 529      B2B092B7 
 530 0a70 B0CA6CE1 		.ascii	"\260\312l\341n\264\\mi\211|\365\355\"<=\002C\321\215"
 530      6EB45C6D 
 530      69897CF5 
 530      ED223C3D 
 530      0243D18D 
 531 0a84 6814C707 		.ascii	"h\024\307\007\210\330\020\026\266\374\377\230\202\247"
 531      88D81016 
 531      B6FCFF98 
 531      82A7
 532 0a92 CABDED0E 		.ascii	"\312\275\355\016OC\015M\255\255\305H\304\265\202\265"
 532      4F430D4D 
 532      ADADC548 
 532      C4B582B5 
 533 0aa2 84E39168 		.ascii	"\204\343\221h\255\305H\224a\212\205\321\212\374b\211"
 533      ADC54894 
 533      618A85D1 
 533      8AFC6289 
 534 0ab2 4693D9AD 		.ascii	"F\223\331\255sN\300\200\322\311\370\335\033\271\321"
 534      734EC080 
ARM GAS  /tmp/ccwytk7H.s 			page 42


 534      D2C9F8DD 
 534      1BB9D1
 535 0ac1 E2163EBC 		.ascii	"\342\026>\274O\315hP\247\223\216aF~\005\277-\267{j\307"
 535      4FCD6850 
 535      A7938E61 
 535      467E05BF 
 535      2DB77B6A 
 536 0ad6 914E3CB5 		.ascii	"\221N<\265sL\272\301\202t\272\211\264\321\012n\337\221"
 536      734CBAC1 
 536      8274BA89 
 536      B4D10A6E 
 536      DF91
 537 0ae8 B9C300CE 		.ascii	"\271\303\000\316\011Xkw\026\220\336r\200'\235\315q\266"
 537      09586B77 
 537      1690DE72 
 537      80279DCD 
 537      71B6
 538 0afa 3AE4E638 		.ascii	":\344\3468'\036rotLz\223\005i\366g_\361V1\322\314\366"
 538      271E726F 
 538      744C7A93 
 538      0569F667 
 538      5FF15631 
 539 0b11 9EF74242 		.ascii	"\236\367BB\013L\254\271\205\000Y\211Y9\363a|!\240\307"
 539      0B4CACB9 
 539      85005989 
 539      5939F361 
 539      7C21A0C7 
 540 0b25 AAB6A9BD 		.ascii	"\252\266\251\275XM\217\231\357\236,V|3\005oq\034\253"
 540      584D8F99 
 540      EF9E2C56 
 540      7C33056F 
 540      711CAB
 541 0b38 AD16B1EA 		.ascii	"\255\026\261\352f\212\325V>V\314\316\234\367BB+\223"
 541      668AD556 
 541      3E56CCCE 
 541      9CF74242 
 541      2B93
 542 0b4a C5EA5892 		.ascii	"\305\352X\222XmO\210\325\374O\332\213UM\314\374\315"
 542      586D4F88 
 542      D5FC4FDA 
 542      8B554DCC 
 542      FCCD
 543 0b5c C962C537 		.ascii	"\311b\3057Sp\330q\254vY\304\252\273)V\273\370X1\033"
 543      5370D871 
 543      AC7659C4 
 543      AABB2956 
 543      BBF85831 
 544 0b71 74DE0B09 		.ascii	"t\336\013\011\375K\3646]l\227\365\305\030\320\235\311"
 544      FD4BF436 
 544      5D6C97F5 
 544      C518D09D 
 544      C9
 545 0b82 58F3CD14 		.ascii	"X\363\315\024\274\3071\353\275\026\254\3570\261\336"
 545      BCC731EB 
 545      BD16ACEF 
 545      30B1DE
 546 0b91 CBB3660E 		.ascii	"\313\263f\016\000x/$\264S\304z\307\301\366X_\213\001"
ARM GAS  /tmp/ccwytk7H.s 			page 43


 546      00782F24 
 546      B453C47A 
 546      C7C1F658 
 546      5F8B01
 547 0ba4 F54AC69A 		.ascii	"\365J\306\232o\246\340\003\216Y7Y\260\276\323\304\272"
 547      6FA6E003 
 547      8E593759 
 547      B0BED3C4 
 547      BA
 548 0bb5 8967CD1C 		.ascii	"\211g\315\0340\360^H\350c\021\353\206\303\355\261\376"
 548      30F05E48 
 548      E86311EB 
 548      86C3EDB1 
 548      FE
 549 0bc6 1A9B436E 		.ascii	"\032\233Cn\301\232o\246\340\203\216Y\267X\260\276\335"
 549      C19A6FA6 
 549      E0838E59 
 549      B758B0BE 
 549      DD
 550 0bd7 C4BA8567 		.ascii	"\304\272\205g\315\034D\360^H\350\244\210\365\242\326"
 550      CD1C44F0 
 550      5E48E8A4 
 550      88F5A2D6 
 551 0be7 186B58D4 		.ascii	"\030kX\324\201\237\006\324\371dis\316\004\205\356\316"
 551      819F06D4 
 551      F9646973 
 551      CE0485EE 
 551      CE
 552 0bf8 A90896E7 		.ascii	"\251\010\226\347\004\313=9\236\022\337h_i0\007\376J"
 552      04CB3D39 
 552      9E12DF68 
 552      5F693007 
 552      FE4A
 553 0c0a 143F7D54 		.ascii	"\024?}T6a\334\003\036\224\016\227\374\200/\224\366\330"
 553      3661DC03 
 553      1E940E97 
 553      FC802F94 
 553      F6D8
 554 0c1c F091D979 		.ascii	"\360\221\331y\350^+\015_\300\343\257(\366R\255\022\224"
 554      E85E2B0D 
 554      5FC0E3AF 
 554      28F652AD 
 554      1294
 555 0c2e 396254C1 		.ascii	"9bT\301\340r\337xo\371@+\205\262\322\362P0\247\260\250"
 555      E072DF78 
 555      6FF9402B 
 555      85B2D2F2 
 555      5030A7B0 
 556 0c43 A05F6ECE 		.ascii	"\240_n\316\260a\203s\212\362\013\306\367%\352n\277\277"
 556      B0618373 
 556      8AF20BC6 
 556      F725EA6E 
 556      BFBF
 557 0c55 18203AC1 		.ascii	"\030 :\301m0\244\204\274\356P'@s\217\034\236?<\277("
 557      6D30A484 
 557      BCEE5027 
 557      40738F1C 
ARM GAS  /tmp/ccwytk7H.s 			page 44


 557      9E3F3CBF 
 558 0c6a 83DC1616 		.ascii	"\203\334\026\026=1\202Xp\273\206\014\032\374\217T\332"
 558      3D318258 
 558      70BB860C 
 558      1AFC8F54 
 558      DA
 559 0c7b 4AA36278 		.ascii	"J\243bx\021\360N\360\373F\347\004+\2039\356`\250\330"
 559      11F04EF0 
 559      FB46E704 
 559      2B8339EE 
 559      60A8D8
 560 0c8e 17080162 		.ascii	"\027\010\001bF\005\\\373\345\272C\177\020\265\035\247"
 560      46055CFB 
 560      E5BA437F 
 560      10B51DA7 
 561 0c9e 8083016F 		.ascii	"\200\203\001o\216\273\330;F\251\360\207\334\241\312"
 561      8EBBD83B 
 561      46A9F087 
 561      DCA1CA
 562 0cad 326F9038 		.ascii	"2o\2208\342v\033\212\231c\312\275/Tx\003\236\312\014"
 562      E2761B8A 
 562      9963CABD 
 562      2F547803 
 562      9ECA0C
 563 0cc0 F0CE1380 		.ascii	"\360\316\023\200Fie\336r_iq\027RW\374\376\321\212\347"
 563      466965DE 
 563      725F6971 
 563      175257FC 
 563      FED18AE7 
 564 0cd4 797728C3 		.ascii	"yw(\303\270\355\006^\346\225(\201\200\327\237W\032\030"
 564      B8ED065E 
 564      E6952881 
 564      80D79F57 
 564      1A18
 565 0ce6 E31B9B09 		.ascii	"\343\033\233\011\355\306\225\026\003\251\024r\311\360"
 565      EDC69516 
 565      03A91472 
 565      C9F0
 566 0cf4 685F0665 		.ascii	"h_\006eOynJ\261\317[NxiM\323<\364\322\231 \227\004\306"
 566      4F796E4A 
 566      B1CF5B4E 
 566      78694DD3 
 566      3CF4D299 
 567 0d0c 050137DD 		.ascii	"\005\0017\335\033PF\373\275\305Y\364\031\325\204\207"
 567      1B5046FB 
 567      BDC559F4 
 567      19D58487 
 568 0d1c C4BB81E0 		.ascii	"\304\273\201\340\234\346'\334\245z\374\245\236\347\037"
 568      9CE627DC 
 568      A57AFCA5 
 568      9EE71F
 569 0d2b 7216F960 		.ascii	"r\026\371`h\034\241\350#\335\3279Vq\207\344<W_\220\334"
 569      681CA1E8 
 569      23DDD739 
 569      567187E4 
 569      3C575F90 
 570 0d40 94C2823C 		.ascii	"\224\302\202<W\312\340\374!.\251\320%\017y\314\225\232"
ARM GAS  /tmp/ccwytk7H.s 			page 45


 570      57CAE0FC 
 570      212EA9D0 
 570      250F79CC 
 570      959A
 571 0d52 9757E0EA 		.ascii	"\227W\340\352K\313\334\224\274\274!.9ox\221<\2420O\036"
 571      4BCBDC94 
 571      BCBC212E 
 571      396F7891 
 571      3CA2304F 
 572 0d67 E472C9AE 		.ascii	"\344r\311\256<\250\203\302_\007\027\271\344\301D\263"
 572      3CA883C2 
 572      5F0717B9 
 572      E4C144B3 
 573 0d77 60904B7A 		.ascii	"`\220KzB\323\352\007\355\237t\311\200O\342\366\304\350"
 573      42D3EA07 
 573      ED9F74C9 
 573      804FE2F6 
 573      C4E8
 574 0d89 E7BC9E10 		.ascii	"\347\274\236\020I\262\024\250\225\221\320\026\206\224"
 574      49B214A8 
 574      9591D016 
 574      8694
 575 0d97 F2503ABD 		.ascii	"\362P:\275)-\273\011\256$\210c\275#h\254\273A}\010\015"
 575      292DBB09 
 575      AE248863 
 575      BD2368AC 
 575      BB417D08 
 576 0dac 841EDA74 		.ascii	"\204\036\332t=\026\251\023|\305\241\222\356\360\365"
 576      3D16A913 
 576      7CC5A192 
 576      EEF0F5
 577 0dbb 605F90F9 		.ascii	"`_\220\371\376\216\230\202\006\340\363\014/\015\371"
 577      FE8E9882 
 577      06E0F30C 
 577      2F0DF9
 578 0dca C6F83C4A 		.ascii	"\306\370<J\310W\032\2703\336^\364\365\355\2745\366\313"
 578      C8571AB8 
 578      33DE5EF4 
 578      F5EDBC35 
 578      F6CB
 579 0ddc 3B126CB1 		.ascii	";\022l\261\337f\351\331\354\366\001\267.F%H\270e\305"
 579      DF66E9D9 
 579      ECF601B7 
 579      2E462548 
 579      B865C5
 580 0def 6BA565B7 		.ascii	"k\245e\267\031\025\255{\335:\235\036\306\343b\315\202"
 580      1915AD7B 
 580      DD3A9D1E 
 580      C6E362CD 
 580      82
 581 0e00 F1FC1EAE 		.ascii	"\361\374\036\256y\231\356\265;\300\330\356\315+\013"
 581      7999EEB5 
 581      3BC0D8EE 
 581      CD2B0B
 582 0e0f 5BFD466C 		.ascii	"[\375Fl\331\324\346\036\0137L\215R\340a\371o\2552\256"
 582      D9D4E61E 
 582      0B374C8D 
ARM GAS  /tmp/ccwytk7H.s 			page 46


 582      52E061F9 
 582      6FAD32AE 
 583 0e23 34084579 		.ascii	"4\010Ey\210^Iz\221kaep\030d\251P\007\232\032o\247\247"
 583      885E497A 
 583      916B6165 
 583      701864A9 
 583      50079A1A 
 584 0e3a 045E6232 		.ascii	"\004^b2\242xJt\215\276\026\032ZZ\017r\025\344\025\274"
 584      A2784A74 
 584      8DBE161A 
 584      5A5A0F72 
 584      15E415BC 
 585 0e4e 085F794A 		.ascii	"\010_yJ\313\275\356\361\003\350hD\276r\223w\342A\221"
 585      CBBDEEF1 
 585      03E86844 
 585      BE729377 
 585      E24191
 586 0e61 AEF7C550 		.ascii	"\256\367\305PN^Aa~a\334(\321\365\214\373[E\300\003\352"
 586      4E5E4161 
 586      7E61DC28 
 586      D1F58CFB 
 586      5B45C003 
 587 0e76 5DDCEEA0 		.ascii	"]\334\356\2407\344\376\353\240\302!#\\\371]\024\377"
 587      37E4FEEB 
 587      A0C22123 
 587      5CF95D14 
 587      FF
 588 0e87 04A53208 		.ascii	"\004\2452\010}\352\207\341\"u\274\342\257\360v\321\011"
 588      7DEA87E1 
 588      2275BCE2 
 588      AFF076D1 
 588      09
 589 0e98 8D0C1023 		.ascii	"\215\014\020#\235\251\253\372=5]A\3573\334\3561\200"
 589      9DA9ABFA 
 589      3D355D41 
 589      EF33DCEE 
 589      3180
 590 0eaa E8767731 		.ascii	"\350vw1n\036\030\360\307?\015dj\375\373\344\232j\003"
 590      6E1E18F0 
 590      C73F0D64 
 590      6AFDFBE4 
 590      9A6A03
 591 0ebd D85ADF7E 		.ascii	"\330Z\337~\246\232I/\327\244\227\333\237\255\365\353"
 591      A69A492F 
 591      D7A497DB 
 591      9FADF5EB 
 592 0ecd 6BAAF5FF 		.ascii	"k\252\365\377?\022^z\012"
 592      3F125E7A 
 592      0A
 593              		.text
 594              		.section	.gnu.lto_.symtab.21a78ed62c12c3a0,"",%progbits
 595 0000 70776D49 		.ascii	"pwmInit\000\000\000\000\000\000\000\000\000\000\000"
 595      6E697400 
 595      00000000 
 595      00000000 
 595      0000
 596 0012 00A10000 		.ascii	"\000\241\000\000\000pwmObjectInit\000\000\000\000\000"
ARM GAS  /tmp/ccwytk7H.s 			page 47


 596      0070776D 
 596      4F626A65 
 596      6374496E 
 596      69740000 
 597 0029 00000000 		.ascii	"\000\000\000\000\000\000\000\246\000\000\000pwmStar"
 597      000000A6 
 597      00000070 
 597      776D5374 
 597      6172
 598 003b 74000000 		.ascii	"t\000\000\000\000\000\000\000\000\000\000\000\0007\001"
 598      00000000 
 598      00000000 
 598      003701
 599 004a 00007077 		.ascii	"\000\000pwmStop\000\000\000\000\000\000\000\000\000"
 599      6D53746F 
 599      70000000 
 599      00000000 
 599      0000
 600 005c 0000003F 		.ascii	"\000\000\000?\001\000\000pwmChangePeriod\000\000\000"
 600      01000070 
 600      776D4368 
 600      616E6765 
 600      50657269 
 601 0075 00000000 		.ascii	"\000\000\000\000\000\000\000\000\000C\001\000\000pw"
 601      00000000 
 601      00430100 
 601      007077
 602 0084 6D456E61 		.ascii	"mEnableChannel\000\000\000\000\000\000\000\000\000\000"
 602      626C6543 
 602      68616E6E 
 602      656C0000 
 602      00000000 
 603 009c 00004B01 		.ascii	"\000\000K\001\000\000pwmDisableChannel\000\000\000\000"
 603      00007077 
 603      6D446973 
 603      61626C65 
 603      4368616E 
 604 00b7 00000000 		.ascii	"\000\000\000\000\000\000\000\000W\001\000\000pwmEna"
 604      00000000 
 604      57010000 
 604      70776D45 
 604      6E61
 605 00c9 626C6550 		.ascii	"blePeriodicNotification\000\000\000\000\000\000\000"
 605      6572696F 
 605      6469634E 
 605      6F746966 
 605      69636174 
 606 00e7 00000000 		.ascii	"\000\000\000\000\000_\001\000\000pwmDisablePeriodic"
 606      005F0100 
 606      0070776D 
 606      44697361 
 606      626C6550 
 607 0102 4E6F7469 		.ascii	"Notification\000\000\000\000\000\000\000\000\000\000"
 607      66696361 
 607      74696F6E 
 607      00000000 
 607      00000000 
ARM GAS  /tmp/ccwytk7H.s 			page 48


 608 0118 00006301 		.ascii	"\000\000c\001\000\000pwmEnableChannelNotification\000"
 608      00007077 
 608      6D456E61 
 608      626C6543 
 608      68616E6E 
 609 013b 00000000 		.ascii	"\000\000\000\000\000\000\000\000\000\000\000g\001\000"
 609      00000000 
 609      00000067 
 609      0100
 610 0149 0070776D 		.ascii	"\000pwmDisableChannelNotification\000\000\000\000\000"
 610      44697361 
 610      626C6543 
 610      68616E6E 
 610      656C4E6F 
 611 016c 00000000 		.ascii	"\000\000\000\000\000\000\000l\001\000\000pwm_lld_in"
 611      0000006C 
 611      01000070 
 611      776D5F6C 
 611      6C645F69 
 612 0181 69740000 		.ascii	"it\000\000\002\000\000\000\000\000\000\000\000\000q"
 612      02000000 
 612      00000000 
 612      000071
 613 0190 01000070 		.ascii	"\001\000\000pwm_lld_start\000\000\002\000\000\000\000"
 613      776D5F6C 
 613      6C645F73 
 613      74617274 
 613      00000200 
 614 01a7 00000000 		.ascii	"\000\000\000\000\000s\001\000\000pwm_lld_stop\000\000"
 614      00730100 
 614      0070776D 
 614      5F6C6C64 
 614      5F73746F 
 615 01be 02000000 		.ascii	"\002\000\000\000\000\000\000\000\000\000u\001\000\000"
 615      00000000 
 615      00007501 
 615      0000
 616 01cc 70776D5F 		.ascii	"pwm_lld_enable_channel\000\000\002\000\000\000\000\000"
 616      6C6C645F 
 616      656E6162 
 616      6C655F63 
 616      68616E6E 
 617 01ea 00000000 		.ascii	"\000\000\000\000w\001\000\000pwm_lld_disable_channe"
 617      77010000 
 617      70776D5F 
 617      6C6C645F 
 617      64697361 
 618 0208 6C000002 		.ascii	"l\000\000\002\000\000\000\000\000\000\000\000\000y\001"
 618      00000000 
 618      00000000 
 618      007901
 619 0217 00007077 		.ascii	"\000\000pwm_lld_enable_periodic_notification\000\000"
 619      6D5F6C6C 
 619      645F656E 
 619      61626C65 
 619      5F706572 
 620 023f 02000000 		.ascii	"\002\000\000\000\000\000\000\000\000\000{\001\000\000"
ARM GAS  /tmp/ccwytk7H.s 			page 49


 620      00000000 
 620      00007B01 
 620      0000
 621 024d 70776D5F 		.ascii	"pwm_lld_disable_periodic_notification\000\000\002\000"
 621      6C6C645F 
 621      64697361 
 621      626C655F 
 621      70657269 
 622 0276 00000000 		.ascii	"\000\000\000\000\000\000\000\000}\001\000\000pwm_ll"
 622      00000000 
 622      7D010000 
 622      70776D5F 
 622      6C6C
 623 0288 645F656E 		.ascii	"d_enable_channel_notification\000\000\002\000\000\000"
 623      61626C65 
 623      5F636861 
 623      6E6E656C 
 623      5F6E6F74 
 624 02ab 00000000 		.ascii	"\000\000\000\000\000\000\177\001\000\000pwm_lld_dis"
 624      00007F01 
 624      00007077 
 624      6D5F6C6C 
 624      645F6469 
 625 02c0 61626C65 		.ascii	"able_channel_notification\000\000\002\000\000\000\000"
 625      5F636861 
 625      6E6E656C 
 625      5F6E6F74 
 625      69666963 
 626 02e0 00000000 		.ascii	"\000\000\000\000\000\201\001\000\000"
 626      00810100 
 626      00
 627              		.text
 628              		.section	.gnu.lto_.opts,"",%progbits
 629 0000 272D6D63 		.ascii	"'-mcpu=cortex-m4' '-mno-thumb-interwork' '-mthumb' "
 629      70753D63 
 629      6F727465 
 629      782D6D34 
 629      2720272D 
 630 0033 272D6767 		.ascii	"'-ggdb' '-O2' '-fomit-frame-pointer' '-falign-funct"
 630      64622720 
 630      272D4F32 
 630      2720272D 
 630      666F6D69 
 631 0066 696F6E73 		.ascii	"ions=16' '-ffunction-sections' '-fdata-sections' '-"
 631      3D313627 
 631      20272D66 
 631      66756E63 
 631      74696F6E 
 632 0099 666E6F2D 		.ascii	"fno-common' '-flto'\000"
 632      636F6D6D 
 632      6F6E2720 
 632      272D666C 
 632      746F2700 
 633              		.text
 634              		.cfi_sections	.debug_frame
 635              		.section	.text.pwmInit,"ax",%progbits
 636              		.align	2
ARM GAS  /tmp/ccwytk7H.s 			page 50


 637              		.p2align 4,,15
 638              		.global	pwmInit
 639              		.thumb
 640              		.thumb_func
 641              		.type	pwmInit, %function
 642              	pwmInit:
 643              	.LFB260:
 644              		.file 1 "/usr/src/chibios/os/hal/src/pwm.c"
 645              		.loc 1 56 0
 646              		.cfi_startproc
 647              		@ args = 0, pretend = 0, frame = 0
 648              		@ frame_needed = 0, uses_anonymous_args = 0
 649              		@ link register save eliminated.
 650              		.loc 1 58 0
 651 0000 FFF7FEBF 		b	pwm_lld_init
 652              	.LVL0:
 653              		.cfi_endproc
 654              	.LFE260:
 655              		.size	pwmInit, .-pwmInit
 656              		.section	.text.pwmObjectInit,"ax",%progbits
 657              		.align	2
 658              		.p2align 4,,15
 659              		.global	pwmObjectInit
 660              		.thumb
 661              		.thumb_func
 662              		.type	pwmObjectInit, %function
 663              	pwmObjectInit:
 664              	.LFB261:
 665              		.loc 1 68 0
 666              		.cfi_startproc
 667              		@ args = 0, pretend = 0, frame = 0
 668              		@ frame_needed = 0, uses_anonymous_args = 0
 669              		@ link register save eliminated.
 670              	.LVL1:
 671              		.loc 1 71 0
 672 0000 0023     		movs	r3, #0
 673              		.loc 1 70 0
 674 0002 0122     		movs	r2, #1
 675 0004 0270     		strb	r2, [r0]
 676              		.loc 1 71 0
 677 0006 4360     		str	r3, [r0, #4]
 678              		.loc 1 72 0
 679 0008 C360     		str	r3, [r0, #12]
 680              		.loc 1 73 0
 681 000a 0374     		strb	r3, [r0, #16]
 682 000c 7047     		bx	lr
 683              		.cfi_endproc
 684              	.LFE261:
 685              		.size	pwmObjectInit, .-pwmObjectInit
 686 000e 00BF     		.section	.text.pwmStart,"ax",%progbits
 687              		.align	2
 688              		.p2align 4,,15
 689              		.global	pwmStart
 690              		.thumb
 691              		.thumb_func
 692              		.type	pwmStart, %function
 693              	pwmStart:
ARM GAS  /tmp/ccwytk7H.s 			page 51


 694              	.LFB262:
 695              		.loc 1 89 0
 696              		.cfi_startproc
 697              		@ args = 0, pretend = 0, frame = 0
 698              		@ frame_needed = 0, uses_anonymous_args = 0
 699              	.LVL2:
 700 0000 10B5     		push	{r4, lr}
 701              		.cfi_def_cfa_offset 8
 702              		.cfi_offset 4, -8
 703              		.cfi_offset 14, -4
 704              	.LBB141:
 705              	.LBB142:
 706              	.LBB143:
 707              	.LBB144:
 708              	.LBB145:
 709              		.file 2 "/usr/src/chibios/os/ext/CMSIS/include/core_cmFunc.h"
 710              		.loc 2 546 0
 711 0002 2023     		movs	r3, #32
 712              	.LBE145:
 713              	.LBE144:
 714              	.LBE143:
 715              	.LBE142:
 716              	.LBE141:
 717              		.loc 1 89 0
 718 0004 0446     		mov	r4, r0
 719              	.LBB150:
 720              	.LBB149:
 721              	.LBB148:
 722              	.LBB147:
 723              	.LBB146:
 724              		.loc 2 546 0
 725              	@ 546 "/usr/src/chibios/os/ext/CMSIS/include/core_cmFunc.h" 1
 726 0006 83F31188 		MSR basepri, r3
 727              	@ 0 "" 2
 728              		.thumb
 729              	.LBE146:
 730              	.LBE147:
 731              	.LBE148:
 732              	.LBE149:
 733              	.LBE150:
 734              		.loc 1 97 0
 735 000a 4B68     		ldr	r3, [r1, #4]
 736 000c 8360     		str	r3, [r0, #8]
 737              		.loc 1 96 0
 738 000e 4160     		str	r1, [r0, #4]
 739              		.loc 1 98 0
 740 0010 FFF7FEFF 		bl	pwm_lld_start
 741              	.LVL3:
 742              		.loc 1 100 0
 743 0014 0222     		movs	r2, #2
 744              		.loc 1 99 0
 745 0016 0023     		movs	r3, #0
 746              		.loc 1 100 0
 747 0018 2270     		strb	r2, [r4]
 748              	.LVL4:
 749              		.loc 1 99 0
 750 001a E360     		str	r3, [r4, #12]
ARM GAS  /tmp/ccwytk7H.s 			page 52


 751              	.LBB151:
 752              	.LBB152:
 753              	.LBB153:
 754              	.LBB154:
 755              	.LBB155:
 756              	.LBB156:
 757              		.loc 2 546 0
 758              	@ 546 "/usr/src/chibios/os/ext/CMSIS/include/core_cmFunc.h" 1
 759 001c 83F31188 		MSR basepri, r3
 760              	@ 0 "" 2
 761              		.thumb
 762 0020 10BD     		pop	{r4, pc}
 763              	.LBE156:
 764              	.LBE155:
 765              	.LBE154:
 766              	.LBE153:
 767              	.LBE152:
 768              	.LBE151:
 769              		.cfi_endproc
 770              	.LFE262:
 771              		.size	pwmStart, .-pwmStart
 772 0022 00BF     		.section	.text.pwmStop,"ax",%progbits
 773              		.align	2
 774              		.p2align 4,,15
 775              		.global	pwmStop
 776              		.thumb
 777              		.thumb_func
 778              		.type	pwmStop, %function
 779              	pwmStop:
 780              	.LFB263:
 781              		.loc 1 111 0
 782              		.cfi_startproc
 783              		@ args = 0, pretend = 0, frame = 0
 784              		@ frame_needed = 0, uses_anonymous_args = 0
 785              	.LVL5:
 786 0000 10B5     		push	{r4, lr}
 787              		.cfi_def_cfa_offset 8
 788              		.cfi_offset 4, -8
 789              		.cfi_offset 14, -4
 790              	.LBB157:
 791              	.LBB158:
 792              	.LBB159:
 793              	.LBB160:
 794              	.LBB161:
 795              		.loc 2 546 0
 796 0002 2023     		movs	r3, #32
 797              	.LBE161:
 798              	.LBE160:
 799              	.LBE159:
 800              	.LBE158:
 801              	.LBE157:
 802              		.loc 1 111 0
 803 0004 0446     		mov	r4, r0
 804              	.LBB166:
 805              	.LBB165:
 806              	.LBB164:
 807              	.LBB163:
ARM GAS  /tmp/ccwytk7H.s 			page 53


 808              	.LBB162:
 809              		.loc 2 546 0
 810              	@ 546 "/usr/src/chibios/os/ext/CMSIS/include/core_cmFunc.h" 1
 811 0006 83F31188 		MSR basepri, r3
 812              	@ 0 "" 2
 813              		.thumb
 814              	.LBE162:
 815              	.LBE163:
 816              	.LBE164:
 817              	.LBE165:
 818              	.LBE166:
 819              		.loc 1 118 0
 820 000a FFF7FEFF 		bl	pwm_lld_stop
 821              	.LVL6:
 822              		.loc 1 120 0
 823 000e 0122     		movs	r2, #1
 824              		.loc 1 119 0
 825 0010 0023     		movs	r3, #0
 826              		.loc 1 120 0
 827 0012 2270     		strb	r2, [r4]
 828              	.LVL7:
 829              		.loc 1 119 0
 830 0014 E360     		str	r3, [r4, #12]
 831              	.LBB167:
 832              	.LBB168:
 833              	.LBB169:
 834              	.LBB170:
 835              	.LBB171:
 836              	.LBB172:
 837              		.loc 2 546 0
 838              	@ 546 "/usr/src/chibios/os/ext/CMSIS/include/core_cmFunc.h" 1
 839 0016 83F31188 		MSR basepri, r3
 840              	@ 0 "" 2
 841              		.thumb
 842 001a 10BD     		pop	{r4, pc}
 843              	.LBE172:
 844              	.LBE171:
 845              	.LBE170:
 846              	.LBE169:
 847              	.LBE168:
 848              	.LBE167:
 849              		.cfi_endproc
 850              	.LFE263:
 851              		.size	pwmStop, .-pwmStop
 852              		.section	.text.pwmChangePeriod,"ax",%progbits
 853              		.align	2
 854              		.p2align 4,,15
 855              		.global	pwmChangePeriod
 856              		.thumb
 857              		.thumb_func
 858              		.type	pwmChangePeriod, %function
 859              	pwmChangePeriod:
 860              	.LFB264:
 861              		.loc 1 139 0
 862              		.cfi_startproc
 863              		@ args = 0, pretend = 0, frame = 0
 864              		@ frame_needed = 0, uses_anonymous_args = 0
ARM GAS  /tmp/ccwytk7H.s 			page 54


 865              		@ link register save eliminated.
 866              	.LVL8:
 867              	.LBB173:
 868              	.LBB174:
 869              	.LBB175:
 870              	.LBB176:
 871              	.LBB177:
 872              		.loc 2 546 0
 873 0000 2023     		movs	r3, #32
 874              	@ 546 "/usr/src/chibios/os/ext/CMSIS/include/core_cmFunc.h" 1
 875 0002 83F31188 		MSR basepri, r3
 876              	@ 0 "" 2
 877              		.thumb
 878              	.LBE177:
 879              	.LBE176:
 880              	.LBE175:
 881              	.LBE174:
 882              	.LBE173:
 883              		.loc 1 145 0
 884 0006 8369     		ldr	r3, [r0, #24]
 885 0008 8160     		str	r1, [r0, #8]
 886 000a 0139     		subs	r1, r1, #1
 887              	.LVL9:
 888 000c D962     		str	r1, [r3, #44]
 889              	.LVL10:
 890              	.LBB178:
 891              	.LBB179:
 892              	.LBB180:
 893              	.LBB181:
 894              	.LBB182:
 895              	.LBB183:
 896              		.loc 2 546 0
 897 000e 0023     		movs	r3, #0
 898              	@ 546 "/usr/src/chibios/os/ext/CMSIS/include/core_cmFunc.h" 1
 899 0010 83F31188 		MSR basepri, r3
 900              	@ 0 "" 2
 901              		.thumb
 902 0014 7047     		bx	lr
 903              	.LBE183:
 904              	.LBE182:
 905              	.LBE181:
 906              	.LBE180:
 907              	.LBE179:
 908              	.LBE178:
 909              		.cfi_endproc
 910              	.LFE264:
 911              		.size	pwmChangePeriod, .-pwmChangePeriod
 912 0016 00BF     		.section	.text.pwmEnableChannel,"ax",%progbits
 913              		.align	2
 914              		.p2align 4,,15
 915              		.global	pwmEnableChannel
 916              		.thumb
 917              		.thumb_func
 918              		.type	pwmEnableChannel, %function
 919              	pwmEnableChannel:
 920              	.LFB265:
 921              		.loc 1 165 0
ARM GAS  /tmp/ccwytk7H.s 			page 55


 922              		.cfi_startproc
 923              		@ args = 0, pretend = 0, frame = 0
 924              		@ frame_needed = 0, uses_anonymous_args = 0
 925              	.LVL11:
 926 0000 70B5     		push	{r4, r5, r6, lr}
 927              		.cfi_def_cfa_offset 16
 928              		.cfi_offset 4, -16
 929              		.cfi_offset 5, -12
 930              		.cfi_offset 6, -8
 931              		.cfi_offset 14, -4
 932              	.LBB184:
 933              	.LBB185:
 934              	.LBB186:
 935              	.LBB187:
 936              	.LBB188:
 937              		.loc 2 546 0
 938 0002 2024     		movs	r4, #32
 939              	@ 546 "/usr/src/chibios/os/ext/CMSIS/include/core_cmFunc.h" 1
 940 0004 84F31188 		MSR basepri, r4
 941              	@ 0 "" 2
 942              		.thumb
 943              	.LBE188:
 944              	.LBE187:
 945              	.LBE186:
 946              	.LBE185:
 947              	.LBE184:
 948              		.loc 1 173 0
 949 0008 0126     		movs	r6, #1
 950 000a C468     		ldr	r4, [r0, #12]
 951 000c 06FA01F5 		lsl	r5, r6, r1
 952 0010 2C43     		orrs	r4, r4, r5
 953 0012 C460     		str	r4, [r0, #12]
 954 0014 FFF7FEFF 		bl	pwm_lld_enable_channel
 955              	.LVL12:
 956              	.LBB189:
 957              	.LBB190:
 958              	.LBB191:
 959              	.LBB192:
 960              	.LBB193:
 961              	.LBB194:
 962              		.loc 2 546 0
 963 0018 0023     		movs	r3, #0
 964              	@ 546 "/usr/src/chibios/os/ext/CMSIS/include/core_cmFunc.h" 1
 965 001a 83F31188 		MSR basepri, r3
 966              	@ 0 "" 2
 967              		.thumb
 968 001e 70BD     		pop	{r4, r5, r6, pc}
 969              	.LBE194:
 970              	.LBE193:
 971              	.LBE192:
 972              	.LBE191:
 973              	.LBE190:
 974              	.LBE189:
 975              		.cfi_endproc
 976              	.LFE265:
 977              		.size	pwmEnableChannel, .-pwmEnableChannel
 978              		.section	.text.pwmDisableChannel,"ax",%progbits
ARM GAS  /tmp/ccwytk7H.s 			page 56


 979              		.align	2
 980              		.p2align 4,,15
 981              		.global	pwmDisableChannel
 982              		.thumb
 983              		.thumb_func
 984              		.type	pwmDisableChannel, %function
 985              	pwmDisableChannel:
 986              	.LFB266:
 987              		.loc 1 192 0
 988              		.cfi_startproc
 989              		@ args = 0, pretend = 0, frame = 0
 990              		@ frame_needed = 0, uses_anonymous_args = 0
 991              	.LVL13:
 992 0000 38B5     		push	{r3, r4, r5, lr}
 993              		.cfi_def_cfa_offset 16
 994              		.cfi_offset 3, -16
 995              		.cfi_offset 4, -12
 996              		.cfi_offset 5, -8
 997              		.cfi_offset 14, -4
 998              	.LBB195:
 999              	.LBB196:
 1000              	.LBB197:
 1001              	.LBB198:
 1002              	.LBB199:
 1003              		.loc 2 546 0
 1004 0002 2022     		movs	r2, #32
 1005              	@ 546 "/usr/src/chibios/os/ext/CMSIS/include/core_cmFunc.h" 1
 1006 0004 82F31188 		MSR basepri, r2
 1007              	@ 0 "" 2
 1008              		.thumb
 1009              	.LBE199:
 1010              	.LBE198:
 1011              	.LBE197:
 1012              	.LBE196:
 1013              	.LBE195:
 1014              		.loc 1 200 0
 1015 0008 0125     		movs	r5, #1
 1016 000a C268     		ldr	r2, [r0, #12]
 1017 000c 05FA01F4 		lsl	r4, r5, r1
 1018 0010 22EA0402 		bic	r2, r2, r4
 1019 0014 C260     		str	r2, [r0, #12]
 1020 0016 FFF7FEFF 		bl	pwm_lld_disable_channel
 1021              	.LVL14:
 1022              	.LBB200:
 1023              	.LBB201:
 1024              	.LBB202:
 1025              	.LBB203:
 1026              	.LBB204:
 1027              	.LBB205:
 1028              		.loc 2 546 0
 1029 001a 0023     		movs	r3, #0
 1030              	@ 546 "/usr/src/chibios/os/ext/CMSIS/include/core_cmFunc.h" 1
 1031 001c 83F31188 		MSR basepri, r3
 1032              	@ 0 "" 2
 1033              		.thumb
 1034 0020 38BD     		pop	{r3, r4, r5, pc}
 1035              	.LBE205:
ARM GAS  /tmp/ccwytk7H.s 			page 57


 1036              	.LBE204:
 1037              	.LBE203:
 1038              	.LBE202:
 1039              	.LBE201:
 1040              	.LBE200:
 1041              		.cfi_endproc
 1042              	.LFE266:
 1043              		.size	pwmDisableChannel, .-pwmDisableChannel
 1044 0022 00BF     		.section	.text.pwmEnablePeriodicNotification,"ax",%progbits
 1045              		.align	2
 1046              		.p2align 4,,15
 1047              		.global	pwmEnablePeriodicNotification
 1048              		.thumb
 1049              		.thumb_func
 1050              		.type	pwmEnablePeriodicNotification, %function
 1051              	pwmEnablePeriodicNotification:
 1052              	.LFB267:
 1053              		.loc 1 214 0
 1054              		.cfi_startproc
 1055              		@ args = 0, pretend = 0, frame = 0
 1056              		@ frame_needed = 0, uses_anonymous_args = 0
 1057              	.LVL15:
 1058 0000 08B5     		push	{r3, lr}
 1059              		.cfi_def_cfa_offset 8
 1060              		.cfi_offset 3, -8
 1061              		.cfi_offset 14, -4
 1062              	.LBB206:
 1063              	.LBB207:
 1064              	.LBB208:
 1065              	.LBB209:
 1066              	.LBB210:
 1067              		.loc 2 546 0
 1068 0002 2023     		movs	r3, #32
 1069              	@ 546 "/usr/src/chibios/os/ext/CMSIS/include/core_cmFunc.h" 1
 1070 0004 83F31188 		MSR basepri, r3
 1071              	@ 0 "" 2
 1072              		.thumb
 1073              	.LBE210:
 1074              	.LBE209:
 1075              	.LBE208:
 1076              	.LBE207:
 1077              	.LBE206:
 1078              		.loc 1 223 0
 1079 0008 FFF7FEFF 		bl	pwm_lld_enable_periodic_notification
 1080              	.LVL16:
 1081              	.LBB211:
 1082              	.LBB212:
 1083              	.LBB213:
 1084              	.LBB214:
 1085              	.LBB215:
 1086              	.LBB216:
 1087              		.loc 2 546 0
 1088 000c 0023     		movs	r3, #0
 1089              	@ 546 "/usr/src/chibios/os/ext/CMSIS/include/core_cmFunc.h" 1
 1090 000e 83F31188 		MSR basepri, r3
 1091              	@ 0 "" 2
 1092              		.thumb
ARM GAS  /tmp/ccwytk7H.s 			page 58


 1093 0012 08BD     		pop	{r3, pc}
 1094              	.LBE216:
 1095              	.LBE215:
 1096              	.LBE214:
 1097              	.LBE213:
 1098              	.LBE212:
 1099              	.LBE211:
 1100              		.cfi_endproc
 1101              	.LFE267:
 1102              		.size	pwmEnablePeriodicNotification, .-pwmEnablePeriodicNotification
 1103              		.section	.text.pwmDisablePeriodicNotification,"ax",%progbits
 1104              		.align	2
 1105              		.p2align 4,,15
 1106              		.global	pwmDisablePeriodicNotification
 1107              		.thumb
 1108              		.thumb_func
 1109              		.type	pwmDisablePeriodicNotification, %function
 1110              	pwmDisablePeriodicNotification:
 1111              	.LFB268:
 1112              		.loc 1 237 0
 1113              		.cfi_startproc
 1114              		@ args = 0, pretend = 0, frame = 0
 1115              		@ frame_needed = 0, uses_anonymous_args = 0
 1116              	.LVL17:
 1117 0000 08B5     		push	{r3, lr}
 1118              		.cfi_def_cfa_offset 8
 1119              		.cfi_offset 3, -8
 1120              		.cfi_offset 14, -4
 1121              	.LBB217:
 1122              	.LBB218:
 1123              	.LBB219:
 1124              	.LBB220:
 1125              	.LBB221:
 1126              		.loc 2 546 0
 1127 0002 2023     		movs	r3, #32
 1128              	@ 546 "/usr/src/chibios/os/ext/CMSIS/include/core_cmFunc.h" 1
 1129 0004 83F31188 		MSR basepri, r3
 1130              	@ 0 "" 2
 1131              		.thumb
 1132              	.LBE221:
 1133              	.LBE220:
 1134              	.LBE219:
 1135              	.LBE218:
 1136              	.LBE217:
 1137              		.loc 1 246 0
 1138 0008 FFF7FEFF 		bl	pwm_lld_disable_periodic_notification
 1139              	.LVL18:
 1140              	.LBB222:
 1141              	.LBB223:
 1142              	.LBB224:
 1143              	.LBB225:
 1144              	.LBB226:
 1145              	.LBB227:
 1146              		.loc 2 546 0
 1147 000c 0023     		movs	r3, #0
 1148              	@ 546 "/usr/src/chibios/os/ext/CMSIS/include/core_cmFunc.h" 1
 1149 000e 83F31188 		MSR basepri, r3
ARM GAS  /tmp/ccwytk7H.s 			page 59


 1150              	@ 0 "" 2
 1151              		.thumb
 1152 0012 08BD     		pop	{r3, pc}
 1153              	.LBE227:
 1154              	.LBE226:
 1155              	.LBE225:
 1156              	.LBE224:
 1157              	.LBE223:
 1158              	.LBE222:
 1159              		.cfi_endproc
 1160              	.LFE268:
 1161              		.size	pwmDisablePeriodicNotification, .-pwmDisablePeriodicNotification
 1162              		.section	.text.pwmEnableChannelNotification,"ax",%progbits
 1163              		.align	2
 1164              		.p2align 4,,15
 1165              		.global	pwmEnableChannelNotification
 1166              		.thumb
 1167              		.thumb_func
 1168              		.type	pwmEnableChannelNotification, %function
 1169              	pwmEnableChannelNotification:
 1170              	.LFB269:
 1171              		.loc 1 262 0
 1172              		.cfi_startproc
 1173              		@ args = 0, pretend = 0, frame = 0
 1174              		@ frame_needed = 0, uses_anonymous_args = 0
 1175              	.LVL19:
 1176 0000 08B5     		push	{r3, lr}
 1177              		.cfi_def_cfa_offset 8
 1178              		.cfi_offset 3, -8
 1179              		.cfi_offset 14, -4
 1180              	.LBB228:
 1181              	.LBB229:
 1182              	.LBB230:
 1183              	.LBB231:
 1184              	.LBB232:
 1185              		.loc 2 546 0
 1186 0002 2023     		movs	r3, #32
 1187              	@ 546 "/usr/src/chibios/os/ext/CMSIS/include/core_cmFunc.h" 1
 1188 0004 83F31188 		MSR basepri, r3
 1189              	@ 0 "" 2
 1190              		.thumb
 1191              	.LBE232:
 1192              	.LBE231:
 1193              	.LBE230:
 1194              	.LBE229:
 1195              	.LBE228:
 1196              		.loc 1 274 0
 1197 0008 FFF7FEFF 		bl	pwm_lld_enable_channel_notification
 1198              	.LVL20:
 1199              	.LBB233:
 1200              	.LBB234:
 1201              	.LBB235:
 1202              	.LBB236:
 1203              	.LBB237:
 1204              	.LBB238:
 1205              		.loc 2 546 0
 1206 000c 0023     		movs	r3, #0
ARM GAS  /tmp/ccwytk7H.s 			page 60


 1207              	@ 546 "/usr/src/chibios/os/ext/CMSIS/include/core_cmFunc.h" 1
 1208 000e 83F31188 		MSR basepri, r3
 1209              	@ 0 "" 2
 1210              		.thumb
 1211 0012 08BD     		pop	{r3, pc}
 1212              	.LBE238:
 1213              	.LBE237:
 1214              	.LBE236:
 1215              	.LBE235:
 1216              	.LBE234:
 1217              	.LBE233:
 1218              		.cfi_endproc
 1219              	.LFE269:
 1220              		.size	pwmEnableChannelNotification, .-pwmEnableChannelNotification
 1221              		.section	.text.pwmDisableChannelNotification,"ax",%progbits
 1222              		.align	2
 1223              		.p2align 4,,15
 1224              		.global	pwmDisableChannelNotification
 1225              		.thumb
 1226              		.thumb_func
 1227              		.type	pwmDisableChannelNotification, %function
 1228              	pwmDisableChannelNotification:
 1229              	.LFB270:
 1230              		.loc 1 290 0
 1231              		.cfi_startproc
 1232              		@ args = 0, pretend = 0, frame = 0
 1233              		@ frame_needed = 0, uses_anonymous_args = 0
 1234              	.LVL21:
 1235 0000 08B5     		push	{r3, lr}
 1236              		.cfi_def_cfa_offset 8
 1237              		.cfi_offset 3, -8
 1238              		.cfi_offset 14, -4
 1239              	.LBB239:
 1240              	.LBB240:
 1241              	.LBB241:
 1242              	.LBB242:
 1243              	.LBB243:
 1244              		.loc 2 546 0
 1245 0002 2023     		movs	r3, #32
 1246              	@ 546 "/usr/src/chibios/os/ext/CMSIS/include/core_cmFunc.h" 1
 1247 0004 83F31188 		MSR basepri, r3
 1248              	@ 0 "" 2
 1249              		.thumb
 1250              	.LBE243:
 1251              	.LBE242:
 1252              	.LBE241:
 1253              	.LBE240:
 1254              	.LBE239:
 1255              		.loc 1 302 0
 1256 0008 FFF7FEFF 		bl	pwm_lld_disable_channel_notification
 1257              	.LVL22:
 1258              	.LBB244:
 1259              	.LBB245:
 1260              	.LBB246:
 1261              	.LBB247:
 1262              	.LBB248:
 1263              	.LBB249:
ARM GAS  /tmp/ccwytk7H.s 			page 61


 1264              		.loc 2 546 0
 1265 000c 0023     		movs	r3, #0
 1266              	@ 546 "/usr/src/chibios/os/ext/CMSIS/include/core_cmFunc.h" 1
 1267 000e 83F31188 		MSR basepri, r3
 1268              	@ 0 "" 2
 1269              		.thumb
 1270 0012 08BD     		pop	{r3, pc}
 1271              	.LBE249:
 1272              	.LBE248:
 1273              	.LBE247:
 1274              	.LBE246:
 1275              	.LBE245:
 1276              	.LBE244:
 1277              		.cfi_endproc
 1278              	.LFE270:
 1279              		.size	pwmDisableChannelNotification, .-pwmDisableChannelNotification
 1280              		.text
 1281              	.Letext0:
 1282              		.file 3 "/usr/include/newlib/machine/_default_types.h"
 1283              		.file 4 "/usr/include/newlib/sys/_stdint.h"
 1284              		.file 5 "/usr/src/chibios/os/rt/ports/ARMCMx/compilers/GCC/chtypes.h"
 1285              		.file 6 "/usr/src/chibios/os/rt/include/chsystypes.h"
 1286              		.file 7 "/usr/src/chibios/os/rt/include/chschd.h"
 1287              		.file 8 "/usr/src/chibios/os/rt/ports/ARMCMx/chcore.h"
 1288              		.file 9 "/usr/src/chibios/os/rt/ports/ARMCMx/chcore_v7m.h"
 1289              		.file 10 "/usr/src/chibios/os/hal/ports/STM32/LLD/TIMv1/stm32_tim.h"
 1290              		.file 11 "/usr/src/chibios/os/rt/include/chtm.h"
 1291              		.file 12 "/usr/src/chibios/os/rt/include/chsem.h"
 1292              		.file 13 "/usr/src/chibios/os/rt/include/chmtx.h"
 1293              		.file 14 "/usr/src/chibios/os/hal/include/pwm.h"
 1294              		.file 15 "/usr/src/chibios/os/hal/ports/STM32/LLD/TIMv1/pwm_lld.h"
 1295              		.file 16 "/usr/src/chibios/os/rt/include/chsys.h"
 1296              		.file 17 "/usr/src/chibios/os/hal/osal/rt/osal.h"
 1297              		.file 18 "/usr/src/chibios/os/ext/CMSIS/include/core_cm4.h"