ARM GAS  /tmp/ccgfTCLd.s 			page 1


   1              		.syntax unified
   2              		.cpu cortex-m4
   3              		.fpu softvfp
   4              		.eabi_attribute 20, 1
   5              		.eabi_attribute 21, 1
   6              		.eabi_attribute 23, 3
   7              		.eabi_attribute 24, 1
   8              		.eabi_attribute 25, 1
   9              		.eabi_attribute 26, 1
  10              		.eabi_attribute 30, 2
  11              		.eabi_attribute 34, 1
  12              		.eabi_attribute 18, 4
  13              		.thumb
  14              		.file	"st.c"
  15              		.text
  16              	.Ltext0:
  17              		.section	.gnu.lto_.jmpfuncs.8f82324ae22cf613,"",%progbits
  18 0000 789C6362 		.ascii	"x\234cb`b\300\006x\2414+\020322103\26200\000\000\002"
  18      6062C006 
  18      78A1342B 
  18      10333232 
  18      313033B2 
  19 0019 6D0023   		.ascii	"m\000#"
  20              		.text
  21              		.section	.gnu.lto_.inline.8f82324ae22cf613,"",%progbits
  22 0000 789C6362 		.ascii	"x\234cb`b\300\006R\2414+\003\003\013\017#X\021\333\002"
  22      6062C006 
  22      52A1342B 
  22      03030B0F 
  22      235811DB 
  23 0015 79B05A46 		.ascii	"y\260ZF.\020\301\300\306\012\024f\373\240\007\027gb"
  23      2E10C1C0 
  23      C60A1466 
  23      FBA00717 
  23      6762
  24 0027 6061060A 		.ascii	"`a\006\0121]\340\207\0131c\012\261`\0121\000\000\232"
  24      315DE087 
  24      0B31630A 
  24      B1600A31 
  24      00009A
  25 003a 48086D   		.ascii	"H\010m"
  26              		.text
  27              		.section	.gnu.lto_.pureconst.8f82324ae22cf613,"",%progbits
  28 0000 789C6362 		.ascii	"x\234cb`b\340f\200\000V\006\011F)&)f)\026)\000\004\027"
  28      6062E066 
  28      80005606 
  28      09462926 
  28      29662916 
  29 0018 009F     		.ascii	"\000\237"
  30              		.text
  31              		.section	.gnu.lto_stInit.8f82324ae22cf613,"",%progbits
  32 0000 789C6362 		.ascii	"x\234cb`b@\007\222@\\\011\304\312@\314\310\314\300\310"
  32      60624007 
  32      92405C09 
  32      C4CA40CC 
  32      C8CCC0C8 
  33 0014 34E11C03 		.ascii	"4\341\034\003C#\007\023##\210\301\300\310P\317\304X"
ARM GAS  /tmp/ccgfTCLd.s 			page 2


  33      43230713 
  33      232388C1 
  33      C0C850CF 
  33      C458
  34 0026 1FC90856 		.ascii	"\037\311\010V\273\236\351\300\203\377\377\327\375X\373"
  34      BB9EE9C0 
  34      83FFFFD7 
  34      FD58FB
  35 0035 B01EA894 		.ascii	"\260\036\250\224\201\201\225\241\245\241a\202\002\003"
  35      818195A1 
  35      A5A16182 
  35      0203
  36 0043 4332583E 		.ascii	"C2X>\004H\2024\20522\201h\346\363\014\315\017\376\331"
  36      04488234 
  36      85323281 
  36      68E6F30C 
  36      CD0FFED9 
  37 0057 24322E64 		.ascii	"$2.dd\005\312V3\374j\350h\020\310d\004\252\206\030\227"
  37      6405CA56 
  37      33FC6AE8 
  37      6810C864 
  37      04AA8618 
  38 006c 09A22F32 		.ascii	"\011\242/24>\370\317\004S\004\001!@\011\240\001 \307"
  38      343EF8CF 
  38      04530401 
  38      214009A0 
  38      0120C7
  39 007f 2AEA9716 		.ascii	"*\352\227\026\027\351\027\027%\353'gd&e\346\027\353"
  39      17E91717 
  39      25EB2767 
  39      642665E6 
  39      17EB
  40 0091 03514662 		.ascii	"\003QFb\016X\250\270D/\231\001\000\026\200-\347"
  40      0E58A8B8 
  40      442F9901 
  40      0016802D 
  40      E7
  41              		.text
  42              		.section	.gnu.lto_stStartAlarm.8f82324ae22cf613,"",%progbits
  43 0000 789C9D91 		.ascii	"x\234\235\221AK\002A\024\307\337\233\335Uou\355f\322"
  43      414B0241 
  43      14C7DF9B 
  43      DD556F75 
  43      ED66D2
  44 0013 AD72A90E 		.ascii	"\255r\251\016\035\273t\011\364\324\006u\252u\213\034"
  44      1DBB7409 
  44      F4D40675 
  44      AA758B1C 
  45 0023 500CD7BA 		.ascii	"P\014\327\272:+\342Y\244C\330I)\002\221:D \325\301\272"
  45      3A2BE259 
  45      A443D849 
  45      2902913A 
  45      4420D5C1 
  46 0038 955408D1 		.ascii	"\225T\010\321\331\217\340\027\210\355\315\250\204A\004"
  46      D98FE017 
  46      88EDCDA8 
  46      844104
ARM GAS  /tmp/ccgfTCLd.s 			page 3


  47 0047 3D66F7CD 		.ascii	"=f\367\315\374\367\275\337\377\261\303\200\301\317\230"
  47      FCF7BDDF 
  47      FFB1C380 
  47      C1CF98
  48 0056 A2E71901 		.ascii	"\242\347\031\001v(\243\006\310\312\257\000^\210!\312"
  48      7628A306 
  48      C8CAAF00 
  48      5E8821CA 
  49 0066 0D20E419 		.ascii	"\015 \344\031\346\267P\325^\261v\317\367/oK\027M\254"
  49      E6B750D5 
  49      5EB176CF 
  49      F72F6F4B 
  49      174DAC
  50 0079 B220C3B4 		.ascii	"\262 \303\264\322\015(\012Q\016\247\221N\216R,z\313"
  50      D20D280A 
  50      510EA791 
  50      4E8E522C 
  50      7ACB
  51 008b F60D6432 		.ascii	"\366\015d2kOP\010\001D\240&D\245}W\352\240\250\010\257"
  51      6B4F5008 
  51      0144A026 
  51      44A57D57 
  51      EAA0A808 
  52 00a0 EFFB131C 		.ascii	"\357\373\023\034i\244\031\224m\233\310\021\303*1}|\306"
  52      69A41994 
  52      6D9BC811 
  52      C32A317D 
  52      7CC6
  53 00b2 7DC2C00B 		.ascii	"}\302\300\013<v\356?\336\012\301\241\335\310\267\335"
  53      3C76EE3F 
  53      DE0AC1A1 
  53      DDC8B7DD 
  54 00c2 79EF1A36 		.ascii	"y\357\0326\3261B\2256\326\320 \232\232b\036\232\242"
  54      D6314295 
  54      36D6D020 
  54      9A9A621E 
  54      9AA2
  55 00d4 E8F5AE3F 		.ascii	"\350\365\256?\217\3478j\263\320\240\223X\341\250\237"
  55      8FE7386A 
  55      B3D0A093 
  55      58E1A89F 
  56 00e4 42D52B8B 		.ascii	"B\325+\213I\216\206t\013\010\012]\031\007\224]\002\025"
  56      498E8674 
  56      0B080A5D 
  56      1907945D 
  56      0215
  57 00f6 E99C484A 		.ascii	"\351\234HJ\015\016\246\030*\243aZ'\215\007\315\3063"
  57      0D0EA618 
  57      2AA3615A 
  57      278D07CD 
  57      C633
  58 0108 D2BED1DA 		.ascii	"\322\276\321\332\237h\034CkR\224\260\326\277`l\034&"
  58      9F681C43 
  58      6B5294B0 
  58      D6BF606C 
  58      1C26
  59 011a 6FB70B5E 		.ascii	"o\267\013^\277~\243\017~\304(,\262\245{\220\337\247"
ARM GAS  /tmp/ccgfTCLd.s 			page 4


  59      BF7EA30F 
  59      7EC4282C 
  59      B2A57B90 
  59      DFA7
  60 012c CD43376B 		.ascii	"\315C7k\272Y\307t\222<\3013\256I+i\247\224\344\346\242"
  60      BA59C774 
  60      923CC133 
  60      AE492B69 
  60      A794E4E6 
  61 0141 0EE8399E 		.ascii	"\016\3509\236\336[\376\255\354 \223\315\271\346\272"
  61      DE5BFEAD 
  61      EC2093CD 
  61      B9E6BA
  62 0150 155F5A34 		.ascii	"\025_Z4c\261U\323Z\213\037-P\343v*\265\033M\302\027"
  62      63B155D3 
  62      5A8B1F2D 
  62      50E3762A 
  62      B51B4DC2 
  63 0165 EB6491C6 		.ascii	"\353d\221\306"
  64              		.text
  65              		.section	.gnu.lto_stStopAlarm.8f82324ae22cf613,"",%progbits
  66 0000 789C6362 		.ascii	"x\234cb`b@\007\222@|\024\210\243\201\230\221\231\201"
  66      60624007 
  66      92407C14 
  66      88A38198 
  66      919981
  67 0013 9169C239 		.ascii	"\221i\3029\006\206F\016&FF\020\203\201\221\241\236\211"
  67      0686460E 
  67      26464610 
  67      838191A1 
  67      9E89
  68 0025 B13E9211 		.ascii	"\261>\222\021\254v=\323\201\007\377\377\257\373\326"
  68      AC763DD3 
  68      8107FFFF 
  68      AFFBD6
  69 0034 36E70DE3 		.ascii	"6\347\015\343l&\026\240\010+CKC\303\004\005\006\206"
  69      6C2616A0 
  69      082B434B 
  69      43C30405 
  69      0686
  70 0046 64B08A10 		.ascii	"d\260\212\020 \011\322\026\312\310\004\242\231\3172"
  70      2009D216 
  70      CAC804A2 
  70      99CF32
  71 0055 1CDA31E7 		.ascii	"\034\3321\347\362\335G\254pu\020\306\201\323\367\016"
  71      F2DD47AC 
  71      707510C6 
  71      81D3F70E 
  72 0065 B2323024 		.ascii	"\26220$2.dd\005j\005\353\325fX\325\320\322\370`\346"
  72      322E6464 
  72      056A05EB 
  72      D56658D5 
  72      D0D2F860 
  73 007a DBA9F299 		.ascii	"\333\251\362\231\214\014\263\031f5Nh\020\310dd\214`"
  73      8C0CB319 
  73      66354E68 
  73      10C86464 
ARM GAS  /tmp/ccgfTCLd.s 			page 5


  73      8C60
  74 008c CC64646A 		.ascii	"\314ddj\000\002\026\0060\023\354\222$\220\226D\306\305"
  74      00021606 
  74      3013EC92 
  74      24909644 
  74      C6C5
  75 009e 40ED6051 		.ascii	"@\355`Q\260\340E\206\306\017\217\266\263@L\205\201\020"
  75      B0E04586 
  75      C60F8FB6 
  75      B3404C85 
  75      8110
  76 00b0 A0E940A7 		.ascii	"\240\351@\247\200\264)\352\227\026\027\351\027\027%"
  76      80B429EA 
  76      971617E9 
  76      171725
  77 00bf EB276764 		.ascii	"\353'gd&e\346\027\353\003QFb\016X\250\270D/\231\301"
  77      2665E617 
  77      EB035146 
  77      620E58A8 
  77      B8442F99 
  78 00d4 1C978A82 		.ascii	"\034\227\212\202\374\242\222b\375\340\020_c#}\037\037"
  78      FCA29262 
  78      FDE0105F 
  78      63237D1F 
  78      1F
  79 00e5 17FD104F 		.ascii	"\027\375\020O\3372C\240\236\370\234\234\024\275\014"
  79      DF3243A0 
  79      9EF89C9C 
  79      14BD0C
  80 00f4 060080BD 		.ascii	"\006\000\200\275V\374"
  80      56FC
  81              		.text
  82              		.section	.gnu.lto_stSetAlarm.8f82324ae22cf613,"",%progbits
  83 0000 789C7550 		.ascii	"x\234uP=K\003A\020\235\267\271K\322ik\027\203\235\232"
  83      3D4B0341 
  83      109DB7B9 
  83      4BD2696B 
  83      17839D9A 
  84 0014 F3A3B0B4 		.ascii	"\363\243\260\264\261\021\222\312\023\264\322\313)f!"
  84      B11192CA 
  84      13B4D2CB 
  84      296621
  85 0023 21928BB6 		.ascii	"!\222\213\266\331\013\201\264!\205\205b\021A\013\021"
  85      D90B81B4 
  85      21858562 
  85      11410B11 
  86 0033 4553AA10 		.ascii	"ES\252\020\354$(\330X\007\033\033\221\374\203sn\223"
  86      EC2428D8 
  86      58071B1B 
  86      91FC8373 
  86      6E93
  87 0045 140A0EBB 		.ascii	"\024\012\016\273;;\217\231\367\336\256 A\177c\202\367"
  87      3B3B8F99 
  87      F7DEAE20 
  87      417F6382 
  87      F7
  88 0056 1C88B639 		.ascii	"\034\210\2669#B\020\215W\"?.\200\360B\240\212@e\023"
ARM GAS  /tmp/ccgfTCLd.s 			page 6


  88      2342108D 
  88      57223F2E 
  88      80F042A0 
  88      8A406513 
  89 006a BAF74674 		.ascii	"\272\367FtzAp}W\277\370\302\2510\005\012\0327\251\246"
  89      7A41707D 
  89      57BFF8C2 
  89      A930050A 
  89      1A37A9A6 
  90 007e 54235100 		.ascii	"T#Q\000W\256Fl>\303\361u\2100G\236\251\032'JRK\251f"
  90      57AE466C 
  90      3EC3F175 
  90      8830479E 
  90      A91A274A 
  91 0096 A75DEF42 		.ascii	"\247]\357B5\225\337\017\2021\011\2664\205pl\003\022"
  91      3595DF0F 
  91      823109B6 
  91      3485706C 
  91      0312
  92 00a8 48E8248C 		.ascii	"H\350$\214\337\036\367\230\206^\350\251\373\360\376"
  92      DF1EF798 
  92      865EE8A9 
  92      FBF0FE
  93 00b7 598D0DE5 		.ascii	"Y\215\015\345F\272\235\356\367\255\351\340\014I\356"
  93      46BA9DEE 
  93      F7ADE9E0 
  93      0C49EE
  94 00c6 74D082C9 		.ascii	"t\320\202\311l\332\305,]\251\232\337k?\036\315HD\246"
  94      6CDAC52C 
  94      5DA99ADF 
  94      6B3F1ECD 
  94      4844A6
  95 00d9 E9922BB5 		.ascii	"\351\222+\265,a\234\320\261\337P\343\022f\250\026U\034"
  95      2C619CD0 
  95      B1DF50E3 
  95      1266A816 
  95      551C
  96 00eb 86168E6A 		.ascii	"\206\026\216j\271,4\32393i46p1D\264\2317\362\373\037"
  96      B92C34D3 
  96      39336934 
  96      36703144 
  96      B49937F2 
  97 0101 F7C6406E 		.ascii	"\367\306@n\0246\313\362k\303?\236\264\016\274\222\345"
  97      1436CBF2 
  97      6BC33F9E 
  97      B40EBC92 
  97      E5
  98 0112 955CCBCD 		.ascii	"\225\\\313\315\311\254,z\026\257\234\223\327\220WN\271"
  98      C9AC2C7A 
  98      16AF9C93 
  98      D790574E 
  98      B9
  99 0123 64946561 		.ascii	"d\224eaw\351\277\266\375b\251\354Ykvfq\301J\247W,{5"
  99      77E9BFB6 
  99      FD62A9EC 
  99      596B7666 
  99      71C14AA7 
ARM GAS  /tmp/ccgfTCLd.s 			page 7


 100 013b 7338CF83 		.ascii	"s8\317\203[\371\374N*G?\363\221ms"
 100      5BF9FC4E 
 100      2A473FF3 
 100      916D73
 101              		.text
 102              		.section	.gnu.lto_stGetAlarm.8f82324ae22cf613,"",%progbits
 103 0000 789C6362 		.ascii	"x\234cb`b@\007\222@\374\014\210\243\201\230\221\231"
 103      60624007 
 103      9240FC0C 
 103      88A38198 
 103      9199
 104 0012 819169C2 		.ascii	"\201\221i\3029\006\206F\016&FF\020\203\201\221\241\236"
 104      39068646 
 104      0E264646 
 104      10838191 
 104      A19E
 105 0024 89B13E92 		.ascii	"\211\261>\222\021\254v=\323\201\007\377\377\257\373"
 105      11AC763D 
 105      D38107FF 
 105      FFAFFB
 106 0033 D43EEF0D 		.ascii	"\324>\357\015\343|&\026f\206L\2608+CKC\303\004\205\\"
 106      E37C2616 
 106      66864CB0 
 106      382B434B 
 106      43C30485 
 107 0048 1027192C 		.ascii	"\020'\031,\022\002$A\332C\031\231@4\363Y\206Cw\346\\"
 107      12022441 
 107      DA431999 
 107      4034F359 
 107      864377E6 
 108 005d FE6A0455 		.ascii	"\376j\004U\011\323r\340\344?\240\302D\306\205\214\254"
 108      09D372E0 
 108      E43FA0C2 
 108      44C6858C 
 108      AC
 109 006e 408D609D 		.ascii	"@\215`\235\351\214\314\272\014k\032Z\032\037\314\\;"
 109      E98CCCBA 
 109      0C6B1A5A 
 109      1A1FCC5C 
 109      3B
 110 007f 5D2A9391 		.ascii	"]*\223\221Q\233a\025\220\3270\2311\223\221i6\303\254"
 110      519B6115 
 110      90D73099 
 110      31939169 
 110      36C3AC
 111 0092 C6090D02 		.ascii	"\306\011\015\002\231\214\314\021@.K\003\020\2600\200"
 111      998CCC11 
 111      402E4B03 
 111      10B03080 
 112 00a2 9960E725 		.ascii	"\231`\347%\201LHd\\\0144\015,\312\012\361!T\204\201"
 112      814C4864 
 112      5C0C340D 
 112      2CCA0AF1 
 112      21548481 
 113 00b6 E12243E3 		.ascii	"\341\"C\343\207K\373y \366\001-\202H\207\000-\006\272"
 113      874BFB79 
 113      20F6012D 
ARM GAS  /tmp/ccgfTCLd.s 			page 8


 113      82488700 
 113      2D06BA
 114 00c9 1114328A 		.ascii	"\021\0242\212\372\245\305E\372\305E\311\372\311\031"
 114      FAA5C545 
 114      FAC545C9 
 114      FAC919
 115 00d8 994999F9 		.ascii	"\231I\231\371\305\372@\224\221\230\003\026*.\321Kf0"
 115      C5FA4094 
 115      91980316 
 115      2A2ED14B 
 115      6630
 116 00ea C7A5A220 		.ascii	"\307\245\242 \277\250\244X?8\304\327\330H\337\307\307"
 116      BFA8A458 
 116      3F38C4D7 
 116      D848DFC7 
 116      C7
 117 00fb 453FC4D3 		.ascii	"E?\304\323\267\314\020\250'>''E/\203\001\000Z\247\\"
 117      B7CC10A8 
 117      273E2727 
 117      452F8301 
 117      005AA75C 
 118 010f 63       		.ascii	"c"
 119              		.text
 120              		.section	.gnu.lto_.symbol_nodes.8f82324ae22cf613,"",%progbits
 121 0000 789C4DC7 		.ascii	"x\234M\307\271\015\2000\024D\301\375\317\270R\012YK"
 121      B90D8030 
 121      1444C1FD 
 121      CFB8520A 
 121      594B
 122 0012 5C764605 		.ascii	"\\vF\005\224D\015T\202\010@\302\223\015B\243>\314X\332"
 122      94440D54 
 122      820840C2 
 122      930D42A3 
 122      3ECC58DA 
 123 0026 4FC93E6A 		.ascii	"O\311>j\260\340\350\272b\272n8u\255x\370\033\015\347"
 123      B0E0E8BA 
 123      62BA6E38 
 123      75AD78F8 
 123      1B0DE7
 124 0039 B7A54452 		.ascii	"\267\245DR\326t\335\241\007\314\005\035\206"
 124      D674DDA1 
 124      07CC051D 
 124      86
 125              		.text
 126              		.section	.gnu.lto_.refs.8f82324ae22cf613,"",%progbits
 127 0000 789C6362 		.ascii	"x\234cb`b`d\200\002\000\000F\000\006"
 127      60626064 
 127      80020000 
 127      460006
 128              		.text
 129              		.section	.gnu.lto_.decls.8f82324ae22cf613,"",%progbits
 130 0000 789CB558 		.ascii	"x\234\265X}l\024E\024\237\331;\313]{\224\202\212\365"
 130      7D6C1445 
 130      149FD93B 
 130      CB5D7B94 
 130      828AF5
 131 0013 2F0A0163 		.ascii	"/\012\001c\010r\264\010D\377@\360J(\011Er-I\023\377"
ARM GAS  /tmp/ccgfTCLd.s 			page 9


 131      0872B408 
 131      44FF40F0 
 131      4A280945 
 131      722D4913 
 132 0028 5887F6B0 		.ascii	"X\207\366\260\227\\?\322\333j\370o\332\362\245@r\255"
 132      975C3FD2 
 132      DB6AF86F 
 132      DAF2A540 
 132      72AD
 133 003a 602A2294 		.ascii	"`*\"\224\217\002M \220\202\325V[\216R\240\001\005\244"
 133      8F024D20 
 133      9082D556 
 133      5B8E52A0 
 133      0105A4
 134 004d 22816238 		.ascii	"\"\201b8%\244~\304P\203 \020\340|;\273{\267\273\235"
 134      25A47EC4 
 134      50832010 
 134      E07C3BBB 
 134      7BB7BB9D 
 135 0061 2D7B246E 		.ascii	"-{$nx\257s\263\357\375\3467\357\275\335}\203\200\004"
 135      78AF73B3 
 135      EFFDE637 
 135      EFBDDD7D 
 135      838004
 136 0074 B41D2314 		.ascii	"\264\035#\024\207k\312\363\010U\010\010\245!\204\346"
 136      876BCAF3 
 136      08550808 
 136      A52184E6 
 137 0084 A3E425FF 		.ascii	"\243\344%\377\336\005\262\017\244\003\244\023\244\033"
 137      DE05B20F 
 137      A403A413 
 137      A41B
 138 0092 E4041A79 		.ascii	"\344\004\032y\311v\000\201N\202\354V\347\004u\236g/"
 138      C9760081 
 138      4E82EC56 
 138      E704759E 
 138      672F
 139 00a4 63BA40DA 		.ascii	"c\272@\332@2A< } \247@\372A\356\2038A\034 C \227A\006"
 139      4032413C 
 139      207D20A7 
 139      40FA41EE 
 139      8338411C 
 140 00be 544CD9F7 		.ascii	"TL\331\367\201:>\012\362\304\204\335\241\372\365\351"
 140      813A3E0A 
 140      F2C484DD 
 140      A1FAF5E9 
 141 00ce B0B0CE5F 		.ascii	"\260\260\316_\276\357\302#9u\332\344\204UN\202\352\223"
 141      BEEFC223 
 141      3975DAE4 
 141      84554E82 
 141      EA93
 142 00e0 8195F137 		.ascii	"\201\225\3617 \343L\270r\274\322T\314\247a\311\266/"
 142      20E34CB8 
 142      72BCD254 
 142      CCA761C9 
 142      B62F
 143 00f2 6065EE25 		.ascii	"`e\356%\023\316$\264\203\266\304bkw\236\303\264\211"
ARM GAS  /tmp/ccgfTCLd.s 			page 10


 143      13CE24B4 
 143      83B6C462 
 143      6B779EC3 
 143      B489
 144 0104 3E8AC71D 		.ascii	">\212\307\035h\"\332J\341jYG)\226\010\236\377\"*\301"
 144      6822DA4A 
 144      E16A5947 
 144      2996089E 
 144      FF222AC1 
 145 0118 0467BA51 		.ascii	"\004g\272Q\016\033x\334l\001\204\010\336\215'\252\243"
 145      0E1B78DC 
 145      6C018408 
 145      DE8D27AA 
 145      A3
 146 0129 150E054E 		.ascii	"\025\016\005N@S1\232\216\332\300?B\351\257\023G\006"
 146      4053319A 
 146      8EDAC03F 
 146      42E9AF13 
 146      4706
 147 013b 03AE5750 		.ascii	"\003\256WP\253\274\000=@\035\014^\006\330\205'\351M"
 147      ABBC003D 
 147      401D0C5E 
 147      06D88527 
 147      E94D
 148 014d 08DE8305 		.ascii	"\010\336\203\0053\317\330p\264\353\264'R\027\213\307"
 148      33CFD870 
 148      B4EBB427 
 148      52178BC7 
 149 015d 27D927B9 		.ascii	"'\331'\271_%\351`\261@n\264\201\322z\331\261\240\037"
 149      5F25E960 
 149      B1406EB4 
 149      81D27AD9 
 149      B1A01F
 150 0170 92C1F39A 		.ascii	"\222\301\363\232\206\366\002\375\330\345C\003\002\245"
 150      86F602FD 
 150      D8E54303 
 150      02A5
 151 017e 2E82DBB0 		.ascii	".\202\333\260\033|E\014`{\361t\225\220}\234\243\353"
 151      1B7C450C 
 151      607BF174 
 151      95907D9C 
 151      A3EB
 152 0190 F7CE6038 		.ascii	"\367\316`8\007\031\316&\374\254@\203g\373\032q\003l"
 152      0719CE26 
 152      FCAC4083 
 152      67FB1A71 
 152      036C
 153 01a2 98E0C30C 		.ascii	"\230\340\303\014\352\244\011\212\3401nc\024\341\267"
 153      EAA4098A 
 153      E0316E63 
 153      14E1B7
 154 01b1 6620E3B1 		.ascii	"f \343\261\333\352@~B\307\241\377\331<Y\031\2548\316"
 154      DBEA407E 
 154      42C7A1FF 
 154      D93C5919 
 154      AC38CE
 155 01c4 9B084F45 		.ascii	"\233\010OE{(m\212\265\016\375\346\370\214F\235Z\250"
ARM GAS  /tmp/ccgfTCLd.s 			page 11


 155      7B286D8A 
 155      B50EFDE6 
 155      F88C469D 
 155      5AA8
 156 01d6 0799D93E 		.ascii	"\007\231\331>(\011^4\024\253d\035m\246k\263p\242\220"
 156      28095E34 
 156      14AB641D 
 156      6DA66BB3 
 156      70A290
 157 01e9 F6990BA9 		.ascii	"\366\231\013\251\235[H\367\264BR\252X@7M\324\370e\332"
 157      9D5B48F7 
 157      B44252AA 
 157      5840374D 
 157      D4F865DA 
 158 01fd 6146FF8A 		.ascii	"aF\377\212\213\336~&\201\276\237\241\337\346n\234\376"
 158      8BDE7E26 
 158      81BE9FA1 
 158      DFE66E9C 
 158      FE
 159 020e 5B56A0EC 		.ascii	"[V\240\354\206\340c\000Dp\3473\355\271\323\314\252\213"
 159      86E06300 
 159      4470E733 
 159      EDB9D3CC 
 159      AA8B
 160 0220 CBEACE99 		.ascii	"\313\352\316\231\315/\323\226\372h<\376\226\371!\227"
 160      CD2FD396 
 160      FA683CFE 
 160      96F92197 
 161 0230 D1AD1EA0 		.ascii	"\321\255\036\240\036\316S\376\220\037\255z\332~\200"
 161      1ECE53FE 
 161      901FAD7A 
 161      DA7E80
 162 023f BA35B204 		.ascii	"\2725\262\004w[lG\305;\316\241\031\211}~\351v\035nl"
 162      775B6C47 
 162      C53BCEA1 
 162      19897D7E 
 162      E9761D6E 
 163 0254 68E9A7C3 		.ascii	"h\351\247\303r\015i\011\352\026\314K* \275F\220\014"
 163      720D6909 
 163      EA16CC4B 
 163      2A20BD46 
 163      900C
 164 0266 F471F271 		.ascii	"\364q\362qR|\2556v\022gh^\354!l\030\365!$\370\020\236"
 164      527CAD36 
 164      76126768 
 164      5EEC216C 
 164      18F52124 
 165 027d 66ABE8C7 		.ascii	"f\253\350\307\243\210\034\333\034y\375\276d`)\326\340"
 165      A3881CDB 
 165      1C79FDBE 
 165      646029D6 
 165      E0
 166 028e B2D89A7A 		.ascii	"\262\330\232z\263\203\326f\004\237\306\343\223$ibk\036"
 166      B383D666 
 166      049FC6E3 
 166      93246962 
 166      6B1E
ARM GAS  /tmp/ccgfTCLd.s 			page 12


 167 02a0 EB949D51 		.ascii	"\353\224\235Q\212E\233N\014\222\317\242\336\012M@\215"
 167      8A459B4E 
 167      0C92CFA2 
 167      DE0A4D40 
 167      8D
 168 02b1 2A93C4D6 		.ascii	"*\223\304\326i\232\346\363\036J\276\311~\272;\227\275"
 168      699AE6F3 
 168      1E4ABEC9 
 168      7EBA3B97 
 168      BD
 169 02c2 C9FAF104 		.ascii	"\311\372\361\004\310\310\032\2071#O\205\221\027=\007"
 169      C8C81A87 
 169      31234F85 
 169      91173D07 
 170 02d2 AE8A1303 		.ascii	"\256\212\023\003\245\321\307\327<\324\251\314#N\202"
 170      A5D1C7D7 
 170      3CD4A9CC 
 170      234E82
 171 02e1 D56B326A 		.ascii	"\325k2j\241k\032\242\361k\333\241\204{\261\022X\001"
 171      A16B1AA2 
 171      F16BDBA1 
 171      847BB112 
 171      5801
 172 02f3 451805D9 		.ascii	"E\030\005\331\227\027\212\304\366\265Xd\272Mx\221AO"
 172      97178AC4 
 172      F6B55864 
 172      BA4D7891 
 172      414F
 173 0305 8468605B 		.ascii	"\204h`[R\006\3131\2005\351\301\232\355\200\271\254\231"
 173      5206CB31 
 173      8035E9C1 
 173      9AED80B9 
 173      AC99
 174 0317 6DD1837D 		.ascii	"m\321\203}\2212\230\221\331\247z\260\335v\300\262\254"
 174      91329891 
 174      D9A77AB0 
 174      DD76C0B2 
 174      AC
 175 0328 9935EBC1 		.ascii	"\2315\353\301ZS\00632\333\246\007k\263\003\226m\315"
 175      5A530633 
 175      32DBA607 
 175      6BB30396 
 175      6DCD
 176 033a 6CBB1EEC 		.ascii	"l\273\036\354p\312`Ff;\364`_\332\001\313\261fvD\017"
 176      70CA6046 
 176      663BF460 
 176      5FDA01CB 
 176      B1667644 
 177 034f D6953298 		.ascii	"\326\2252\230\221Y\273\036\254\307\016\330\253\326\314"
 177      9159BB1E 
 177      ACC70ED8 
 177      ABD6CC
 178 035e 8EE9C17A 		.ascii	"\216\351\301zS\00632\353\320\203\235\266\0036\313\212"
 178      53063332 
 178      EBD0839D 
 178      B60336CB 
 178      8A
ARM GAS  /tmp/ccgfTCLd.s 			page 13


 179 036f 595DF4EB 		.ascii	"Y]\364\353we\254S\360\362\023\320Y3\226\361-\311\003"
 179      7765AC53 
 179      F0F213D0 
 179      593396F1 
 179      2DC903
 180 0382 3332EBD2 		.ascii	"32\353\3223;o\207\331\002k\260o\365`\003v\300\012\254"
 180      333B6F87 
 180      D9026BB0 
 180      6FF56003 
 180      76C00AAC 
 181 0396 13D0A307 		.ascii	"\023\320\243\007\273\2222\230\221\331E=\330u;`\313\255"
 181      BB923298 
 181      91D9453D 
 181      D8753B60 
 181      CBAD
 182 03a8 995DD283 		.ascii	"\231]\322\203\335H\031L\317\254.\372#dS\375\342\265"
 182      DD48194C 
 182      CFAC2EFA 
 182      236453FD 
 182      E2B5
 183 03ba 2C307D19 		.ascii	",0}\031\027\030_a\006\263\203\226f\004\337M\371\303"
 183      17185F61 
 183      06B38396 
 183      6604DF4D 
 183      F9C3
 184 03cc 78CFE2C3 		.ascii	"x\317\342\303\250?\025%\255`\333\267\314\3336\220P\207"
 184      A83F1525 
 184      AD60DBB7 
 184      CCDB3690 
 184      5087
 185 03de 259C18F2 		.ascii	"%\234\030\362.\375\327\217\340\357X;\361=\236\014\372"
 185      2EFDD78F 
 185      E0EF583B 
 185      F13D9E0C 
 185      FA
 186 03ef 02D33F30 		.ascii	"\002\323?0=\300\364e\246\2570}\225\351A\246\177f\372"
 186      3DC0F465 
 186      A6AF307D 
 186      95E941A6 
 186      7F66FA
 187 0402 06D3BF30 		.ascii	"\006\323\2770}\223\351[L\0171\375;\323\1772\375\027"
 187      7D93E95B 
 187      4C0F31FD 
 187      3BD37F32 
 187      FD17
 188 0414 D3B799FE 		.ascii	"\323\267\231\376\233\351;\240\023\227\251]\352\267\310"
 188      9BE93BA0 
 188      1397A95D 
 188      EAB7C8
 189 0423 AFCCFD7E 		.ascii	"\257\314\375~\262]\222;\265\3500tj\347{qS\003U:\265"
 189      B25D923B 
 189      B5E83074 
 189      6AE77B71 
 189      5303553A 
 190 0438 1697D6ED 		.ascii	"\026\227\326\355\376aj\014\324nw P\240u\370\217\231"
 190      FE616A0C 
 190      D46E7720 
ARM GAS  /tmp/ccgfTCLd.s 			page 14


 190      50A075F8 
 190      8F99
 191 044a C5039BDD 		.ascii	"\305\003\233\335\356U\272<;\321\354>07\273\017\215\015"
 191      EE55BA3C 
 191      3BD1EC3E 
 191      3037BB0F 
 191      8D0D
 192 045c E014B48B 		.ascii	"\340\024\264\213^\274\030\2735\324\2147\304\340\024"
 192      5EBC18BB 
 192      35D48C37 
 192      C4E014
 193 046b FA241EC7 		.ascii	"\372$\036\307Z\253\325\234\251\236\266b\255\321\354"
 193      5AABD59C 
 193      A99EB662 
 193      ADD1EC
 194 047a E6649BE2 		.ascii	"\346d\233\342\322\327\201\322\227\200\203\2200\246\331"
 194      D2D781D2 
 194      97808390 
 194      30A6D9
 195 0489 D97C5B82 		.ascii	"\331|[\202\353\0049\213\365B\262\256\224\2616\212\263"
 195      EB04398B 
 195      F542B2AE 
 195      94B1368A 
 195      B3
 196 049a 437CBD93 		.ascii	"C|\275\223\363\377\002\012\375\321]\325E\313\265E\307"
 196      F3FF020A 
 196      FDD15DD5 
 196      45CBB545 
 196      C7
 197 04ab 32DBE47E 		.ascii	"2\333\344~\024K\276\025\301k\204T\037\220\265\002\377"
 197      144BBE15 
 197      C16B8454 
 197      1F90B502 
 197      FF
 198 04bc 01F11838 		.ascii	"\001\361\0308kV\260\263\365N\323Y\315D\002z4u\357\004"
 198      6B56B0B3 
 198      F54ED359 
 198      CD44027A 
 198      3475EF04 
 199 04d0 A7635DE9 		.ascii	"\247c]\351\\7\225\216\322\345\357p\3329\206m\020L5\360"
 199      5C37958E 
 199      D2E5EF70 
 199      DA39866D 
 199      104C35F0 
 200 04e4 9130E224 		.ascii	"\2210\342$\021\035\216n;\247\034\303vF\263\264\322<"
 200      111D8E6E 
 200      3BA71CC3 
 200      7646B3B4 
 200      D23C
 201 04f6 E2E496E6 		.ascii	"\342\344\226\346\361@\342 \366\210\035\3046\012\317"
 201      F140E220 
 201      F6881DC4 
 201      360ACF
 202 0505 509A1BCD 		.ascii	"P\232\033\315\2646\011\334\322\274\307-M\202i2\225%"
 202      B43609DC 
 202      D2BCC72D 
 202      4D826932 
ARM GAS  /tmp/ccgfTCLd.s 			page 15


 202      9525
 203 0517 DAA219A3 		.ascii	"\332\242\031\243%\334dEpc\312\011o\262Hx\272a#\232\025"
 203      25DC6445 
 203      7063CA09 
 203      6FB24878 
 203      BA61239A 
 204 052c 0CD709A6 		.ascii	"\014\327\011\246\203\252\211\204\200N\360\023\376O\023"
 204      83AA8984 
 204      804EF013 
 204      FE4F13
 205 053b FE449FF0 		.ascii	"\376D\237\360\036\226\220\013\374\204\233O\222[,\362"
 205      1E96900B 
 205      FC849B4F 
 205      925B2CF2 
 206 054b A12EB495 		.ascii	"\241.\264\225\037\350'\272@\023\034\201\340h\374\273"
 206      1FE827BA 
 206      40131C81 
 206      E068FCBB 
 207 055b 47E11F33 		.ascii	"G\341\0373\360G\223\275\265\341\032o\270\246\324[Z\036"
 207      F04793BD 
 207      B5E11A6F 
 207      B8A6D45B 
 207      5A1E
 208 056d 5C19AC0A 		.ascii	"\\\031\254\012{\341_9\011\261\251\2604\263\024\245\205"
 208      7BE15F39 
 208      09B1A9B0 
 208      34B314A5 
 208      85
 209 057e A5259541 		.ascii	"\245%\225A)m\361\262\0259>4\203g_#y\203\225\245\241"
 209      296DF1B2 
 209      15393E34 
 209      83675F23 
 209      798395A5 
 210 0593 DAB200CC 		.ascii	"\332\262\000\314\206W\207\245\325\325\201\360\314r\344"
 210      865787A5 
 210      D5D581F0 
 210      CC72E4
 211 05a2 96C7C18A 		.ascii	"\226\307\301\212\200(Man\232Qe\340\303Pp\245\027\356"
 211      80284D61 
 211      6E9A5165 
 211      E0C35070 
 211      A517EE
 212 05b5 7AC5B054 		.ascii	"z\305\260T\026\254\224\300\330U\013\177g\347\211\322"
 212      16AC94C0 
 212      D8550B7F 
 212      67E789D2 
 213 05c5 6B3CDB0A 		.ascii	"k<\333\012\002\353U\006\274bY`\025\251\015I\242\266"
 213      02EB5506 
 213      BC625960 
 213      15A90D49 
 213      A2B6
 214 05d7 46BA286A 		.ascii	"F\272(j\216\236\260T$\221\032ia\210\324T\214!+\331\332"
 214      8E9EB054 
 214      24911A69 
 214      6188D454 
 214      8C212BD9 
 215 05ec 19F26455 		.ascii	"\031\362dU5\233K\207q@\322\206\213\325\341<\253\020"
ARM GAS  /tmp/ccgfTCLd.s 			page 16


 215      359B4B87 
 215      7140D286 
 215      8BD5E13C 
 215      AB10
 216 05fe 5457D548 		.ascii	"TW\325HaoQq\341\354<\357\322\245\371\336\342%\205\037"
 216      616F5171 
 216      E1EC3CEF 
 216      D2A5F9DE 
 216      E225851F 
 217 0612 E44250C4 		.ascii	"\344BP\304P\250\014V\316PFb\020\242\363f\252\030\025"
 217      50A80C56 
 217      CE504662 
 217      10A2F366 
 217      AA1815
 218 0625 32E16085 		.ascii	"2\341`\205\002\243\376\020%\207\317\237\013\222\347"
 218      02A3FE10 
 218      2587CF9F 
 218      0B92E7
 219 0634 2C2AF4F9 		.ascii	",*\364\371\235\371K\026\371\205\"\277c\321b\377s>_\241"
 219      9DF94B16 
 219      F98522BF 
 219      63D162FF 
 219      733E5FA1 
 220 0648 3F97E93C 		.ascii	"?\227\351<\247\317\267\310\357\360-+v,/\3629\026\372"
 220      A7CFB7C8 
 220      EFF02D2B 
 220      762C2FF2 
 220      3916FA
 221 065b FD0EBF0F 		.ascii	"\375\016\277\017~\203\303\333\371\305~G\276\354Y\270"
 221      7E83C3DB 
 221      F9C57E47 
 221      BEEC59B8 
 222 066b D02FBCA3 		.ascii	"\320/\274\243x\315\006\373\022\377\004\225lX\016\220"
 222      78CD06FB 
 222      12FF0495 
 222      6C580E90 
 223 067b 48E47D3B 		.ascii	"H\344};\345\3608K\313I\215K\024W\325V\226\212\342Xm"
 223      E5F0384B 
 223      CB498D4B 
 223      1457D556 
 223      968AE258 
 224 0690 3073DE9C 		.ascii	"0s\336\2347^\037\237\360\251\252V\\\262\264\231\200"
 224      375E1F9F 
 224      F0A9AA56 
 224      5CB2B499 
 224      80
 225 06a1 8AA17398 		.ascii	"\212\241s\230;+W\273\375>\367\366\234\377\000\325Ry"
 225      3B2B57BB 
 225      FD3EF7F6 
 225      9CFF00D5 
 225      5279
 226 06b3 E8       		.ascii	"\350"
 227              		.text
 228              		.section	.gnu.lto_.symtab.8f82324ae22cf613,"",%progbits
 229 0000 7374496E 		.ascii	"stInit\000\000\000\000\000\000\000\000\000\000\000\000"
 229      69740000 
 229      00000000 
ARM GAS  /tmp/ccgfTCLd.s 			page 17


 229      00000000 
 229      0000
 230 0012 A1000000 		.ascii	"\241\000\000\000stStartAlarm\000\000\000\000\000\000"
 230      73745374 
 230      61727441 
 230      6C61726D 
 230      00000000 
 231 0028 00000000 		.ascii	"\000\000\000\000\000\000\246\000\000\000stStopAlarm"
 231      0000A600 
 231      00007374 
 231      53746F70 
 231      416C6172 
 232 003d 00000000 		.ascii	"\000\000\000\000\000\000\000\000\000\000\000\000\266"
 232      00000000 
 232      00000000 
 232      B6
 233 004a 00000073 		.ascii	"\000\000\000stSetAlarm\000\000\000\000\000\000\000\000"
 233      74536574 
 233      416C6172 
 233      6D000000 
 233      00000000 
 234 005f 00000000 		.ascii	"\000\000\000\000\271\000\000\000stGetAlarm\000\000\000"
 234      B9000000 
 234      73744765 
 234      74416C61 
 234      726D0000 
 235 0074 00000000 		.ascii	"\000\000\000\000\000\000\000\000\000\275\000\000\000"
 235      00000000 
 235      00BD0000 
 235      00
 236 0081 73745F6C 		.ascii	"st_lld_init\000\000\002\000\000\000\000\000\000\000"
 236      6C645F69 
 236      6E697400 
 236      00020000 
 236      00000000 
 237 0096 0000C100 		.ascii	"\000\000\301\000\000\000"
 237      0000
 238              		.text
 239              		.section	.gnu.lto_.opts,"",%progbits
 240 0000 272D6D63 		.ascii	"'-mcpu=cortex-m4' '-mno-thumb-interwork' '-mthumb' "
 240      70753D63 
 240      6F727465 
 240      782D6D34 
 240      2720272D 
 241 0033 272D6767 		.ascii	"'-ggdb' '-O2' '-fomit-frame-pointer' '-falign-funct"
 241      64622720 
 241      272D4F32 
 241      2720272D 
 241      666F6D69 
 242 0066 696F6E73 		.ascii	"ions=16' '-ffunction-sections' '-fdata-sections' '-"
 242      3D313627 
 242      20272D66 
 242      66756E63 
 242      74696F6E 
 243 0099 666E6F2D 		.ascii	"fno-common' '-flto'\000"
 243      636F6D6D 
 243      6F6E2720 
ARM GAS  /tmp/ccgfTCLd.s 			page 18


 243      272D666C 
 243      746F2700 
 244              		.text
 245              		.cfi_sections	.debug_frame
 246              		.section	.text.stInit,"ax",%progbits
 247              		.align	2
 248              		.p2align 4,,15
 249              		.global	stInit
 250              		.thumb
 251              		.thumb_func
 252              		.type	stInit, %function
 253              	stInit:
 254              	.LFB260:
 255              		.file 1 "/usr/src/chibios/os/hal/src/st.c"
 256              		.loc 1 60 0
 257              		.cfi_startproc
 258              		@ args = 0, pretend = 0, frame = 0
 259              		@ frame_needed = 0, uses_anonymous_args = 0
 260              		@ link register save eliminated.
 261              		.loc 1 62 0
 262 0000 FFF7FEBF 		b	st_lld_init
 263              	.LVL0:
 264              		.cfi_endproc
 265              	.LFE260:
 266              		.size	stInit, .-stInit
 267              		.section	.text.stStartAlarm,"ax",%progbits
 268              		.align	2
 269              		.p2align 4,,15
 270              		.global	stStartAlarm
 271              		.thumb
 272              		.thumb_func
 273              		.type	stStartAlarm, %function
 274              	stStartAlarm:
 275              	.LFB261:
 276              		.loc 1 77 0
 277              		.cfi_startproc
 278              		@ args = 0, pretend = 0, frame = 0
 279              		@ frame_needed = 0, uses_anonymous_args = 0
 280              		@ link register save eliminated.
 281              	.LVL1:
 282              	.LBB10:
 283              	.LBB11:
 284              		.file 2 "/usr/src/chibios/os/hal/ports/STM32/LLD/TIMv1/st_lld.h"
 285              		.loc 2 143 0
 286 0000 4FF08043 		mov	r3, #1073741824
 287              	.LVL2:
 288              		.loc 2 144 0
 289 0004 0021     		movs	r1, #0
 290              		.loc 2 145 0
 291 0006 0222     		movs	r2, #2
 292              		.loc 2 143 0
 293 0008 5863     		str	r0, [r3, #52]
 294              		.loc 2 144 0
 295 000a 1961     		str	r1, [r3, #16]
 296              		.loc 2 145 0
 297 000c DA60     		str	r2, [r3, #12]
 298 000e 7047     		bx	lr
ARM GAS  /tmp/ccgfTCLd.s 			page 19


 299              	.LBE11:
 300              	.LBE10:
 301              		.cfi_endproc
 302              	.LFE261:
 303              		.size	stStartAlarm, .-stStartAlarm
 304              		.section	.text.stStopAlarm,"ax",%progbits
 305              		.align	2
 306              		.p2align 4,,15
 307              		.global	stStopAlarm
 308              		.thumb
 309              		.thumb_func
 310              		.type	stStopAlarm, %function
 311              	stStopAlarm:
 312              	.LFB262:
 313              		.loc 1 91 0
 314              		.cfi_startproc
 315              		@ args = 0, pretend = 0, frame = 0
 316              		@ frame_needed = 0, uses_anonymous_args = 0
 317              		@ link register save eliminated.
 318              	.LBB12:
 319              	.LBB13:
 320              		.loc 2 155 0
 321 0000 4FF08043 		mov	r3, #1073741824
 322 0004 0022     		movs	r2, #0
 323 0006 DA60     		str	r2, [r3, #12]
 324 0008 7047     		bx	lr
 325              	.LBE13:
 326              	.LBE12:
 327              		.cfi_endproc
 328              	.LFE262:
 329              		.size	stStopAlarm, .-stStopAlarm
 330 000a 00BF     		.section	.text.stSetAlarm,"ax",%progbits
 331              		.align	2
 332              		.p2align 4,,15
 333              		.global	stSetAlarm
 334              		.thumb
 335              		.thumb_func
 336              		.type	stSetAlarm, %function
 337              	stSetAlarm:
 338              	.LFB263:
 339              		.loc 1 105 0
 340              		.cfi_startproc
 341              		@ args = 0, pretend = 0, frame = 0
 342              		@ frame_needed = 0, uses_anonymous_args = 0
 343              		@ link register save eliminated.
 344              	.LVL3:
 345              	.LBB14:
 346              	.LBB15:
 347              		.loc 2 167 0
 348 0000 4FF08043 		mov	r3, #1073741824
 349              	.LVL4:
 350 0004 5863     		str	r0, [r3, #52]
 351 0006 7047     		bx	lr
 352              	.LBE15:
 353              	.LBE14:
 354              		.cfi_endproc
 355              	.LFE263:
ARM GAS  /tmp/ccgfTCLd.s 			page 20


 356              		.size	stSetAlarm, .-stSetAlarm
 357              		.section	.text.stGetAlarm,"ax",%progbits
 358              		.align	2
 359              		.p2align 4,,15
 360              		.global	stGetAlarm
 361              		.thumb
 362              		.thumb_func
 363              		.type	stGetAlarm, %function
 364              	stGetAlarm:
 365              	.LFB264:
 366              		.loc 1 121 0
 367              		.cfi_startproc
 368              		@ args = 0, pretend = 0, frame = 0
 369              		@ frame_needed = 0, uses_anonymous_args = 0
 370              		@ link register save eliminated.
 371              	.LBB16:
 372              	.LBB17:
 373              		.loc 2 179 0
 374 0000 4FF08043 		mov	r3, #1073741824
 375 0004 586B     		ldr	r0, [r3, #52]
 376              	.LBE17:
 377              	.LBE16:
 378              		.loc 1 126 0
 379 0006 7047     		bx	lr
 380              		.cfi_endproc
 381              	.LFE264:
 382              		.size	stGetAlarm, .-stGetAlarm
 383              		.text
 384              	.Letext0:
 385              		.file 3 "/usr/include/newlib/machine/_default_types.h"
 386              		.file 4 "/usr/include/newlib/sys/_stdint.h"
 387              		.file 5 "/usr/src/chibios/os/rt/ports/ARMCMx/compilers/GCC/chtypes.h"
 388              		.file 6 "/usr/src/chibios/os/rt/include/chsystypes.h"
 389              		.file 7 "/usr/src/chibios/os/rt/include/chschd.h"
 390              		.file 8 "/usr/src/chibios/os/rt/ports/ARMCMx/chcore.h"
 391              		.file 9 "/usr/src/chibios/os/rt/ports/ARMCMx/chcore_v7m.h"
 392              		.file 10 "/usr/src/chibios/os/hal/ports/STM32/LLD/TIMv1/stm32_tim.h"
 393              		.file 11 "/usr/src/chibios/os/rt/include/chtm.h"
 394              		.file 12 "/usr/src/chibios/os/rt/include/chsem.h"
 395              		.file 13 "/usr/src/chibios/os/rt/include/chmtx.h"
 396              		.file 14 "/usr/src/chibios/os/ext/CMSIS/include/core_cm4.h"