ARM GAS  /tmp/ccgfTCLd.s 			page 1


   1              		.syntax unified
   2              		.cpu cortex-m4
   3              		.fpu softvfp
   4              		.eabi_attribute 20, 1
   5              		.eabi_attribute 21, 1
   6              		.eabi_attribute 23, 3
   7              		.eabi_attribute 24, 1
   8              		.eabi_attribute 25, 1
   9              		.eabi_attribute 26, 1
  10              		.eabi_attribute 30, 2
  11              		.eabi_attribute 34, 1
  12              		.eabi_attribute 18, 4
  13              		.thumb
  14              		.file	"st.c"
  15              		.text
  16              	.Ltext0:
  17              		.section	.gnu.lto_.jmpfuncs.8f82324ae22cf613,"",%progbits
  18 0000 789C6362 		.ascii	"x\234cb`b\300\006x\2414+\020322103\26200\000\000\002"
  18      6062C006 
  18      78A1342B 
  18      10333232 
  18      313033B2 
  19 0019 6D0023   		.ascii	"m\000#"
  20              		.text
  21              		.section	.gnu.lto_.inline.8f82324ae22cf613,"",%progbits
  22 0000 789C6362 		.ascii	"x\234cb`b\300\006R\2414+\003\003\013\017#X\021\333\002"
  22      6062C006 
  22      52A1342B 
  22      03030B0F 
  22      235811DB 
  23 0015 79B05A46 		.ascii	"y\260ZF.\020\301\300\306\012\024f\373\240\007\027gb"
  23      2E10C1C0 
  23      C60A1466 
  23      FBA00717 
  23      6762
  24 0027 6061060A 		.ascii	"`a\006\0121]\340\207\0131c\012\261`\0121\000\000\232"
  24      315DE087 
  24      0B31630A 
  24      B1600A31 
  24      00009A
  25 003a 48086D   		.ascii	"H\010m"
  26              		.text
  27              		.section	.gnu.lto_.pureconst.8f82324ae22cf613,"",%progbits
  28 0000 789C6362 		.ascii	"x\234cb`b\340f\200\000V\006\011F)&)f)\026)\000\004\027"
  28      6062E066 
  28      80005606 
  28      09462926 
  28      29662916 
  29 0018 009F     		.ascii	"\000\237"
  30              		.text
  31              		.section	.gnu.lto_stInit.8f82324ae22cf613,"",%progbits
  32 0000 789C6362 		.ascii	"x\234cb`b@\007\222@\\\011\304\312@\314\310\314\300\310"
  32      60624007 
  32      92405C09 
  32      C4CA40CC 
  32      C8CCC0C8 
  33 0014 34E11C03 		.ascii	"4\341\034\003C#\007\023##\210\301\300\310P\317\304X"
ARM GAS  /tmp/ccgfTCLd.s 			page 2


  33      43230713 
  33      232388C1 
  33      C0C850CF 
  33      C458
  34 0026 1FC90856 		.ascii	"\037\311\010V\273\236\351\300\203\377\377\327\375X\373"
  34      BB9EE9C0 
  34      83FFFFD7 
  34      FD58FB
  35 0035 B01EA894 		.ascii	"\260\036\250\224\201\201\225\241\245\241a\202\002\003"
  35      818195A1 
  35      A5A16182 
  35      0203
  36 0043 4332583E 		.ascii	"C2X>\004H\2024\20522\201h\346\363\014\315\017\376\331"
  36      04488234 
  36      85323281 
  36      68E6F30C 
  36      CD0FFED9 
  37 0057 24322E64 		.ascii	"$2.dd\005\312V3\374j\350h\020\310d\004\252\206\030\227"
  37      6405CA56 
  37      33FC6AE8 
  37      6810C864 
  37      04AA8618 
  38 006c 09A22F32 		.ascii	"\011\242/24>\370\317\004S\004\001!@\011\240\001 \307"
  38      343EF8CF 
  38      04530401 
  38      214009A0 
  38      0120C7
  39 007f 2AEA9716 		.ascii	"*\352\227\026\027\351\027\027%\353'gd&e\346\027\353"
  39      17E91717 
  39      25EB2767 
  39      642665E6 
  39      17EB
  40 0091 03514662 		.ascii	"\003QFb\016X\250\270D/\231\001\000\026\200-\347"
  40      0E58A8B8 
  40      442F9901 
  40      0016802D 
  40      E7
  41              		.text
  42              		.section	.gnu.lto_stStartAlarm.8f82324ae22cf613,"",%progbits
  43 0000 789C9D91 		.ascii	"x\234\235\221AK\002A\024\307\337\233\335Uou\355f\322"
  43      414B0241 
  43      14C7DF9B 
  43      DD556F75 
  43      ED66D2
  44 0013 AD72A90E 		.ascii	"\255r\251\016\035\273t\011\364\324\006u\252u\213\034"
  44      1DBB7409 
  44      F4D40675 
  44      AA758B1C 
  45 0023 500CD7BA 		.ascii	"P\014\327\272:+\342Y\244C\330I)\002\221:D \325\301\272"
  45      3A2BE259 
  45      A443D849 
  45      2902913A 
  45      4420D5C1 
  46 0038 955408D1 		.ascii	"\225T\010\321\331\217\340\027\210\355\315\250\204A\004"
  46      D98FE017 
  46      88EDCDA8 
  46      844104
ARM GAS  /tmp/ccgfTCLd.s 			page 3


  47 0047 3D66F7CD 		.ascii	"=f\367\315\374\367\275\337\377\261\303\200\301\317\230"
  47      FCF7BDDF 
  47      FFB1C380 
  47      C1CF98
  48 0056 A2E71901 		.ascii	"\242\347\031\001v(\243\006\310\312\257\000^\210!\312"
  48      7628A306 
  48      C8CAAF00 
  48      5E8821CA 
  49 0066 0D20E419 		.ascii	"\015 \344\031\346\267P\325^\261v\317\367/oK\027M\254"
  49      E6B750D5 
  49      5EB176CF 
  49      F72F6F4B 
  49      174DAC
  50 0079 B220C3B4 		.ascii	"\262 \303\264\322\015(\012Q\016\247\221N\216R,z\313"
  50      D20D280A 
  50      510EA791 
  50      4E8E522C 
  50      7ACB
  51 008b F60D6432 		.ascii	"\366\015d2kOP\010\001D\240&D\245}W\352\240\250\010\257"
  51      6B4F5008 
  51      0144A026 
  51      44A57D57 
  51      EAA0A808 
  52 00a0 EFFB131C 		.ascii	"\357\373\023\034i\244\031\224m\233\310\021\303*1}|\306"
  52      69A41994 
  52      6D9BC811 
  52      C32A317D 
  52      7CC6
  53 00b2 7DC2C00B 		.ascii	"}\302\300\013<v\356?\336\012\301\241\335\310\267\335"
  53      3C76EE3F 
  53      DE0AC1A1 
  53      DDC8B7DD 
  54 00c2 79EF1A36 		.ascii	"y\357\0326\3261B\2256\326\320 \232\232b\036\232\242"
  54      D6314295 
  54      36D6D020 
  54      9A9A621E 
  54      9AA2
  55 00d4 E8F5AE3F 		.ascii	"\350\365\256?\217\3478j\263\320\240\223X\341\250\237"
  55      8FE7386A 
  55      B3D0A093 
  55      58E1A89F 
  56 00e4 42D52B8B 		.ascii	"B\325+\213I\216\206t\013\010\012]\031\007\224]\002\025"
  56      498E8674 
  56      0B080A5D 
  56      1907945D 
  56      0215
  57 00f6 E99C484A 		.ascii	"\351\234HJ\015\016\246\030*\243aZ'\215\007\315\3063"
  57      0D0EA618 
  57      2AA3615A 
  57      278D07CD 
  57      C633
  58 0108 D2BED1DA 		.ascii	"\322\276\321\332\237h\034CkR\224\260\326\277`l\034&"
  58      9F681C43 
  58      6B5294B0 
  58      D6BF606C 
  58      1C26
  59 011a 6FB70B5E 		.ascii	"o\267\013^\277~\243\017~\304(,\262\245{\220\337\247"
ARM GAS  /tmp/ccgfTCLd.s 			page 4


  59      BF7EA30F 
  59      7EC4282C 
  59      B2A57B90 
  59      DFA7
  60 012c CD43376B 		.ascii	"\315C7k\272Y\307t\222<\3013\256I+i\247\224\344\346\242"
  60      BA59C774 
  60      923CC133 
  60      AE492B69 
  60      A794E4E6 
  61 0141 0EE8399E 		.ascii	"\016\3509\236\336[\376\255\354 \223\315\271\346\272"
  61      DE5BFEAD 
  61      EC2093CD 
  61      B9E6BA
  62 0150 155F5A34 		.ascii	"\025_Z4c\261U\323Z\213\037-P\343v*\265\033M\302\027"
  62      63B155D3 
  62      5A8B1F2D 
  62      50E3762A 
  62      B51B4DC2 
  63 0165 EB6491C6 		.ascii	"\353d\221\306"
  64              		.text
  65              		.section	.gnu.lto_stStopAlarm.8f82324ae22cf613,"",%progbits
  66 0000 789C6362 		.ascii	"x\234cb`b@\007\222@|\024\210\243\201\230\221\231\201"
  66      60624007 
  66      92407C14 
  66      88A38198 
  66      919981
  67 0013 9169C239 		.ascii	"\221i\3029\006\206F\016&FF\020\203\201\221\241\236\211"
  67      0686460E 
  67      26464610 
  67      838191A1 
  67      9E89
  68 0025 B13E9211 		.ascii	"\261>\222\021\254v=\323\201\007\377\377\257\373\326"
  68      AC763DD3 
  68      8107FFFF 
  68      AFFBD6
  69 0034 36E70DE3 		.ascii	"6\347\015\343l&\026\240\010+CKC\303\004\005\006\206"
  69      6C2616A0 
  69      082B434B 
  69      43C30405 
  69      0686
  70 0046 64B08A10 		.ascii	"d\260\212\020 \011\322\026\312\310\004\242\231\3172"
  70      2009D216 
  70      CAC804A2 
  70      99CF32
  71 0055 1CDA31E7 		.ascii	"\034\3321\347\362\335G\254pu\020\306\201\323\367\016"
  71      F2DD47AC 
  71      707510C6 
  71      81D3F70E 
  72 0065 B2323024 		.ascii	"\26220$2.dd\005j\005\353\325fX\325\320\322\370`\346"
  72      322E6464 
  72      056A05EB 
  72      D56658D5 
  72      D0D2F860 
  73 007a DBA9F299 		.ascii	"\333\251\362\231\214\014\263\031f5Nh\020\310dd\214`"
  73      8C0CB319 
  73      66354E68 
  73      10C86464 
ARM GAS  /tmp/ccgfTCLd.s 			page 5


  73      8C60
  74 008c CC64646A 		.ascii	"\314ddj\000\002\026\0060\023\354\222$\220\226D\306\305"
  74      00021606 
  74      3013EC92 
  74      24909644 
  74      C6C5
  75 009e 40ED6051 		.ascii	"@\355`Q\260\340E\206\306\017\217\266\263@L\205\201\020"
  75      B0E04586 
  75      C60F8FB6 
  75      B3404C85 
  75      8110
  76 00b0 A0E940A7 		.ascii	"\240\351@\247\200\264)\352\227\026\027\351\027\027%"
  76      80B429EA 
  76      971617E9 
  76      171725
  77 00bf EB276764 		.ascii	"\353'gd&e\346\027\353\003QFb\016X\250\270D/\231\301"
  77      2665E617 
  77      EB035146 
  77      620E58A8 
  77      B8442F99 
  78 00d4 1C978A82 		.ascii	"\034\227\212\202\374\242\222b\375\340\020_c#}\037\037"
  78      FCA29262 
  78      FDE0105F 
  78      63237D1F 
  78      1F
  79 00e5 17FD104F 		.ascii	"\027\375\020O\3372C\240\236\370\234\234\024\275\014"
  79      DF3243A0 
  79      9EF89C9C 
  79      14BD0C
  80 00f4 060080BD 		.ascii	"\006\000\200\275V\374"
  80      56FC
  81              		.text
  82              		.section	.gnu.lto_stSetAlarm.8f82324ae22cf613,"",%progbits
  83 0000 789C7550 		.ascii	"x\234uP=K\003A\020\235\267\271K\322ik\027\203\235\232"
  83      3D4B0341 
  83      109DB7B9 
  83      4BD2696B 
  83      17839D9A 
  84 0014 F3A3B0B4 		.ascii	"\363\243\260\264\261\021\222\312\023\264\322\313)f!"
  84      B11192CA 
  84      13B4D2CB 
  84      296621
  85 0023 21928BB6 		.ascii	"!\222\213\266\331\013\201\264!\205\205b\021A\013\021"
  85      D90B81B4 
  85      21858562 
  85      11410B11 
  86 0033 4553AA10 		.ascii	"ES\252\020\354$(\330X\007\033\033\221\374\203sn\223"
  86      EC2428D8 
  86      58071B1B 
  86      91FC8373 
  86      6E93
  87 0045 140A0EBB 		.ascii	"\024\012\016\273;;\217\231\367\336\256 A\177c\202\367"
  87      3B3B8F99 
  87      F7DEAE20 
  87      417F6382 
  87      F7
  88 0056 1C88B639 		.ascii	"\034\210\2669#B\020\215W\"?.\200\360B\240\212@e\023"
ARM GAS  /tmp/ccgfTCLd.s 			page 6


  88      2342108D 
  88      57223F2E 
  88      80F042A0 
  88      8A406513 
  89 006a BAF74674 		.ascii	"\272\367FtzAp}W\277\370\302\2510\005\012\0327\251\246"
  89      7A41707D 
  89      57BFF8C2 
  89      A930050A 
  89      1A37A9A6 
  90 007e 54235100 		.ascii	"T#Q\000W\256Fl>\303\361u\2100G\236\251\032'JRK\251f"
  90      57AE466C 
  90      3EC3F175 
  90      8830479E 
  90      A91A274A 
  91 0096 A75DEF42 		.ascii	"\247]\357B5\225\337\017\2021\011\2664\205pl\003\022"
  91      3595DF0F 
  91      823109B6 
  91      3485706C 
  91      0312
  92 00a8 48E8248C 		.ascii	"H\350$\214\337\036\367\230\206^\350\251\373\360\376"
  92      DF1EF798 
  92      865EE8A9 
  92      FBF0FE
  93 00b7 598D0DE5 		.ascii	"Y\215\015\345F\272\235\356\367\255\351\340\014I\356"
  93      46BA9DEE 
  93      F7ADE9E0 
  93      0C49EE
  94 00c6 74D082C9 		.ascii	"t\320\202\311l\332\305,]\251\232\337k?\036\315HD\246"
  94      6CDAC52C 
  94      5DA99ADF 
  94      6B3F1ECD 
  94      4844A6
  95 00d9 E9922BB5 		.ascii	"\351\222+\265,a\234\320\261\337P\343\022f\250\026U\034"
  95      2C619CD0 
  95      B1DF50E3 
  95      1266A816 
  95      551C
  96 00eb 86168E6A 		.ascii	"\206\026\216j\271,4\32393i46p1D\264\2317\362\373\037"
  96      B92C34D3 
  96      39336934 
  96      36703144 
  96      B49937F2 
  97 0101 F7C6406E 		.ascii	"\367\306@n\0246\313\362k\303?\236\264\016\274\222\345"
  97      1436CBF2 
  97      6BC33F9E 
  97      B40EBC92 
  97      E5
  98 0112 955CCBCD 		.ascii	"\225\\\313\315\311\254,z\026\257\234\223\327\220WN\271"
  98      C9AC2C7A 
  98      16AF9C93 
  98      D790574E 
  98      B9
  99 0123 64946561 		.ascii	"d\224eaw\351\277\266\375b\251\354Ykvfq\301J\247W,{5"
  99      77E9BFB6 
  99      FD62A9EC 
  99      596B7666 
  99      71C14AA7 
ARM GAS  /tmp/ccgfTCLd.s 			page 7


 100 013b 7338CF83 		.ascii	"s8\317\203[\371\374N*G?\363\221ms"
 100      5BF9FC4E 
 100      2A473FF3 
 100      916D73
 101              		.text
 102              		.section	.gnu.lto_stGetAlarm.8f82324ae22cf613,"",%progbits
 103 0000 789C6362 		.ascii	"x\234cb`b@\007\222@\374\014\210\243\201\230\221\231"
 103      60624007 
 103      9240FC0C 
 103      88A38198 
 103      9199
 104 0012 819169C2 		.ascii	"\201\221i\3029\006\206F\016&FF\020\203\201\221\241\236"
 104      39068646 
 104      0E264646 
 104      10838191 
 104      A19E
 105 0024 89B13E92 		.ascii	"\211\261>\222\021\254v=\323\201\007\377\377\257\373"
 105      11AC763D 
 105      D38107FF 
 105      FFAFFB
 106 0033 D43EEF0D 		.ascii	"\324>\357\015\343|&\026f\206L\2608+CKC\303\004\205\\"
 106      E37C2616 
 106      66864CB0 
 106      382B434B 
 106      43C30485 
 107 0048 1027192C 		.ascii	"\020'\031,\022\002$A\332C\031\231@4\363Y\206Cw\346\\"
 107      12022441 
 107      DA431999 
 107      4034F359 
 107      864377E6 
 108 005d FE6A0455 		.ascii	"\376j\004U\011\323r\340\344?\240\302D\306\205\214\254"
 108      09D372E0 
 108      E43FA0C2 
 108      44C6858C 
 108      AC
 109 006e 408D609D 		.ascii	"@\215`\235\351\214\314\272\014k\032Z\032\037\314\\;"
 109      E98CCCBA 
 109      0C6B1A5A 
 109      1A1FCC5C 
 109      3B
 110 007f 5D2A9391 		.ascii	"]*\223\221Q\233a\025\220\3270\2311\223\221i6\303\254"
 110      519B6115 
 110      90D73099 
 110      31939169 
 110      36C3AC
 111 0092 C6090D02 		.ascii	"\306\011\015\002\231\214\314\021@.K\003\020\2600\200"
 111      998CCC11 
 111      402E4B03 
 111      10B03080 
 112 00a2 9960E725 		.ascii	"\231`\347%\201LHd\\\0144\015,\312\012\361!T\204\201"
 112      814C4864 
 112      5C0C340D 
 112      2CCA0AF1 
 112      21548481 
 113 00b6 E12243E3 		.ascii	"\341\"C\343\207K\373y \366\001-\202H\207\000-\006\272"
 113      874BFB79 
 113      20F6012D 
ARM GAS  /tmp/ccgfTCLd.s 			page 8


 113      82488700 
 113      2D06BA
 114 00c9 1114328A 		.ascii	"\021\0242\212\372\245\305E\372\305E\311\372\311\031"
 114      FAA5C545 
 114      FAC545C9 
 114      FAC919
 115 00d8 994999F9 		.ascii	"\231I\231\371\305\372@\224\221\230\003\026*.\321Kf0"
 115      C5FA4094 
 115      91980316 
 115      2A2ED14B 
 115      6630
 116 00ea C7A5A220 		.ascii	"\307\245\242 \277\250\244X?8\304\327\330H\337\307\307"
 116      BFA8A458 
 116      3F38C4D7 
 116      D848DFC7 
 116      C7
 117 00fb 453FC4D3 		.ascii	"E?\304\323\267\314\020\250'>''E/\203\001\000Z\247\\"
 117      B7CC10A8 
 117      273E2727 
 117      452F8301 
 117      005AA75C 
 118 010f 63       		.ascii	"c"
 119              		.text
 120              		.section	.gnu.lto_.symbol_nodes.8f82324ae22cf613,"",%progbits
 121 0000 789C4DC7 		.ascii	"x\234M\307\271\015\2000\024D\301\375\317\270R\012YK"
 121      B90D8030 
 121      1444C1FD 
 121      CFB8520A 
 121      594B
 122 0012 5C764605 		.ascii	"\\vF\005\224D\015T\202\010@\302\223\015B\243>\314X\332"
 122      94440D54 
 122      820840C2 
 122      930D42A3 
 122      3ECC58DA 
 123 0026 4FC93E6A 		.ascii	"O\311>j\260\340\350\272b\272n8u\255x\370\033\015\347"
 123      B0E0E8BA 
 123      62BA6E38 
 123      75AD78F8 
 123      1B0DE7
 124 0039 B7A54452 		.ascii	"\267\245DR\326t\335\241\007\314\005\035\206"
 124      D674DDA1 
 124      07CC051D 
 124      86
 125              		.text
 126              		.section	.gnu.lto_.refs.8f82324ae22cf613,"",%progbits
 127 0000 789C6362 		.ascii	"x\234cb`b`d\200\002\000\000F\000\006"
 127      60626064 
 127      80020000 
 127      460006
 128              		.text
 129              		.section	.gnu.lto_.decls.8f82324ae22cf613,"",%progbits
 130 0000 789CB558 		.ascii	"x\234\265X}l\024E\024\237\331;\313]{\224\202\212\365"
 130      7D6C1445 
 130      149FD93B 
 130      CB5D7B94 
 130      828AF5
 131 0013 2F0A0163 		.ascii	"/\012\001c\010r\264\010D\377@\360J(\011Er-I\023\377"
ARM GAS  /tmp/ccgfTCLd.s 			page 9


 131      0872B408 
 131      44FF40F0 
 131      4A280945 
 131      722D4913 
 132 0028 5887F6B0 		.ascii	"X\207\366\260\227\\?\322\333j\370o\332\362\245@r\255"
 132      975C3FD2 
 132      DB6AF86F 
 132      DAF2A540 
 132      72AD
 133 003a 602A2294 		.ascii	"`*\"\224\217\002M \220\202\325V[\216R\240\001\005\244"
 133      8F024D20 
 133      9082D556 
 133      5B8E52A0 
 133      0105A4
 134 004d 22816238 		.ascii	"\"\201b8%\244~\304P\203 \020\340|;\273{\267\273\235"
 134      25A47EC4 
 134      50832010 
 134      E07C3BBB 
 134      7BB7BB9D 
 135 0061 2D7B246E 		.ascii	"-{$nx\257s\263\357\375\3467\357\275\335}\203\200\004"
 135      78AF73B3 
 135      EFFDE637 
 135      EFBDDD7D 
 135      838004
 136 0074 B41D2314 		.ascii	"\264\035#\024\207k\312\363\010U\010\010\245!\204\346"
 136      876BCAF3 
 136      08550808 
 136      A52184E6 
 137 0084 A3E425FF 		.ascii	"\243\344%\377\336\005\262\017\244\003\244\023\244\033"
 137      DE05B20F 
 137      A403A413 
 137      A41B
 138 0092 E4041A79 		.ascii	"\344\004\032y\311v\000\201N\202\354V\347\004u\236g/"
 138      C9760081 
 138      4E82EC56 
 138      E704759E 
 138      672F
 139 00a4 63BA40DA 		.ascii	"c\272@\332@2A< } \247@\372A\356\2038A\034 C \227A\006"
 139      4032413C 
 139      207D20A7 
 139      40FA41EE 
 139      8338411C 
 140 00be 544CD9F7 		.ascii	"TL\331\367\201:>\012\362\304\204\335\241\372\365\351"
 140      813A3E0A 
 140      F2C484DD 
 140      A1FAF5E9 
 141 00ce B0B0CE5F 		.ascii	"\260\260\316_\276\357\302#9u\332\344\204UN\202\352\223"
 141      BEEFC223 
 141      3975DAE4 
 141      84554E82 
 141      EA93
 142 00e0 8195F137 		.ascii	"\201\225\3617 \343L\270r\274\322T\314\247a\311\266/"
 142      20E34CB8 
 142      72BCD254 
 142      CCA761C9 
 142      B62F
 143 00f2 6065EE25 		.ascii	"`e\356%\023\316$\264\203\266\304bkw\236\303\264\211"
ARM GAS  /tmp/ccgfTCLd.s 			page 10


 143      13CE24B4 
 143      83B6C462 
 143      6B779EC3 
 143      B489
 144 0104 3E8AC71D 		.ascii	">\212\307\035h\"\332J\341jYG)\226\010\236\377\"*\301"
 144      6822DA4A 
 144      E16A5947 
 144      2996089E 
 144      FF222AC1 
 145 0118 0467BA51 		.ascii	"\004g\272Q\016\033x\334l\001\204\010\336\215'\252\243"
 145      0E1B78DC 
 145      6C018408 
 145      DE8D27AA 
 145      A3
 146 0129 150E054E 		.ascii	"\025\016\005N@S1\232\216\332\300?B\351\257\023G\006"
 146      4053319A 
 146      8EDAC03F 
 146      42E9AF13 
 146      4706
 147 013b 03AE5750 		.ascii	"\003\256WP\253\274\000=@\035\014^\006\330\205'\351M"
 147      ABBC003D 
 147      401D0C5E 
 147      06D88527 
 147      E94D
 148 014d 08DE8305 		.ascii	"\010\336\203\0053\317\330p\264\353\264'R\027\213\307"
 148      33CFD870 
 148      B4EBB427 
 148      52178BC7 
 149 015d 27D927B9 		.ascii	"'\331'\271_%\351`\261@n\264\201\322z\331\261\240\037"
 149      5F25E960 
 149      B1406EB4 
 149      81D27AD9 
 149      B1A01F
 150 0170 92C1F39A 		.ascii	"\222\301\363\232\206\366\002\375\330\345C\003\002\245"
 150      86F602FD 
 150      D8E54303 
 150      02A5
 151 017e 2E82DBB0 		.ascii	".\202\333\260\033|E\014`{\361t\225\220}\234\243\353"
 151      1B7C450C 
 151      607BF174 
 151      95907D9C 
 151      A3EB
 152 0190 F7CE6038 		.ascii	"\367\316`8\007\031\316&\374\254@\203g\373\032q\003l"
 152      0719CE26 
 152      FCAC4083 
 152      67FB1A71 
 152      036C
 153 01a2 98E0C30C 		.ascii	"\230\340\303\014\352\244\011\212\3401nc\024\341\267"
 153      EAA4098A 
 153      E0316E63 
 153      14E1B7
 154 01b1 6620E3B1 		.ascii	"f \343\261\333\352@~B\307\241\377\331<Y\031\2548\316"
 154      DBEA407E 
 154      42C7A1FF 
 154      D93C5919 
 154      AC38CE
 155 01c4 9B084F45 		.ascii	"\233\010OE{(m\212\265\016\375\346\370\214F\235Z\250"
ARM GAS  /tmp/ccgfTCLd.s 			page 11


 155      7B286D8A 
 155      B50EFDE6 
 155      F88C469D 
 155      5AA8
 156 01d6 0799D93E 		.ascii	"\007\231\331>(\011^4\024\253d\035m\246k\263p\242\220"
 156      28095E34 
 156      14AB641D 
 156      6DA66BB3 
 156      70A290
 157 01e9 F6990BA9 		.ascii	"\366\231\013\251\235[H\367\264BR\252X@7M\324\370e\332"
 157      9D5B48F7 
 157      B44252AA 
 157      5840374D 
 157      D4F865DA 
 158 01fd 6146FF8A 		.ascii	"aF\377\212\213\336~&\201\276\237\241\337\346n\234\376"
 158      8BDE7E26 
 158      81BE9FA1 
 158      DFE66E9C 
 158      FE
 159 020e 5B56A0EC 		.ascii	"[V\240\354\206\340c\000Dp\3473\355\271\323\314\252\213"
 159      86E06300 
 159      4470E733 
 159      EDB9D3CC 
 159      AA8B
 160 0220 CBEACE99 		.ascii	"\313\352\316\231\315/\323\226\372h<\376\226\371!\227"
 160      CD2FD396 
 160      FA683CFE 
 160      96F92197 
 161 0230 D1AD1EA0 		.ascii	"\321\255\036\240\036\316S\376\220\037\255z\332~\200"
 161      1ECE53FE 
 161      901FAD7A 
 161      DA7E80
 162 023f BA35B204 		.ascii	"\2725\262\004w[lG\305;\316\241\031\211}~\351v\035nl"
 162      775B6C47 
 162      C53BCEA1 
 162      19897D7E 
 162      E9761D6E 
 163 0254 68E9A7C3 		.ascii	"h\351\247\303r\015i\011\352\026\314K* \275F\220\014"
 163      720D6909 
 163      EA16CC4B 
 163      2A20BD46 
 163      900C
 164 0266 F471F271 		.ascii	"\364q\362qR|\2556v\022gh^\354!l\030\365!$\370\020\236"
 164      527CAD36 
 164      76126768 
 164      5EEC216C 
 164      18F52124 
 165 027d 66ABE8C7 		.ascii	"f\253\350\307\243\210\034\333\034y\375\276d`)\326\340"
 165      A3881CDB 
 165      1C79FDBE 
 165      646029D6 
 165      E0
 166 028e B2D89A7A 		.ascii	"\262\330\232z\263\203\326f\004\237\306\343\223$ibk\036"
 166      B383D666 
 166      049FC6E3 
 166      93246962 
 166      6B1E
ARM GAS  /tmp/ccgfTCLd.s 			page 12


 167 02a0 EB949D51 		.ascii	"\353\224\235Q\212E\233N\014\222\317\242\336\012M@\215"
 167      8A459B4E 
 167      0C92CFA2 
 167      DE0A4D40 
 167      8D
 168 02b1 2A93C4D6 		.ascii	"*\223\304\326i\232\346\363\036J\276\311~\272;\227\275"
 168      699AE6F3 
 168      1E4ABEC9 
 168      7EBA3B97 
 168      BD
 169 02c2 C9FAF104 		.ascii	"\311\372\361\004\310\310\032\2071#O\205\221\027=\007"
 169      C8C81A87 
 169      31234F85 
 169      91173D07 
 170 02d2 AE8A1303 		.ascii	"\256\212\023\003\245\321\307\327<\324\251\314#N\202"
 170      A5D1C7D7 
 170      3CD4A9CC 
 170      234E82
 171 02e1 D56B326A 		.ascii	"\325k2j\241k\032\242\361k\333\241\204{\261\022X\001"
 171      A16B1AA2 
 171      F16BDBA1 
 171      847BB112 
 171      5801
 172 02f3 451805D9 		.ascii	"E\030\005\331\227\027\212\304\366\265Xd\272Mx\221AO"
 172      97178AC4 
 172      F6B55864 
 172      BA4D7891 
 172      414F
 173 0305 8468605B 		.ascii	"\204h`[R\006\3131\2005\351\301\232\355\200\271\254\231"
 173      5206CB31 
 173      8035E9C1 
 173      9AED80B9 
 173      AC99
 174 0317 6DD1837D 		.ascii	"m\321\203}\2212\230\221\331\247z\260\335v\300\262\254"
 174      91329891 
 174      D9A77AB0 
 174      DD76C0B2 
 174      AC
 175 0328 9935EBC1 		.ascii	"\2315\353\301ZS\00632\333\246\007k\263\003\226m\315"
 175      5A530633 
 175      32DBA607 
 175      6BB30396 
 175      6DCD
 176 033a 6CBB1EEC 		.ascii	"l\273\036\354p\312`Ff;\364`_\332\001\313\261fvD\017"
 176      70CA6046 
 176      663BF460 
 176      5FDA01CB 
 176      B1667644 
 177 034f D6953298 		.ascii	"\326\2252\230\221Y\273\036\254\307\016\330\253\326\314"
 177      9159BB1E 
 177      ACC70ED8 
 177      ABD6CC
 178 035e 8EE9C17A 		.ascii	"\216\351\301zS\00632\353\320\203\235\266\0036\313\212"
 178      53063332 
 178      EBD0839D 
 178      B60336CB 
 178      8A
ARM GAS  /tmp/ccgfTCLd.s 			page 13


 179 036f 595DF4EB 		.ascii	"Y]\364\353we\254S\360\362\023\320Y3\226\361-\311\003"
 179      7765AC53 
 179      F0F213D0 
 179      593396F1 
 179      2DC903
 180 0382 3332EBD2 		.ascii	"32\353\3223;o\207\331\002k\260o\365`\003v\300\012\254"
 180      333B6F87 
 180      D9026BB0 
 180      6FF56003 
 180      76C00AAC 
 181 0396 13D0A307 		.ascii	"\023\320\243\007\273\2222\230\221\331E=\330u;`\313\255"
 181      BB923298 
 181      91D9453D 
 181      D8753B60 
 181      CBAD
 182 03a8 995DD283 		.ascii	"\231]\322\203\335H\031L\317\254.\372#dS\375\342\265"
 182      DD48194C 
 182      CFAC2EFA 
 182      236453FD 
 182      E2B5
 183 03ba 2C307D19 		.ascii	",0}\031\027\030_a\006\263\203\226f\004\337M\371\303"
 183      17185F61 
 183      06B38396 
 183      6604DF4D 
 183      F9C3
 184 03cc 78CFE2C3 		.ascii	"x\317\342\303\250?\025%\255`\333\267\314\3336\220P\207"
 184      A83F1525 
 184      AD60DBB7 
 184      CCDB3690 
 184      5087
 185 03de 259C18F2 		.ascii	"%\234\030\362.\375\327\217\340\357X;\361=\236\014\372"
 185      2EFDD78F 
 185      E0EF583B 
 185      F13D9E0C 
 185      FA
 186 03ef 02D33F30 		.ascii	"\002\323?0=\300\364e\246\2570}\225\351A\246\177f\372"
 186      3DC0F465 
 186      A6AF307D 
 186      95E941A6 
 186      7F66FA
 187 0402 06D3BF30 		.ascii	"\006\323\2770}\223\351[L\0171\375;\323\1772\375\027"
 187      7D93E95B 
 187      4C0F31FD 
 187      3BD37F32 
 187      FD17
 188 0414 D3B799FE 		.ascii	"\323\267\231\376\233\351;\240\023\227\251]\352\267\310"
 188      9BE93BA0 
 188      1397A95D 
 188      EAB7C8
 189 0423 AFCCFD7E 		.ascii	"\257\314\375~\262]\222;\265\3500tj\347{qS\003U:\265"
 189      B25D923B 
 189      B5E83074 
 189      6AE77B71 
 189      5303553A 
 190 0438 1697D6ED 		.ascii	"\026\227\326\355\376aj\014\324nw P\240u\370\217\231"
 190      FE616A0C 
 190      D46E7720 
ARM GAS  /tmp/ccgfTCLd.s 			page 14


 190      50A075F8 
 190      8F99
 191 044a C5039BDD 		.ascii	"\305\003\233\335\356U\272<;\321\354>07\273\017\215\015"
 191      EE55BA3C 
 191      3BD1EC3E 
 191      3037BB0F 
 191      8D0D
 192 045c E014B48B 		.ascii	"\340\024\264\213^\274\030\2735\324\2147\304\340\024"
 192      5EBC18BB 
 192      35D48C37 
 192      C4E014
 193 046b FA241EC7 		.ascii	"\372$\036\307Z\253\325\234\251\236\266b\255\321\354"
 193      5AABD59C 
 193      A99EB662 
 193      ADD1EC
 194 047a E6649BE2 		.ascii	"\346d\233\342\322\327\201\322\227\200\203\2200\246\331"
 194      D2D781D2 
 194      97808390 
 194      30A6D9
 195 0489 D97C5B82 		.ascii	"\331|[\202\353\0049\213\365B\262\256\224\2616\212\263"
 195      EB04398B 
 195      F542B2AE 
 195      94B1368A 
 195      B3
 196 049a 437CBD93 		.ascii	"C|\275\223\363\377\002\012\375\321]\325E\313\265E\307"
 196      F3FF020A 
 196      FDD15DD5 
 196      45CBB545 
 196      C7
 197 04ab 32DBE47E 		.ascii	"2\333\344~\024K\276\025\301k\204T\037\220\265\002\377"
 197      144BBE15 
 197      C16B8454 
 197      1F90B502 
 197      FF
 198 04bc 01F11838 		.ascii	"\001\361\0308kV\260\263\365N\323Y\315D\002z4u\357\004"
 198      6B56B0B3 
 198      F54ED359 
 198      CD44027A 
 198      3475EF04 
 199 04d0 A7635DE9 		.ascii	"\247c]\351\\7\225\216\322\345\357p\3329\206m\020L5\360"
 199      5C37958E 
 199      D2E5EF70 
 199      DA39866D 
 199      104C35F0 
 200 04e4 9130E224 		.ascii	"\2210\342$\021\035\216n;\247\034\303vF\263\264\322<"
 200      111D8E6E 
 200      3BA71CC3 
 200      7646B3B4 
 200      D23C
 201 04f6 E2E496E6 		.ascii	"\342\344\226\346\361@\342 \366\210\035\3046\012\317"
 201      F140E220 
 201      F6881DC4 
 201      360ACF
 202 0505 509A1BCD 		.ascii	"P\232\033\315\2646\011\334\322\274\307-M\202i2\225%"
 202      B43609DC 
 202      D2BCC72D 
 202      4D826932 
ARM GAS  /tmp/ccgfTCLd.s 			page 15


 202      9525
 203 0517 DAA219A3 		.ascii	"\332\242\031\243%\334dEpc\312\011o\262Hx\272a#\232\025"
 203      25DC6445 
 203      7063CA09 
 203      6FB24878 
 203      BA61239A 
 204 052c 0CD709A6 		.ascii	"\014\327\011\246\203\252\211\204\200N\360\023\376O\023"
 204      83AA8984 
 204      804EF013 
 204      FE4F13
 205 053b FE449FF0 		.ascii	"\376D\237\360\036\226\220\013\374\204\233O\222[,\362"
 205      1E96900B 
 205      FC849B4F 
 205      925B2CF2 
 206 054b A12EB495 		.ascii	"\241.\264\225\037\350'\272@\023\034\201\340h\374\273"
 206      1FE827BA 
 206      40131C81 
 206      E068FCBB 
 207 055b 47E11F33 		.ascii	"G\341\0373\360G\223\275\265\341\032o\270\246\324[Z\036"
 207      F04793BD 
 207      B5E11A6F 
 207      B8A6D45B 
 207      5A1E
 208 056d 5C19AC0A 		.ascii	"\\\031\254\012{\341_9\011\261\251\2604\263\024\245\205"
 208      7BE15F39 
 208      09B1A9B0 
 208      34B314A5 
 208      85
 209 057e A5259541 		.ascii	"\245%\225A)m\361\262\0259>4\203g_#y\203\225\245\241"
 209      296DF1B2 
 209      15393E34 
 209      83675F23 
 209      798395A5 
 210 0593 DAB200CC 		.ascii	"\332\262\000\314\206W\207\245\325\325\201\360\314r\344"
 210      865787A5 
 210      D5D581F0 
 210      CC72E4
 211 05a2 96C7C18A 		.ascii	"\226\307\301\212\200(Man\232Qe\340\303Pp\245\027\356"
 211      80284D61 
 211      6E9A5165 
 211      E0C35070 
 211      A517EE
 212 05b5 7AC5B054 		.ascii	"z\305\260T\026\254\224\300\330U\013\177g\347\211\322"
 212      16AC94C0 
 212      D8550B7F 
 212      67E789D2 
 213 05c5 6B3CDB0A 		.ascii	"k<\333\012\002\353U\006\274bY`\025\251\015I\242\266"
 213      02EB5506 
 213      BC625960 
 213      15A90D49 
 213      A2B6
 214 05d7 46BA286A 		.ascii	"F\272(j\216\236\260T$\221\032ia\210\324T\214!+\331\332"
 214      8E9EB054 
 214      24911A69 
 214      6188D454 
 214      8C212BD9 
 215 05ec 19F26455 		.ascii	"\031\362dU5\233K\207q@\322\206\213\325\341<\253\020"
ARM GAS  /tmp/ccgfTCLd.s 			page 16


 215      359B4B87 
 215      7140D286 
 215      8BD5E13C 
 215      AB10
 216 05fe 5457D548 		.ascii	"TW\325HaoQq\341\354<\357\322\245\371\336\342%\205\037"
 216      616F5171 
 216      E1EC3CEF 
 216      D2A5F9DE 
 216      E225851F 
 217 0612 E44250C4 		.ascii	"\344BP\304P\250\014V\316PFb\020\242\363f\252\030\025"
 217      50A80C56 
 217      CE504662 
 217      10A2F366 
 217      AA1815
 218 0625 32E16085 		.ascii	"2\341`\205\002\243\376\020%\207\317\237\013\222\347"
 218      02A3FE10 
 218      2587CF9F 
 218      0B92E7
 219 0634 2C2AF4F9 		.ascii	",*\364\371\235\371K\026\371\205\"\277c\321b\377s>_\241"
 219      9DF94B16 
 219      F98522BF 
 219      63D162FF 
 219      733E5FA1 
 220 0648 3F97E93C 		.ascii	"?\227\351<\247\317\267\310\357\360-+v,/\3629\026\372"
 220      A7CFB7C8 
 220      EFF02D2B 
 220      762C2FF2 
 220      3916FA
 221 065b FD0EBF0F 		.ascii	"\375\016\277\017~\203\303\333\371\305~G\276\354Y\270"
 221      7E83C3DB 
 221      F9C57E47 
 221      BEEC59B8 
 222 066b D02FBCA3 		.ascii	"\320/\274\243x\315\006\373\022\377\004\225lX\016\220"
 222      78CD06FB 
 222      12FF0495 
 222      6C580E90 
 223 067b 48E47D3B 		.ascii	"H\344};\345\3608K\313I\215K\024W\325V\226\212\342Xm"
 223      E5F0384B 
 223      CB498D4B 
 223      1457D556 
 223      968AE258 
 224 0690 3073DE9C 		.ascii	"0s\336\2347^\037\237\360\251\252V\\\262\264\231\200"
 224      375E1F9F 
 224      F0A9AA56 
 224      5CB2B499 
 224      80
 225 06a1 8AA17398 		.ascii	"\212\241s\230;+W\273\375>\367\366\234\377\000\325Ry"
 225      3B2B57BB 
 225      FD3EF7F6 
 225      9CFF00D5 
 225      5279
 226 06b3 E8       		.ascii	"\350"
 227              		.text
 228              		.section	.gnu.lto_.symtab.8f82324ae22cf613,"",%progbits
 229 0000 7374496E 		.ascii	"stInit\000\000\000\000\000\000\000\000\000\000\000\000"
 229      69740000 
 229      00000000 
ARM GAS  /tmp/ccgfTCLd.s 			page 17


 229      00000000 
 229      0000
 230 0012 A1000000 		.ascii	"\241\000\000\000stStartAlarm\000\000\000\000\000\000"
 230      73745374 
 230      61727441 
 230      6C61726D 
 230      00000000 
 231 0028 00000000 		.ascii	"\000\000\000\000\000\000\246\000\000\000stStopAlarm"
 231      0000A600 
 231      00007374 
 231      53746F70 
 231      416C6172 
 232 003d 00000000 		.ascii	"\000\000\000\000\000\000\000\000\000\000\000\000\266"
 232      00000000 
 232      00000000 
 232      B6
 233 004a 00000073 		.ascii	"\000\000\000stSetAlarm\000\000\000\000\000\000\000\000"
 233      74536574 
 233      416C6172 
 233      6D000000 
 233      00000000 
 234 005f 00000000 		.ascii	"\000\000\000\000\271\000\000\000stGetAlarm\000\000\000"
 234      B9000000 
 234      73744765 
 234      74416C61 
 234      726D0000 
 235 0074 00000000 		.ascii	"\000\000\000\000\000\000\000\000\000\275\000\000\000"
 235      00000000 
 235      00BD0000 
 235      00
 236 0081 73745F6C 		.ascii	"st_lld_init\000\000\002\000\000\000\000\000\000\000"
 236      6C645F69 
 236      6E697400 
 236      00020000 
 236      00000000 
 237 0096 0000C100 		.ascii	"\000\000\301\000\000\000"
 237      0000
 238              		.text
 239              		.section	.gnu.lto_.opts,"",%progbits
 240 0000 272D6D63 		.ascii	"'-mcpu=cortex-m4' '-mno-thumb-interwork' '-mthumb' "
 240      70753D63 
 240      6F727465 
 240      782D6D34 
 240      2720272D 
 241 0033 272D6767 		.ascii	"'-ggdb' '-O2' '-fomit-frame-pointer' '-falign-funct"
 241      64622720 
 241      272D4F32 
 241      2720272D 
 241      666F6D69 
 242 0066 696F6E73 		.ascii	"ions=16' '-ffunction-sections' '-fdata-sections' '-"
 242      3D313627 
 242      20272D66 
 242      66756E63 
 242      74696F6E 
 243 0099 666E6F2D 		.ascii	"fno-common' '-flto'\000"
 243      636F6D6D 
 243      6F6E2720 
ARM GAS  /tmp/ccgfTCLd.s 			page 18


 243      272D666C 
 243      746F2700 
 244              		.text
 245              		.cfi_sections	.debug_frame
 246              		.section	.text.stInit,"ax",%progbits
 247              		.align	2
 248              		.p2align 4,,15
 249              		.global	stInit
 250              		.thumb
 251              		.thumb_func
 252              		.type	stInit, %function
 253              	stInit:
 254              	.LFB260:
 255              		.file 1 "/usr/src/chibios/os/hal/src/st.c"
 256              		.loc 1 60 0
 257              		.cfi_startproc
 258              		@ args = 0, pretend = 0, frame = 0
 259              		@ frame_needed = 0, uses_anonymous_args = 0
 260              		@ link register save eliminated.
 261              		.loc 1 62 0
 262 0000 FFF7FEBF 		b	st_lld_init
 263              	.LVL0:
 264              		.cfi_endproc
 265              	.LFE260:
 266              		.size	stInit, .-stInit
 267              		.section	.text.stStartAlarm,"ax",%progbits
 268              		.align	2
 269              		.p2align 4,,15
 270              		.global	stStartAlarm
 271              		.thumb
 272              		.thumb_func
 273              		.type	stStartAlarm, %function
 274              	stStartAlarm:
 275              	.LFB261:
 276              		.loc 1 77 0
 277              		.cfi_startproc
 278              		@ args = 0, pretend = 0, frame = 0
 279              		@ frame_needed = 0, uses_anonymous_args = 0
 280              		@ link register save eliminated.
 281              	.LVL1:
 282              	.LBB10:
 283              	.LBB11:
 284              		.file 2 "/usr/src/chibios/os/hal/ports/STM32/LLD/TIMv1/st_lld.h"
 285              		.loc 2 143 0
 286 0000 4FF08043 		mov	r3, #1073741824
 287              	.LVL2:
 288              		.loc 2 144 0
 289 0004 0021     		movs	r1, #0
 290              		.loc 2 145 0
 291 0006 0222     		movs	r2, #2
 292              		.loc 2 143 0
 293 0008 5863     		str	r0, [r3, #52]
 294              		.loc 2 144 0
 295 000a 1961     		str	r1, [r3, #16]
 296              		.loc 2 145 0
 297 000c DA60     		str	r2, [r3, #12]
 298 000e 7047     		bx	lr
ARM GAS  /tmp/ccgfTCLd.s 			page 19


 299              	.LBE11:
 300              	.LBE10:
 301              		.cfi_endproc
 302              	.LFE261:
 303              		.size	stStartAlarm, .-stStartAlarm
 304              		.section	.text.stStopAlarm,"ax",%progbits
 305              		.align	2
 306              		.p2align 4,,15
 307              		.global	stStopAlarm
 308              		.thumb
 309              		.thumb_func
 310              		.type	stStopAlarm, %function
 311              	stStopAlarm:
 312              	.LFB262:
 313              		.loc 1 91 0
 314              		.cfi_startproc
 315              		@ args = 0, pretend = 0, frame = 0
 316              		@ frame_needed = 0, uses_anonymous_args = 0
 317              		@ link register save eliminated.
 318              	.LBB12:
 319              	.LBB13:
 320              		.loc 2 155 0
 321 0000 4FF08043 		mov	r3, #1073741824
 322 0004 0022     		movs	r2, #0
 323 0006 DA60     		str	r2, [r3, #12]
 324 0008 7047     		bx	lr
 325              	.LBE13:
 326              	.LBE12:
 327              		.cfi_endproc
 328              	.LFE262:
 329              		.size	stStopAlarm, .-stStopAlarm
 330 000a 00BF     		.section	.text.stSetAlarm,"ax",%progbits
 331              		.align	2
 332              		.p2align 4,,15
 333              		.global	stSetAlarm
 334              		.thumb
 335              		.thumb_func
 336              		.type	stSetAlarm, %function
 337              	stSetAlarm:
 338              	.LFB263:
 339              		.loc 1 105 0
 340              		.cfi_startproc
 341              		@ args = 0, pretend = 0, frame = 0
 342              		@ frame_needed = 0, uses_anonymous_args = 0
 343              		@ link register save eliminated.
 344              	.LVL3:
 345              	.LBB14:
 346              	.LBB15:
 347              		.loc 2 167 0
 348 0000 4FF08043 		mov	r3, #1073741824
 349              	.LVL4:
 350 0004 5863     		str	r0, [r3, #52]
 351 0006 7047     		bx	lr
 352              	.LBE15:
 353              	.LBE14:
 354              		.cfi_endproc
 355              	.LFE263:
ARM GAS  /tmp/ccgfTCLd.s 			page 20


 356              		.size	stSetAlarm, .-stSetAlarm
 357              		.section	.text.stGetAlarm,"ax",%progbits
 358              		.align	2
 359              		.p2align 4,,15
 360              		.global	stGetAlarm
 361              		.thumb
 362              		.thumb_func
 363              		.type	stGetAlarm, %function
 364              	stGetAlarm:
 365              	.LFB264:
 366              		.loc 1 121 0
 367              		.cfi_startproc
 368              		@ args = 0, pretend = 0, frame = 0
 369              		@ frame_needed = 0, uses_anonymous_args = 0
 370              		@ link register save eliminated.
 371              	.LBB16:
 372              	.LBB17:
 373              		.loc 2 179 0
 374 0000 4FF08043 		mov	r3, #1073741824
 375 0004 586B     		ldr	r0, [r3, #52]
 376              	.LBE17:
 377              	.LBE16:
 378              		.loc 1 126 0
 379 0006 7047     		bx	lr
 380              		.cfi_endproc
 381              	.LFE264:
 382              		.size	stGetAlarm, .-stGetAlarm
 383              		.text
 384              	.Letext0:
 385              		.file 3 "/usr/include/newlib/machine/_default_types.h"
 386              		.file 4 "/usr/include/newlib/sys/_stdint.h"
 387              		.file 5 "/usr/src/chibios/os/rt/ports/ARMCMx/compilers/GCC/chtypes.h"
 388              		.file 6 "/usr/src/chibios/os/rt/include/chsystypes.h"
 389              		.file 7 "/usr/src/chibios/os/rt/include/chschd.h"
 390              		.file 8 "/usr/src/chibios/os/rt/ports/ARMCMx/chcore.h"
 391              		.file 9 "/usr/src/chibios/os/rt/ports/ARMCMx/chcore_v7m.h"
 392              		.file 10 "/usr/src/chibios/os/hal/ports/STM32/LLD/TIMv1/stm32_tim.h"
 393              		.file 11 "/usr/src/chibios/os/rt/include/chtm.h"
 394              		.file 12 "/usr/src/chibios/os/rt/include/chsem.h"
 395              		.file 13 "/usr/src/chibios/os/rt/include/chmtx.h"
 396              		.file 14 "/usr/src/chibios/os/ext/CMSIS/include/core_cm4.h"
 397              		.section	.debug_info,"",%progbits
 398              	.Ldebug_info0:
 399 0000 EF080000 		.4byte	0x8ef
 400 0004 0400     		.2byte	0x4
 401 0006 00000000 		.4byte	.Ldebug_abbrev0
 402 000a 04       		.byte	0x4
 403 000b 01       		.uleb128 0x1
 404 000c 5F020000 		.4byte	.LASF124
 405 0010 01       		.byte	0x1
 406 0011 20020000 		.4byte	.LASF125
 407 0015 00000000 		.4byte	.Ldebug_ranges0+0
 408 0019 00000000 		.4byte	0
 409 001d 00000000 		.4byte	.Ldebug_line0
 410 0021 02       		.uleb128 0x2
 411 0022 04       		.byte	0x4
 412 0023 05       		.byte	0x5
ARM GAS  /tmp/ccgfTCLd.s 			page 21


 413 0024 696E7400 		.ascii	"int\000"
 414 0028 03       		.uleb128 0x3
 415 0029 04       		.byte	0x4
 416 002a 07       		.byte	0x7
 417 002b 97010000 		.4byte	.LASF0
 418 002f 03       		.uleb128 0x3
 419 0030 01       		.byte	0x1
 420 0031 06       		.byte	0x6
 421 0032 D6000000 		.4byte	.LASF1
 422 0036 04       		.uleb128 0x4
 423 0037 28000000 		.4byte	.LASF5
 424 003b 03       		.byte	0x3
 425 003c 1D       		.byte	0x1d
 426 003d 41000000 		.4byte	0x41
 427 0041 03       		.uleb128 0x3
 428 0042 01       		.byte	0x1
 429 0043 08       		.byte	0x8
 430 0044 EB030000 		.4byte	.LASF2
 431 0048 03       		.uleb128 0x3
 432 0049 02       		.byte	0x2
 433 004a 05       		.byte	0x5
 434 004b 03040000 		.4byte	.LASF3
 435 004f 03       		.uleb128 0x3
 436 0050 02       		.byte	0x2
 437 0051 07       		.byte	0x7
 438 0052 46010000 		.4byte	.LASF4
 439 0056 04       		.uleb128 0x4
 440 0057 16020000 		.4byte	.LASF6
 441 005b 03       		.byte	0x3
 442 005c 3F       		.byte	0x3f
 443 005d 61000000 		.4byte	0x61
 444 0061 03       		.uleb128 0x3
 445 0062 04       		.byte	0x4
 446 0063 05       		.byte	0x5
 447 0064 09010000 		.4byte	.LASF7
 448 0068 04       		.uleb128 0x4
 449 0069 09050000 		.4byte	.LASF8
 450 006d 03       		.byte	0x3
 451 006e 41       		.byte	0x41
 452 006f 73000000 		.4byte	0x73
 453 0073 03       		.uleb128 0x3
 454 0074 04       		.byte	0x4
 455 0075 07       		.byte	0x7
 456 0076 A2040000 		.4byte	.LASF9
 457 007a 03       		.uleb128 0x3
 458 007b 08       		.byte	0x8
 459 007c 05       		.byte	0x5
 460 007d 28010000 		.4byte	.LASF10
 461 0081 04       		.uleb128 0x4
 462 0082 9B030000 		.4byte	.LASF11
 463 0086 03       		.byte	0x3
 464 0087 5B       		.byte	0x5b
 465 0088 8C000000 		.4byte	0x8c
 466 008c 03       		.uleb128 0x3
 467 008d 08       		.byte	0x8
 468 008e 07       		.byte	0x7
 469 008f 4D000000 		.4byte	.LASF12
ARM GAS  /tmp/ccgfTCLd.s 			page 22


 470 0093 04       		.uleb128 0x4
 471 0094 2A040000 		.4byte	.LASF13
 472 0098 04       		.byte	0x4
 473 0099 14       		.byte	0x14
 474 009a 36000000 		.4byte	0x36
 475 009e 04       		.uleb128 0x4
 476 009f E3030000 		.4byte	.LASF14
 477 00a3 04       		.byte	0x4
 478 00a4 1F       		.byte	0x1f
 479 00a5 56000000 		.4byte	0x56
 480 00a9 04       		.uleb128 0x4
 481 00aa 71040000 		.4byte	.LASF15
 482 00ae 04       		.byte	0x4
 483 00af 20       		.byte	0x20
 484 00b0 68000000 		.4byte	0x68
 485 00b4 04       		.uleb128 0x4
 486 00b5 1F000000 		.4byte	.LASF16
 487 00b9 04       		.byte	0x4
 488 00ba 26       		.byte	0x26
 489 00bb 81000000 		.4byte	0x81
 490 00bf 05       		.uleb128 0x5
 491 00c0 9E000000 		.4byte	0x9e
 492 00c4 05       		.uleb128 0x5
 493 00c5 A9000000 		.4byte	0xa9
 494 00c9 04       		.uleb128 0x4
 495 00ca 40050000 		.4byte	.LASF17
 496 00ce 05       		.byte	0x5
 497 00cf 45       		.byte	0x45
 498 00d0 A9000000 		.4byte	0xa9
 499 00d4 04       		.uleb128 0x4
 500 00d5 12010000 		.4byte	.LASF18
 501 00d9 05       		.byte	0x5
 502 00da 48       		.byte	0x48
 503 00db 93000000 		.4byte	0x93
 504 00df 04       		.uleb128 0x4
 505 00e0 1A010000 		.4byte	.LASF19
 506 00e4 05       		.byte	0x5
 507 00e5 49       		.byte	0x49
 508 00e6 93000000 		.4byte	0x93
 509 00ea 04       		.uleb128 0x4
 510 00eb A6030000 		.4byte	.LASF20
 511 00ef 05       		.byte	0x5
 512 00f0 4A       		.byte	0x4a
 513 00f1 93000000 		.4byte	0x93
 514 00f5 04       		.uleb128 0x4
 515 00f6 C5030000 		.4byte	.LASF21
 516 00fa 05       		.byte	0x5
 517 00fb 4C       		.byte	0x4c
 518 00fc A9000000 		.4byte	0xa9
 519 0100 04       		.uleb128 0x4
 520 0101 D3010000 		.4byte	.LASF22
 521 0105 05       		.byte	0x5
 522 0106 4D       		.byte	0x4d
 523 0107 9E000000 		.4byte	0x9e
 524 010b 04       		.uleb128 0x4
 525 010c 0A020000 		.4byte	.LASF23
 526 0110 05       		.byte	0x5
ARM GAS  /tmp/ccgfTCLd.s 			page 23


 527 0111 4F       		.byte	0x4f
 528 0112 A9000000 		.4byte	0xa9
 529 0116 04       		.uleb128 0x4
 530 0117 91010000 		.4byte	.LASF24
 531 011b 05       		.byte	0x5
 532 011c 51       		.byte	0x51
 533 011d 9E000000 		.4byte	0x9e
 534 0121 04       		.uleb128 0x4
 535 0122 E8040000 		.4byte	.LASF25
 536 0126 06       		.byte	0x6
 537 0127 33       		.byte	0x33
 538 0128 A9000000 		.4byte	0xa9
 539 012c 04       		.uleb128 0x4
 540 012d CA040000 		.4byte	.LASF26
 541 0131 06       		.byte	0x6
 542 0132 3F       		.byte	0x3f
 543 0133 37010000 		.4byte	0x137
 544 0137 06       		.uleb128 0x6
 545 0138 C9010000 		.4byte	.LASF46
 546 013c 44       		.byte	0x44
 547 013d 07       		.byte	0x7
 548 013e C2       		.byte	0xc2
 549 013f 24020000 		.4byte	0x224
 550 0143 07       		.uleb128 0x7
 551 0144 23040000 		.4byte	.LASF27
 552 0148 07       		.byte	0x7
 553 0149 C3       		.byte	0xc3
 554 014a 2F020000 		.4byte	0x22f
 555 014e 00       		.byte	0
 556 014f 07       		.uleb128 0x7
 557 0150 BE030000 		.4byte	.LASF28
 558 0154 07       		.byte	0x7
 559 0155 C5       		.byte	0xc5
 560 0156 2F020000 		.4byte	0x22f
 561 015a 04       		.byte	0x4
 562 015b 07       		.uleb128 0x7
 563 015c BD000000 		.4byte	.LASF29
 564 0160 07       		.byte	0x7
 565 0161 C7       		.byte	0xc7
 566 0162 F5000000 		.4byte	0xf5
 567 0166 08       		.byte	0x8
 568 0167 07       		.uleb128 0x7
 569 0168 E3050000 		.4byte	.LASF30
 570 016c 07       		.byte	0x7
 571 016d C8       		.byte	0xc8
 572 016e 7F040000 		.4byte	0x47f
 573 0172 0C       		.byte	0xc
 574 0173 07       		.uleb128 0x7
 575 0174 36010000 		.4byte	.LASF31
 576 0178 07       		.byte	0x7
 577 0179 CA       		.byte	0xca
 578 017a 2F020000 		.4byte	0x22f
 579 017e 10       		.byte	0x10
 580 017f 07       		.uleb128 0x7
 581 0180 5E030000 		.4byte	.LASF32
 582 0184 07       		.byte	0x7
 583 0185 CB       		.byte	0xcb
ARM GAS  /tmp/ccgfTCLd.s 			page 24


 584 0186 2F020000 		.4byte	0x22f
 585 018a 14       		.byte	0x14
 586 018b 07       		.uleb128 0x7
 587 018c A4050000 		.4byte	.LASF33
 588 0190 07       		.byte	0x7
 589 0191 D2       		.byte	0xd2
 590 0192 20070000 		.4byte	0x720
 591 0196 18       		.byte	0x18
 592 0197 07       		.uleb128 0x7
 593 0198 0D040000 		.4byte	.LASF34
 594 019c 07       		.byte	0x7
 595 019d DD       		.byte	0xdd
 596 019e DF000000 		.4byte	0xdf
 597 01a2 1C       		.byte	0x1c
 598 01a3 07       		.uleb128 0x7
 599 01a4 C2050000 		.4byte	.LASF35
 600 01a8 07       		.byte	0x7
 601 01a9 E1       		.byte	0xe1
 602 01aa D4000000 		.4byte	0xd4
 603 01ae 1D       		.byte	0x1d
 604 01af 07       		.uleb128 0x7
 605 01b0 7A050000 		.4byte	.LASF36
 606 01b4 07       		.byte	0x7
 607 01b5 E6       		.byte	0xe6
 608 01b6 EA000000 		.4byte	0xea
 609 01ba 1E       		.byte	0x1e
 610 01bb 08       		.uleb128 0x8
 611 01bc 705F7500 		.ascii	"p_u\000"
 612 01c0 07       		.byte	0x7
 613 01c1 3101     		.2byte	0x131
 614 01c3 5B060000 		.4byte	0x65b
 615 01c7 20       		.byte	0x20
 616 01c8 09       		.uleb128 0x9
 617 01c9 15030000 		.4byte	.LASF37
 618 01cd 07       		.byte	0x7
 619 01ce 3601     		.2byte	0x136
 620 01d0 35020000 		.4byte	0x235
 621 01d4 24       		.byte	0x24
 622 01d5 09       		.uleb128 0x9
 623 01d6 B3010000 		.4byte	.LASF38
 624 01da 07       		.byte	0x7
 625 01db 3C01     		.2byte	0x13c
 626 01dd 59020000 		.4byte	0x259
 627 01e1 28       		.byte	0x28
 628 01e2 09       		.uleb128 0x9
 629 01e3 3A050000 		.4byte	.LASF39
 630 01e7 07       		.byte	0x7
 631 01e8 4001     		.2byte	0x140
 632 01ea 00010000 		.4byte	0x100
 633 01ee 30       		.byte	0x30
 634 01ef 09       		.uleb128 0x9
 635 01f0 66040000 		.4byte	.LASF40
 636 01f4 07       		.byte	0x7
 637 01f5 4601     		.2byte	0x146
 638 01f7 0B010000 		.4byte	0x10b
 639 01fb 34       		.byte	0x34
 640 01fc 09       		.uleb128 0x9
ARM GAS  /tmp/ccgfTCLd.s 			page 25


 641 01fd F9030000 		.4byte	.LASF41
 642 0201 07       		.byte	0x7
 643 0202 4D01     		.2byte	0x14d
 644 0204 1A070000 		.4byte	0x71a
 645 0208 38       		.byte	0x38
 646 0209 09       		.uleb128 0x9
 647 020a D9010000 		.4byte	.LASF42
 648 020e 07       		.byte	0x7
 649 020f 5101     		.2byte	0x151
 650 0211 F5000000 		.4byte	0xf5
 651 0215 3C       		.byte	0x3c
 652 0216 09       		.uleb128 0x9
 653 0217 61010000 		.4byte	.LASF43
 654 021b 07       		.byte	0x7
 655 021c 5801     		.2byte	0x158
 656 021e 0C030000 		.4byte	0x30c
 657 0222 40       		.byte	0x40
 658 0223 00       		.byte	0
 659 0224 04       		.uleb128 0x4
 660 0225 28030000 		.4byte	.LASF44
 661 0229 06       		.byte	0x6
 662 022a 44       		.byte	0x44
 663 022b 2F020000 		.4byte	0x22f
 664 022f 0A       		.uleb128 0xa
 665 0230 04       		.byte	0x4
 666 0231 2C010000 		.4byte	0x12c
 667 0235 04       		.uleb128 0x4
 668 0236 AB050000 		.4byte	.LASF45
 669 023a 06       		.byte	0x6
 670 023b 49       		.byte	0x49
 671 023c 40020000 		.4byte	0x240
 672 0240 06       		.uleb128 0x6
 673 0241 92040000 		.4byte	.LASF47
 674 0245 04       		.byte	0x4
 675 0246 07       		.byte	0x7
 676 0247 B0       		.byte	0xb0
 677 0248 59020000 		.4byte	0x259
 678 024c 07       		.uleb128 0x7
 679 024d 23040000 		.4byte	.LASF27
 680 0251 07       		.byte	0x7
 681 0252 B1       		.byte	0xb1
 682 0253 2F020000 		.4byte	0x22f
 683 0257 00       		.byte	0
 684 0258 00       		.byte	0
 685 0259 04       		.uleb128 0x4
 686 025a 61050000 		.4byte	.LASF48
 687 025e 06       		.byte	0x6
 688 025f 50       		.byte	0x50
 689 0260 64020000 		.4byte	0x264
 690 0264 06       		.uleb128 0x6
 691 0265 AC000000 		.4byte	.LASF49
 692 0269 08       		.byte	0x8
 693 026a 07       		.byte	0x7
 694 026b B7       		.byte	0xb7
 695 026c 89020000 		.4byte	0x289
 696 0270 07       		.uleb128 0x7
 697 0271 23040000 		.4byte	.LASF27
ARM GAS  /tmp/ccgfTCLd.s 			page 26


 698 0275 07       		.byte	0x7
 699 0276 B8       		.byte	0xb8
 700 0277 2F020000 		.4byte	0x22f
 701 027b 00       		.byte	0
 702 027c 07       		.uleb128 0x7
 703 027d BE030000 		.4byte	.LASF28
 704 0281 07       		.byte	0x7
 705 0282 B9       		.byte	0xb9
 706 0283 2F020000 		.4byte	0x22f
 707 0287 04       		.byte	0x4
 708 0288 00       		.byte	0
 709 0289 04       		.uleb128 0x4
 710 028a 00000000 		.4byte	.LASF50
 711 028e 06       		.byte	0x6
 712 028f 57       		.byte	0x57
 713 0290 94020000 		.4byte	0x294
 714 0294 0B       		.uleb128 0xb
 715 0295 FC010000 		.4byte	.LASF51
 716 0299 1C       		.byte	0x1c
 717 029a 07       		.byte	0x7
 718 029b 9001     		.2byte	0x190
 719 029d F0020000 		.4byte	0x2f0
 720 02a1 09       		.uleb128 0x9
 721 02a2 81040000 		.4byte	.LASF52
 722 02a6 07       		.byte	0x7
 723 02a7 9101     		.2byte	0x191
 724 02a9 59020000 		.4byte	0x259
 725 02ad 00       		.byte	0
 726 02ae 09       		.uleb128 0x9
 727 02af 15040000 		.4byte	.LASF53
 728 02b3 07       		.byte	0x7
 729 02b4 9201     		.2byte	0x192
 730 02b6 F5000000 		.4byte	0xf5
 731 02ba 08       		.byte	0x8
 732 02bb 09       		.uleb128 0x9
 733 02bc 6D030000 		.4byte	.LASF54
 734 02c0 07       		.byte	0x7
 735 02c1 9401     		.2byte	0x194
 736 02c3 7F040000 		.4byte	0x47f
 737 02c7 0C       		.byte	0xc
 738 02c8 09       		.uleb128 0x9
 739 02c9 59010000 		.4byte	.LASF55
 740 02cd 07       		.byte	0x7
 741 02ce 9701     		.2byte	0x197
 742 02d0 2F020000 		.4byte	0x22f
 743 02d4 10       		.byte	0x10
 744 02d5 09       		.uleb128 0x9
 745 02d6 93030000 		.4byte	.LASF56
 746 02da 07       		.byte	0x7
 747 02db 9801     		.2byte	0x198
 748 02dd 2F020000 		.4byte	0x22f
 749 02e1 14       		.byte	0x14
 750 02e2 09       		.uleb128 0x9
 751 02e3 89030000 		.4byte	.LASF57
 752 02e7 07       		.byte	0x7
 753 02e8 9B01     		.2byte	0x19b
 754 02ea 2F020000 		.4byte	0x22f
ARM GAS  /tmp/ccgfTCLd.s 			page 27


 755 02ee 18       		.byte	0x18
 756 02ef 00       		.byte	0
 757 02f0 04       		.uleb128 0x4
 758 02f1 00050000 		.4byte	.LASF58
 759 02f5 06       		.byte	0x6
 760 02f6 5C       		.byte	0x5c
 761 02f7 FB020000 		.4byte	0x2fb
 762 02fb 0A       		.uleb128 0xa
 763 02fc 04       		.byte	0x4
 764 02fd 01030000 		.4byte	0x301
 765 0301 0C       		.uleb128 0xc
 766 0302 0C030000 		.4byte	0x30c
 767 0306 0D       		.uleb128 0xd
 768 0307 0C030000 		.4byte	0x30c
 769 030b 00       		.byte	0
 770 030c 0E       		.uleb128 0xe
 771 030d 04       		.byte	0x4
 772 030e 04       		.uleb128 0x4
 773 030f AE030000 		.4byte	.LASF59
 774 0313 06       		.byte	0x6
 775 0314 61       		.byte	0x61
 776 0315 19030000 		.4byte	0x319
 777 0319 0B       		.uleb128 0xb
 778 031a 32040000 		.4byte	.LASF60
 779 031e 14       		.byte	0x14
 780 031f 07       		.byte	0x7
 781 0320 6B01     		.2byte	0x16b
 782 0322 68030000 		.4byte	0x368
 783 0326 09       		.uleb128 0x9
 784 0327 A4010000 		.4byte	.LASF61
 785 032b 07       		.byte	0x7
 786 032c 6C01     		.2byte	0x16c
 787 032e 32070000 		.4byte	0x732
 788 0332 00       		.byte	0
 789 0333 09       		.uleb128 0x9
 790 0334 72010000 		.4byte	.LASF62
 791 0338 07       		.byte	0x7
 792 0339 6D01     		.2byte	0x16d
 793 033b 32070000 		.4byte	0x732
 794 033f 04       		.byte	0x4
 795 0340 09       		.uleb128 0x9
 796 0341 89040000 		.4byte	.LASF63
 797 0345 07       		.byte	0x7
 798 0346 6E01     		.2byte	0x16e
 799 0348 21010000 		.4byte	0x121
 800 034c 08       		.byte	0x8
 801 034d 09       		.uleb128 0x9
 802 034e E9050000 		.4byte	.LASF64
 803 0352 07       		.byte	0x7
 804 0353 6F01     		.2byte	0x16f
 805 0355 F0020000 		.4byte	0x2f0
 806 0359 0C       		.byte	0xc
 807 035a 09       		.uleb128 0x9
 808 035b 5A050000 		.4byte	.LASF65
 809 035f 07       		.byte	0x7
 810 0360 7101     		.2byte	0x171
 811 0362 0C030000 		.4byte	0x30c
ARM GAS  /tmp/ccgfTCLd.s 			page 28


 812 0366 10       		.byte	0x10
 813 0367 00       		.byte	0
 814 0368 04       		.uleb128 0x4
 815 0369 78000000 		.4byte	.LASF66
 816 036d 06       		.byte	0x6
 817 036e 66       		.byte	0x66
 818 036f 73030000 		.4byte	0x373
 819 0373 0B       		.uleb128 0xb
 820 0374 3B030000 		.4byte	.LASF67
 821 0378 10       		.byte	0x10
 822 0379 07       		.byte	0x7
 823 037a 7B01     		.2byte	0x17b
 824 037c B5030000 		.4byte	0x3b5
 825 0380 09       		.uleb128 0x9
 826 0381 A4010000 		.4byte	.LASF61
 827 0385 07       		.byte	0x7
 828 0386 7C01     		.2byte	0x17c
 829 0388 32070000 		.4byte	0x732
 830 038c 00       		.byte	0
 831 038d 09       		.uleb128 0x9
 832 038e 72010000 		.4byte	.LASF62
 833 0392 07       		.byte	0x7
 834 0393 7E01     		.2byte	0x17e
 835 0395 32070000 		.4byte	0x732
 836 0399 04       		.byte	0x4
 837 039a 09       		.uleb128 0x9
 838 039b 89040000 		.4byte	.LASF63
 839 039f 07       		.byte	0x7
 840 03a0 8001     		.2byte	0x180
 841 03a2 21010000 		.4byte	0x121
 842 03a6 08       		.byte	0x8
 843 03a7 09       		.uleb128 0x9
 844 03a8 52030000 		.4byte	.LASF68
 845 03ac 07       		.byte	0x7
 846 03ad 8801     		.2byte	0x188
 847 03af 21010000 		.4byte	0x121
 848 03b3 0C       		.byte	0xc
 849 03b4 00       		.byte	0
 850 03b5 04       		.uleb128 0x4
 851 03b6 3E000000 		.4byte	.LASF69
 852 03ba 06       		.byte	0x6
 853 03bb 6B       		.byte	0x6b
 854 03bc C0030000 		.4byte	0x3c0
 855 03c0 0B       		.uleb128 0xb
 856 03c1 CD030000 		.4byte	.LASF70
 857 03c5 04       		.byte	0x4
 858 03c6 07       		.byte	0x7
 859 03c7 A201     		.2byte	0x1a2
 860 03c9 DB030000 		.4byte	0x3db
 861 03cd 09       		.uleb128 0x9
 862 03ce 14050000 		.4byte	.LASF71
 863 03d2 07       		.byte	0x7
 864 03d3 AA01     		.2byte	0x1aa
 865 03d5 38070000 		.4byte	0x738
 866 03d9 00       		.byte	0
 867 03da 00       		.byte	0
 868 03db 04       		.uleb128 0x4
ARM GAS  /tmp/ccgfTCLd.s 			page 29


 869 03dc E4010000 		.4byte	.LASF72
 870 03e0 06       		.byte	0x6
 871 03e1 70       		.byte	0x70
 872 03e2 E6030000 		.4byte	0x3e6
 873 03e6 0F       		.uleb128 0xf
 874 03e7 FF000000 		.4byte	.LASF73
 875 03eb 5001     		.2byte	0x150
 876 03ed 07       		.byte	0x7
 877 03ee C201     		.2byte	0x1c2
 878 03f0 42040000 		.4byte	0x442
 879 03f4 09       		.uleb128 0x9
 880 03f5 81050000 		.4byte	.LASF74
 881 03f9 07       		.byte	0x7
 882 03fa C601     		.2byte	0x1c6
 883 03fc 89020000 		.4byte	0x289
 884 0400 00       		.byte	0
 885 0401 09       		.uleb128 0x9
 886 0402 F8000000 		.4byte	.LASF75
 887 0406 07       		.byte	0x7
 888 0407 CA01     		.2byte	0x1ca
 889 0409 68030000 		.4byte	0x368
 890 040d 1C       		.byte	0x1c
 891 040e 08       		.uleb128 0x8
 892 040f 64626700 		.ascii	"dbg\000"
 893 0413 07       		.byte	0x7
 894 0414 CE01     		.2byte	0x1ce
 895 0416 B5030000 		.4byte	0x3b5
 896 041a 2C       		.byte	0x2c
 897 041b 09       		.uleb128 0x9
 898 041c 6D000000 		.4byte	.LASF76
 899 0420 07       		.byte	0x7
 900 0421 D201     		.2byte	0x1d2
 901 0423 2C010000 		.4byte	0x12c
 902 0427 30       		.byte	0x30
 903 0428 08       		.uleb128 0x8
 904 0429 746D00   		.ascii	"tm\000"
 905 042c 07       		.byte	0x7
 906 042d D701     		.2byte	0x1d7
 907 042f 50060000 		.4byte	0x650
 908 0433 74       		.byte	0x74
 909 0434 09       		.uleb128 0x9
 910 0435 82010000 		.4byte	.LASF77
 911 0439 07       		.byte	0x7
 912 043a E301     		.2byte	0x1e3
 913 043c 3D070000 		.4byte	0x73d
 914 0440 78       		.byte	0x78
 915 0441 00       		.byte	0
 916 0442 03       		.uleb128 0x3
 917 0443 04       		.byte	0x4
 918 0444 07       		.byte	0x7
 919 0445 1F030000 		.4byte	.LASF78
 920 0449 10       		.uleb128 0x10
 921 044a A9000000 		.4byte	0xa9
 922 044e 59040000 		.4byte	0x459
 923 0452 11       		.uleb128 0x11
 924 0453 42040000 		.4byte	0x442
 925 0457 01       		.byte	0x1
ARM GAS  /tmp/ccgfTCLd.s 			page 30


 926 0458 00       		.byte	0
 927 0459 10       		.uleb128 0x10
 928 045a A9000000 		.4byte	0xa9
 929 045e 69040000 		.4byte	0x469
 930 0462 11       		.uleb128 0x11
 931 0463 42040000 		.4byte	0x442
 932 0467 03       		.byte	0x3
 933 0468 00       		.byte	0
 934 0469 04       		.uleb128 0x4
 935 046a 69010000 		.4byte	.LASF79
 936 046e 08       		.byte	0x8
 937 046f 65       		.byte	0x65
 938 0470 0C030000 		.4byte	0x30c
 939 0474 04       		.uleb128 0x4
 940 0475 54020000 		.4byte	.LASF80
 941 0479 08       		.byte	0x8
 942 047a 6D       		.byte	0x6d
 943 047b B4000000 		.4byte	0xb4
 944 047f 06       		.uleb128 0x6
 945 0480 32050000 		.4byte	.LASF81
 946 0484 04       		.byte	0x4
 947 0485 08       		.byte	0x8
 948 0486 89       		.byte	0x89
 949 0487 98040000 		.4byte	0x498
 950 048b 12       		.uleb128 0x12
 951 048c 72313300 		.ascii	"r13\000"
 952 0490 08       		.byte	0x8
 953 0491 8A       		.byte	0x8a
 954 0492 13050000 		.4byte	0x513
 955 0496 00       		.byte	0
 956 0497 00       		.byte	0
 957 0498 06       		.uleb128 0x6
 958 0499 32000000 		.4byte	.LASF82
 959 049d 24       		.byte	0x24
 960 049e 09       		.byte	0x9
 961 049f F4       		.byte	0xf4
 962 04a0 13050000 		.4byte	0x513
 963 04a4 08       		.uleb128 0x8
 964 04a5 723400   		.ascii	"r4\000"
 965 04a8 09       		.byte	0x9
 966 04a9 0701     		.2byte	0x107
 967 04ab 69040000 		.4byte	0x469
 968 04af 00       		.byte	0
 969 04b0 08       		.uleb128 0x8
 970 04b1 723500   		.ascii	"r5\000"
 971 04b4 09       		.byte	0x9
 972 04b5 0801     		.2byte	0x108
 973 04b7 69040000 		.4byte	0x469
 974 04bb 04       		.byte	0x4
 975 04bc 08       		.uleb128 0x8
 976 04bd 723600   		.ascii	"r6\000"
 977 04c0 09       		.byte	0x9
 978 04c1 0901     		.2byte	0x109
 979 04c3 69040000 		.4byte	0x469
 980 04c7 08       		.byte	0x8
 981 04c8 08       		.uleb128 0x8
 982 04c9 723700   		.ascii	"r7\000"
ARM GAS  /tmp/ccgfTCLd.s 			page 31


 983 04cc 09       		.byte	0x9
 984 04cd 0A01     		.2byte	0x10a
 985 04cf 69040000 		.4byte	0x469
 986 04d3 0C       		.byte	0xc
 987 04d4 08       		.uleb128 0x8
 988 04d5 723800   		.ascii	"r8\000"
 989 04d8 09       		.byte	0x9
 990 04d9 0B01     		.2byte	0x10b
 991 04db 69040000 		.4byte	0x469
 992 04df 10       		.byte	0x10
 993 04e0 08       		.uleb128 0x8
 994 04e1 723900   		.ascii	"r9\000"
 995 04e4 09       		.byte	0x9
 996 04e5 0C01     		.2byte	0x10c
 997 04e7 69040000 		.4byte	0x469
 998 04eb 14       		.byte	0x14
 999 04ec 08       		.uleb128 0x8
 1000 04ed 72313000 		.ascii	"r10\000"
 1001 04f1 09       		.byte	0x9
 1002 04f2 0D01     		.2byte	0x10d
 1003 04f4 69040000 		.4byte	0x469
 1004 04f8 18       		.byte	0x18
 1005 04f9 08       		.uleb128 0x8
 1006 04fa 72313100 		.ascii	"r11\000"
 1007 04fe 09       		.byte	0x9
 1008 04ff 0E01     		.2byte	0x10e
 1009 0501 69040000 		.4byte	0x469
 1010 0505 1C       		.byte	0x1c
 1011 0506 08       		.uleb128 0x8
 1012 0507 6C7200   		.ascii	"lr\000"
 1013 050a 09       		.byte	0x9
 1014 050b 0F01     		.2byte	0x10f
 1015 050d 69040000 		.4byte	0x469
 1016 0511 20       		.byte	0x20
 1017 0512 00       		.byte	0
 1018 0513 0A       		.uleb128 0xa
 1019 0514 04       		.byte	0x4
 1020 0515 98040000 		.4byte	0x498
 1021 0519 13       		.uleb128 0x13
 1022 051a 60       		.byte	0x60
 1023 051b 0A       		.byte	0xa
 1024 051c 9E01     		.2byte	0x19e
 1025 051e 25060000 		.4byte	0x625
 1026 0522 08       		.uleb128 0x8
 1027 0523 43523100 		.ascii	"CR1\000"
 1028 0527 0A       		.byte	0xa
 1029 0528 9F01     		.2byte	0x19f
 1030 052a C4000000 		.4byte	0xc4
 1031 052e 00       		.byte	0
 1032 052f 08       		.uleb128 0x8
 1033 0530 43523200 		.ascii	"CR2\000"
 1034 0534 0A       		.byte	0xa
 1035 0535 A001     		.2byte	0x1a0
 1036 0537 C4000000 		.4byte	0xc4
 1037 053b 04       		.byte	0x4
 1038 053c 09       		.uleb128 0x9
 1039 053d C4010000 		.4byte	.LASF83
ARM GAS  /tmp/ccgfTCLd.s 			page 32


 1040 0541 0A       		.byte	0xa
 1041 0542 A101     		.2byte	0x1a1
 1042 0544 C4000000 		.4byte	0xc4
 1043 0548 08       		.byte	0x8
 1044 0549 09       		.uleb128 0x9
 1045 054a 0D000000 		.4byte	.LASF84
 1046 054e 0A       		.byte	0xa
 1047 054f A201     		.2byte	0x1a2
 1048 0551 C4000000 		.4byte	0xc4
 1049 0555 0C       		.byte	0xc
 1050 0556 08       		.uleb128 0x8
 1051 0557 535200   		.ascii	"SR\000"
 1052 055a 0A       		.byte	0xa
 1053 055b A301     		.2byte	0x1a3
 1054 055d C4000000 		.4byte	0xc4
 1055 0561 10       		.byte	0x10
 1056 0562 08       		.uleb128 0x8
 1057 0563 45475200 		.ascii	"EGR\000"
 1058 0567 0A       		.byte	0xa
 1059 0568 A401     		.2byte	0x1a4
 1060 056a C4000000 		.4byte	0xc4
 1061 056e 14       		.byte	0x14
 1062 056f 09       		.uleb128 0x9
 1063 0570 C4000000 		.4byte	.LASF85
 1064 0574 0A       		.byte	0xa
 1065 0575 A501     		.2byte	0x1a5
 1066 0577 C4000000 		.4byte	0xc4
 1067 057b 18       		.byte	0x18
 1068 057c 09       		.uleb128 0x9
 1069 057d CA000000 		.4byte	.LASF86
 1070 0581 0A       		.byte	0xa
 1071 0582 A601     		.2byte	0x1a6
 1072 0584 C4000000 		.4byte	0xc4
 1073 0588 1C       		.byte	0x1c
 1074 0589 09       		.uleb128 0x9
 1075 058a 23010000 		.4byte	.LASF87
 1076 058e 0A       		.byte	0xa
 1077 058f A701     		.2byte	0x1a7
 1078 0591 C4000000 		.4byte	0xc4
 1079 0595 20       		.byte	0x20
 1080 0596 08       		.uleb128 0x8
 1081 0597 434E5400 		.ascii	"CNT\000"
 1082 059b 0A       		.byte	0xa
 1083 059c A801     		.2byte	0x1a8
 1084 059e C4000000 		.4byte	0xc4
 1085 05a2 24       		.byte	0x24
 1086 05a3 08       		.uleb128 0x8
 1087 05a4 50534300 		.ascii	"PSC\000"
 1088 05a8 0A       		.byte	0xa
 1089 05a9 A901     		.2byte	0x1a9
 1090 05ab C4000000 		.4byte	0xc4
 1091 05af 28       		.byte	0x28
 1092 05b0 08       		.uleb128 0x8
 1093 05b1 41525200 		.ascii	"ARR\000"
 1094 05b5 0A       		.byte	0xa
 1095 05b6 AA01     		.2byte	0x1aa
 1096 05b8 C4000000 		.4byte	0xc4
ARM GAS  /tmp/ccgfTCLd.s 			page 33


 1097 05bc 2C       		.byte	0x2c
 1098 05bd 08       		.uleb128 0x8
 1099 05be 52435200 		.ascii	"RCR\000"
 1100 05c2 0A       		.byte	0xa
 1101 05c3 AB01     		.2byte	0x1ab
 1102 05c5 C4000000 		.4byte	0xc4
 1103 05c9 30       		.byte	0x30
 1104 05ca 08       		.uleb128 0x8
 1105 05cb 43435200 		.ascii	"CCR\000"
 1106 05cf 0A       		.byte	0xa
 1107 05d0 AC01     		.2byte	0x1ac
 1108 05d2 25060000 		.4byte	0x625
 1109 05d6 34       		.byte	0x34
 1110 05d7 09       		.uleb128 0x9
 1111 05d8 A7000000 		.4byte	.LASF88
 1112 05dc 0A       		.byte	0xa
 1113 05dd AD01     		.2byte	0x1ad
 1114 05df C4000000 		.4byte	0xc4
 1115 05e3 44       		.byte	0x44
 1116 05e4 08       		.uleb128 0x8
 1117 05e5 44435200 		.ascii	"DCR\000"
 1118 05e9 0A       		.byte	0xa
 1119 05ea AE01     		.2byte	0x1ae
 1120 05ec C4000000 		.4byte	0xc4
 1121 05f0 48       		.byte	0x48
 1122 05f1 09       		.uleb128 0x9
 1123 05f2 C5040000 		.4byte	.LASF89
 1124 05f6 0A       		.byte	0xa
 1125 05f7 AF01     		.2byte	0x1af
 1126 05f9 C4000000 		.4byte	0xc4
 1127 05fd 4C       		.byte	0x4c
 1128 05fe 08       		.uleb128 0x8
 1129 05ff 4F5200   		.ascii	"OR\000"
 1130 0602 0A       		.byte	0xa
 1131 0603 B001     		.2byte	0x1b0
 1132 0605 C4000000 		.4byte	0xc4
 1133 0609 50       		.byte	0x50
 1134 060a 09       		.uleb128 0x9
 1135 060b D0000000 		.4byte	.LASF90
 1136 060f 0A       		.byte	0xa
 1137 0610 B101     		.2byte	0x1b1
 1138 0612 C4000000 		.4byte	0xc4
 1139 0616 54       		.byte	0x54
 1140 0617 09       		.uleb128 0x9
 1141 0618 61040000 		.4byte	.LASF91
 1142 061c 0A       		.byte	0xa
 1143 061d B201     		.2byte	0x1b2
 1144 061f 2A060000 		.4byte	0x62a
 1145 0623 58       		.byte	0x58
 1146 0624 00       		.byte	0
 1147 0625 05       		.uleb128 0x5
 1148 0626 59040000 		.4byte	0x459
 1149 062a 05       		.uleb128 0x5
 1150 062b 49040000 		.4byte	0x449
 1151 062f 14       		.uleb128 0x14
 1152 0630 F0010000 		.4byte	.LASF92
 1153 0634 0A       		.byte	0xa
ARM GAS  /tmp/ccgfTCLd.s 			page 34


 1154 0635 B301     		.2byte	0x1b3
 1155 0637 19050000 		.4byte	0x519
 1156 063b 15       		.uleb128 0x15
 1157 063c 04       		.byte	0x4
 1158 063d 0B       		.byte	0xb
 1159 063e 38       		.byte	0x38
 1160 063f 50060000 		.4byte	0x650
 1161 0643 07       		.uleb128 0x7
 1162 0644 1E050000 		.4byte	.LASF93
 1163 0648 0B       		.byte	0xb
 1164 0649 3C       		.byte	0x3c
 1165 064a C9000000 		.4byte	0xc9
 1166 064e 00       		.byte	0
 1167 064f 00       		.byte	0
 1168 0650 04       		.uleb128 0x4
 1169 0651 73030000 		.4byte	.LASF94
 1170 0655 0B       		.byte	0xb
 1171 0656 3D       		.byte	0x3d
 1172 0657 3B060000 		.4byte	0x63b
 1173 065b 16       		.uleb128 0x16
 1174 065c 04       		.byte	0x4
 1175 065d 07       		.byte	0x7
 1176 065e FA       		.byte	0xfa
 1177 065f B8060000 		.4byte	0x6b8
 1178 0663 17       		.uleb128 0x17
 1179 0664 18000000 		.4byte	.LASF95
 1180 0668 07       		.byte	0x7
 1181 0669 0101     		.2byte	0x101
 1182 066b 00010000 		.4byte	0x100
 1183 066f 17       		.uleb128 0x17
 1184 0670 64000000 		.4byte	.LASF96
 1185 0674 07       		.byte	0x7
 1186 0675 0801     		.2byte	0x108
 1187 0677 00010000 		.4byte	0x100
 1188 067b 17       		.uleb128 0x17
 1189 067c 9D050000 		.4byte	.LASF97
 1190 0680 07       		.byte	0x7
 1191 0681 0F01     		.2byte	0x10f
 1192 0683 0C030000 		.4byte	0x30c
 1193 0687 17       		.uleb128 0x17
 1194 0688 12000000 		.4byte	.LASF98
 1195 068c 07       		.byte	0x7
 1196 068d 1601     		.2byte	0x116
 1197 068f B8060000 		.4byte	0x6b8
 1198 0693 17       		.uleb128 0x17
 1199 0694 AC010000 		.4byte	.LASF99
 1200 0698 07       		.byte	0x7
 1201 0699 1E01     		.2byte	0x11e
 1202 069b E3060000 		.4byte	0x6e3
 1203 069f 17       		.uleb128 0x17
 1204 06a0 7A040000 		.4byte	.LASF100
 1205 06a4 07       		.byte	0x7
 1206 06a5 2701     		.2byte	0x127
 1207 06a7 1A070000 		.4byte	0x71a
 1208 06ab 17       		.uleb128 0x17
 1209 06ac 1C040000 		.4byte	.LASF101
 1210 06b0 07       		.byte	0x7
ARM GAS  /tmp/ccgfTCLd.s 			page 35


 1211 06b1 2F01     		.2byte	0x12f
 1212 06b3 0B010000 		.4byte	0x10b
 1213 06b7 00       		.byte	0
 1214 06b8 0A       		.uleb128 0xa
 1215 06b9 04       		.byte	0x4
 1216 06ba 24020000 		.4byte	0x224
 1217 06be 06       		.uleb128 0x6
 1218 06bf 54040000 		.4byte	.LASF102
 1219 06c3 0C       		.byte	0xc
 1220 06c4 0C       		.byte	0xc
 1221 06c5 34       		.byte	0x34
 1222 06c6 E3060000 		.4byte	0x6e3
 1223 06ca 07       		.uleb128 0x7
 1224 06cb 3E010000 		.4byte	.LASF103
 1225 06cf 0C       		.byte	0xc
 1226 06d0 35       		.byte	0x35
 1227 06d1 59020000 		.4byte	0x259
 1228 06d5 00       		.byte	0
 1229 06d6 07       		.uleb128 0x7
 1230 06d7 BE010000 		.4byte	.LASF104
 1231 06db 0C       		.byte	0xc
 1232 06dc 37       		.byte	0x37
 1233 06dd 16010000 		.4byte	0x116
 1234 06e1 08       		.byte	0x8
 1235 06e2 00       		.byte	0
 1236 06e3 0A       		.uleb128 0xa
 1237 06e4 04       		.byte	0x4
 1238 06e5 BE060000 		.4byte	0x6be
 1239 06e9 06       		.uleb128 0x6
 1240 06ea 71050000 		.4byte	.LASF105
 1241 06ee 10       		.byte	0x10
 1242 06ef 0D       		.byte	0xd
 1243 06f0 39       		.byte	0x39
 1244 06f1 1A070000 		.4byte	0x71a
 1245 06f5 07       		.uleb128 0x7
 1246 06f6 F0000000 		.4byte	.LASF106
 1247 06fa 0D       		.byte	0xd
 1248 06fb 3A       		.byte	0x3a
 1249 06fc 59020000 		.4byte	0x259
 1250 0700 00       		.byte	0
 1251 0701 07       		.uleb128 0x7
 1252 0702 DB050000 		.4byte	.LASF107
 1253 0706 0D       		.byte	0xd
 1254 0707 3C       		.byte	0x3c
 1255 0708 2F020000 		.4byte	0x22f
 1256 070c 08       		.byte	0x8
 1257 070d 07       		.uleb128 0x7
 1258 070e E1040000 		.4byte	.LASF108
 1259 0712 0D       		.byte	0xd
 1260 0713 3E       		.byte	0x3e
 1261 0714 58070000 		.4byte	0x758
 1262 0718 0C       		.byte	0xc
 1263 0719 00       		.byte	0
 1264 071a 0A       		.uleb128 0xa
 1265 071b 04       		.byte	0x4
 1266 071c E9060000 		.4byte	0x6e9
 1267 0720 0A       		.uleb128 0xa
ARM GAS  /tmp/ccgfTCLd.s 			page 36


 1268 0721 04       		.byte	0x4
 1269 0722 26070000 		.4byte	0x726
 1270 0726 18       		.uleb128 0x18
 1271 0727 2B070000 		.4byte	0x72b
 1272 072b 03       		.uleb128 0x3
 1273 072c 01       		.byte	0x1
 1274 072d 08       		.byte	0x8
 1275 072e C0040000 		.4byte	.LASF109
 1276 0732 0A       		.uleb128 0xa
 1277 0733 04       		.byte	0x4
 1278 0734 0E030000 		.4byte	0x30e
 1279 0738 05       		.uleb128 0x5
 1280 0739 20070000 		.4byte	0x720
 1281 073d 10       		.uleb128 0x10
 1282 073e 74040000 		.4byte	0x474
 1283 0742 4D070000 		.4byte	0x74d
 1284 0746 11       		.uleb128 0x11
 1285 0747 42040000 		.4byte	0x442
 1286 074b 1A       		.byte	0x1a
 1287 074c 00       		.byte	0
 1288 074d 04       		.uleb128 0x4
 1289 074e 7A010000 		.4byte	.LASF110
 1290 0752 0D       		.byte	0xd
 1291 0753 34       		.byte	0x34
 1292 0754 E9060000 		.4byte	0x6e9
 1293 0758 0A       		.uleb128 0xa
 1294 0759 04       		.byte	0x4
 1295 075a 4D070000 		.4byte	0x74d
 1296 075e 03       		.uleb128 0x3
 1297 075f 01       		.byte	0x1
 1298 0760 02       		.byte	0x2
 1299 0761 DD030000 		.4byte	.LASF111
 1300 0765 19       		.uleb128 0x19
 1301 0766 41020000 		.4byte	.LASF112
 1302 076a 02       		.byte	0x2
 1303 076b 8D       		.byte	0x8d
 1304 076c 03       		.byte	0x3
 1305 076d 7D070000 		.4byte	0x77d
 1306 0771 1A       		.uleb128 0x1a
 1307 0772 84030000 		.4byte	.LASF114
 1308 0776 02       		.byte	0x2
 1309 0777 8D       		.byte	0x8d
 1310 0778 21010000 		.4byte	0x121
 1311 077c 00       		.byte	0
 1312 077d 1B       		.uleb128 0x1b
 1313 077e 48050000 		.4byte	.LASF126
 1314 0782 02       		.byte	0x2
 1315 0783 99       		.byte	0x99
 1316 0784 03       		.byte	0x3
 1317 0785 19       		.uleb128 0x19
 1318 0786 CA050000 		.4byte	.LASF113
 1319 078a 02       		.byte	0x2
 1320 078b A5       		.byte	0xa5
 1321 078c 03       		.byte	0x3
 1322 078d 9D070000 		.4byte	0x79d
 1323 0791 1A       		.uleb128 0x1a
 1324 0792 84030000 		.4byte	.LASF114
ARM GAS  /tmp/ccgfTCLd.s 			page 37


 1325 0796 02       		.byte	0x2
 1326 0797 A5       		.byte	0xa5
 1327 0798 21010000 		.4byte	0x121
 1328 079c 00       		.byte	0
 1329 079d 1C       		.uleb128 0x1c
 1330 079e 43040000 		.4byte	.LASF127
 1331 07a2 02       		.byte	0x2
 1332 07a3 B1       		.byte	0xb1
 1333 07a4 21010000 		.4byte	0x121
 1334 07a8 03       		.byte	0x3
 1335 07a9 1D       		.uleb128 0x1d
 1336 07aa 66030000 		.4byte	.LASF115
 1337 07ae 01       		.byte	0x1
 1338 07af 3C       		.byte	0x3c
 1339 07b0 00000000 		.4byte	.LFB260
 1340 07b4 04000000 		.4byte	.LFE260-.LFB260
 1341 07b8 01       		.uleb128 0x1
 1342 07b9 9C       		.byte	0x9c
 1343 07ba C8070000 		.4byte	0x7c8
 1344 07be 1E       		.uleb128 0x1e
 1345 07bf 04000000 		.4byte	.LVL0
 1346 07c3 EB080000 		.4byte	0x8eb
 1347 07c7 00       		.byte	0
 1348 07c8 1D       		.uleb128 0x1d
 1349 07c9 25050000 		.4byte	.LASF116
 1350 07cd 01       		.byte	0x1
 1351 07ce 4D       		.byte	0x4d
 1352 07cf 00000000 		.4byte	.LFB261
 1353 07d3 10000000 		.4byte	.LFE261-.LFB261
 1354 07d7 01       		.uleb128 0x1
 1355 07d8 9C       		.byte	0x9c
 1356 07d9 0B080000 		.4byte	0x80b
 1357 07dd 1F       		.uleb128 0x1f
 1358 07de BA050000 		.4byte	.LASF119
 1359 07e2 01       		.byte	0x1
 1360 07e3 4D       		.byte	0x4d
 1361 07e4 21010000 		.4byte	0x121
 1362 07e8 01       		.uleb128 0x1
 1363 07e9 50       		.byte	0x50
 1364 07ea 20       		.uleb128 0x20
 1365 07eb E2000000 		.4byte	.LASF120
 1366 07ef 1B080000 		.4byte	0x81b
 1367 07f3 21       		.uleb128 0x21
 1368 07f4 65070000 		.4byte	0x765
 1369 07f8 00000000 		.4byte	.LBB10
 1370 07fc 10000000 		.4byte	.LBE10-.LBB10
 1371 0800 01       		.byte	0x1
 1372 0801 51       		.byte	0x51
 1373 0802 22       		.uleb128 0x22
 1374 0803 71070000 		.4byte	0x771
 1375 0807 01       		.uleb128 0x1
 1376 0808 50       		.byte	0x50
 1377 0809 00       		.byte	0
 1378 080a 00       		.byte	0
 1379 080b 10       		.uleb128 0x10
 1380 080c 2B070000 		.4byte	0x72b
 1381 0810 1B080000 		.4byte	0x81b
ARM GAS  /tmp/ccgfTCLd.s 			page 38


 1382 0814 11       		.uleb128 0x11
 1383 0815 42040000 		.4byte	0x442
 1384 0819 0C       		.byte	0xc
 1385 081a 00       		.byte	0
 1386 081b 18       		.uleb128 0x18
 1387 081c 0B080000 		.4byte	0x80b
 1388 0820 1D       		.uleb128 0x1d
 1389 0821 B4040000 		.4byte	.LASF117
 1390 0825 01       		.byte	0x1
 1391 0826 5B       		.byte	0x5b
 1392 0827 00000000 		.4byte	.LFB262
 1393 082b 0A000000 		.4byte	.LFE262-.LFB262
 1394 082f 01       		.uleb128 0x1
 1395 0830 9C       		.byte	0x9c
 1396 0831 45080000 		.4byte	0x845
 1397 0835 23       		.uleb128 0x23
 1398 0836 7D070000 		.4byte	0x77d
 1399 083a 00000000 		.4byte	.LBB12
 1400 083e 0A000000 		.4byte	.LBE12-.LBB12
 1401 0842 01       		.byte	0x1
 1402 0843 5D       		.byte	0x5d
 1403 0844 00       		.byte	0
 1404 0845 1D       		.uleb128 0x1d
 1405 0846 87050000 		.4byte	.LASF118
 1406 084a 01       		.byte	0x1
 1407 084b 69       		.byte	0x69
 1408 084c 00000000 		.4byte	.LFB263
 1409 0850 08000000 		.4byte	.LFE263-.LFB263
 1410 0854 01       		.uleb128 0x1
 1411 0855 9C       		.byte	0x9c
 1412 0856 88080000 		.4byte	0x888
 1413 085a 1F       		.uleb128 0x1f
 1414 085b BA050000 		.4byte	.LASF119
 1415 085f 01       		.byte	0x1
 1416 0860 69       		.byte	0x69
 1417 0861 21010000 		.4byte	0x121
 1418 0865 01       		.uleb128 0x1
 1419 0866 50       		.byte	0x50
 1420 0867 20       		.uleb128 0x20
 1421 0868 D3040000 		.4byte	.LASF121
 1422 086c 98080000 		.4byte	0x898
 1423 0870 21       		.uleb128 0x21
 1424 0871 85070000 		.4byte	0x785
 1425 0875 00000000 		.4byte	.LBB14
 1426 0879 08000000 		.4byte	.LBE14-.LBB14
 1427 087d 01       		.byte	0x1
 1428 087e 6D       		.byte	0x6d
 1429 087f 22       		.uleb128 0x22
 1430 0880 91070000 		.4byte	0x791
 1431 0884 01       		.uleb128 0x1
 1432 0885 50       		.byte	0x50
 1433 0886 00       		.byte	0
 1434 0887 00       		.byte	0
 1435 0888 10       		.uleb128 0x10
 1436 0889 2B070000 		.4byte	0x72b
 1437 088d 98080000 		.4byte	0x898
 1438 0891 11       		.uleb128 0x11
ARM GAS  /tmp/ccgfTCLd.s 			page 39


 1439 0892 42040000 		.4byte	0x442
 1440 0896 0A       		.byte	0xa
 1441 0897 00       		.byte	0
 1442 0898 18       		.uleb128 0x18
 1443 0899 88080000 		.4byte	0x888
 1444 089d 24       		.uleb128 0x24
 1445 089e 92050000 		.4byte	.LASF128
 1446 08a2 01       		.byte	0x1
 1447 08a3 79       		.byte	0x79
 1448 08a4 21010000 		.4byte	0x121
 1449 08a8 00000000 		.4byte	.LFB264
 1450 08ac 08000000 		.4byte	.LFE264-.LFB264
 1451 08b0 01       		.uleb128 0x1
 1452 08b1 9C       		.byte	0x9c
 1453 08b2 CF080000 		.4byte	0x8cf
 1454 08b6 20       		.uleb128 0x20
 1455 08b7 F2040000 		.4byte	.LASF122
 1456 08bb CF080000 		.4byte	0x8cf
 1457 08bf 23       		.uleb128 0x23
 1458 08c0 9D070000 		.4byte	0x79d
 1459 08c4 00000000 		.4byte	.LBB16
 1460 08c8 06000000 		.4byte	.LBE16-.LBB16
 1461 08cc 01       		.byte	0x1
 1462 08cd 7D       		.byte	0x7d
 1463 08ce 00       		.byte	0
 1464 08cf 18       		.uleb128 0x18
 1465 08d0 88080000 		.4byte	0x888
 1466 08d4 25       		.uleb128 0x25
 1467 08d5 8E000000 		.4byte	.LASF123
 1468 08d9 0E       		.byte	0xe
 1469 08da A706     		.2byte	0x6a7
 1470 08dc BF000000 		.4byte	0xbf
 1471 08e0 26       		.uleb128 0x26
 1472 08e1 636800   		.ascii	"ch\000"
 1473 08e4 07       		.byte	0x7
 1474 08e5 0902     		.2byte	0x209
 1475 08e7 DB030000 		.4byte	0x3db
 1476 08eb 27       		.uleb128 0x27
 1477 08ec 9B000000 		.4byte	.LASF129
 1478 08f0 02       		.byte	0x2
 1479 08f1 6F       		.byte	0x6f
 1480 08f2 00       		.byte	0
 1481              		.section	.debug_abbrev,"",%progbits
 1482              	.Ldebug_abbrev0:
 1483 0000 01       		.uleb128 0x1
 1484 0001 11       		.uleb128 0x11
 1485 0002 01       		.byte	0x1
 1486 0003 25       		.uleb128 0x25
 1487 0004 0E       		.uleb128 0xe
 1488 0005 13       		.uleb128 0x13
 1489 0006 0B       		.uleb128 0xb
 1490 0007 03       		.uleb128 0x3
 1491 0008 0E       		.uleb128 0xe
 1492 0009 55       		.uleb128 0x55
 1493 000a 17       		.uleb128 0x17
 1494 000b 11       		.uleb128 0x11
 1495 000c 01       		.uleb128 0x1
ARM GAS  /tmp/ccgfTCLd.s 			page 40


 1496 000d 10       		.uleb128 0x10
 1497 000e 17       		.uleb128 0x17
 1498 000f 00       		.byte	0
 1499 0010 00       		.byte	0
 1500 0011 02       		.uleb128 0x2
 1501 0012 24       		.uleb128 0x24
 1502 0013 00       		.byte	0
 1503 0014 0B       		.uleb128 0xb
 1504 0015 0B       		.uleb128 0xb
 1505 0016 3E       		.uleb128 0x3e
 1506 0017 0B       		.uleb128 0xb
 1507 0018 03       		.uleb128 0x3
 1508 0019 08       		.uleb128 0x8
 1509 001a 00       		.byte	0
 1510 001b 00       		.byte	0
 1511 001c 03       		.uleb128 0x3
 1512 001d 24       		.uleb128 0x24
 1513 001e 00       		.byte	0
 1514 001f 0B       		.uleb128 0xb
 1515 0020 0B       		.uleb128 0xb
 1516 0021 3E       		.uleb128 0x3e
 1517 0022 0B       		.uleb128 0xb
 1518 0023 03       		.uleb128 0x3
 1519 0024 0E       		.uleb128 0xe
 1520 0025 00       		.byte	0
 1521 0026 00       		.byte	0
 1522 0027 04       		.uleb128 0x4
 1523 0028 16       		.uleb128 0x16
 1524 0029 00       		.byte	0
 1525 002a 03       		.uleb128 0x3
 1526 002b 0E       		.uleb128 0xe
 1527 002c 3A       		.uleb128 0x3a
 1528 002d 0B       		.uleb128 0xb
 1529 002e 3B       		.uleb128 0x3b
 1530 002f 0B       		.uleb128 0xb
 1531 0030 49       		.uleb128 0x49
 1532 0031 13       		.uleb128 0x13
 1533 0032 00       		.byte	0
 1534 0033 00       		.byte	0
 1535 0034 05       		.uleb128 0x5
 1536 0035 35       		.uleb128 0x35
 1537 0036 00       		.byte	0
 1538 0037 49       		.uleb128 0x49
 1539 0038 13       		.uleb128 0x13
 1540 0039 00       		.byte	0
 1541 003a 00       		.byte	0
 1542 003b 06       		.uleb128 0x6
 1543 003c 13       		.uleb128 0x13
 1544 003d 01       		.byte	0x1
 1545 003e 03       		.uleb128 0x3
 1546 003f 0E       		.uleb128 0xe
 1547 0040 0B       		.uleb128 0xb
 1548 0041 0B       		.uleb128 0xb
 1549 0042 3A       		.uleb128 0x3a
 1550 0043 0B       		.uleb128 0xb
 1551 0044 3B       		.uleb128 0x3b
 1552 0045 0B       		.uleb128 0xb
ARM GAS  /tmp/ccgfTCLd.s 			page 41


 1553 0046 01       		.uleb128 0x1
 1554 0047 13       		.uleb128 0x13
 1555 0048 00       		.byte	0
 1556 0049 00       		.byte	0
 1557 004a 07       		.uleb128 0x7
 1558 004b 0D       		.uleb128 0xd
 1559 004c 00       		.byte	0
 1560 004d 03       		.uleb128 0x3
 1561 004e 0E       		.uleb128 0xe
 1562 004f 3A       		.uleb128 0x3a
 1563 0050 0B       		.uleb128 0xb
 1564 0051 3B       		.uleb128 0x3b
 1565 0052 0B       		.uleb128 0xb
 1566 0053 49       		.uleb128 0x49
 1567 0054 13       		.uleb128 0x13
 1568 0055 38       		.uleb128 0x38
 1569 0056 0B       		.uleb128 0xb
 1570 0057 00       		.byte	0
 1571 0058 00       		.byte	0
 1572 0059 08       		.uleb128 0x8
 1573 005a 0D       		.uleb128 0xd
 1574 005b 00       		.byte	0
 1575 005c 03       		.uleb128 0x3
 1576 005d 08       		.uleb128 0x8
 1577 005e 3A       		.uleb128 0x3a
 1578 005f 0B       		.uleb128 0xb
 1579 0060 3B       		.uleb128 0x3b
 1580 0061 05       		.uleb128 0x5
 1581 0062 49       		.uleb128 0x49
 1582 0063 13       		.uleb128 0x13
 1583 0064 38       		.uleb128 0x38
 1584 0065 0B       		.uleb128 0xb
 1585 0066 00       		.byte	0
 1586 0067 00       		.byte	0
 1587 0068 09       		.uleb128 0x9
 1588 0069 0D       		.uleb128 0xd
 1589 006a 00       		.byte	0
 1590 006b 03       		.uleb128 0x3
 1591 006c 0E       		.uleb128 0xe
 1592 006d 3A       		.uleb128 0x3a
 1593 006e 0B       		.uleb128 0xb
 1594 006f 3B       		.uleb128 0x3b
 1595 0070 05       		.uleb128 0x5
 1596 0071 49       		.uleb128 0x49
 1597 0072 13       		.uleb128 0x13
 1598 0073 38       		.uleb128 0x38
 1599 0074 0B       		.uleb128 0xb
 1600 0075 00       		.byte	0
 1601 0076 00       		.byte	0
 1602 0077 0A       		.uleb128 0xa
 1603 0078 0F       		.uleb128 0xf
 1604 0079 00       		.byte	0
 1605 007a 0B       		.uleb128 0xb
 1606 007b 0B       		.uleb128 0xb
 1607 007c 49       		.uleb128 0x49
 1608 007d 13       		.uleb128 0x13
 1609 007e 00       		.byte	0
ARM GAS  /tmp/ccgfTCLd.s 			page 42


 1610 007f 00       		.byte	0
 1611 0080 0B       		.uleb128 0xb
 1612 0081 13       		.uleb128 0x13
 1613 0082 01       		.byte	0x1
 1614 0083 03       		.uleb128 0x3
 1615 0084 0E       		.uleb128 0xe
 1616 0085 0B       		.uleb128 0xb
 1617 0086 0B       		.uleb128 0xb
 1618 0087 3A       		.uleb128 0x3a
 1619 0088 0B       		.uleb128 0xb
 1620 0089 3B       		.uleb128 0x3b
 1621 008a 05       		.uleb128 0x5
 1622 008b 01       		.uleb128 0x1
 1623 008c 13       		.uleb128 0x13
 1624 008d 00       		.byte	0
 1625 008e 00       		.byte	0
 1626 008f 0C       		.uleb128 0xc
 1627 0090 15       		.uleb128 0x15
 1628 0091 01       		.byte	0x1
 1629 0092 27       		.uleb128 0x27
 1630 0093 19       		.uleb128 0x19
 1631 0094 01       		.uleb128 0x1
 1632 0095 13       		.uleb128 0x13
 1633 0096 00       		.byte	0
 1634 0097 00       		.byte	0
 1635 0098 0D       		.uleb128 0xd
 1636 0099 05       		.uleb128 0x5
 1637 009a 00       		.byte	0
 1638 009b 49       		.uleb128 0x49
 1639 009c 13       		.uleb128 0x13
 1640 009d 00       		.byte	0
 1641 009e 00       		.byte	0
 1642 009f 0E       		.uleb128 0xe
 1643 00a0 0F       		.uleb128 0xf
 1644 00a1 00       		.byte	0
 1645 00a2 0B       		.uleb128 0xb
 1646 00a3 0B       		.uleb128 0xb
 1647 00a4 00       		.byte	0
 1648 00a5 00       		.byte	0
 1649 00a6 0F       		.uleb128 0xf
 1650 00a7 13       		.uleb128 0x13
 1651 00a8 01       		.byte	0x1
 1652 00a9 03       		.uleb128 0x3
 1653 00aa 0E       		.uleb128 0xe
 1654 00ab 0B       		.uleb128 0xb
 1655 00ac 05       		.uleb128 0x5
 1656 00ad 3A       		.uleb128 0x3a
 1657 00ae 0B       		.uleb128 0xb
 1658 00af 3B       		.uleb128 0x3b
 1659 00b0 05       		.uleb128 0x5
 1660 00b1 01       		.uleb128 0x1
 1661 00b2 13       		.uleb128 0x13
 1662 00b3 00       		.byte	0
 1663 00b4 00       		.byte	0
 1664 00b5 10       		.uleb128 0x10
 1665 00b6 01       		.uleb128 0x1
 1666 00b7 01       		.byte	0x1
ARM GAS  /tmp/ccgfTCLd.s 			page 43


 1667 00b8 49       		.uleb128 0x49
 1668 00b9 13       		.uleb128 0x13
 1669 00ba 01       		.uleb128 0x1
 1670 00bb 13       		.uleb128 0x13
 1671 00bc 00       		.byte	0
 1672 00bd 00       		.byte	0
 1673 00be 11       		.uleb128 0x11
 1674 00bf 21       		.uleb128 0x21
 1675 00c0 00       		.byte	0
 1676 00c1 49       		.uleb128 0x49
 1677 00c2 13       		.uleb128 0x13
 1678 00c3 2F       		.uleb128 0x2f
 1679 00c4 0B       		.uleb128 0xb
 1680 00c5 00       		.byte	0
 1681 00c6 00       		.byte	0
 1682 00c7 12       		.uleb128 0x12
 1683 00c8 0D       		.uleb128 0xd
 1684 00c9 00       		.byte	0
 1685 00ca 03       		.uleb128 0x3
 1686 00cb 08       		.uleb128 0x8
 1687 00cc 3A       		.uleb128 0x3a
 1688 00cd 0B       		.uleb128 0xb
 1689 00ce 3B       		.uleb128 0x3b
 1690 00cf 0B       		.uleb128 0xb
 1691 00d0 49       		.uleb128 0x49
 1692 00d1 13       		.uleb128 0x13
 1693 00d2 38       		.uleb128 0x38
 1694 00d3 0B       		.uleb128 0xb
 1695 00d4 00       		.byte	0
 1696 00d5 00       		.byte	0
 1697 00d6 13       		.uleb128 0x13
 1698 00d7 13       		.uleb128 0x13
 1699 00d8 01       		.byte	0x1
 1700 00d9 0B       		.uleb128 0xb
 1701 00da 0B       		.uleb128 0xb
 1702 00db 3A       		.uleb128 0x3a
 1703 00dc 0B       		.uleb128 0xb
 1704 00dd 3B       		.uleb128 0x3b
 1705 00de 05       		.uleb128 0x5
 1706 00df 01       		.uleb128 0x1
 1707 00e0 13       		.uleb128 0x13
 1708 00e1 00       		.byte	0
 1709 00e2 00       		.byte	0
 1710 00e3 14       		.uleb128 0x14
 1711 00e4 16       		.uleb128 0x16
 1712 00e5 00       		.byte	0
 1713 00e6 03       		.uleb128 0x3
 1714 00e7 0E       		.uleb128 0xe
 1715 00e8 3A       		.uleb128 0x3a
 1716 00e9 0B       		.uleb128 0xb
 1717 00ea 3B       		.uleb128 0x3b
 1718 00eb 05       		.uleb128 0x5
 1719 00ec 49       		.uleb128 0x49
 1720 00ed 13       		.uleb128 0x13
 1721 00ee 00       		.byte	0
 1722 00ef 00       		.byte	0
 1723 00f0 15       		.uleb128 0x15
ARM GAS  /tmp/ccgfTCLd.s 			page 44


 1724 00f1 13       		.uleb128 0x13
 1725 00f2 01       		.byte	0x1
 1726 00f3 0B       		.uleb128 0xb
 1727 00f4 0B       		.uleb128 0xb
 1728 00f5 3A       		.uleb128 0x3a
 1729 00f6 0B       		.uleb128 0xb
 1730 00f7 3B       		.uleb128 0x3b
 1731 00f8 0B       		.uleb128 0xb
 1732 00f9 01       		.uleb128 0x1
 1733 00fa 13       		.uleb128 0x13
 1734 00fb 00       		.byte	0
 1735 00fc 00       		.byte	0
 1736 00fd 16       		.uleb128 0x16
 1737 00fe 17       		.uleb128 0x17
 1738 00ff 01       		.byte	0x1
 1739 0100 0B       		.uleb128 0xb
 1740 0101 0B       		.uleb128 0xb
 1741 0102 3A       		.uleb128 0x3a
 1742 0103 0B       		.uleb128 0xb
 1743 0104 3B       		.uleb128 0x3b
 1744 0105 0B       		.uleb128 0xb
 1745 0106 01       		.uleb128 0x1
 1746 0107 13       		.uleb128 0x13
 1747 0108 00       		.byte	0
 1748 0109 00       		.byte	0
 1749 010a 17       		.uleb128 0x17
 1750 010b 0D       		.uleb128 0xd
 1751 010c 00       		.byte	0
 1752 010d 03       		.uleb128 0x3
 1753 010e 0E       		.uleb128 0xe
 1754 010f 3A       		.uleb128 0x3a
 1755 0110 0B       		.uleb128 0xb
 1756 0111 3B       		.uleb128 0x3b
 1757 0112 05       		.uleb128 0x5
 1758 0113 49       		.uleb128 0x49
 1759 0114 13       		.uleb128 0x13
 1760 0115 00       		.byte	0
 1761 0116 00       		.byte	0
 1762 0117 18       		.uleb128 0x18
 1763 0118 26       		.uleb128 0x26
 1764 0119 00       		.byte	0
 1765 011a 49       		.uleb128 0x49
 1766 011b 13       		.uleb128 0x13
 1767 011c 00       		.byte	0
 1768 011d 00       		.byte	0
 1769 011e 19       		.uleb128 0x19
 1770 011f 2E       		.uleb128 0x2e
 1771 0120 01       		.byte	0x1
 1772 0121 03       		.uleb128 0x3
 1773 0122 0E       		.uleb128 0xe
 1774 0123 3A       		.uleb128 0x3a
 1775 0124 0B       		.uleb128 0xb
 1776 0125 3B       		.uleb128 0x3b
 1777 0126 0B       		.uleb128 0xb
 1778 0127 27       		.uleb128 0x27
 1779 0128 19       		.uleb128 0x19
 1780 0129 20       		.uleb128 0x20
ARM GAS  /tmp/ccgfTCLd.s 			page 45


 1781 012a 0B       		.uleb128 0xb
 1782 012b 01       		.uleb128 0x1
 1783 012c 13       		.uleb128 0x13
 1784 012d 00       		.byte	0
 1785 012e 00       		.byte	0
 1786 012f 1A       		.uleb128 0x1a
 1787 0130 05       		.uleb128 0x5
 1788 0131 00       		.byte	0
 1789 0132 03       		.uleb128 0x3
 1790 0133 0E       		.uleb128 0xe
 1791 0134 3A       		.uleb128 0x3a
 1792 0135 0B       		.uleb128 0xb
 1793 0136 3B       		.uleb128 0x3b
 1794 0137 0B       		.uleb128 0xb
 1795 0138 49       		.uleb128 0x49
 1796 0139 13       		.uleb128 0x13
 1797 013a 00       		.byte	0
 1798 013b 00       		.byte	0
 1799 013c 1B       		.uleb128 0x1b
 1800 013d 2E       		.uleb128 0x2e
 1801 013e 00       		.byte	0
 1802 013f 03       		.uleb128 0x3
 1803 0140 0E       		.uleb128 0xe
 1804 0141 3A       		.uleb128 0x3a
 1805 0142 0B       		.uleb128 0xb
 1806 0143 3B       		.uleb128 0x3b
 1807 0144 0B       		.uleb128 0xb
 1808 0145 27       		.uleb128 0x27
 1809 0146 19       		.uleb128 0x19
 1810 0147 20       		.uleb128 0x20
 1811 0148 0B       		.uleb128 0xb
 1812 0149 00       		.byte	0
 1813 014a 00       		.byte	0
 1814 014b 1C       		.uleb128 0x1c
 1815 014c 2E       		.uleb128 0x2e
 1816 014d 00       		.byte	0
 1817 014e 03       		.uleb128 0x3
 1818 014f 0E       		.uleb128 0xe
 1819 0150 3A       		.uleb128 0x3a
 1820 0151 0B       		.uleb128 0xb
 1821 0152 3B       		.uleb128 0x3b
 1822 0153 0B       		.uleb128 0xb
 1823 0154 27       		.uleb128 0x27
 1824 0155 19       		.uleb128 0x19
 1825 0156 49       		.uleb128 0x49
 1826 0157 13       		.uleb128 0x13
 1827 0158 20       		.uleb128 0x20
 1828 0159 0B       		.uleb128 0xb
 1829 015a 00       		.byte	0
 1830 015b 00       		.byte	0
 1831 015c 1D       		.uleb128 0x1d
 1832 015d 2E       		.uleb128 0x2e
 1833 015e 01       		.byte	0x1
 1834 015f 3F       		.uleb128 0x3f
 1835 0160 19       		.uleb128 0x19
 1836 0161 03       		.uleb128 0x3
 1837 0162 0E       		.uleb128 0xe
ARM GAS  /tmp/ccgfTCLd.s 			page 46


 1838 0163 3A       		.uleb128 0x3a
 1839 0164 0B       		.uleb128 0xb
 1840 0165 3B       		.uleb128 0x3b
 1841 0166 0B       		.uleb128 0xb
 1842 0167 27       		.uleb128 0x27
 1843 0168 19       		.uleb128 0x19
 1844 0169 11       		.uleb128 0x11
 1845 016a 01       		.uleb128 0x1
 1846 016b 12       		.uleb128 0x12
 1847 016c 06       		.uleb128 0x6
 1848 016d 40       		.uleb128 0x40
 1849 016e 18       		.uleb128 0x18
 1850 016f 9742     		.uleb128 0x2117
 1851 0171 19       		.uleb128 0x19
 1852 0172 01       		.uleb128 0x1
 1853 0173 13       		.uleb128 0x13
 1854 0174 00       		.byte	0
 1855 0175 00       		.byte	0
 1856 0176 1E       		.uleb128 0x1e
 1857 0177 898201   		.uleb128 0x4109
 1858 017a 00       		.byte	0
 1859 017b 11       		.uleb128 0x11
 1860 017c 01       		.uleb128 0x1
 1861 017d 9542     		.uleb128 0x2115
 1862 017f 19       		.uleb128 0x19
 1863 0180 31       		.uleb128 0x31
 1864 0181 13       		.uleb128 0x13
 1865 0182 00       		.byte	0
 1866 0183 00       		.byte	0
 1867 0184 1F       		.uleb128 0x1f
 1868 0185 05       		.uleb128 0x5
 1869 0186 00       		.byte	0
 1870 0187 03       		.uleb128 0x3
 1871 0188 0E       		.uleb128 0xe
 1872 0189 3A       		.uleb128 0x3a
 1873 018a 0B       		.uleb128 0xb
 1874 018b 3B       		.uleb128 0x3b
 1875 018c 0B       		.uleb128 0xb
 1876 018d 49       		.uleb128 0x49
 1877 018e 13       		.uleb128 0x13
 1878 018f 02       		.uleb128 0x2
 1879 0190 18       		.uleb128 0x18
 1880 0191 00       		.byte	0
 1881 0192 00       		.byte	0
 1882 0193 20       		.uleb128 0x20
 1883 0194 34       		.uleb128 0x34
 1884 0195 00       		.byte	0
 1885 0196 03       		.uleb128 0x3
 1886 0197 0E       		.uleb128 0xe
 1887 0198 49       		.uleb128 0x49
 1888 0199 13       		.uleb128 0x13
 1889 019a 34       		.uleb128 0x34
 1890 019b 19       		.uleb128 0x19
 1891 019c 00       		.byte	0
 1892 019d 00       		.byte	0
 1893 019e 21       		.uleb128 0x21
 1894 019f 1D       		.uleb128 0x1d
ARM GAS  /tmp/ccgfTCLd.s 			page 47


 1895 01a0 01       		.byte	0x1
 1896 01a1 31       		.uleb128 0x31
 1897 01a2 13       		.uleb128 0x13
 1898 01a3 11       		.uleb128 0x11
 1899 01a4 01       		.uleb128 0x1
 1900 01a5 12       		.uleb128 0x12
 1901 01a6 06       		.uleb128 0x6
 1902 01a7 58       		.uleb128 0x58
 1903 01a8 0B       		.uleb128 0xb
 1904 01a9 59       		.uleb128 0x59
 1905 01aa 0B       		.uleb128 0xb
 1906 01ab 00       		.byte	0
 1907 01ac 00       		.byte	0
 1908 01ad 22       		.uleb128 0x22
 1909 01ae 05       		.uleb128 0x5
 1910 01af 00       		.byte	0
 1911 01b0 31       		.uleb128 0x31
 1912 01b1 13       		.uleb128 0x13
 1913 01b2 02       		.uleb128 0x2
 1914 01b3 18       		.uleb128 0x18
 1915 01b4 00       		.byte	0
 1916 01b5 00       		.byte	0
 1917 01b6 23       		.uleb128 0x23
 1918 01b7 1D       		.uleb128 0x1d
 1919 01b8 00       		.byte	0
 1920 01b9 31       		.uleb128 0x31
 1921 01ba 13       		.uleb128 0x13
 1922 01bb 11       		.uleb128 0x11
 1923 01bc 01       		.uleb128 0x1
 1924 01bd 12       		.uleb128 0x12
 1925 01be 06       		.uleb128 0x6
 1926 01bf 58       		.uleb128 0x58
 1927 01c0 0B       		.uleb128 0xb
 1928 01c1 59       		.uleb128 0x59
 1929 01c2 0B       		.uleb128 0xb
 1930 01c3 00       		.byte	0
 1931 01c4 00       		.byte	0
 1932 01c5 24       		.uleb128 0x24
 1933 01c6 2E       		.uleb128 0x2e
 1934 01c7 01       		.byte	0x1
 1935 01c8 3F       		.uleb128 0x3f
 1936 01c9 19       		.uleb128 0x19
 1937 01ca 03       		.uleb128 0x3
 1938 01cb 0E       		.uleb128 0xe
 1939 01cc 3A       		.uleb128 0x3a
 1940 01cd 0B       		.uleb128 0xb
 1941 01ce 3B       		.uleb128 0x3b
 1942 01cf 0B       		.uleb128 0xb
 1943 01d0 27       		.uleb128 0x27
 1944 01d1 19       		.uleb128 0x19
 1945 01d2 49       		.uleb128 0x49
 1946 01d3 13       		.uleb128 0x13
 1947 01d4 11       		.uleb128 0x11
 1948 01d5 01       		.uleb128 0x1
 1949 01d6 12       		.uleb128 0x12
 1950 01d7 06       		.uleb128 0x6
 1951 01d8 40       		.uleb128 0x40
ARM GAS  /tmp/ccgfTCLd.s 			page 48


 1952 01d9 18       		.uleb128 0x18
 1953 01da 9742     		.uleb128 0x2117
 1954 01dc 19       		.uleb128 0x19
 1955 01dd 01       		.uleb128 0x1
 1956 01de 13       		.uleb128 0x13
 1957 01df 00       		.byte	0
 1958 01e0 00       		.byte	0
 1959 01e1 25       		.uleb128 0x25
 1960 01e2 34       		.uleb128 0x34
 1961 01e3 00       		.byte	0
 1962 01e4 03       		.uleb128 0x3
 1963 01e5 0E       		.uleb128 0xe
 1964 01e6 3A       		.uleb128 0x3a
 1965 01e7 0B       		.uleb128 0xb
 1966 01e8 3B       		.uleb128 0x3b
 1967 01e9 05       		.uleb128 0x5
 1968 01ea 49       		.uleb128 0x49
 1969 01eb 13       		.uleb128 0x13
 1970 01ec 3F       		.uleb128 0x3f
 1971 01ed 19       		.uleb128 0x19
 1972 01ee 3C       		.uleb128 0x3c
 1973 01ef 19       		.uleb128 0x19
 1974 01f0 00       		.byte	0
 1975 01f1 00       		.byte	0
 1976 01f2 26       		.uleb128 0x26
 1977 01f3 34       		.uleb128 0x34
 1978 01f4 00       		.byte	0
 1979 01f5 03       		.uleb128 0x3
 1980 01f6 08       		.uleb128 0x8
 1981 01f7 3A       		.uleb128 0x3a
 1982 01f8 0B       		.uleb128 0xb
 1983 01f9 3B       		.uleb128 0x3b
 1984 01fa 05       		.uleb128 0x5
 1985 01fb 49       		.uleb128 0x49
 1986 01fc 13       		.uleb128 0x13
 1987 01fd 3F       		.uleb128 0x3f
 1988 01fe 19       		.uleb128 0x19
 1989 01ff 3C       		.uleb128 0x3c
 1990 0200 19       		.uleb128 0x19
 1991 0201 00       		.byte	0
 1992 0202 00       		.byte	0
 1993 0203 27       		.uleb128 0x27
 1994 0204 2E       		.uleb128 0x2e
 1995 0205 00       		.byte	0
 1996 0206 3F       		.uleb128 0x3f
 1997 0207 19       		.uleb128 0x19
 1998 0208 03       		.uleb128 0x3
 1999 0209 0E       		.uleb128 0xe
 2000 020a 3A       		.uleb128 0x3a
 2001 020b 0B       		.uleb128 0xb
 2002 020c 3B       		.uleb128 0x3b
 2003 020d 0B       		.uleb128 0xb
 2004 020e 27       		.uleb128 0x27
 2005 020f 19       		.uleb128 0x19
 2006 0210 3C       		.uleb128 0x3c
 2007 0211 19       		.uleb128 0x19
 2008 0212 00       		.byte	0
ARM GAS  /tmp/ccgfTCLd.s 			page 49


 2009 0213 00       		.byte	0
 2010 0214 00       		.byte	0
 2011              		.section	.debug_aranges,"",%progbits
 2012 0000 3C000000 		.4byte	0x3c
 2013 0004 0200     		.2byte	0x2
 2014 0006 00000000 		.4byte	.Ldebug_info0
 2015 000a 04       		.byte	0x4
 2016 000b 00       		.byte	0
 2017 000c 0000     		.2byte	0
 2018 000e 0000     		.2byte	0
 2019 0010 00000000 		.4byte	.LFB260
 2020 0014 04000000 		.4byte	.LFE260-.LFB260
 2021 0018 00000000 		.4byte	.LFB261
 2022 001c 10000000 		.4byte	.LFE261-.LFB261
 2023 0020 00000000 		.4byte	.LFB262
 2024 0024 0A000000 		.4byte	.LFE262-.LFB262
 2025 0028 00000000 		.4byte	.LFB263
 2026 002c 08000000 		.4byte	.LFE263-.LFB263
 2027 0030 00000000 		.4byte	.LFB264
 2028 0034 08000000 		.4byte	.LFE264-.LFB264
 2029 0038 00000000 		.4byte	0
 2030 003c 00000000 		.4byte	0
 2031              		.section	.debug_ranges,"",%progbits
 2032              	.Ldebug_ranges0:
 2033 0000 00000000 		.4byte	.LFB260
 2034 0004 04000000 		.4byte	.LFE260
 2035 0008 00000000 		.4byte	.LFB261
 2036 000c 10000000 		.4byte	.LFE261
 2037 0010 00000000 		.4byte	.LFB262
 2038 0014 0A000000 		.4byte	.LFE262
 2039 0018 00000000 		.4byte	.LFB263
 2040 001c 08000000 		.4byte	.LFE263
 2041 0020 00000000 		.4byte	.LFB264
 2042 0024 08000000 		.4byte	.LFE264
 2043 0028 00000000 		.4byte	0
 2044 002c 00000000 		.4byte	0
 2045              		.section	.debug_line,"",%progbits
 2046              	.Ldebug_line0:
 2047 0000 59020000 		.section	.debug_str,"MS",%progbits,1
 2047      0200E301 
 2047      00000201 
 2047      FB0E0D00 
 2047      01010101 
 2048              	.LASF50:
 2049 0000 72656164 		.ascii	"ready_list_t\000"
 2049      795F6C69 
 2049      73745F74 
 2049      00
 2050              	.LASF84:
 2051 000d 44494552 		.ascii	"DIER\000"
 2051      00
 2052              	.LASF98:
 2053 0012 77747472 		.ascii	"wttrp\000"
 2053      7000
 2054              	.LASF95:
 2055 0018 7264796D 		.ascii	"rdymsg\000"
 2055      736700
ARM GAS  /tmp/ccgfTCLd.s 			page 50


 2056              	.LASF16:
 2057 001f 75696E74 		.ascii	"uint64_t\000"
 2057      36345F74 
 2057      00
 2058              	.LASF5:
 2059 0028 5F5F7569 		.ascii	"__uint8_t\000"
 2059      6E74385F 
 2059      7400
 2060              	.LASF82:
 2061 0032 706F7274 		.ascii	"port_intctx\000"
 2061      5F696E74 
 2061      63747800 
 2062              	.LASF69:
 2063 003e 73797374 		.ascii	"system_debug_t\000"
 2063      656D5F64 
 2063      65627567 
 2063      5F7400
 2064              	.LASF12:
 2065 004d 6C6F6E67 		.ascii	"long long unsigned int\000"
 2065      206C6F6E 
 2065      6720756E 
 2065      7369676E 
 2065      65642069 
 2066              	.LASF96:
 2067 0064 65786974 		.ascii	"exitcode\000"
 2067      636F6465 
 2067      00
 2068              	.LASF76:
 2069 006d 6D61696E 		.ascii	"mainthread\000"
 2069      74687265 
 2069      616400
 2070              	.LASF66:
 2071 0078 76697274 		.ascii	"virtual_timers_list_t\000"
 2071      75616C5F 
 2071      74696D65 
 2071      72735F6C 
 2071      6973745F 
 2072              	.LASF123:
 2073 008e 49544D5F 		.ascii	"ITM_RxBuffer\000"
 2073      52784275 
 2073      66666572 
 2073      00
 2074              	.LASF129:
 2075 009b 73745F6C 		.ascii	"st_lld_init\000"
 2075      6C645F69 
 2075      6E697400 
 2076              	.LASF88:
 2077 00a7 42445452 		.ascii	"BDTR\000"
 2077      00
 2078              	.LASF49:
 2079 00ac 63685F74 		.ascii	"ch_threads_queue\000"
 2079      68726561 
 2079      64735F71 
 2079      75657565 
 2079      00
 2080              	.LASF29:
 2081 00bd 705F7072 		.ascii	"p_prio\000"
ARM GAS  /tmp/ccgfTCLd.s 			page 51


 2081      696F00
 2082              	.LASF85:
 2083 00c4 43434D52 		.ascii	"CCMR1\000"
 2083      3100
 2084              	.LASF86:
 2085 00ca 43434D52 		.ascii	"CCMR2\000"
 2085      3200
 2086              	.LASF90:
 2087 00d0 43434D52 		.ascii	"CCMR3\000"
 2087      3300
 2088              	.LASF1:
 2089 00d6 7369676E 		.ascii	"signed char\000"
 2089      65642063 
 2089      68617200 
 2090              	.LASF120:
 2091 00e2 5F5F6675 		.ascii	"__func__.7594\000"
 2091      6E635F5F 
 2091      2E373539 
 2091      3400
 2092              	.LASF106:
 2093 00f0 6D5F7175 		.ascii	"m_queue\000"
 2093      65756500 
 2094              	.LASF75:
 2095 00f8 76746C69 		.ascii	"vtlist\000"
 2095      737400
 2096              	.LASF73:
 2097 00ff 63685F73 		.ascii	"ch_system\000"
 2097      79737465 
 2097      6D00
 2098              	.LASF7:
 2099 0109 6C6F6E67 		.ascii	"long int\000"
 2099      20696E74 
 2099      00
 2100              	.LASF18:
 2101 0112 746D6F64 		.ascii	"tmode_t\000"
 2101      655F7400 
 2102              	.LASF19:
 2103 011a 74737461 		.ascii	"tstate_t\000"
 2103      74655F74 
 2103      00
 2104              	.LASF87:
 2105 0123 43434552 		.ascii	"CCER\000"
 2105      00
 2106              	.LASF10:
 2107 0128 6C6F6E67 		.ascii	"long long int\000"
 2107      206C6F6E 
 2107      6720696E 
 2107      7400
 2108              	.LASF31:
 2109 0136 705F6E65 		.ascii	"p_newer\000"
 2109      77657200 
 2110              	.LASF103:
 2111 013e 735F7175 		.ascii	"s_queue\000"
 2111      65756500 
 2112              	.LASF4:
 2113 0146 73686F72 		.ascii	"short unsigned int\000"
 2113      7420756E 
ARM GAS  /tmp/ccgfTCLd.s 			page 52


 2113      7369676E 
 2113      65642069 
 2113      6E7400
 2114              	.LASF55:
 2115 0159 725F6E65 		.ascii	"r_newer\000"
 2115      77657200 
 2116              	.LASF43:
 2117 0161 705F6D70 		.ascii	"p_mpool\000"
 2117      6F6F6C00 
 2118              	.LASF79:
 2119 0169 72656761 		.ascii	"regarm_t\000"
 2119      726D5F74 
 2119      00
 2120              	.LASF62:
 2121 0172 76745F70 		.ascii	"vt_prev\000"
 2121      72657600 
 2122              	.LASF110:
 2123 017a 6D757465 		.ascii	"mutex_t\000"
 2123      785F7400 
 2124              	.LASF77:
 2125 0182 69646C65 		.ascii	"idle_thread_wa\000"
 2125      5F746872 
 2125      6561645F 
 2125      776100
 2126              	.LASF24:
 2127 0191 636E745F 		.ascii	"cnt_t\000"
 2127      7400
 2128              	.LASF0:
 2129 0197 756E7369 		.ascii	"unsigned int\000"
 2129      676E6564 
 2129      20696E74 
 2129      00
 2130              	.LASF61:
 2131 01a4 76745F6E 		.ascii	"vt_next\000"
 2131      65787400 
 2132              	.LASF99:
 2133 01ac 77747365 		.ascii	"wtsemp\000"
 2133      6D7000
 2134              	.LASF38:
 2135 01b3 705F6D73 		.ascii	"p_msgqueue\000"
 2135      67717565 
 2135      756500
 2136              	.LASF104:
 2137 01be 735F636E 		.ascii	"s_cnt\000"
 2137      7400
 2138              	.LASF83:
 2139 01c4 534D4352 		.ascii	"SMCR\000"
 2139      00
 2140              	.LASF46:
 2141 01c9 63685F74 		.ascii	"ch_thread\000"
 2141      68726561 
 2141      6400
 2142              	.LASF22:
 2143 01d3 6D73675F 		.ascii	"msg_t\000"
 2143      7400
 2144              	.LASF42:
 2145 01d9 705F7265 		.ascii	"p_realprio\000"
ARM GAS  /tmp/ccgfTCLd.s 			page 53


 2145      616C7072 
 2145      696F00
 2146              	.LASF72:
 2147 01e4 63685F73 		.ascii	"ch_system_t\000"
 2147      79737465 
 2147      6D5F7400 
 2148              	.LASF92:
 2149 01f0 73746D33 		.ascii	"stm32_tim_t\000"
 2149      325F7469 
 2149      6D5F7400 
 2150              	.LASF51:
 2151 01fc 63685F72 		.ascii	"ch_ready_list\000"
 2151      65616479 
 2151      5F6C6973 
 2151      7400
 2152              	.LASF23:
 2153 020a 6576656E 		.ascii	"eventmask_t\000"
 2153      746D6173 
 2153      6B5F7400 
 2154              	.LASF6:
 2155 0216 5F5F696E 		.ascii	"__int32_t\000"
 2155      7433325F 
 2155      7400
 2156              	.LASF125:
 2157 0220 2F757372 		.ascii	"/usr/src/chibios/os/hal/src/st.c\000"
 2157      2F737263 
 2157      2F636869 
 2157      62696F73 
 2157      2F6F732F 
 2158              	.LASF112:
 2159 0241 73745F6C 		.ascii	"st_lld_start_alarm\000"
 2159      6C645F73 
 2159      74617274 
 2159      5F616C61 
 2159      726D00
 2160              	.LASF80:
 2161 0254 73746B61 		.ascii	"stkalign_t\000"
 2161      6C69676E 
 2161      5F7400
 2162              	.LASF124:
 2163 025f 474E5520 		.ascii	"GNU C 4.8.4 20141219 (release) -mcpu=cortex-m4 -mno"
 2163      4320342E 
 2163      382E3420 
 2163      32303134 
 2163      31323139 
 2164 0292 2D746875 		.ascii	"-thumb-interwork -mthumb -ggdb -O2 -fomit-frame-poi"
 2164      6D622D69 
 2164      6E746572 
 2164      776F726B 
 2164      202D6D74 
 2165 02c5 6E746572 		.ascii	"nter -falign-functions=16 -ffunction-sections -fdat"
 2165      202D6661 
 2165      6C69676E 
 2165      2D66756E 
 2165      6374696F 
 2166 02f8 612D7365 		.ascii	"a-sections -fno-common -flto\000"
 2166      6374696F 
ARM GAS  /tmp/ccgfTCLd.s 			page 54


 2166      6E73202D 
 2166      666E6F2D 
 2166      636F6D6D 
 2167              	.LASF37:
 2168 0315 705F7761 		.ascii	"p_waiting\000"
 2168      6974696E 
 2168      6700
 2169              	.LASF78:
 2170 031f 73697A65 		.ascii	"sizetype\000"
 2170      74797065 
 2170      00
 2171              	.LASF44:
 2172 0328 74687265 		.ascii	"thread_reference_t\000"
 2172      61645F72 
 2172      65666572 
 2172      656E6365 
 2172      5F7400
 2173              	.LASF67:
 2174 033b 63685F76 		.ascii	"ch_virtual_timers_list\000"
 2174      69727475 
 2174      616C5F74 
 2174      696D6572 
 2174      735F6C69 
 2175              	.LASF68:
 2176 0352 76745F6C 		.ascii	"vt_lasttime\000"
 2176      61737474 
 2176      696D6500 
 2177              	.LASF32:
 2178 035e 705F6F6C 		.ascii	"p_older\000"
 2178      64657200 
 2179              	.LASF115:
 2180 0366 7374496E 		.ascii	"stInit\000"
 2180      697400
 2181              	.LASF54:
 2182 036d 725F6374 		.ascii	"r_ctx\000"
 2182      7800
 2183              	.LASF94:
 2184 0373 746D5F63 		.ascii	"tm_calibration_t\000"
 2184      616C6962 
 2184      72617469 
 2184      6F6E5F74 
 2184      00
 2185              	.LASF114:
 2186 0384 74696D65 		.ascii	"time\000"
 2186      00
 2187              	.LASF57:
 2188 0389 725F6375 		.ascii	"r_current\000"
 2188      7272656E 
 2188      7400
 2189              	.LASF56:
 2190 0393 725F6F6C 		.ascii	"r_older\000"
 2190      64657200 
 2191              	.LASF11:
 2192 039b 5F5F7569 		.ascii	"__uint64_t\000"
 2192      6E743634 
 2192      5F7400
 2193              	.LASF20:
ARM GAS  /tmp/ccgfTCLd.s 			page 55


 2194 03a6 74726566 		.ascii	"trefs_t\000"
 2194      735F7400 
 2195              	.LASF59:
 2196 03ae 76697274 		.ascii	"virtual_timer_t\000"
 2196      75616C5F 
 2196      74696D65 
 2196      725F7400 
 2197              	.LASF28:
 2198 03be 705F7072 		.ascii	"p_prev\000"
 2198      657600
 2199              	.LASF21:
 2200 03c5 74707269 		.ascii	"tprio_t\000"
 2200      6F5F7400 
 2201              	.LASF70:
 2202 03cd 63685F73 		.ascii	"ch_system_debug\000"
 2202      79737465 
 2202      6D5F6465 
 2202      62756700 
 2203              	.LASF111:
 2204 03dd 5F426F6F 		.ascii	"_Bool\000"
 2204      6C00
 2205              	.LASF14:
 2206 03e3 696E7433 		.ascii	"int32_t\000"
 2206      325F7400 
 2207              	.LASF2:
 2208 03eb 756E7369 		.ascii	"unsigned char\000"
 2208      676E6564 
 2208      20636861 
 2208      7200
 2209              	.LASF41:
 2210 03f9 705F6D74 		.ascii	"p_mtxlist\000"
 2210      786C6973 
 2210      7400
 2211              	.LASF3:
 2212 0403 73686F72 		.ascii	"short int\000"
 2212      7420696E 
 2212      7400
 2213              	.LASF34:
 2214 040d 705F7374 		.ascii	"p_state\000"
 2214      61746500 
 2215              	.LASF53:
 2216 0415 725F7072 		.ascii	"r_prio\000"
 2216      696F00
 2217              	.LASF101:
 2218 041c 65776D61 		.ascii	"ewmask\000"
 2218      736B00
 2219              	.LASF27:
 2220 0423 705F6E65 		.ascii	"p_next\000"
 2220      787400
 2221              	.LASF13:
 2222 042a 75696E74 		.ascii	"uint8_t\000"
 2222      385F7400 
 2223              	.LASF60:
 2224 0432 63685F76 		.ascii	"ch_virtual_timer\000"
 2224      69727475 
 2224      616C5F74 
 2224      696D6572 
ARM GAS  /tmp/ccgfTCLd.s 			page 56


 2224      00
 2225              	.LASF127:
 2226 0443 73745F6C 		.ascii	"st_lld_get_alarm\000"
 2226      6C645F67 
 2226      65745F61 
 2226      6C61726D 
 2226      00
 2227              	.LASF102:
 2228 0454 63685F73 		.ascii	"ch_semaphore\000"
 2228      656D6170 
 2228      686F7265 
 2228      00
 2229              	.LASF91:
 2230 0461 43435852 		.ascii	"CCXR\000"
 2230      00
 2231              	.LASF40:
 2232 0466 705F6570 		.ascii	"p_epending\000"
 2232      656E6469 
 2232      6E6700
 2233              	.LASF15:
 2234 0471 75696E74 		.ascii	"uint32_t\000"
 2234      33325F74 
 2234      00
 2235              	.LASF100:
 2236 047a 77746D74 		.ascii	"wtmtxp\000"
 2236      787000
 2237              	.LASF52:
 2238 0481 725F7175 		.ascii	"r_queue\000"
 2238      65756500 
 2239              	.LASF63:
 2240 0489 76745F64 		.ascii	"vt_delta\000"
 2240      656C7461 
 2240      00
 2241              	.LASF47:
 2242 0492 63685F74 		.ascii	"ch_threads_list\000"
 2242      68726561 
 2242      64735F6C 
 2242      69737400 
 2243              	.LASF9:
 2244 04a2 6C6F6E67 		.ascii	"long unsigned int\000"
 2244      20756E73 
 2244      69676E65 
 2244      6420696E 
 2244      7400
 2245              	.LASF117:
 2246 04b4 73745374 		.ascii	"stStopAlarm\000"
 2246      6F70416C 
 2246      61726D00 
 2247              	.LASF109:
 2248 04c0 63686172 		.ascii	"char\000"
 2248      00
 2249              	.LASF89:
 2250 04c5 444D4152 		.ascii	"DMAR\000"
 2250      00
 2251              	.LASF26:
 2252 04ca 74687265 		.ascii	"thread_t\000"
 2252      61645F74 
ARM GAS  /tmp/ccgfTCLd.s 			page 57


 2252      00
 2253              	.LASF121:
 2254 04d3 5F5F6675 		.ascii	"__func__.7601\000"
 2254      6E635F5F 
 2254      2E373630 
 2254      3100
 2255              	.LASF108:
 2256 04e1 6D5F6E65 		.ascii	"m_next\000"
 2256      787400
 2257              	.LASF25:
 2258 04e8 73797374 		.ascii	"systime_t\000"
 2258      696D655F 
 2258      7400
 2259              	.LASF122:
 2260 04f2 5F5F6675 		.ascii	"__func__.7605\000"
 2260      6E635F5F 
 2260      2E373630 
 2260      3500
 2261              	.LASF58:
 2262 0500 76746675 		.ascii	"vtfunc_t\000"
 2262      6E635F74 
 2262      00
 2263              	.LASF8:
 2264 0509 5F5F7569 		.ascii	"__uint32_t\000"
 2264      6E743332 
 2264      5F7400
 2265              	.LASF71:
 2266 0514 70616E69 		.ascii	"panic_msg\000"
 2266      635F6D73 
 2266      6700
 2267              	.LASF93:
 2268 051e 6F666673 		.ascii	"offset\000"
 2268      657400
 2269              	.LASF116:
 2270 0525 73745374 		.ascii	"stStartAlarm\000"
 2270      61727441 
 2270      6C61726D 
 2270      00
 2271              	.LASF81:
 2272 0532 636F6E74 		.ascii	"context\000"
 2272      65787400 
 2273              	.LASF39:
 2274 053a 705F6D73 		.ascii	"p_msg\000"
 2274      6700
 2275              	.LASF17:
 2276 0540 7274636E 		.ascii	"rtcnt_t\000"
 2276      745F7400 
 2277              	.LASF126:
 2278 0548 73745F6C 		.ascii	"st_lld_stop_alarm\000"
 2278      6C645F73 
 2278      746F705F 
 2278      616C6172 
 2278      6D00
 2279              	.LASF65:
 2280 055a 76745F70 		.ascii	"vt_par\000"
 2280      617200
 2281              	.LASF48:
ARM GAS  /tmp/ccgfTCLd.s 			page 58


 2282 0561 74687265 		.ascii	"threads_queue_t\000"
 2282      6164735F 
 2282      71756575 
 2282      655F7400 
 2283              	.LASF105:
 2284 0571 63685F6D 		.ascii	"ch_mutex\000"
 2284      75746578 
 2284      00
 2285              	.LASF36:
 2286 057a 705F7265 		.ascii	"p_refs\000"
 2286      667300
 2287              	.LASF74:
 2288 0581 726C6973 		.ascii	"rlist\000"
 2288      7400
 2289              	.LASF118:
 2290 0587 73745365 		.ascii	"stSetAlarm\000"
 2290      74416C61 
 2290      726D00
 2291              	.LASF128:
 2292 0592 73744765 		.ascii	"stGetAlarm\000"
 2292      74416C61 
 2292      726D00
 2293              	.LASF97:
 2294 059d 77746F62 		.ascii	"wtobjp\000"
 2294      6A7000
 2295              	.LASF33:
 2296 05a4 705F6E61 		.ascii	"p_name\000"
 2296      6D6500
 2297              	.LASF45:
 2298 05ab 74687265 		.ascii	"threads_list_t\000"
 2298      6164735F 
 2298      6C697374 
 2298      5F7400
 2299              	.LASF119:
 2300 05ba 61627374 		.ascii	"abstime\000"
 2300      696D6500 
 2301              	.LASF35:
 2302 05c2 705F666C 		.ascii	"p_flags\000"
 2302      61677300 
 2303              	.LASF113:
 2304 05ca 73745F6C 		.ascii	"st_lld_set_alarm\000"
 2304      6C645F73 
 2304      65745F61 
 2304      6C61726D 
 2304      00
 2305              	.LASF107:
 2306 05db 6D5F6F77 		.ascii	"m_owner\000"
 2306      6E657200 
 2307              	.LASF30:
 2308 05e3 705F6374 		.ascii	"p_ctx\000"
 2308      7800
 2309              	.LASF64:
 2310 05e9 76745F66 		.ascii	"vt_func\000"
 2310      756E6300 
 2311              		.comm	__gnu_lto_v1,1,1
 2312              		.ident	"GCC: (4.8.4-1+11-1) 4.8.4 20141219 (release)"
ARM GAS  /tmp/ccgfTCLd.s 			page 59


DEFINED SYMBOLS
                            *ABS*:00000000 st.c
     /tmp/ccgfTCLd.s:247    .text.stInit:00000000 $t
     /tmp/ccgfTCLd.s:253    .text.stInit:00000000 stInit
     /tmp/ccgfTCLd.s:268    .text.stStartAlarm:00000000 $t
     /tmp/ccgfTCLd.s:274    .text.stStartAlarm:00000000 stStartAlarm
     /tmp/ccgfTCLd.s:305    .text.stStopAlarm:00000000 $t
     /tmp/ccgfTCLd.s:311    .text.stStopAlarm:00000000 stStopAlarm
     /tmp/ccgfTCLd.s:331    .text.stSetAlarm:00000000 $t
     /tmp/ccgfTCLd.s:337    .text.stSetAlarm:00000000 stSetAlarm
     /tmp/ccgfTCLd.s:358    .text.stGetAlarm:00000000 $t
     /tmp/ccgfTCLd.s:364    .text.stGetAlarm:00000000 stGetAlarm
                            *COM*:00000001 __gnu_lto_v1
                     .debug_frame:00000010 $d

UNDEFINED SYMBOLS
st_lld_init
