ARM GAS  /tmp/ccfVQBAM.s 			page 1


   1              		.syntax unified
   2              		.cpu cortex-m4
   3              		.fpu softvfp
   4              		.eabi_attribute 20, 1
   5              		.eabi_attribute 21, 1
   6              		.eabi_attribute 23, 3
   7              		.eabi_attribute 24, 1
   8              		.eabi_attribute 25, 1
   9              		.eabi_attribute 26, 1
  10              		.eabi_attribute 30, 2
  11              		.eabi_attribute 34, 1
  12              		.eabi_attribute 18, 4
  13              		.thumb
  14              		.file	"st_lld.c"
  15              		.text
  16              	.Ltext0:
  17              		.section	.gnu.lto_.jmpfuncs.7d9372b3c8a8857a,"",%progbits
  18 0000 789C6362 		.ascii	"x\234cb`b\300\006\244\2414X\226\221\201\211)\2021\223"
  18      6062C006 
  18      A4A13458 
  18      96918189 
  18      29823193 
  19 0014 91410628 		.ascii	"\221A\006(\000fp\000E\001\031\363\001\323"
  19      00667000 
  19      450119F3 
  19      01D3
  20              		.text
  21              		.section	.gnu.lto_.inline.7d9372b3c8a8857a,"",%progbits
  22 0000 789C6362 		.ascii	"x\234cb`b\300\006\254\2404P\226G\224\221\201\211\357"
  22      6062C006 
  22      ACA03450 
  22      96479491 
  22      8189EF
  23 0013 5E0003DB 		.ascii	"^\000\003\333\002y\260bF.8\301 \"\003\224\224yp\213"
  23      0279B062 
  23      462E38C1 
  23      20220394 
  23      9479708B 
  24 0027 112ECBCC 		.ascii	"\021.\313\314\003\326\305\000\000\260\004\005a"
  24      03D6C500 
  24      00B00405 
  24      61
  25              		.text
  26              		.section	.gnu.lto_.pureconst.7d9372b3c8a8857a,"",%progbits
  27 0000 789C6362 		.ascii	"x\234cb`b`e\200\000&\006+F)\000\001f\000a"
  27      60626065 
  27      80002606 
  27      2B462900 
  27      01660061 
  28              		.text
  29              		.section	.gnu.lto_VectorB0.7d9372b3c8a8857a,"",%progbits
  30 0000 789C8D53 		.ascii	"x\234\215S_HSQ\030\377\276s\357\3344\007\332s\214!H"
  30      5F485351 
  30      18FFBE73 
  30      EFDC3407 
  30      DA738C21 
  31 0015 0FA9372D 		.ascii	"\017\2517-\360\2650\002\301\275\270\011\365$\327\353"
ARM GAS  /tmp/ccfVQBAM.s 			page 2


  31      F0B53002 
  31      C1BDB809 
  31      F524D7EB 
  32 0025 68173627 		.ascii	"h\0276'\367n\242\364\340\231\356A\230\017\342CXY\346"
  32      F76EA2F4 
  32      E099EE41 
  32      980FE243 
  32      5859E6
  33 0038 4B420F49 		.ascii	"KB\017I\022%[\177\244^\212\320\360\245\207\350a\275"
  33      12255B7F 
  33      A45E8AD0 
  33      F0A587E8 
  33      61BD
  34 004a 0865600B 		.ascii	"\010e`\013B\252\305\372\316\275\356:\207V\037\373\316"
  34      42AAC5FA 
  34      CEBDEE3A 
  34      87561FFB 
  34      CE
  35 005b F9CEF9FE 		.ascii	"\371\316\371\376\375\276\337\271c\300\240Z:H\347%\200"
  35      FDBEDFB9 
  35      63C0A05A 
  35      3A48E725 
  35      80
  36 006c E308802E 		.ascii	"\343\010\200.@6\263\001\220\3620&e}\300\353\344w\012"
  36      4036B301 
  36      90F23026 
  36      657DC0EB 
  36      E4770A
  37 007f F07A0965 		.ascii	"\360z\011e\373ZF\024\006 \2143I\306\361\313h\025Yfk"
  37      FB5A4614 
  37      06208C33 
  37      49C6F1CB 
  37      68155966 
  38 0094 F952E97E 		.ascii	"\371R\351~6\263\360\001\227\231W\002\035A\026\013\211"
  38      36B3F001 
  38      97995702 
  38      1D41160B 
  38      89
  39 00a5 0BD29CCF 		.ascii	"\013\322\234\317\370\0014\353\030\242U\224\350C&vi\035"
  39      F80134EB 
  39      18A25594 
  39      E8432676 
  39      691D
  40 00b7 5EBC9FCB 		.ascii	"^\274\237\313}d*.R\373+(\235\202{<\215:\342M\270A\033"
  40      7D642A2E 
  40      52FB2B28 
  40      9D827B3C 
  40      8D3AE24D 
  41 00ce BB448BC4 		.ascii	"\273D\213\304Id\260L\253\341\000\226\361\257\303dnr"
  41      4964B04C 
  41      ABE10096 
  41      F1AFC364 
  41      6E72
  42 00e0 0BCBE932 		.ascii	"\013\313\3512U\020a\326\244\257 \375%\345u\\\326}\245"
  42      551061D6 
  42      A4AF20FD 
  42      25E5755C 
ARM GAS  /tmp/ccfVQBAM.s 			page 3


  42      D67DA5
  43 00f3 F451B5AC 		.ascii	"\364Q\265\254O@X]\315\025\366 X\375S<\370\237\010\304"
  43      4F40585D 
  43      CD15F620 
  43      58FD533C 
  43      F89F08C4 
  44 0107 8D65BE86 		.ascii	"\215e\276\206\011\017@\023,r>\233\377^x\334r\235\257"
  44      090F4013 
  44      2C723E9B 
  44      FF5E78DC 
  44      729DAF
  45 011a A5EFF062 		.ascii	"\245\357\360b\251\204\024\"3\210\242\240@\304\273\374"
  45      A9841422 
  45      3388A2A0 
  45      40C4BBFC 
  46 012a D656231F 		.ascii	"\326V#\037|\012q'\023Q\260\001\023\205\317/W\246%\207"
  46      7C0A7127 
  46      1351B001 
  46      1385CF2F 
  46      57A62587 
  47 013e 3BDB58DB 		.ascii	";\333X\333\376\265\323@0\357b\223C,\337yz\302\361?\277"
  47      FEB5D340 
  47      30EF6293 
  47      432CDF79 
  47      7AC2F13F 
  48 0153 36ED6D75 		.ascii	"6\355muN\245\371L\343\003\227s|\263\373\215\016\366"
  48      4EA5F94C 
  48      E3039773 
  48      7CB3FB8D 
  48      0EF6
  49 0165 901A0A30 		.ascii	"\220\032\0120\214T\"\225I]`=+\302.]\021y\222\375\255"
  49      8C542295 
  49      495D603D 
  49      2BC22E5D 
  49      117992FD 
  50 017a F8608ADD 		.ascii	"\370`\212\335\342s\347tt\037\200\270\357\317\354\371"
  50      E273E774 
  50      741F80B8 
  50      EFCFECF9 
  51 018a 3DF6106F 		.ascii	"=\366\020oa\362\353\302\322\326tk5\366Lq\302\275\337"
  51      61F2EBC2 
  51      D2D6746B 
  51      35F64C71 
  51      C2BDDF
  52 019d BEC68EBE 		.ascii	"\276\306\216\276\012?\371\024o\320\261VC\267\212\017"
  52      0A3FF914 
  52      6FD0B156 
  52      43B78A0F 
  53 01ad 6D183AD6 		.ascii	"m\030:\326U\363\371\351I\025\237*.Y\370\377I(\374\225"
  53      55F3F9E9 
  53      49159F2A 
  53      2E59F8FF 
  53      4928FC95 
  54 01c1 D0ED1F82 		.ascii	"\320\355\037\202\320G\225\204\346\236\371*\010\315z"
  54      D0479584 
  54      E69EF92A 
  54      08CD7A
ARM GAS  /tmp/ccfVQBAM.s 			page 4


  55 01d0 950A426F 		.ascii	"\225\012Bo7nV\020Z\234\255\230\310CZKZGz\354\020BU\\"
  55      376E5610 
  55      5A9CAD98 
  55      C8435A4B 
  55      5A477AEC 
  56 01e8 26C38154 		.ascii	"&\303\201T&P\305\025\364U~\222\262\365\267 \032\363"
  56      2650C515 
  56      F4557E92 
  56      B2F5B720 
  56      1AF3
  57 01fa C5B05DFB 		.ascii	"\305\260]\373 M\365\340P\264\011\251\374\357\346r\220"
  57      204DF5E0 
  57      50B409A9 
  57      FCEFE672 
  57      90
  58 020b 2D217A59 		.ascii	"-!zY* jw*I\323PLCS\264\210>\240\307M\205~\0215\252\014"
  58      2A206A77 
  58      2A49D350 
  58      4C4353B4 
  58      883EA0C7 
  59 0226 C78D84A9 		.ascii	"\307\215\204\251\004C\2013\035JO\317\005%\324\035\030"
  59      04438133 
  59      1D4A4FCF 
  59      0525D41D 
  59      18
  60 0237 6957CC44 		.ascii	"iW\314D\1774:\330\246A\373ayFb/\355|o\240+0J.-n\204"
  60      7F343AD8 
  60      A641FB61 
  60      7946622F 
  60      ED7C6FA0 
  61 0252 FB473A63 		.ascii	"\373G:cm\021p\215\250\321d\370\354ay\341\321\204\322"
  61      6D11708D 
  61      A8D164F8 
  61      EC6179E1 
  61      D184D2
  62 0265 15087607 		.ascii	"\025\010v\007\025}H\213&\007\303\212\225\247\305.&\207"
  62      157D488B 
  62      2607C38A 
  62      95A7C52E 
  62      2687
  63 0277 344A3D79 		.ascii	"4J=yD3':b\216\231G\305\211a\342&-\224 v\212k\010\004"
  63      4433273A 
  63      628E9947 
  63      C58961E2 
  63      262D9420 
  64 0290 7BFD03AA 		.ascii	"{\375\003\252\031\0366\364\026\177\363i`\006\270c\341"
  64      191E36F4 
  64      167FF369 
  64      6006B863 
  64      E1
  65 02a1 58DC1883 		.ascii	"X\334\030\203?.\223AB"
  65      3F2E9341 
  65      42
  66              		.text
  67              		.section	.gnu.lto_st_lld_init.7d9372b3c8a8857a,"",%progbits
  68 0000 789C95D3 		.ascii	"x\234\225\323?H\002Q\030\000\360\357{\357N\257?\364"
  68      3F480251 
ARM GAS  /tmp/ccfVQBAM.s 			page 5


  68      1800F0EF 
  68      7BEF4EAF 
  68      3FF4
  69 0012 67341ADA 		.ascii	"g4\032\332\032\242\036\325\020M\021\264\0106e\220S\344"
  69      1AA21ED5 
  69      104D11B4 
  69      08366590 
  69      53E4
  70 0024 05762018 		.ascii	"\005v \030^\2654\364\244\202\246p\224ji\215(h\272\206"
  70      5EB534F4 
  70      A482A670 
  70      946A698D 
  70      2868BA86 
  71 0038 A89C5A4A 		.ascii	"\250\234ZJ\332\244!\334\204\012k\224\026{\357\376hZ"
  71      DAA421DC 
  71      840A6B94 
  71      167BEFFE 
  71      685A
  72 004a 44F7A1DF 		.ascii	"D\367\241\337\273\363\275\357\347'~G\200@k\204\304\273"
  72      BBF3BDEF 
  72      E7277E47 
  72      80406B84 
  72      C4BB
  73 005c 4F019814 		.ascii	"O\001\230\024+R@\222}\000\310h\004Q^\000\302\026\301"
  73      2B524092 
  73      7D00C868 
  73      04515E00 
  73      C216C1
  74 006f AD18DA67 		.ascii	"\255\030\332g\317\311M\251V;\273\330?z\303+\322K\300"
  74      CFC94DA9 
  74      563BBBD8 
  74      3F7AC32B 
  74      D24BC0
  75 0082 40A032A9 		.ascii	"@\2402\2512\005d\022\241\302\016\347\331\001\000\335"
  75      32056412 
  75      A1C20EE7 
  75      D90100DD 
  76 0092 BE8D8A2C 		.ascii	"\276\215\212,\251y$r\245\367\220\177\252\226CKx\214"
  76      A9792472 
  76      A5F7907F 
  76      AA96434B 
  76      788C
  77 00a4 2A24900C 		.ascii	"*$\220\014\301\011\337\311\364\030\210\207p\200\006"
  77      C109DFC9 
  77      F4188887 
  77      708006
  78 00b3 92059128 		.ascii	"\222\005\221(\377\330\343\012\330\227\366W\307\321k"
  78      FFD8E30A 
  78      D897F657 
  78      C7D16B
  79 00c2 F81EB62F 		.ascii	"\370\036\266/\251WM\023\316y@{'\037v6\374\231\011y/"
  79      A9574D13 
  79      CE79407B 
  79      271F7636 
  79      FC990979 
  80 00d7 DBBA7B41 		.ascii	"\333\272{A\017V[\011E\326\251\374&\313\273lBu\011\374"
  80      0F565B09 
ARM GAS  /tmp/ccfVQBAM.s 			page 6


  80      45D6A9FC 
  80      26CBBB6C 
  80      427509FC 
  81 00eb ADAD8000 		.ascii	"\255\255\200\000\376\321\326\337\246`\354b\313z\275"
  81      FED1D6DF 
  81      A660EC62 
  81      CB7ABD
  82 00fa A5DF013E 		.ascii	"\245\337\001>U\027\002\262,\310E8?,\350\012\316\377"
  82      551702B2 
  82      2CC84538 
  82      3F2CE80A 
  82      CEFF
  83 010c 2C3FC1C2 		.ascii	",?\301\302\264\323\203U\364\317\320\006S\023\321\355"
  83      B4D38355 
  83      F4CFD006 
  83      5313D1ED 
  84 011c 4A55FF92 		.ascii	"JU\377\222\322\220\300Ur\025O\031\206S\251\304\304f"
  84      D290C055 
  84      72154F19 
  84      8653A9C4 
  84      C466
  85 012e 03D4FE06 		.ascii	"\003\324\376\006\325:\330V\237\345&\336\252\370n2\360"
  85      D53AD856 
  85      9FE526DE 
  85      AAF86E32 
  85      F0
  86 013f 5329FA57 		.ascii	"S)\372W\202?\225\252\177E\253+\336\020Y\271w\337J[\263"
  86      823F95AA 
  86      7F45AB2B 
  86      DE1059B9 
  86      77DF4A5B 
  87 0154 5280DDD2 		.ascii	"R\200\335\322u\271\335A\0006\341\223\357q1\217\355\272"
  87      75B9DD41 
  87      0036E193 
  87      EF71318F 
  87      EDBA
  88 0166 3B73F264 		.ascii	";s\362dG\277\263h\342y\356\004x\204L\351y\320+q\"*\216"
  88      47BFB368 
  88      E279EE04 
  88      78844CE9 
  88      79D02B71 
  89 017d 8B67594E 		.ascii	"\213gYN\331\004[7\323\314L\353L_1\342F\312d\342\265"
  89      D9045B37 
  89      D3CC4CEB 
  89      4C5F31E2 
  89      46CA64E2 
  90 0192 B29464AB 		.ascii	"\262\224d\253\251\364\232\311\346\242\263\343c,\022"
  90      A9F49AC9 
  90      E6A2B3E3 
  90      632C12
  91 01a1 9961D1F0 		.ascii	"\231a\321\360\354\306(3\327\026\223\311\345\021\035"
  91      ECC62833 
  91      D71693C9 
  91      E5111D
  92 01b0 BE002AE0 		.ascii	"\276\000*\340\3778"
  92      FF38
  93              		.text
ARM GAS  /tmp/ccfVQBAM.s 			page 7


  94              		.section	.gnu.lto_.symbol_nodes.7d9372b3c8a8857a,"",%progbits
  95 0000 789C6362 		.ascii	"x\234cb`bHd\200\002\246\026\246z\006\206\011\347\030"
  95      60624864 
  95      8002A616 
  95      A67A0686 
  95      09E718
  96 0013 18EAEBE7 		.ascii	"\030\352\353\347u02\2652\3253\"\270\214mL\365L\020n"
  96      753032B5 
  96      32D53322 
  96      B88C6D4C 
  96      F54C106E 
  97 0027 43032363 		.ascii	"C\003#c;S=3\202\327\301T\317\002\3471303\034\336j\302"
  97      3B533D33 
  97      82D7C154 
  97      CF02E731 
  97      3330331C 
  98 003e 0C347B71 		.ascii	"\0144{q\333\033yfF\026\206\303\355o\344\031\000Zp\033"
  98      DB1B7966 
  98      461686C3 
  98      ED6FE419 
  98      005A701B 
  99 0052 82       		.ascii	"\202"
 100              		.text
 101              		.section	.gnu.lto_.refs.7d9372b3c8a8857a,"",%progbits
 102 0000 789C6362 		.ascii	"x\234cb`b`d\200\002\000\000F\000\006"
 102      60626064 
 102      80020000 
 102      460006
 103              		.text
 104              		.section	.gnu.lto_.decls.7d9372b3c8a8857a,"",%progbits
 105 0000 789CA599 		.ascii	"x\234\245\231}p\023\307\025\300wO\362\207\260!\216\233"
 105      7D7013C7 
 105      15C0774F 
 105      F287B021 
 105      8E9B
 106 0012 50F72F4C 		.ascii	"P\367/L\247\264\231\3144\3026\015i;\223\301\310\006"
 106      A7B499CC 
 106      34C2360D 
 106      693B93C1 
 106      C806
 107 0024 3C6383E7 		.ascii	"<c\203\347d2\224\376\241\034\262\034k*\313T\222\011"
 107      643294FE 
 107      A11CB21C 
 107      6B2ACB54 
 107      9209
 108 0036 FC95330E 		.ascii	"\374\2253\016\014!4\010C\210C\015\330\011npKJ\010n0"
 108      0C213408 
 108      4388430D 
 108      D8096E70 
 108      4B4A086E 
 109 004b 0938C225 		.ascii	"\0118\302%\340B\032\210\3538`\276DH\361\204\001\302"
 109      E0421A88 
 109      EB3860BE 
 109      4448F184 
 109      01C2
 110 005d A7A134E0 		.ascii	"\247\2414\340\356\276\273\223n\317w\342.\275\341\275"
 110      EEBEBB93 
ARM GAS  /tmp/ccfVQBAM.s 			page 8


 110      6ECF77E2 
 110      2EBDE1BD 
 111 006d 5BEDEDFE 		.ascii	"[\355\355\376\336\333\267\357\226\3353\2078T\202\021"
 111      DEDBB7EF 
 111      96DD3387 
 111      38548211 
 112 007d 1A2557F3 		.ascii	"\032%W\363$\2046\333\021\262!\204\236%B\252Q;\222\256"
 112      248436DB 
 112      11B22184 
 112      9E2542AA 
 112      513B92AE 
 113 0091 3422DB89 		.ascii	"4\"\333\211\354 \262\223\310.\"\273\321\330\213\266"
 113      EC20B293 
 113      C82E22BB 
 113      D1D88BB6 
 114 00a1 C9229241 		.ascii	"\311\"\222A\244\233\310^\"\227e\316\004\"\331D\256\020"
 114      A49BC85E 
 114      229765CE 
 114      0422D944 
 114      AE10
 115 00b3 B94EE426 		.ascii	"\271N\344&\221N\331\316!\"\343\345\376\267\210\334!"
 115      914ED9CE 
 115      2122E3E5 
 115      FEB788DC 
 115      21
 116 00c4 728FC87D 		.ascii	"r\217\310}$5p`\311f6\271?B$\227\310\343X\362E{\355\220"
 116      24357060 
 116      C96636B9 
 116      3F422497 
 116      C8E358F2 
 117 00dc 598A0F79 		.ascii	"Y\212\017y\244\335o\210,$R\203\223>\235$B\206\213^\300"
 117      A4DD6F88 
 117      2C245283 
 117      933E9D24 
 117      42868B5E 
 118 00f1 927F5D44 		.ascii	"\222\177]D\306\021\3715\371\275\210H?)\017\0209B\344"
 118      C611F935 
 118      F9BD8848 
 118      3F290F10 
 118      3942E4
 119 0104 04918344 		.ascii	"\004\221\203DbD\372\210\364\020\341d[zqp\240U\242\270"
 119      6244FA88 
 119      F410E164 
 119      5B7A7170 
 119      A055A2B8 
 120 0118 5C6C5B29 		.ascii	"\\l[)\316\351#\343^\200\005<\301\201\362\241\220\355"
 120      CEE923E3 
 120      5E80053C 
 120      C181F2A1 
 120      90ED
 121 012a 00B353D0 		.ascii	"\000\263S\3206Q\214\306W4O\024\355\002n\307\016\002"
 121      36518CC6 
 121      57344F14 
 121      ED026EC7 
 121      0E02
 122 013c 9C82D193 		.ascii	"\234\202\321\223\250S$\365\242\330\373\303\377\213{"
 122      A85324F5 
ARM GAS  /tmp/ccfVQBAM.s 			page 9


 122      A2D8FBC3 
 122      FF8B7B
 123 014b AA63CD2F 		.ascii	"\252c\315/E1S\300\035@\366b$\340m\370I\231#\340\014"
 123      453153C0 
 123      1D40F662 
 123      24E06DF8 
 123      499923E0 
 124 0160 879A0BBF 		.ascii	"\207\232\013\277\225\006\024\006\217\345\002M\216G\220"
 124      95061406 
 124      8FE5024D 
 124      8E4790
 125 016f D5E693D0 		.ascii	"\325\346\223\320\026\261-\036\337\177\370j\356\233b"
 125      16B12D1E 
 125      DF7FF86A 
 125      EE9B62
 126 017e EC657174 		.ascii	"\354eqt\364%4\021\275N\006G\335\027qD\300\317>\256;"
 126      F4253411 
 126      BD4E0647 
 126      DD177144 
 126      C0CF3EAE 
 127 0193 02CAEFC4 		.ascii	"\002\312\357\304\023\345\322|\233d\223C\177\302\354"
 127      13E5D27C 
 127      9B649343 
 127      7FC2EC
 128 01a2 2010FA29 		.ascii	" \020\372)\352\240<q\273h\003\032m\277\035Ob]\3753\346"
 128      EAA03C71 
 128      BB68031A 
 128      6DBF1D4F 
 128      625DFD33 
 129 01b7 D415925F 		.ascii	"\324\025\222_\261\335\257\035\305b\263\370\335\350\250"
 129      B1DDAF1D 
 129      C562B3F8 
 129      DDE8A8
 130 01c6 4D36C7A1 		.ascii	"M6\307\241\235\246\014\354\320\032xw\254\201x4~\347"
 130      9DA60CEC 
 130      D01A7877 
 130      AC817834 
 130      7EE7
 131 01d8 D5E11578 		.ascii	"\325\341\025x]S[\237x\215\306C\261qe\214\015\011\362"
 131      5D535B9F 
 131      788DC643 
 131      B171658C 
 131      0D09F2
 132 01eb 9E2E24DA 		.ascii	"\236.$\332|\332\376\246\330+EOAl\347\364\021\357\353"
 132      7CDAFEA6 
 132      D82B454F 
 132      416CE7F4 
 132      11EFEB
 133 01fe 2246D61F 		.ascii	"\"F\326\037\303\011\204\371\011\350\222'\300\006y\216"
 133      C30984F9 
 133      09E89227 
 133      C006798E 
 134 020e A40C657E 		.ascii	"\244\014e~0\263\003\023\364\255\201c{X\307 \211\233"
 134      30B30313 
 134      F4AD8163 
 134      7B58C720 
 134      899B
ARM GAS  /tmp/ccfVQBAM.s 			page 10


 135 0220 5226B180 		.ascii	"R&\261\200\337\302SL\245Y.ZGG\224\257\"\211\351\012"
 135      DFC2534C 
 135      A5592E5A 
 135      474794AF 
 135      2289E90A 
 136 0234 EA799478 		.ascii	"\352y\224x\037\326\015\335~\032\336\207\2758\227\270"
 136      1FD60DDD 
 136      7E1ADE87 
 136      BD3897B8 
 137 0244 FA918D75 		.ascii	"\372\221\215u\365\241\030\352\323>\322U\352\004P1v\177"
 137      F5A118EA 
 137      D33ED255 
 137      EA045031 
 137      767F
 138 0256 289BBEBC 		.ascii	"(\233\276\274\264\036\351\214\\\276&\2436\361\345\246"
 138      B41EE98C 
 138      5CBE26A3 
 138      36F1E5A6 
 139 0266 D8E850EB 		.ascii	"\330\350P\353\217\304\266^\202\354\206W\3620\270@\373"
 139      8FC4B65E 
 139      82EC8657 
 139      F230B840 
 139      FB
 140 0277 EA45402E 		.ascii	"\352E@.J\227\334\200\345EOeG\005\005v\3242,\237\201"
 140      4A97DC80 
 140      E5454F65 
 140      47050576 
 140      D4322C9F 
 141 028c 35AB61C7 		.ascii	"5\253a\307\314\3002\215=\333\240\206\015X\206\261\236"
 141      CCC0328D 
 141      3DDBA086 
 141      0D5886B1 
 141      9E
 142 029d 6D54C34E 		.ascii	"mT\303N\232\201\345\030{\326\242\206\235\266\014c=\333"
 142      9A81E518 
 142      7BD6A286 
 142      9DB60C63 
 142      3DDB
 143 02af A486C5CD 		.ascii	"\244\206\305\315\300\362\214=kU\303.Z\206\261\236mQ"
 143      C0F28C3D 
 143      6B55C32E 
 143      5A86B19E 
 143      6D51
 144 02c1 C32E9B81 		.ascii	"\303.\233\201\345\033{\366\236\032v\3352\214\365\354"
 144      E51B7BF6 
 144      9E1A76DD 
 144      328CF5EC 
 145 02d1 7D35ECB6 		.ascii	"}5\354\266\031\330\023\306\236u\251a\377\261\014c=\373"
 145      19D813C6 
 145      9E75A961 
 145      FFB10C63 
 145      3DFB
 146 02e3 400DBB6F 		.ascii	"@\015\273o\0066\325\310\263\306X\367o\243\302\243(*"
 146      0636D5C8 
 146      B3C658F7 
 146      6FA3C2A3 
 146      282A
ARM GAS  /tmp/ccfVQBAM.s 			page 11


 147 02f5 2F291255 		.ascii	"/)\022UYV0\233Z\352f\355\306\315\004<\204\037\205\022"
 147      5956309B 
 147      5AEA66ED 
 147      C6CD043C 
 147      841F8512 
 148 0309 2C9FA2BC 		.ascii	",\237\242\274|B\013\2435\374\224\264J'_\177\271\220"
 148      7C420BA3 
 148      35FC94B4 
 148      4A275F7F 
 148      B990
 149 031b 5CB3D5AD 		.ascii	"\\\263\325\255\310\260\033\355\232a\263^\350\215\233"
 149      C8B01BED 
 149      9A61B35E 
 149      E88D9B
 150 032a 0DE287EA 		.ascii	"\015\342\207\352 \256\320\322\364\2028\303\030\266O"
 150      20AED0D2 
 150      F48238C3 
 150      18B64F
 151 0339 0D5B6D06 		.ascii	"\015[m\0066\3078Wz\324\260\327,\303X\317\216\253a\353"
 151      36C73857 
 151      7AD4B0D7 
 151      2CC358CF 
 151      8EAB61EB 
 152 034d CDC02A8D 		.ascii	"\315\300*\215=\353W\3036Z\206\251=k\214\015$\023\257"
 152      3DEB57C3 
 152      365A86A9 
 152      3D6B8C0D 
 152      2413AF
 153 0360 6D8626F3 		.ascii	"m\206&\363f\260\253-\323\254\335\260\231\200\277\261"
 153      66B0AB2D 
 153      D3ACDDB0 
 153      9980BFB1 
 154 0370 9C78970C 		.ascii	"\234x\227\014\022\0173\211w)\231x\255\332a3N\310\305"
 154      120F3389 
 154      77299978 
 154      ADDA6133 
 154      4EC8C5
 155 0383 053A31D4 		.ascii	"\005:1\324\273\324\377Q\013x?l$z\360d\242c\240{A\037"
 155      BBD4FF51 
 155      0B783F6C 
 155      247AF064 
 155      A263A07B 
 156 0399 047D0874 		.ascii	"\004}\010t\037\350#\240?\005\375\031\350\343\240\373"
 156      1FE823A0 
 156      3F05FD19 
 156      E8E3A0FB 
 157 03a9 410F801E 		.ascii	"A\017\200\036\004}\002\364\031\320\347@\237\007}\001"
 157      047D02F4 
 157      19D0E740 
 157      9F077D01 
 158 03b9 F4BF410F 		.ascii	"\364\277A\017\023\235\270\262\320\352\344\276]\332\203"
 158      139DB8B2 
 158      D0EAE4BE 
 158      5DDA83
 159 03c8 18C5EE32 		.ascii	"\030\305\3562\316Rz%f\250e\202\274\361\217w\210yy\211"
 159      CE527A25 
 159      66A86582 
ARM GAS  /tmp/ccfVQBAM.s 			page 12


 159      BCF18F77 
 159      88797989 
 160 03dc 1864AAE3 		.ascii	"\030d\252\343*mIH\007N\300W!\227\332\355X\033\032%@"
 160      2A6D4948 
 160      074EC057 
 160      2197DAED 
 160      581B1A25 
 161 03f1 57551324 		.ascii	"WU\023$\225\225\322(N\340s\024<'\367\272\"'\202j\352"
 161      9595D228 
 161      4EE07314 
 161      3C27F7BA 
 161      2227826A 
 162 0406 94D5AB65 		.ascii	"\224\325\253e\202\324]\356\372\214\3225C\356p\335r\016"
 162      82D45DEE 
 162      FA8CD235 
 162      43EE70DD 
 162      720E
 163 0418 DD30C8A1 		.ascii	"\3350\310\241t\375\220\322\255\261\021\352f2\244tS\034"
 163      74FD90D2 
 163      ADB111EA 
 163      6632A474 
 163      531C
 164 042a BB16DF7C 		.ascii	"\273\026\337|\241o\025>\320\261R\2146\306G_\332\032"
 164      A16F153E 
 164      D0B1528C 
 164      36C6475F 
 164      DA1A
 165 043c CB51F6D6 		.ascii	"\313Q\366\326\237\331\315\034\001ni\217\000\267\307"
 165      9FD9CD1C 
 165      016E698F 
 165      00B7C7
 166 044b 6EBD8995 		.ascii	"n\275\211\225h\363'\351\312\331g\262b\341\274)\013w"
 166      68F327E9 
 166      CAD967B2 
 166      62E1BC29 
 166      0B77
 167 045d B416EEEA 		.ascii	"\264\026\356\352Z\0309z:c\214\205\033\246,\334\323Z"
 167      5A18397A 
 167      3A638C85 
 167      1BA62CDC 
 167      D35A
 168 046f F8AF9E85 		.ascii	"\370\257\236\205\330]\262:\221\030\215\252b\264\"\315"
 168      D85DB23A 
 168      91188DAA 
 168      62B422CD 
 169 047f 0CFFBE96 		.ascii	"\014\377\276\226\377@w\004\037_\212\255\301\353v&f\""
 169      FF407704 
 169      1F5F8AAD 
 169      C1EB7626 
 169      6622
 170 0491 6A377F46 		.ascii	"j7\177Fi\344t\316(\2323\311A\306Yh\311\241\3764\371"
 170      69E474CE 
 170      289A33C9 
 170      41C65968 
 170      C9A1FE34 
 171 04a6 CDF8097A 		.ascii	"\315\370\011z[$\247\300\317\017eG\261r\010\217C\017"
 171      5B24A7C0 
ARM GAS  /tmp/ccfVQBAM.s 			page 13


 171      CF0F6547 
 171      B172088F 
 171      430F
 172 04b8 919B6470 		.ascii	"\221\233dp2\221\317>\362\230o6V\346%\306L;1cn\342\364"
 172      3291CF3E 
 172      F2986F36 
 172      56E625C6 
 172      4C3B3163 
 173 04cf C6BCF9C2 		.ascii	"\306\274\371\302\335\026\335\354\273h*\262\257h\255"
 173      DD16DDEC 
 173      BB682AB2 
 173      AF68AD
 174 04de ACD6B312 		.ascii	"\254\326\263\022\353\376\252O>\3416\255\342\022\207"
 174      EBFEAA4F 
 174      3EE136AD 
 174      E21287
 175 04ed C77BA64C 		.ascii	"\307{\246L\254\321\232\370\203\356@\242\315_\216M\360"
 175      ACD19AF8 
 175      83EE40A2 
 175      CD5F8E4D 
 175      F0
 176 04fe B5E9662C 		.ascii	"\265\351f,\254\325Z\210\352Z\030y\365\342\330\004\177"
 176      ACD55A88 
 176      EA5A1879 
 176      F5E2D804 
 176      7F
 177 050f CB948566 		.ascii	"\313\224\205f\255\205\365\272a\352:;&\301\367\230\342"
 177      AD85F5BA 
 177      61EA3A3B 
 177      26C1F798 
 177      E2
 178 0520 BFAEE56F 		.ascii	"\277\256\345od\371:G\312Xb\305^\225X\262\243\3617Fb"
 178      64F93A47 
 178      CA5862C5 
 178      5E9558B2 
 178      A3F13746 
 179 0535 9D789728 		.ascii	"\235x\227(\022\373-\034=\234\336\324\330\1778\211\232"
 179      12FB2D1C 
 179      3D9CDED4 
 179      D87F3889 
 179      9A
 180 0546 FF23A739 		.ascii	"\377#\2479\235n\035&\011@\217\274\364\311\303\317\247"
 180      9D6E1D26 
 180      09408FBC 
 180      F4C9C3CF 
 180      A7
 181 0557 BB87FB38 		.ascii	"\273\207\3738\032j\233\262\027\031\0057h\347\357w@\355"
 181      1A6A9BB2 
 181      17190537 
 181      68E7EF77 
 181      40ED
 182 0569 A2F69BB3 		.ascii	"\242\366\233\263\025\334\362\014\253\270|\006\367\001"
 182      15DCF20C 
 182      ABB87C06 
 182      F701
 183 0577 8B5B6D06 		.ascii	"\213[m\006\227\342\220\332\315\342\326Z\306\261\336"
 183      97E290DA 
ARM GAS  /tmp/ccfVQBAM.s 			page 14


 183      CDE2D65A 
 183      C6B1DE
 184 0586 7DC8E2D6 		.ascii	"}\310\342\326\233\301\2458\250\356cq\255\226q\254w="
 184      9BC1A538 
 184      A8EE6371 
 184      AD9671AC 
 184      773D
 185 0598 2CAEC30C 		.ascii	",\256\303\014\316\350\260*.\217\035Wp\322\212\371W\313"
 185      CEE8B02A 
 185      2E8F1D57 
 185      70D28AF9 
 185      57CB
 186 05aa 38D6BB7E 		.ascii	"8\326\273~\326\273n3\270|\343\330\015\260\270\003\226"
 186      D6BB6E33 
 186      B87CE3D8 
 186      0DB0B803 
 186      96
 187 05bb 712AEFC8 		.ascii	"q*\357\310k48\234\0114\272\015\346\320\021-Mo\247\232"
 187      6B34389C 
 187      0934BA0D 
 187      E6D0112D 
 187      4D6FA79A 
 188 05cf E2CC7A82 		.ascii	"\342\314z\202un\300\214s\206\007\315\246\330\020\213"
 188      756EC08C 
 188      738607CD 
 188      A6D8108B 
 189 05df 3B6D19C7 		.ascii	";m\031\307\316\304i\026\367\265\031\3343\306yr\226\315"
 189      CEC46916 
 189      F7B519DC 
 189      33C67972 
 189      96CD
 190 05f1 93CB9671 		.ascii	"\223\313\226q\254w\327X\357F\314\340f\030\307\356\006"
 190      AC77D758 
 190      EF46CCE0 
 190      6618C7EE 
 190      06
 191 0602 8B7B6019 		.ascii	"\213{`\031\307\346\311-&OVf\232\310\223\024\347\325"
 191      C7E6C92D 
 191      264F5666 
 191      9AC89314 
 191      E7D5
 192 0614 11D6B9A8 		.ascii	"\021\326\271\250\026g\361\220y\227\305m\262\214cg\342"
 192      1667F190 
 192      7997C56D 
 192      B28C6367 
 192      E2
 193 0625 1E8BDB66 		.ascii	"\036\213\333f\006\247w|\223\363\344;\315zb\031\307z"
 193      06A7777C 
 193      93F3E43B 
 193      CD7A6219 
 193      C77A
 194 0637 F740B39E 		.ascii	"\367@\263\236\230\301=o\034\273\350%\006\327k\031\307"
 194      98C13D6F 
 194      1CBBE825 
 194      06D76B19 
 194      C7
 195 0648 E649F325 		.ascii	"\346I\363%u\236|j&Oj\215\235\333\300:7h\306\271\305"
ARM GAS  /tmp/ccfVQBAM.s 			page 15


 195      759E7C6A 
 195      264F6A8D 
 195      9DDBC03A 
 195      3768C6B9 
 196 065d C6B88D2C 		.ascii	"\306\270\215,\356\224e\034;\326\026f\254\347\314\214"
 196      EE94651C 
 196      3BD61666 
 196      ACE7CC8C 
 197 066d 75A9B173 		.ascii	"u\251\261s\233X\347\2761\343\234\210\215y\255,\357["
 197      9B58E7BE 
 197      31E39C88 
 197      8D79AD2C 
 197      EF5B
 198 067f EBBC7C64 		.ascii	"\353\274|dx\2517d\002n\345\350W\210\315\034\3752\260"
 198      78A93764 
 198      026EE5E8 
 198      5788CD1C 
 198      FD32B0
 199 0692 15743BE8 		.ascii	"\025t;\350\267Aw\200~\007t'\350\277\200~\027\364N\320"
 199      B7417780 
 199      7E077427 
 199      E8BF807E 
 199      17F44ED0 
 200 06a6 BB40EF06 		.ascii	"\273@\357\006\3757\320{@\357\005\375\021\350\375\240"
 200      FD37D07B 
 200      40EF05FD 
 200      11E8FDA0 
 201 06b6 3F067D00 		.ascii	"?\006}\000\364\337A\177\002\3720\350\177\200>\012\372"
 201      F4DF417F 
 201      02FA30E8 
 201      7F803E0A 
 201      FA
 202 06c7 9FA08F81 		.ascii	"\237\240\217\201\376\034\364\277@\177\001\372K\316\370"
 202      FE1CF4BF 
 202      407F01FA 
 202      4BCEF8
 203 06d6 0B468B41 		.ascii	"\013F\213A\224\350\270Or\211\343\266\336\237U\230O\212"
 203      94E8B84F 
 203      7289E3B6 
 203      DE9F5598 
 203      4F8A
 204 06e8 D21638F6 		.ascii	"\322\0268\366\305F\234/\340!\330\375\336\313|\370\237"
 204      C5469C2F 
 204      E021D8FD 
 204      DECB7CF8 
 204      9F
 205 06f9 66C67C1C 		.ascii	"f\306|\034=\243\335\374\356\035\204?\315\2341\265\365"
 205      3DA3DDFC 
 205      EE1D843F 
 205      CD9C31B5 
 205      F5
 206 070a DD3FB881 		.ascii	"\335?\270\201\371\323\314+\016,3\277\337\316\267g0\361"
 206      F9D3CC2B 
 206      0E2C33BF 
 206      DFCEB767 
 206      30F1
 207 071c 494FC05B 		.ascii	"IO\300[8\316\",\237\201\035\037T}\037\214\232\361,\305"
ARM GAS  /tmp/ccfVQBAM.s 			page 16


 207      38CE222C 
 207      9F811D1F 
 207      547D1F8C 
 207      9AF12CC5 
 208 0730 AEB75F0D 		.ascii	"\256\267_\015{\3032,e\276\237Q\345\373Y\310\367s\220"
 208      7BC3322C 
 208      65BE9F51 
 208      E5FB59C8 
 208      F77390
 209 0743 47E7417F 		.ascii	"G\347A\177\005\372\353\02495\224\"\247.&sJ\323\253+"
 209      05FAEB14 
 209      39359422 
 209      A72E2673 
 209      4AD3AB2B 
 210 0757 C5879FE1 		.ascii	"\305\207\237\341d/\364cgC8\344\364\007\275\201\206j"
 210      642FF463 
 210      674338E4 
 210      F407BD81 
 210      866A
 211 0769 9F33E87B 		.ascii	"\2373\350{1\340_\344\014/\013;=\341H\265?\030y\252\026"
 211      31E05FE4 
 211      0C2F0B3B 
 211      3DE148B5 
 211      3F1879AA 
 212 077e 6536907B 		.ascii	"e6\220{Q\241'\222>{\356\374|\027\372\271^\227:\301["
 212      51A12792 
 212      3E7BEEFC 
 212      7C17FAB9 
 212      5E973AC1 
 213 0793 EB0FFA9C 		.ascii	"\353\017\372\234\236j_\215\320\020\210x\"\313\026\373"
 213      9E6A5F8D 
 213      D0108878 
 213      22CB16FB 
 214 07a3 C2A4F738 		.ascii	"\302\244\3678\217G\351?\035:\206C^'i\273\310_\037v\222"
 214      8F47E93F 
 214      1D3A8643 
 214      5E2769BB 
 214      C85F1F76 
 215 07b8 7FB542C0 		.ascii	"\177\265B\300\271\270>\024\011;\335U\025E\205\316\362"
 215      B9B83E14 
 215      093BDD55 
 215      154585CE 
 215      F2
 216 07c9 F2126755 		.ascii	"\362\022gUY\305\222"
 216      59C592
 217 07d0 026738E2 		.ascii	"\002g8\342\011\004\252\237\362\242\314\347|\336H}h\346"
 217      0904AA9F 
 217      F2A2CCE7 
 217      7CDE487D 
 217      68E6
 218 07e2 D42CA9CA 		.ascii	"\324,\251\312\343\017\372#\005z\260PDf\025\363\025\256"
 218      E30FFA23 
 218      057AB050 
 218      446615F3 
 218      15AE
 219 07f4 8AA5E491 		.ascii	"\212\245\344\221\267>\344\363,\231^G<\311\365\320g\036"
 219      B73EE4F3 
ARM GAS  /tmp/ccfVQBAM.s 			page 17


 219      2C995E47 
 219      3CC9F5D0 
 219      671E
 220 0806 7FE8F71E 		.ascii	"\177\350\367\036\337b\177\240\376\205\006\337\317\014"
 220      DF627FA0 
 220      FE8506DF 
 220      CF0C
 221 0814 20CAE0BC 		.ascii	" \312\340\274\265$\024\264\253\267\326\275,\\\345\257"
 221      B52414B4 
 221      ABB7D6BD 
 221      2C5CE5AF 
 222 0824 F385E608 		.ascii	"\363\205\346\010\301\352\200/TV\224z0\336\372\272\272"
 222      C1EA802F 
 222      5456947A 
 222      30DEFABA 
 222      BA
 223 0835 FAA0E247 		.ascii	"\372\240\342Gp\211\337K09\364^\032\024\026\005|\322"
 223      7089DF4B 
 223      3039F45E 
 223      1A141605 
 223      7CD2
 224 0847 907E6535 		.ascii	"\220~e5\"u4\216~:\232\254\304\017O\304\346\342\013\210"
 224      2275348E 
 224      7E3A9AAC 
 224      C40F4FC4 
 224      E6E20B88 
 225 085b 14DADD15 		.ascii	"\024\332\335\025.\336^RV\312sn\336V:\233Os\271*\370"
 225      2EDE5E52 
 225      56CA736E 
 225      DE563A9B 
 225      4F73B92A 
 226 0870 02D08576 		.ascii	"\002\320\205v\227\253\224\267\271\346V\331*\335.[1\317"
 226      97AB94B7 
 226      B9E656D9 
 226      2ADD2E5B 
 226      31CF
 227 0882 DB7817F9 		.ascii	"\333x\027\371M:\314,\251\342m%\264gE1\317\315\223z\025"
 227      4D3ACC2C 
 227      A9E26D25 
 227      B4674531 
 227      CFCD937A 
 228 0897 91F60B78 		.ascii	"\221\366\013x\273\267V\010\351F\211zY\037&\212\204\213"
 228      BBB75608 
 228      E946897A 
 228      591F268A 
 228      848B
 229 08a9 DE6994E8 		.ascii	"\336i\224\350\235\304\251\274\336\373\273Y\241\372\272"
 229      9DC4A9BC 
 229      DEFBBB59 
 229      A1FABA
 230 08b8 32379F03 		.ascii	"27\237\003\201SU\344\302\034\004H\205\247\206\324x\374"
 230      815355E4 
 230      C21C0448 
 230      85A786D4 
 230      78FC
 231 08ca E1902351 		.ascii	"\341\220#Q5M\317\220oi\304\351\252p\227\271\223\263"
 231      354DCF90 
ARM GAS  /tmp/ccfVQBAM.s 			page 18


 231      6F69C4E9 
 231      AA7097B9 
 231      93B3
 232 08dc 42E7D45B 		.ascii	"B\347\324[7\253!H\203:\336\343\011\373\"\236\231\305"
 232      37AB2148 
 232      833ADEE3 
 232      09FB229E 
 232      99C5
 233 08ee EED24ABE 		.ascii	"\356\322J\276l\274\020xQX\026&)\022 \351\230\266D\010"
 233      6CBC1078 
 233      51581626 
 233      291220E9 
 233      98B64408 
 234 0902 34F87E40 		.ascii	"4\370~@\375\232\307N\337c\262\257\363\203\001\225s\340"
 234      FD9AC74E 
 234      DF63B2AF 
 234      F3830195 
 234      73E0
 235 0914 2D53F518 		.ascii	"-S\365\0308\327\020d<\316RU:S\373\354\256\222f\255f"
 235      38D71064 
 235      3CCE5255 
 235      3A53FBEC 
 235      AE9266AD 
 236 0929 DAD4E94B 		.ascii	"\332\324\351K\227\322y\343].O\025y9J|5\234\213\317\250"
 236      97D279E3 
 236      5D2E4F15 
 236      79394A7C 
 236      359C8BCF 
 237 093e 2C2F77CD 		.ascii	",/w\315\232\315\333\251\262\271\312\370\314\34293\013"
 237      9ACDDBA9 
 237      B2B9CAF8 
 237      CCE23933 
 237      0B
 238 094f 78771514 		.ascii	"xw\025\024\012\225B\021-8\370Rw)\377\\i\311\324\314"
 238      0A954211 
 238      2D38F852 
 238      7729FF5C 
 238      69C9D4CC 
 239 0963 E24AA551 		.ascii	"\342J\245Q\245\324(\361\254 \203\002J\347\362\364^("
 239      A5D428F1 
 239      AC208302 
 239      4AE7F2F4 
 239      5E28
 240 0975 DF8BC83D 		.ascii	"\337\213\310=\321\2420\203\366\206'\225\320\"\361\244"
 240      D1A23083 
 240      F6862795 
 240      D022F1A4 
 241 0985 C841FB96 		.ascii	"\310A\373\226W\322:\332;Q*\222JJ\273i\016J\220\237V"
 241      57D23ADA 
 241      3B512A92 
 241      4A4ABB69 
 241      0E4A909F 
 242 099a 2AED94A7 		.ascii	"*\355\224\247\277 \011E3\313\235\254z:\315\355v\315"
 242      BF200945 
 242      33CB9DAC 
 242      7A3ACDED 
 242      76CD
ARM GAS  /tmp/ccfVQBAM.s 			page 19


 243 09ac E6C791C1 		.ascii	"\346\307\221\301\226\025\272\351P'\224\314\234]\341"
 243      9615BAE9 
 243      502794CC 
 243      9C5DE1
 244 09bb 9AAF4422 		.ascii	"\232\257D\"\275\254\3045\257\2444\235rg-\244\267\302"
 244      BDACC435 
 244      AFA4349D 
 244      72672DA4 
 244      B7C2
 245 09cd 590BFF07 		.ascii	"Y\013\377\007)\001H%"
 245      29014825 
 246              		.text
 247              		.section	.gnu.lto_.symtab.7d9372b3c8a8857a,"",%progbits
 248 0000 56656374 		.ascii	"VectorB0\000\000\000\000\000\000\000\000\000\000\000"
 248      6F724230 
 248      00000000 
 248      00000000 
 248      000000
 249 0013 00A80000 		.ascii	"\000\250\000\000\000st_lld_init\000\000\000\000\000"
 249      0073745F 
 249      6C6C645F 
 249      696E6974 
 249      00000000 
 250 0028 00000000 		.ascii	"\000\000\000\000\000\000\000\254\000\000\000_port_i"
 250      000000AC 
 250      0000005F 
 250      706F7274 
 250      5F69
 251 003a 72715F65 		.ascii	"rq_epilogue\000\000\002\000\000\000\000\000\000\000"
 251      70696C6F 
 251      67756500 
 251      00020000 
 251      00000000 
 252 004f 0000AF00 		.ascii	"\000\000\257\000\000\000chSysTimerHandlerI\000\000\002"
 252      00006368 
 252      53797354 
 252      696D6572 
 252      48616E64 
 253 006a 00000000 		.ascii	"\000\000\000\000\000\000\000\000\000\261\000\000\000"
 253      00000000 
 253      00B10000 
 253      00
 254 0077 6E766963 		.ascii	"nvicEnableVector\000\000\002\000\000\000\000\000\000"
 254      456E6162 
 254      6C655665 
 254      63746F72 
 254      00000200 
 255 0090 000000B3 		.ascii	"\000\000\000\263\000\000\000"
 255      000000
 256              		.text
 257              		.section	.gnu.lto_.opts,"",%progbits
 258 0000 272D6D63 		.ascii	"'-mcpu=cortex-m4' '-mno-thumb-interwork' '-mthumb' "
 258      70753D63 
 258      6F727465 
 258      782D6D34 
 258      2720272D 
 259 0033 272D6767 		.ascii	"'-ggdb' '-O2' '-fomit-frame-pointer' '-falign-funct"
ARM GAS  /tmp/ccfVQBAM.s 			page 20


 259      64622720 
 259      272D4F32 
 259      2720272D 
 259      666F6D69 
 260 0066 696F6E73 		.ascii	"ions=16' '-ffunction-sections' '-fdata-sections' '-"
 260      3D313627 
 260      20272D66 
 260      66756E63 
 260      74696F6E 
 261 0099 666E6F2D 		.ascii	"fno-common' '-flto'\000"
 261      636F6D6D 
 261      6F6E2720 
 261      272D666C 
 261      746F2700 
 262              		.text
 263              		.cfi_sections	.debug_frame
 264              		.section	.text.VectorB0,"ax",%progbits
 265              		.align	2
 266              		.p2align 4,,15
 267              		.global	VectorB0
 268              		.thumb
 269              		.thumb_func
 270              		.type	VectorB0, %function
 271              	VectorB0:
 272              	.LFB260:
 273              		.file 1 "/usr/src/chibios/os/hal/ports/STM32/LLD/TIMv1/st_lld.c"
 274              		.loc 1 173 0
 275              		.cfi_startproc
 276              		@ args = 0, pretend = 0, frame = 0
 277              		@ frame_needed = 0, uses_anonymous_args = 0
 278              		.loc 1 180 0
 279 0000 4FF08043 		mov	r3, #1073741824
 280              		.loc 1 173 0
 281 0004 10B5     		push	{r4, lr}
 282              		.cfi_def_cfa_offset 8
 283              		.cfi_offset 4, -8
 284              		.cfi_offset 14, -4
 285              		.loc 1 180 0
 286 0006 1A69     		ldr	r2, [r3, #16]
 287 0008 9207     		lsls	r2, r2, #30
 288 000a 08D5     		bpl	.L2
 289              		.loc 1 181 0
 290 000c 0024     		movs	r4, #0
 291 000e 1C61     		str	r4, [r3, #16]
 292              	.LVL0:
 293              	.LBB52:
 294              	.LBB53:
 295              	.LBB54:
 296              	.LBB55:
 297              	.LBB56:
 298              	.LBB57:
 299              		.file 2 "/usr/src/chibios/os/ext/CMSIS/include/core_cmFunc.h"
 300              		.loc 2 546 0
 301 0010 2023     		movs	r3, #32
 302              	@ 546 "/usr/src/chibios/os/ext/CMSIS/include/core_cmFunc.h" 1
 303 0012 83F31188 		MSR basepri, r3
 304              	@ 0 "" 2
ARM GAS  /tmp/ccfVQBAM.s 			page 21


 305              		.thumb
 306              	.LBE57:
 307              	.LBE56:
 308              	.LBE55:
 309              	.LBE54:
 310              	.LBE53:
 311              	.LBE52:
 312              	.LBB58:
 313              	.LBB59:
 314              		.file 3 "/usr/src/chibios/os/hal/osal/rt/osal.h"
 315              		.loc 3 585 0
 316 0016 FFF7FEFF 		bl	chSysTimerHandlerI
 317              	.LVL1:
 318              	.LBE59:
 319              	.LBE58:
 320              	.LBB60:
 321              	.LBB61:
 322              	.LBB62:
 323              	.LBB63:
 324              	.LBB64:
 325              	.LBB65:
 326              		.loc 2 546 0
 327              	@ 546 "/usr/src/chibios/os/ext/CMSIS/include/core_cmFunc.h" 1
 328 001a 84F31188 		MSR basepri, r4
 329              	@ 0 "" 2
 330              	.LVL2:
 331              		.thumb
 332              	.L2:
 333              	.LBE65:
 334              	.LBE64:
 335              	.LBE63:
 336              	.LBE62:
 337              	.LBE61:
 338              	.LBE60:
 339              		.loc 1 189 0
 340 001e BDE81040 		pop	{r4, lr}
 341              		.loc 1 188 0
 342 0022 FFF7FEBF 		b	_port_irq_epilogue
 343              	.LVL3:
 344              		.cfi_endproc
 345              	.LFE260:
 346              		.size	VectorB0, .-VectorB0
 347 0026 00BF     		.section	.text.st_lld_init,"ax",%progbits
 348              		.align	2
 349              		.p2align 4,,15
 350              		.global	st_lld_init
 351              		.thumb
 352              		.thumb_func
 353              		.type	st_lld_init, %function
 354              	st_lld_init:
 355              	.LFB261:
 356              		.loc 1 201 0
 357              		.cfi_startproc
 358              		@ args = 0, pretend = 0, frame = 0
 359              		@ frame_needed = 0, uses_anonymous_args = 0
 360              		@ link register save eliminated.
 361              		.loc 1 207 0
ARM GAS  /tmp/ccfVQBAM.s 			page 22


 362 0000 0F4B     		ldr	r3, .L8
 363              		.loc 1 210 0
 364 0002 1049     		ldr	r1, .L8+4
 365              		.loc 1 207 0
 366 0004 1A6C     		ldr	r2, [r3, #64]
 367              		.loc 1 201 0
 368 0006 70B4     		push	{r4, r5, r6}
 369              		.cfi_def_cfa_offset 12
 370              		.cfi_offset 4, -12
 371              		.cfi_offset 5, -8
 372              		.cfi_offset 6, -4
 373              		.loc 1 207 0
 374 0008 42F00102 		orr	r2, r2, #1
 375 000c 1A64     		str	r2, [r3, #64]
 376              		.loc 1 210 0
 377 000e 8868     		ldr	r0, [r1, #8]
 378              		.loc 1 213 0
 379 0010 4FF08043 		mov	r3, #1073741824
 380              		.loc 1 215 0
 381 0014 0022     		movs	r2, #0
 382              		.loc 1 219 0
 383 0016 0124     		movs	r4, #1
 384              		.loc 1 210 0
 385 0018 40F00100 		orr	r0, r0, #1
 386              		.loc 1 213 0
 387 001c 42F2CF06 		movw	r6, #8399
 388              		.loc 1 214 0
 389 0020 4FF0FF35 		mov	r5, #-1
 390              		.loc 1 210 0
 391 0024 8860     		str	r0, [r1, #8]
 392              		.loc 1 213 0
 393 0026 9E62     		str	r6, [r3, #40]
 394              		.loc 1 223 0
 395 0028 1C20     		movs	r0, #28
 396              		.loc 1 214 0
 397 002a DD62     		str	r5, [r3, #44]
 398              		.loc 1 223 0
 399 002c 0821     		movs	r1, #8
 400              		.loc 1 215 0
 401 002e 9A61     		str	r2, [r3, #24]
 402              		.loc 1 216 0
 403 0030 5A63     		str	r2, [r3, #52]
 404              		.loc 1 217 0
 405 0032 DA60     		str	r2, [r3, #12]
 406              		.loc 1 218 0
 407 0034 5A60     		str	r2, [r3, #4]
 408              		.loc 1 219 0
 409 0036 5C61     		str	r4, [r3, #20]
 410              		.loc 1 220 0
 411 0038 1C60     		str	r4, [r3]
 412              		.loc 1 238 0
 413 003a 70BC     		pop	{r4, r5, r6}
 414              		.loc 1 223 0
 415 003c FFF7FEBF 		b	nvicEnableVector
 416              	.LVL4:
 417              	.L9:
 418              		.align	2
ARM GAS  /tmp/ccfVQBAM.s 			page 23


 419              	.L8:
 420 0040 00380240 		.word	1073887232
 421 0044 002004E0 		.word	-536600576
 422              		.cfi_endproc
 423              	.LFE261:
 424              		.size	st_lld_init, .-st_lld_init
 425              		.text
 426              	.Letext0:
 427              		.file 4 "/usr/include/newlib/machine/_default_types.h"
 428              		.file 5 "/usr/include/newlib/sys/_stdint.h"
 429              		.file 6 "/usr/src/chibios/os/rt/ports/ARMCMx/compilers/GCC/chtypes.h"
 430              		.file 7 "/usr/src/chibios/os/rt/include/chsystypes.h"
 431              		.file 8 "/usr/src/chibios/os/rt/include/chschd.h"
 432              		.file 9 "/usr/src/chibios/os/ext/CMSIS/ST/stm32f407xx.h"
 433              		.file 10 "/usr/src/chibios/os/rt/ports/ARMCMx/chcore.h"
 434              		.file 11 "/usr/src/chibios/os/rt/ports/ARMCMx/chcore_v7m.h"
 435              		.file 12 "/usr/src/chibios/os/hal/ports/STM32/LLD/TIMv1/stm32_tim.h"
 436              		.file 13 "/usr/src/chibios/os/rt/include/chtm.h"
 437              		.file 14 "/usr/src/chibios/os/rt/include/chsem.h"
 438              		.file 15 "/usr/src/chibios/os/rt/include/chmtx.h"
 439              		.file 16 "/usr/src/chibios/os/rt/include/chsys.h"
 440              		.file 17 "/usr/src/chibios/os/ext/CMSIS/include/core_cm4.h"
 441              		.file 18 "/usr/src/chibios/os/hal/ports/common/ARMCMx/nvic.h"