ARM GAS  /tmp/cchAnumW.s 			page 1


   1              		.syntax unified
   2              		.cpu cortex-m4
   3              		.fpu softvfp
   4              		.eabi_attribute 20, 1
   5              		.eabi_attribute 21, 1
   6              		.eabi_attribute 23, 3
   7              		.eabi_attribute 24, 1
   8              		.eabi_attribute 25, 1
   9              		.eabi_attribute 26, 1
  10              		.eabi_attribute 30, 2
  11              		.eabi_attribute 34, 1
  12              		.eabi_attribute 18, 4
  13              		.thumb
  14              		.file	"syscalls.c"
  15              		.text
  16              	.Ltext0:
  17              		.section	.gnu.lto_.jmpfuncs.dc70065dfaf339ae,"",%progbits
  18 0000 789C6362 		.ascii	"x\234cb`b\300\006t\2414;\003##\003\023\0073\003\013"
  18      6062C006 
  18      74A1343B 
  18      03232303 
  18      13073303 
  19 0015 33230303 		.ascii	"3#\003\003+\01333\003\003S\031P(\2021\223\021\244\000"
  19      2B0B3333 
  19      03035319 
  19      50288231 
  19      9311A400 
  20 0029 CC60B461 		.ascii	"\314`\264a``c`\000\0004>\002\245"
  20      60606360 
  20      0000343E 
  20      02A5
  21              		.text
  22              		.section	.gnu.lto_.inline.dc70065dfaf339ae,"",%progbits
  23 0000 789C6362 		.ascii	"x\234cb`b\300\006f@iv\006\006\026fF\006&\306\027\354"
  23      6062C006 
  23      66406976 
  23      06061666 
  23      460626C6 
  24 0016 0CEC1DEA 		.ascii	"\014\354\035\352`\305\214\014\314L\214`}l\013\344\301"
  24      60C58C0C 
  24      CC4C8C60 
  24      7D6C0BE4 
  24      C1
  25 0027 224C1822 		.ascii	"\"L\030\"\314\030\",\014\234\002\214@\000R\316\372C"
  25      CC18222C 
  25      0C9C028C 
  25      400052CE 
  25      FA43
  26 0039 8181FD87 		.ascii	"\201\201\375\207\002D%\017\320\304\011~\254\014\034"
  26      0244250F 
  26      D0C4097E 
  26      AC0C1C
  27 0048 0268F6B0 		.ascii	"\002h\366\260\360\002e'\370\001\215\3000\214\001\000"
  27      F0026527 
  27      F8018DC0 
  27      308C0100 
  28 0058 77DC0BA7 		.ascii	"w\334\013\247"
ARM GAS  /tmp/cchAnumW.s 			page 2


  29              		.text
  30              		.section	.gnu.lto_.pureconst.dc70065dfaf339ae,"",%progbits
  31 0000 789C6362 		.ascii	"x\234cb`b\340g\200\000v\006)F \227\231\201E\212U\212"
  31      6062E067 
  31      80007606 
  31      29462097 
  31      9981458A 
  32 0016 8D010004 		.ascii	"\215\001\000\004\327\000~"
  32      D7007E
  33              		.text
  34              		.section	.gnu.lto__read_r.dc70065dfaf339ae,"",%progbits
  35 0000 789C6362 		.ascii	"x\234cb`b@\007\222@\274\014\2105\201\230\221\231\201"
  35      60624007 
  35      9240BC0C 
  35      88358198 
  35      919981
  36 0013 9169C239 		.ascii	"\221i\3029\006\206F\016&FF\020\203\201\221\241\236\211"
  36      0686460E 
  36      26464610 
  36      838191A1 
  36      9E89
  37 0025 B13E9211 		.ascii	"\261>\222\021\254v=\323\201\007\377\377\257\233wl\301"
  37      AC763DD3 
  37      8107FFFF 
  37      AF9B776C 
  37      C1
  38 0036 7A464616 		.ascii	"zFF\026&\306\\\2600+CKC\303\004\005\006\206d07\004H"
  38      26C65CB0 
  38      302B434B 
  38      43C30405 
  38      06866430 
  39 004d 82B48632 		.ascii	"\202\264\20622\201h\346\263\014M;f\274>\300\224\310"
  39      328168E6 
  39      B30C4D3B 
  39      66BC3EC0 
  39      94C8
  40 005f B8909195 		.ascii	"\270\220\221\225A\233aU\003\020\260g22\314f\230\305"
  40      419B6155 
  40      0310B067 
  40      3232CC66 
  40      98C5
  41 0071 98C9C898 		.ascii	"\230\311\310\230\316\310\024\001\244!.K\202X\304\000"
  41      CEC81401 
  41      A4212E4B 
  41      8258C400 
  42 0081 12611003 		.ascii	"\022a\020\0032.24.X\313\014\321\013\026\374\017\003"
  42      322E3234 
  42      2E58CB0C 
  42      D10B16FC 
  42      0F03
  43 0093 8CF510A5 		.ascii	"\214\365\020\245!\214\214 {@\372\325\365K\213\213\364"
  43      218C8C20 
  43      7B40FAD5 
  43      F54B8B8B 
  43      F4
  44 00a4 8B8B92F5 		.ascii	"\213\213\222\365\22332\2232\363\213\365\201\250,\261"
  44      93333293 
ARM GAS  /tmp/cchAnumW.s 			page 3


  44      32F38BF5 
  44      81A82CB1 
  45 00b4 2833BFB4 		.ascii	"(3\277\264X\277\270\262891'\247X/\231\001\000x\035>"
  45      58BFB8B2 
  45      38393127 
  45      A7582F99 
  45      0100781D 
  46 00c9 B9       		.ascii	"\271"
  47              		.text
  48              		.section	.gnu.lto__lseek_r.dc70065dfaf339ae,"",%progbits
  49 0000 789C6362 		.ascii	"x\234cb`b@\007\222@\034\005\304\232@\314\310\314\300"
  49      60624007 
  49      92401C05 
  49      C49A40CC 
  49      C8CCC0
  50 0013 C834E11C 		.ascii	"\3104\341\034\003C#\007\023##\210\301\300\310P\317\304"
  50      03432307 
  50      13232388 
  50      C1C0C850 
  50      CFC4
  51 0025 581FC908 		.ascii	"X\037\311\010V\273\236\351\300\203\377\377\327\3758"
  51      56BB9EE9 
  51      C083FFFF 
  51      D7FD38
  52 0034 B6E03423 		.ascii	"\266\3404##\310(V\206\226\206\206\011\012\014\014\311"
  52      23C82856 
  52      86968686 
  52      090A0C0C 
  52      C9
  53 0045 60052140 		.ascii	"`\005!@\022\244+\024(\011\244\231/24>8\225\234\310\270"
  53      12A42B14 
  53      2809A499 
  53      2F32343E 
  53      38959CC8 
  54 005a 90919521 		.ascii	"\220\221\225!\2021\223\021ni\010##H\001\310\010u\375"
  54      82319311 
  54      6E690823 
  54      234801C8 
  54      0875FD
  55 006d D2E222FD 		.ascii	"\322\342\"\375\342\242d\375\344\214\314\244\314\374"
  55      E2A264FD 
  55      E48CCCA4 
  55      CCFC
  56 007b 627D202A 		.ascii	"b} *K,\312\314/-\326/\256,NN\314\311)\326Kf\000\000"
  56      4B2CCACC 
  56      2F2DD62F 
  56      AE2C4E4E 
  56      CCC929D6 
  57 0093 E0E4290F 		.ascii	"\340\344)\017"
  58              		.text
  59              		.section	.gnu.lto__write_r.dc70065dfaf339ae,"",%progbits
  60 0000 789C6362 		.ascii	"x\234cb`b@\007\222@\034\015\304\232@\314\310\314\300"
  60      60624007 
  60      92401C0D 
  60      C49A40CC 
  60      C8CCC0
  61 0013 C834E11C 		.ascii	"\3104\341\034\003C#\007\023##\210\301\300\310P\317\304"
ARM GAS  /tmp/cchAnumW.s 			page 4


  61      03432307 
  61      13232388 
  61      C1C0C850 
  61      CFC4
  62 0025 581FC908 		.ascii	"X\037\311\010V\273\236\351\300\203\377\377\327m8\276"
  62      56BB9EE9 
  62      C083FFFF 
  62      D76D38BE 
  63 0035 E00D2323 		.ascii	"\340\015##3#c.X\230\225\241\245\241a\202\002\003C2\230"
  63      3323632E 
  63      589895A1 
  63      A5A16182 
  63      02034332 
  64 004a 1B022441 		.ascii	"\033\002$AZC\031\231@4\363E\206\306\007\257\223\023"
  64      5A431999 
  64      4034F345 
  64      86C607AF 
  64      9313
  65 005c 191732B2 		.ascii	"\031\0272\2622\2443B\014\002*b\004I\202\234\243\256"
  65      32A43342 
  65      0C022A62 
  65      0449829C 
  65      A3AE
  66 006e 5F5A5CA4 		.ascii	"_Z\\\244_\\\224\254\237\234\221\231\224\231_\254\017"
  66      5F5C94AC 
  66      9F9C9199 
  66      94995FAC 
  66      0F
  67 007f 44658945 		.ascii	"De\211E\231\371\245\305\372\305\225\305\311\21199\305"
  67      99F9A5C5 
  67      FAC595C5 
  67      C9893939 
  67      C5
  68 0090 7AC90C00 		.ascii	"z\311\014\000\324\351)\""
  68      D4E92922 
  69              		.text
  70              		.section	.gnu.lto__close_r.dc70065dfaf339ae,"",%progbits
  71 0000 789C6362 		.ascii	"x\234cb`b@\007\222@\034\005\304\232@\314\310\314\300"
  71      60624007 
  71      92401C05 
  71      C49A40CC 
  71      C8CCC0
  72 0013 C834E11C 		.ascii	"\3104\341\034\003C#\007\023##\210\301\300\310P\317\304"
  72      03432307 
  72      13232388 
  72      C1C0C850 
  72      CFC4
  73 0025 581FC908 		.ascii	"X\037\311\010V\273\236\351\300\203\377\377\327}:\276"
  73      56BB9EE9 
  73      C083FFFF 
  73      D77D3ABE 
  74 0035 E01F2323 		.ascii	"\340\037##\310(V\206\226\206\206\011\012\014\014\311"
  74      C8285686 
  74      96868609 
  74      0A0C0CC9 
  75 0045 60052140 		.ascii	"`\005!@\022\244+\024(\011\244\231/24>\370\233\234\310"
  75      12A42B14 
ARM GAS  /tmp/cchAnumW.s 			page 5


  75      2809A499 
  75      2F32343E 
  75      F89B9CC8 
  76 0059 B8909195 		.ascii	"\270\220\221\225!\2021\223\021ni\010##H\001\310\010"
  76      21823193 
  76      116E6908 
  76      23234801 
  76      C808
  77 006b 75FDD2E2 		.ascii	"u\375\322\342\"\375\342\242d\375\344\214\314\244\314"
  77      22FDE2A2 
  77      64FDE48C 
  77      CCA4CC
  78 007a FC627D20 		.ascii	"\374b} *K,\312\314/-\326/\256,NN\314\311)\326Kf\000"
  78      2A4B2CCA 
  78      CC2F2DD6 
  78      2FAE2C4E 
  78      4ECCC929 
  79 0092 0003B729 		.ascii	"\000\003\267)p"
  79      70
  80              		.text
  81              		.section	.gnu.lto__sbrk_r.dc70065dfaf339ae,"",%progbits
  82 0000 789C8552 		.ascii	"x\234\205R1K[Q\024\376\276{oL\252\001\263v\013Y\012"
  82      314B5B51 
  82      14FEBE7B 
  82      6F4CAA01 
  82      B3760B59 
  83 0015 29F8DAEE 		.ascii	")\370\332\356\376\012\015\324\361\345\015\351\005\255"
  83      FE0A0DD4 
  83      F1E50DE9 
  83      05AD
  84 0023 250F0BE2 		.ascii	"%\017\013\342\220k\314 \322!H\026\033\204\204\022\007"
  84      906BCC20 
  84      D2214816 
  84      1B848412 
  84      07
  85 0034 1727A143 		.ascii	"\027'\241C\207\024\034\332B[\202\223\233tq)]\\J)>\317"
  85      87141CDA 
  85      425B8293 
  85      9B747129 
  85      5D5C4A29 
  86 004a 7D0FA575 		.ascii	"}\017\245u\361\360\336;\357\036\276\357\234\363}\357"
  86      F1F0DE3B 
  86      EF1EBEEF 
  86      9CF37DEF 
  87 005a 2928DC8D 		.ascii	")(\334\215gr\177f\226\231\003U\367\033\260YPJ_\226\340"
  87      67727F66 
  87      96990355 
  87      F71BB059 
  87      504A5F96 
  88 006f A6CDFE3C 		.ascii	"\246\315\376<\\Q\323deC\372\027\020-\245\015[K\364="
  88      5C51D364 
  88      6543FA17 
  88      102DA50D 
  88      5B4BF43D 
  89 0083 540543E7 		.ascii	"T\005C\347v\317G\007\023\265\327\033w\006\356o\222\220"
  89      76CF4707 
  89      13B5D71B 
ARM GAS  /tmp/cchAnumW.s 			page 6


  89      7706EE6F 
  89      9290
  90 0095 9632AF4A 		.ascii	"\2262\257JD\304s9\260\234&e\376_ \343\216\373_\336<"
  90      44C47339 
  90      B09C2665 
  90      FE5F20E3 
  90      8EFB5FDE 
  91 00aa 748376D7 		.ascii	"t\203v\327]\011\325R+<\275\217y\244\306\347I\362a\322"
  91      5D09D552 
  91      2B3CBD8F 
  91      79A4C6E7 
  91      49F261D2 
  92 00be F9519D26 		.ascii	"\371Q\235&,\215\346\012a\020r\310\012\362\222\337I."
  92      2C8DE60A 
  92      611072C8 
  92      0AF292DF 
  92      492E
  93 00d0 48D16F99 		.ascii	"H\321o\231C\307\271n9+\256P\234\210\322\345\027\345"
  93      43C7B96E 
  93      392BAE50 
  93      9C88D2E5 
  93      17E5
  94 00e2 E935D5A4 		.ascii	"\3515\325\244$Y\177E\373\327\326E\257\032r$~4h\032\324"
  94      24597F45 
  94      FBD7D645 
  94      AF1A7224 
  94      7E34681A 
  95 00f7 C07774C6 		.ascii	"\300wt\306\271\233R~\003\177\334\266+Y\346\242\2647"
  95      B99B527E 
  95      037FDCB6 
  95      2B59E6A2 
  95      B437
  96 0109 3CCE724A 		.ascii	"<\316rJ\254\204\312P\331\034\301\002\237pr\361\361x"
  96      AC84CA50 
  96      D91CC102 
  96      9F7072F1 
  96      F178
  97 011b 47DFD2BD 		.ascii	"G\337\322\275\030\375\257\222\232\034/K~\364\373\337"
  97      18FDAF92 
  97      9A1C2F4B 
  97      7EF4FBDF 
  98 012b E261067C 		.ascii	"\342a\006|\214C'1c\231\357\343\255P\012\015\026<\365"
  98      8C432731 
  98      6399EFE3 
  98      AD500A0D 
  98      163CF5
  99 013e 41CAA967 		.ascii	"A\312\251g\203Sg\362\305\333F&\0251\221o\345\227J1g"
  99      835367F2 
  99      C5DB4626 
  99      1531916F 
  99      E5974A31 
 100 0153 A0079944 		.ascii	"\240\007\231Db\026\372dAVP?O\213^;=\334\377\025\217"
 100      6216FA64 
 100      4156503F 
 100      4F8B5E3B 
 100      3DDCFF15 
 101 0168 82B5B819 		.ascii	"\202\265\270\031\304\315(\210^\330\272]\215\003\271"
ARM GAS  /tmp/cchAnumW.s 			page 7


 101      C4CD2888 
 101      5ED8BA5D 
 101      8D03B9
 102 0177 5E874DBB 		.ascii	"^\207M\273\272\026\007\361z\034\205\313\313\361\\\204"
 102      BA1607F1 
 102      7A1C85CB 
 102      CBF15C84 
 103 0187 29FB326A 		.ascii	")\3732j\316=\341\253k/\250\200\""
 103      CE3DE1AB 
 103      6B2FA880 
 103      22
 104              		.text
 105              		.section	.gnu.lto__fstat_r.dc70065dfaf339ae,"",%progbits
 106 0000 789C6362 		.ascii	"x\234cb`b@\007\222@|\025\2105\201\230\221\231\201\221"
 106      60624007 
 106      92407C15 
 106      88358198 
 106      91998191 
 107 0014 69C23906 		.ascii	"i\3029\006\206F\016&FF\020\203\201\221\241\236\211\261"
 107      86460E26 
 107      46461083 
 107      8191A19E 
 107      89B1
 108 0026 3E9211AC 		.ascii	">\222\021\254v=\323\201\007\377\377\257\373tj\301\011"
 108      763DD381 
 108      07FFFFAF 
 108      FB746AC1 
 108      09
 109 0037 46265626 		.ascii	"F&V&\306\\\2600+CKC\303\004\005\006\206d07\004H\202"
 109      C65CB030 
 109      2B434B43 
 109      C3040506 
 109      86643037 
 110 004e B4863232 		.ascii	"\264\20622\201h\346\363\014m\017\366.eKd\\\310\310\012"
 110      8168E6F3 
 110      0C6D0FF6 
 110      2E654B64 
 110      5CC8C80A 
 111 0062 94AE66F8 		.ascii	"\224\256f\370\325\320\321 \220\311\010T\01615\235\221"
 111      D5D0D120 
 111      90C90854 
 111      0E31359D 
 111      91
 112 0073 29823113 		.ascii	")\2021\023\304\001QL6\014\231@w0\234eh\332qc\375OF\210"
 112      C401514C 
 112      360C9940 
 112      77309C65 
 112      68DA7163 
 113 008b 3E6D8655 		.ascii	">m\206U\015@\300\235\311\3102\233a\026P\031+T\027\033"
 113      0D40C09D 
 113      C9C8329B 
 113      61165019 
 113      2B54171B 
 114 009f D8882488 		.ascii	"\330\210$\210I`\003X\032\034\200\254\213\014\215\017"
 114      49600358 
 114      1A1C80AC 
 114      8B0C8D0F 
ARM GAS  /tmp/cchAnumW.s 			page 8


 115 00af F6A74234 		.ascii	"\366\247B4CM\207\200\020 \023\350,P@\250\353\227\026"
 115      434D8780 
 115      102013E8 
 115      2C5040A8 
 115      EB9716
 116 00c2 17E91717 		.ascii	"\027\351\027\027%\353'gd&e\346\027\353\003QYbQf~i\261"
 116      25EB2767 
 116      642665E6 
 116      17EB0351 
 116      59625166 
 117 00d9 7E716571 		.ascii	"~qeqrbNN\261^2\003\000\007\036B\261"
 117      72624E4E 
 117      B15E3203 
 117      00071E42 
 117      B1
 118              		.text
 119              		.section	.gnu.lto__isatty_r.dc70065dfaf339ae,"",%progbits
 120 0000 789C6362 		.ascii	"x\234cb`b@\007\222@\034\005\304\232@\314\310\314\300"
 120      60624007 
 120      92401C05 
 120      C49A40CC 
 120      C8CCC0
 121 0013 C834E11C 		.ascii	"\3104\341\034\003C#\007\023##\210\301\300\310P\317\304"
 121      03432307 
 121      13232388 
 121      C1C0C850 
 121      CFC4
 122 0025 581FC908 		.ascii	"X\037\311\010V\273\236\351\300\203\377\377\327\315:"
 122      56BB9EE9 
 122      C083FFFF 
 122      D7CD3A
 123 0034 BDE01623 		.ascii	"\275\340\026#\023\310(V\206\226\206\206\011\012\014"
 123      13C82856 
 123      86968686 
 123      090A0C
 124 0043 0CC96005 		.ascii	"\014\311`\005!@\022\244+\224\221\011D3_dh|p35\221q!"
 124      214012A4 
 124      2B949109 
 124      44335F64 
 124      687C7033 
 125 005b 232B4304 		.ascii	"#+C\004c&#\003#\324\322\020FF\220\002\220\021\352\372"
 125      63262303 
 125      23D4D210 
 125      46469002 
 125      9011EAFA 
 126 006f A5C545FA 		.ascii	"\245\305E\372\305E\311\372\311\031\231I\231\371\305"
 126      C545C9FA 
 126      C9199949 
 126      99F9C5
 127 007e FA405496 		.ascii	"\372@T\226X\224\231_Z\254_\\Y\234\234\230\223S\254\227"
 127      5894995F 
 127      5AAC5F5C 
 127      599C9C98 
 127      9353AC97 
 128 0092 CC0000C4 		.ascii	"\314\000\000\304Q(\330"
 128      5128D8
 129              		.text
ARM GAS  /tmp/cchAnumW.s 			page 9


 130              		.section	.gnu.lto_.symbol_nodes.dc70065dfaf339ae,"",%progbits
 131 0000 789C4DC7 		.ascii	"x\234M\307;\016@`\024D\341\231\373{\355z$\032\245N\247"
 131      3B0E4060 
 131      1444E199 
 131      FB7BED7A 
 131      241AA54E 
 132 0015 B11F6BD0 		.ascii	"\261\037k\320x\213%\010\011\341\236\346\3443\030j\274"
 132      788B2508 
 132      09E19EE6 
 132      E433186A 
 132      BC
 133 0026 D9400155 		.ascii	"\331@\001U\007HMI\033):N\2249\316Tp\\\250\310q\245b"
 133      07484D49 
 133      1B293A4E 
 133      9439CE54 
 133      705CA8C8 
 134 003d C78D4A7E 		.ascii	"\307\215J~r\247\322\207yN\036T\366)D)\332\376d\2103"
 134      72A7D287 
 134      794E1E54 
 134      F6294429 
 134      DAFE6488 
 135 0052 14F77101 		.ascii	"\024\367q\001\306\2200\325"
 135      C69030D5 
 136              		.text
 137              		.section	.gnu.lto_.refs.dc70065dfaf339ae,"",%progbits
 138 0000 789C6362 		.ascii	"x\234cb`b`d\200\002\000\000F\000\006"
 138      60626064 
 138      80020000 
 138      460006
 139              		.text
 140              		.section	.gnu.lto_.decls.dc70065dfaf339ae,"",%progbits
 141 0000 789CBD5C 		.ascii	"x\234\275\\{p\024\307\231\237\231}i\205\300\020\327"
 141      7B7014C7 
 141      999F997D 
 141      6985C010 
 141      D7
 142 0011 F944EE6C 		.ascii	"\371D\356l\326\2518\347#e\203\023.\307\335\245\002\027"
 142      D6A938E7 
 142      23658313 
 142      2EC7DDA5 
 142      0217
 143 0023 97EF489D 		.ascii	"\227\357H\235/I%\347\253\334_\303hw%m\261\332U\355\256"
 143      2F4925E7 
 143      ABDC5FC3 
 143      6877256D 
 143      B1DA55ED 
 144 0038 10DC3F1E 		.ascii	"\020\334?\036\026\020\330`,\336\010\031\020\006\034"
 144      1610D860 
 144      2CDE0819 
 144      10061C
 145 0047 1E86E365 		.ascii	"\036\206\343e\033\033c\017\244\014\302Jd\011\354\030"
 145      1B1B630F 
 145      A40CC24A 
 145      6409EC18 
 146 0057 99609608 		.ascii	"\231`\226\010$\343W\2201o\203\356\353\236\307N\367N"
 146      24E35790 
 146      316F83EE 
ARM GAS  /tmp/cchAnumW.s 			page 10


 146      EB9EC74E 
 146      F74E
 147 0069 EFF6AC53 		.ascii	"\357\366\254S\231\322\314\366<\372\327\337\367\373\276"
 147      99D2CCF6 
 147      3CFAD7DF 
 147      F7FBBE
 148 0078 FEFA313D 		.ascii	"\376\3721=\222\004IxW\024\204a\330N\374\247 \034\363"
 148      92044978 
 148      57148461 
 148      D84EFCA7 
 148      201CF3
 149 008b 0B428520 		.ascii	"\013B\205 \010?\202]\202\335\013\273O\320\267 \354\033"
 149      083F825D 
 149      82DD0BBB 
 149      4FD0B720 
 149      EC1B
 150 009d 61BF0DCF 		.ascii	"a\277\015\317W\302\3151\260\217\205\375\001\330g\303"
 150      57C2CD31 
 150      B08F85FD 
 150      01D867C3 
 151 00ad FE24EC2D 		.ascii	"\376$\354-\222P\260\241<\036\003k\013\354\233a\007\010"
 151      9250B0A1 
 151      3C1E036B 
 151      0BEC9B61 
 151      0708
 152 00bf 619BF1BB 		.ascii	"a\233\361\273\321\370\375R$\363\241rD#\237`<s\233z\006"
 152      D1F8FD52 
 152      24F3A172 
 152      44239F60 
 152      3C739B7A 
 153 00d4 6D95B632 		.ascii	"m\225\2662E\343\034\375\336E\3112F*\304\033\343 /\322"
 153      45E31CFD 
 153      DE45C932 
 153      462AC41B 
 153      E3202FD2 
 154 00e8 A9D2D07B 		.ascii	"\251\322\320{\024\354U\260O\201\375o\340\372*\330U\311"
 154      14EC55B0 
 154      4F81FD6F 
 154      E0FA2AD8 
 154      55C9
 155 00fa 5917C9C8 		.ascii	"Y\027\311\310\213x@\372~\013~\357\207}5U\006\342+\000"
 155      8B7840FA 
 155      7E0B7EEF 
 155      877D3555 
 155      06E22B00 
 156 010e BFED529E 		.ascii	"\277\355R\236\337\005\220\376!\354\337\205}\274!\347"
 156      DF0590FE 
 156      21ECDF85 
 156      7DBC21E7 
 157 011e BF483AE6 		.ascii	"\277H:\346\003\006\257\350\332L\012k\266\203N\263\035"
 157      0306AFE8 
 157      DA4C0A6B 
 157      B6834EB3 
 157      1D
 158 012f 741A27AC 		.ascii	"t\032'\254W;r\271\267\372\267\216U;\262\332\360\360"
 158      573B72B9 
 158      B7FAB78E 
ARM GAS  /tmp/cchAnumW.s 			page 11


 158      553BB2DA 
 158      F0F0
 159 0141 14E11E61 		.ascii	"\024\341\036a\245\012[G\213\252\212\031E\364\006\205"
 159      A50A5B47 
 159      8BAA8A19 
 159      45F40685 
 160 0151 5F898A38 		.ascii	"_\211\2128*(\204p\242*h\200*\342\363\342=8\345\301\342"
 160      2A288470 
 160      A22A6880 
 160      2AE2F3E2 
 160      3D38E5C1 
 161 0166 082384A7 		.ascii	"\010#\204\247U5\2132N\353\034\365\015a)B\011-\354\207"
 161      55358B32 
 161      4EEB1CF5 
 161      0D612942 
 161      092DEC87 
 162 017a A20D00ED 		.ascii	"\242\015\000\355\307&\302\326\012\314\313x\021P\266"
 162      C726C2D6 
 162      0ACCCB78 
 162      1150B6
 163 0189 88DF10C6 		.ascii	"\210\337\020\306\013\333\340\341VU}\376\233$%\302f\270"
 163      0BDBE0E1 
 163      56557DFE 
 163      9B2425C2 
 163      66B8
 164 019b 9E1BBA70 		.ascii	"\236\033\272pl\2168\007\344\321\237Fe\377Z\034_\250"
 164      6C8E3807 
 164      E4D19F46 
 164      65FF5A1C 
 164      5FA8
 165 01ad 0DF02A74 		.ascii	"\015\360*t@\006\355Z\377\001\320\347\210\210\305\227"
 165      4006ED5A 
 165      FF01D0E7 
 165      8888C597 
 166 01bd 84FF31CB 		.ascii	"\204\3771\313q\322\304H\352\233\361\200\035-\253-\035"
 166      71D2C448 
 166      EA9BF180 
 166      1D2DAB2D 
 166      1D
 167 01ce 3825B6A9 		.ascii	"8%\266\251\332<\217\243\206\235\243\362\012\372M\264"
 167      DA3C8FA3 
 167      869DA3F2 
 167      0AFA4DB4 
 168 01de 7A53F856 		.ascii	"zS\370V\355\326\262{U\257\"\356\204\342%a\272H\310^"
 168      EDD6B27B 
 168      55AF22EE 
 168      84E22561 
 168      BA48C85E 
 169 01f2 124312EA 		.ascii	"\022C\022\352P\216\335\220Y\317\2473\242\275\277\250"
 169      508EDD90 
 169      59CFA733 
 169      A2BDBFA8 
 170 0202 0A81EEE6 		.ascii	"\012\201\356\346`#\253\365-Z\211\331 \304WD\221m\331"
 170      6023ABF5 
 170      2D5A89D9 
 170      20C45744 
 170      916DD9
ARM GAS  /tmp/cchAnumW.s 			page 12


 171 0215 FDF0ACB1 		.ascii	"\375\360\254\261IB\322\224\240\034\366T\355tW\227\250"
 171      4942D294 
 171      A01CF654 
 171      ED745797 
 171      A8
 172 0226 2EAB324C 		.ascii	".\2532L\221r\013\026\"\300\376\320U\325\252\030PM\034"
 172      91720B16 
 172      22C0FED0 
 172      55D5AA18 
 172      504D1C
 173 0239 50156CB9 		.ascii	"P\025l\271\316v-\256V;\016\303-\011\241\315\242\320"
 173      CE762DAE 
 173      563B0EC3 
 173      2D09A1CD 
 173      A2D0
 174 024b 469B1012 		.ascii	"F\233\020\022\003\215\024\354\322\242\252\236\351\006"
 174      038D14EC 
 174      D2A2AA9E 
 174      E906
 175 0259 D4936EA1 		.ascii	"\324\223n\241&\022P\227\273V\210\310\\\206stL\265y\307"
 175      26125097 
 175      BB5688C8 
 175      5C867374 
 175      4CB579C7 
 176 026d 547B7E49 		.ascii	"T{~I\230/\242\242\336,\360\216\005\330;\336\344\363"
 176      982FA2A2 
 176      DE2CF08E 
 176      05D83BDE 
 176      E4F3
 177 027f 8E632B8C 		.ascii	"\216c+\214\272\202\254.\011\213-\3142\355\275\300n\357"
 177      BA82AC2E 
 177      098B2DCC 
 177      32EDBDC0 
 177      6EEF
 178 0291 65AED142 		.ascii	"e\256\321B\224\230\222\260F\244\010%X0\222\243\331\022"
 178      949892B0 
 178      46A40825 
 178      583092A3 
 178      D912
 179 02a3 5D213CF0 		.ascii	"]!<\3609\032\315I\242j\026ZV[\276d\261\301\327\024D"
 179      391ACD49 
 179      A26A165A 
 179      565BBE64 
 179      B1C1D714 
 180 02b8 D716D770 		.ascii	"\327\026\327p!\002nu\367\272\302\312\311\037\203\177"
 180      21026E75 
 180      F7BAC2CA 
 180      C91F837F 
 181 02c8 47C66045 		.ascii	"G\306`E\334\014H\326\311\224\021\266{D\011Aa!:\311m"
 181      DC0C48D6 
 181      C99411B6 
 181      7B440941 
 181      61213AC9 
 182 02dd 51ABAB2D 		.ascii	"Q\253\253-\311*Lt\324\\\350\276\0041YR\304\023\"bn\247"
 182      C92A4C74 
 182      D45CE8BE 
 182      04315952 
ARM GAS  /tmp/cchAnumW.s 			page 13


 182      C4132262 
 183 02f3 E8D0CAEA 		.ascii	"\350\320\312\352\005\241\007L\025\365\264\231\032\026"
 183      05A1074C 
 183      15F5B499 
 183      1A16
 184 0301 05A6F0BD 		.ascii	"\005\246\360\275 +\351\236\226\344\336\240\376\373\204"
 184      202BE99E 
 184      96E4DEA0 
 184      FEFB84
 185 0310 C7BAC742 		.ascii	"\307\272\307B\371\255=X\355\3451G\210m\335\265\335\020"
 185      F9AD3D58 
 185      EDE53147 
 185      886DDDB5 
 185      DD10
 186 0322 60CAB445 		.ascii	"`\312\264E\337\327\265\205V\275f\224\2631\024\361\244"
 186      DFD7B585 
 186      56BD6694 
 186      B33114F1 
 186      A4
 187 0333 F840D93C 		.ascii	"\370@\331<\237\3113T&\307\247\354\034\037p\315q\210"
 187      9FC93354 
 187      26C7A7EC 
 187      1C1F70CD 
 187      7188
 188 0345 E0784FF7 		.ascii	"\340xO\3673%\\\0363\242\032w\234\245\322[\327\334p\327"
 188      33255C1E 
 188      33A21A77 
 188      9CA5D25B 
 188      D7DC70D7 
 189 0359 AFEF53D5 		.ascii	"\257\357S\325\012E<\217]\364\234H6\260\212\350\267,"
 189      0A453C8F 
 189      5DF49C48 
 189      36B08AE8 
 189      B72C
 190 036b 6C9D9B0F 		.ascii	"l\235\233\017 48E%]G\035]\361I\343\012:\011\260\311"
 190      20343845 
 190      255D471D 
 190      5DF149E3 
 190      0A3A09B0 
 191 0380 E8E7B7B3 		.ascii	"\350\347\267\263.W\231\244\377\321N\372E\036\322\037"
 191      2E5799A4 
 191      FFD14EFA 
 191      451ED21F 
 192 0390 643A36F4 		.ascii	"d:6\364\241\236\013\024vb\370\235\373s\016\245\271\264"
 192      A19E0B14 
 192      7662F89D 
 192      FB730EA5 
 192      B9B4
 193 03a2 FACCAED5 		.ascii	"\372\314\256\325\237\\kew%U{\265[o+\365&F\022\256\362"
 193      9F5C6B65 
 193      7725557B 
 193      B55B6F2B 
 193      F5264612 
 194 03b8 34151399 		.ascii	"4\025\023\231,i\007\227\254$\032\303\233<\362Mf\341"
 194      2C690797 
 194      AC241AC3 
 194      9B3CF24D 
ARM GAS  /tmp/cchAnumW.s 			page 14


 194      66E1
 195 03ca A9DAA16E 		.ascii	"\251\332\241n{\323s\3075\032\251\355I\244mN\023\307"
 195      7BD373C7 
 195      351AA9ED 
 195      49A46D4E 
 195      13C7
 196 03dc 08ADB8DB 		.ascii	"\010\255\270\333Xm\357\304U\233\000\036\203\350\033"
 196      586DEFC4 
 196      559B001E 
 196      83E81B
 197 03eb F01CDA88 		.ascii	"\360\034\332\210\312\204\237`\231\346\246-\272T\005"
 197      CA849F60 
 197      99E6A62D 
 197      BA5405
 198 03fa F30973E0 		.ascii	"\363\011s\340 \011Y\211\322\200(\325HNe\363\361n\367"
 198      20095989 
 198      D28028D5 
 198      484E65F3 
 198      F16EF7
 199 040d 88DDD30D 		.ascii	"\210\335\323\015\361s>B~\"\336!in\273\226\377\016C\376"
 199      F1733E42 
 199      7E22DE21 
 199      696EBB96 
 199      FF0E43FE 
 200 0421 BCBF2DA4 		.ascii	"\274\277-\244\345'Ju\222\277\232\220\377\203\237\242"
 200      E5274A75 
 200      92BF9A90 
 200      FF839FA2 
 201 0431 EEA7EE6B 		.ascii	"\356\247\356kKh,'_#\260Hk\016\021\276\261\214Fs\362"
 201      4B682C27 
 201      5F23B048 
 201      6B0E11BE 
 201      B18C4673 
 202 0446 8D696CB4 		.ascii	"\215il\264\313K\364\240\352\"t.Z\241\207\316\371\270"
 202      CB4BF4A0 
 202      EA22742E 
 202      5AA187CE 
 202      F9B8
 203 0458 D7DA2EFD 		.ascii	"\327\332.\375\031C\247$<\317\243\317\317\2315174\264"
 203      1943A724 
 203      3CCFA3CF 
 203      CF993531 
 203      3734B4
 204 046b 6E3C8E57 		.ascii	"n<\216Wz\244\221\204\355\256\001I\202\226>\273\304-"
 204      7AA49184 
 204      EDAE0149 
 204      82963EBB 
 204      C42D
 205 047d 415DEFED 		.ascii	"A]\357\355\021\347\342a\347bL\321n\212\"~\250\313'?"
 205      11E7E261 
 205      E7624CD1 
 205      6E8A227E 
 205      A8CB273F 
 206 0491 1131D7CF 		.ascii	"\0211\327\317b\240\276\002\256\275\024\327^\222ko\001"
 206      62A0BE02 
 206      AEBD14D7 
 206      5E926B6F 
ARM GAS  /tmp/cchAnumW.s 			page 15


 206      01
 207 04a2 D75E8BEB 		.ascii	"\327^\213\353r\363I\302'<\224\376\212e#\030\227o[\177"
 207      72F349C2 
 207      273C94FE 
 207      8A652318 
 207      976F5B7F 
 208 04b6 DF1C64A3 		.ascii	"\337\034d\243\222C\025\213\321w\036\3014\254\220P\015"
 208      9243158B 
 208      D1771EC1 
 208      34AC9050 
 208      0D
 209 04c7 1A921C87 		.ascii	"\032\222\034\207\303l\030\244\341j\211\032\355l8\212"
 209      C36C18A4 
 209      E16A891A 
 209      ED6C388A 
 210 04d7 473BE87A 		.ascii	"G;\350z\351\231\201}G\355\225\356+,\000\312Y\204\000"
 210      E999817D 
 210      47ED95EE 
 210      2B2C00CA 
 210      598400
 211 04ea 81498076 		.ascii	"\201I\200v\350\350\333\010\355na\031\226\333\317\362"
 211      E8E8DB08 
 211      ED6E6119 
 211      96DBCFF2 
 212 04fa 0224D773 		.ascii	"\002$\327s\322\335\244\334/\035\025C\372\345\322\203"
 212      D2DDA4DC 
 212      2F1D1543 
 212      FAE5D283 
 213 050a B4575B6C 		.ascii	"\264W[l\316\233\345\361\270\266\017\316_\021\263\330"
 213      CE9BE5F1 
 213      B8B60FCE 
 213      5F11B3D8 
 214 051a 7937609F 		.ascii	"y7`\237{\311C\373\234\217\3629\037\351;\276`>\201\\"
 214      7BC943FB 
 214      9C8FF239 
 214      1FE93BBE 
 214      603E815C 
 215 052e E62EE432 		.ascii	"\346.\3442\257c\024$tY\214\201\007t\357\021\201\255"
 215      AF631424 
 215      74598C81 
 215      0774EF11 
 215      81AD
 216 0540 35138D56 		.ascii	"5\023\215V\240cju\321\251\210\315\222\333V`\213\344"
 216      A0636A75 
 216      D1A988CD 
 216      92DB5660 
 216      8BE4
 217 0552 DC0A985D 		.ascii	"\334\012\230]\023I8R\256\022\326&\011\307=n]'\344d_"
 217      13493852 
 217      AE12D626 
 217      09C73D6E 
 217      5D27E464 
 218 0567 93FBBC57 		.ascii	"\223\373\274W+\342\032\011u\365\333\244\373\341\330"
 218      2BE21A09 
 218      75F5DBA4 
 218      FBE1D8
 219 0576 0E475BA9 		.ascii	"\016G[\251\275\036\2166\207\250\261!\202\376\241\235"
ARM GAS  /tmp/cchAnumW.s 			page 16


 219      BD1E8E36 
 219      87A8B121 
 219      82FEA19D 
 220 0586 EBC71A51 		.ascii	"\353\307\032Q\025W\200\017h<'-\246sk\221\237\247R\304"
 220      1557800F 
 220      683C272D 
 220      A6736B91 
 220      9FA752C4 
 221 059a BD78C0B2 		.ascii	"\275x\300\262ODZ\274\214\217\007\360\3615||\035\037"
 221      4F445ABC 
 221      8C8F07F0 
 221      F1357C7C 
 221      1D1F
 222 05ac DFC0C763 		.ascii	"\337\300\307c\370x\034\037\273\360\361}|<\207\217\237"
 222      F8781C1F 
 222      BBF0F17D 
 222      7C3C878F 
 222      9F
 223 05bd E2E317F8 		.ascii	"\342\343\027\370\370%>^\305\307\353\370\370\025>\252"
 223      F8253E5E 
 223      C5C7EBF8 
 223      F8153EAA 
 224 05cd 98AB2C3E 		.ascii	"\230\253,>\316\303\307\247\360q\021>.\307\307mv&Y\276"
 224      CEC3C7A7 
 224      F071113E 
 224      2EC7C76D 
 224      762659BE 
 225 05e1 F3A2BD73 		.ascii	"\363\242\275s\372G\217\333yC;\331h\3360'\031d\277\210"
 225      FA478FDB 
 225      79433BD9 
 225      68DE3027 
 225      1964BF88 
 226 05f5 9BB08B3C 		.ascii	"\233\260\213<\200\314)\253\254z;\3229\321\304\032r\215"
 226      80CC29AB 
 226      AC7A3BD2 
 226      39D1C41A 
 226      728D
 227 0607 457882B6 		.ascii	"Ex\202\266r@\023\355\236p\203\007\257\310$\313\252\201"
 227      724013ED 
 227      9E708307 
 227      AFC824CB 
 227      AA81
 228 0619 0AB5A5CA 		.ascii	"\012\265\245\312\3263=\221\257\324\235\242\0110\326"
 228      D6333D91 
 228      AFD49DA2 
 228      0930D6
 229 0628 E0799FEB 		.ascii	"\340y\237\353Z\275\237Q\253\253-s\335\2415 \213uR\201"
 229      5ABD9F51 
 229      ABAB2D73 
 229      DDA13520 
 229      8B755281 
 230 063c A4A47D80 		.ascii	"\244\244}\200\2305~\312\313\301H\221\261\304\272\001"
 230      98357ECA 
 230      CBC14891 
 230      B1C4BA01 
 231 064c CD34FF19 		.ascii	"\3154\377\031l\262v\327\200\244|{H\371v\360\3001\307"
 231      6CB276D7 
ARM GAS  /tmp/cchAnumW.s 			page 17


 231      80A47C7B 
 231      48F976F0 
 231      C031C7
 232 065f 2659ED25 		.ascii	"&Y\355%\323\003\212\215\010\177\364WL\213\274!9\214"
 232      D3038A8D 
 232      087FF457 
 232      4C8BBC21 
 232      398C
 233 0671 08B98680 		.ascii	"\010\271\206\200\207$[-{\331\265\032d-;8pJ\342\233\235"
 233      87245B2D 
 233      7BD9B51A 
 233      642D3B38 
 233      704AE29B 
 234 0686 17ED3E23 		.ascii	"\027\355>#\011\032.\3707tw\342\240\022\322\257\226n"
 234      091A2EF8 
 234      377477E2 
 234      A012D2AF 
 234      966E
 235 0698 95DFDC79 		.ascii	"\225\337\334y\\\357L\034\221\220};-\300\362z\023\275"
 235      5CEF4C1C 
 235      91907D3B 
 235      2DC0F27A 
 235      13BD
 236 06aa 67F293DB 		.ascii	"g\362\223\333\335\256\261\010_Q_\301\241\002C\365\362"
 236      DDAEB108 
 236      5F515FC1 
 236      A10243F5 
 236      F2
 237 06bb 40B127CA 		.ascii	"@\261'\312\325\276<T\237k(R\252ky\250\263<PE\342\315"
 237      D5BE3C54 
 237      9F6B2852 
 237      AA6B79A8 
 237      B33C5045 
 238 06d1 C9CF3A11 		.ascii	"\311\317:\021\367f/\302oM\243\225\356\033ig\316\243"
 238      F7662FC2 
 238      6F4DA395 
 238      EE1B6967 
 238      CEA3
 239 06e3 9ED709DC 		.ascii	"\236\327\011\334-:\357\245\273E\001\252[\024 \273E\201"
 239      2D3AEFA5 
 239      BB4501AA 
 239      5B1420BB 
 239      4581
 240 06f5 603E6174 		.ascii	"`>at\213X~\336kD\271\374\310\024\012\374\324\265\342"
 240      8B587EDE 
 240      6B44B9FC 
 240      C8140AFC 
 240      D4B5E2
 241 0708 21CAFB58 		.ascii	"!\312\373X\305\035\261W\253?\361T\253\251l~\017\221"
 241      C51DB157 
 241      AB3FF154 
 241      ABA96C7E 
 241      0F91
 242 071a C1E69A6B 		.ascii	"\301\346\232k8\273\345\241\252\230\265\324\254,s|\034"
 242      38BBE5A1 
 242      AA98B5D4 
 242      AC2C737C 
ARM GAS  /tmp/cchAnumW.s 			page 18


 242      1C
 243 072b 80D358F2 		.ascii	"\200\323X\362e\265^\263q\245\336j!t\026A\177\260\023"
 243      65B55EB3 
 243      71A5DE6A 
 243      21741641 
 243      7FB013
 244 073e D4E25A00 		.ascii	"\324\342Z\000\302\227\265\367I\202Zy\340\330\343]\255"
 244      C297B5F7 
 244      49825A79 
 244      E0D8E35D 
 244      AD
 245 074f 6FA0D36C 		.ascii	"o\240\323l\217{qk\261\3065 )\337\331\301\003\242\332"
 245      8F7B716B 
 245      B1C63520 
 245      29DFD9C1 
 245      03A2DA
 246 0762 B1B8DA18 		.ascii	"\261\270\332\030\234\020ob\325\273L\200K\346lK?=<93"
 246      9C106F62 
 246      D5BB4C80 
 246      4BE66C4B 
 246      3F3D3C39 
 247 0777 508D8655 		.ascii	"P\215\206U\375\034\343\023\010\232\203\247D\030\011"
 247      FD1CE313 
 247      089A83A7 
 247      441809
 248 0786 AE99E8F4 		.ascii	"\256\231\350\364\336W\035i\226\326c\2266@G\335\241\201"
 248      DE571D69 
 248      96D66396 
 248      364047DD 
 248      A181
 249 0798 C9A8B401 		.ascii	"\311\250\264\001\256\270{e@\363\030\\\371\020\367\035"
 249      AEB87B65 
 249      40F3185C 
 249      F910F71D 
 250 07a8 98AA8132 		.ascii	"\230\252\2012\003oV\2736\320#\021\334\357t\015Hr\177"
 250      036F56BB 
 250      36D02311 
 250      DCEF740D 
 250      48727F
 251 07bb 039A7EA0 		.ascii	"\003\232~\240c\216\307\271?\324c\265D\3374\370\370\314"
 251      638EC7B9 
 251      3FD463B5 
 251      44DF34F8 
 251      F8CC
 252 07cd 757FE8   		.ascii	"u\177\350"
 253 07d0 73467F68 		.ascii	"sF\177h\254\345\340\257\321J\220\305\226\014\374\332"
 253      ACE5E0AF 
 253      D14A90C5 
 253      960CFCDA 
 254 07e0 AD81EB92 		.ascii	"\255\201\353\222}xooL;$\023\340\333\270\260c\270\260"
 254      7D786F6F 
 254      4C3B2413 
 254      E0DBB8B0 
 254      63B8B0
 255 07f3 21DAACA7 		.ascii	"!\332\254\247Qc:\30452?{\241\32362\377\255\205W^[z)"
 255      51633AC4 
 255      35323F7B 
ARM GAS  /tmp/cchAnumW.s 			page 19


 255      A1D33632 
 255      FFAD8557 
 256 080b 6AB534EF 		.ascii	"j\2654\357\271\206\"\215\371E\036\352C\036\250\"\214"
 256      B986228D 
 256      F9451EEA 
 256      431EA822 
 256      8C
 257 081c 7E9987FA 		.ascii	"~\231\207\372\3105\024)\325\325<\324\027<PE\232\322"
 257      C8351429 
 257      D5D53CD4 
 257      173C5045 
 257      9AD2
 258 082e EB79A85B 		.ascii	"\353y\250[\256\241H\251n\346\241\346\3739\240\230\357"
 258      AEA148A9 
 258      6EE6A1E6 
 258      FB39A098 
 258      EF
 259 083f 5955EDAB 		.ascii	"YU\355\253<\324\263\256\241H\251\356\344\241\332x\240"
 259      3CD4B3AE 
 259      A148A9EE 
 259      E4A1DA78 
 259      A0
 260 0850 420E5259 		.ascii	"B\016RY\233$l\366S\025\213\254\014N \244<\267\007\256"
 260      9B246CF6 
 260      53158BAC 
 260      0C4E20A4 
 260      3CB707AE 
 261 0864 1363AF7D 		.ascii	"\023c\257}4\240\313\266px \347[\213\242\257\"\006\021"
 261      34A0CBB6 
 261      707820E7 
 261      5B8BA2AF 
 261      220611
 262 0877 DE111A6F 		.ascii	"\336\021\032o\252\335\241J\265E\252\266t\260\307\003"
 262      AADDA14A 
 262      B545AAB6 
 262      74B0C703 
 263 0887 153F6B55 		.ascii	"\025?kU\374\255\371\212\337h\346\037\205\271\370\035"
 263      FCADF98A 
 263      DF68E61F 
 263      85B9F81D 
 264 0897 2E6AB187 		.ascii	".j\261\207\252\367\267\226\34399t\275t\315\277\275|"
 264      AAF7B796 
 264      E3393974 
 264      BD74CDBF 
 264      BD7C
 265 08a9 A5885662 		.ascii	"\245\210Vb\230\301r+D>\217\025\371&\232\005\372q\036"
 265      98C1722B 
 265      443E8F15 
 265      F9269A05 
 265      FA711E
 266 08bc 456CF598 		.ascii	"El\365\230\275\252\233\371^\325{\226\034N\331J\307\213"
 266      BDAA9BF9 
 266      5ED57B96 
 266      1C4ED94A 
 266      C78B
 267 08ce 3BBF44CB 		.ascii	";\277D\3137\020\264$\234v\215e_\300\221\325ZW\341\265"
 267      3710B424 
ARM GAS  /tmp/cchAnumW.s 			page 20


 267      9C768D65 
 267      5FC091D5 
 267      5A57E1B5 
 268 08e2 201EFC42 		.ascii	" \036\374B\222\306\342]Wb\363\267\001\332\234\204\015"
 268      92C6E25D 
 268      5762F3B7 
 268      01DA9C84 
 268      0D
 269 08f3 8C247B9A 		.ascii	"\214${\232V[>xI\217\343\346\274\353'<\376Q\317\006\\"
 269      565B3E78 
 269      498FE3E6 
 269      BCEB273C 
 269      FE51CF06 
 270 0908 31588123 		.ascii	"1X\201#\265\216v\235\007\255\221\215\266\212@k\011p"
 270      B58E769D 
 270      07AD918D 
 270      B68A406B 
 270      0970
 271 091a A0CD62A3 		.ascii	"\240\315b\243\265\015\222M/\236_\264\265\275SI\322\025"
 271      B50D924D 
 271      2F9E5FB4 
 271      B5BD5349 
 271      D215
 272 092c 71BDC76D 		.ascii	"q\275\307m\323\273\301\343\334\364\232s\361\222\260"
 272      D3BBC1E3 
 272      DCF49A73 
 272      F192B0
 273 093b 82470955 		.ascii	"\202G\011Udk\261v\220=\233B\216c\361B<\327*lb\250\360"
 273      646BB176 
 273      903D9B42 
 273      8E63F142 
 273      3CD72A6C 
 274 0952 D7960AEB 		.ascii	"\327\226\012\353i\025\310b\215\344\302\":\254\033$\243"
 274      6915C862 
 274      8DE4C222 
 274      3AAC1B24 
 274      A3
 275 0963 DC761AD1 		.ascii	"\334v\032\321)\312u\024\001\334@\373\361+<4\223\210"
 275      29CA7514 
 275      01DC40FB 
 275      F12B3C34 
 275      9388
 276 0975 21027137 		.ascii	"!\002q7\341zo\361\300m-\002\267\227\200{\227\007nw\021"
 276      E17A6FF1 
 276      C06D2D02 
 276      B797807B 
 276      97076E77 
 277 098a B8FD04DC 		.ascii	"\270\375\004\334\005\036\270\003E\340^&\340\276\344"
 277      051EB803 
 277      45E05E26 
 277      E0BEE4
 278 0999 81D38AC0 		.ascii	"\201\323\212\300\275:HN \316\257\3400o\247\023\240\265"
 278      BD3A484E 
 278      20CEAFE0 
 278      306FA713 
 278      A0B5
 279 09ab 29E20BA2 		.ascii	")\342\013\242d\214E\214G\250\261C\351@~F\037\2118vZ"
ARM GAS  /tmp/cchAnumW.s 			page 21


 279      648C458C 
 279      47A8B143 
 279      E9407E46 
 279      1F893876 
 280 09c0 1D863DFB 		.ascii	"\035\206=\373\351\226\353\344 \036\210\354\347j\271"
 280      E996EBE4 
 280      201E88EC 
 280      E76AB9
 281 09cf FA064F79 		.ascii	"\372\006OypafME\325\016\255\0340\353L\200\214X\212\370"
 281      7061664D 
 281      45D50EAD 
 281      1C30EB4C 
 281      808C588A 
 282 09e4 8AEBAA7A 		.ascii	"\212\353\252z\200QU\3575D\221\204%\230\371\375\3716"
 282      805155EF 
 282      35449184 
 282      2598F9FD 
 282      F936
 283 09f6 862CB634 		.ascii	"\206,\2664g\247\007\265B5|A\266\026\007\255&\330\224"
 283      67A707B5 
 283      42357C41 
 283      B61607AD 
 283      26D894
 284 0a09 0EC458C9 		.ascii	"\016\304X\311%\206S\350\2666\010;\030\304\356\000\244"
 284      258653E8 
 284      B636083B 
 284      18C4EE00 
 284      A4
 285 0a1a CD8A2863 		.ascii	"\315\212(cCy\241\202\032;;\2430\333L\030\022\016r\316"
 285      4379A182 
 285      1A3B3BA3 
 285      30DB4C18 
 285      120E72CE 
 286 0a2e 2AAA634D 		.ascii	"*\252cM\264V\017.{\007.\3730\355W\327Zp\217\3500\207"
 286      B4560F2E 
 286      7B072EFB 
 286      30ED57D7 
 286      5A708FE8 
 287 0a44 5F65B51B 		.ascii	"_e\265\033-\3462\024\315\203\346T\217I\222\201Y\244"
 287      2DE63214 
 287      CD83E654 
 287      8F499281 
 287      59A4
 288 0a56 6E1531F0 		.ascii	"n\0251\360\255\026\373[\317}\226\204\274h!\002m\370"
 288      AD16FB5B 
 288      CF7D9684 
 288      BC682102 
 288      6DF8
 289 0a68 E862BCE8 		.ascii	"\350b\274\350&\357-e\316 \277\355\271\307H\231\223\306"
 289      26EF2D65 
 289      CE20BFED 
 289      B9C74899 
 289      93C6
 290 0a7a AC278F7B 		.ascii	"\254'\217{\254\231\033\223wk\345\206j\326\345N\327u"
 290      AC991B93 
 290      776BE586 
 290      6AD6E54E 
ARM GAS  /tmp/cchAnumW.s 			page 22


 290      D775
 291 0a8c AB8B51B7 		.ascii	"\253\213Q\267\306Y\236t\200\346\212*\327\251\007Gr\277"
 291      C6599E74 
 291      80E68A2A 
 291      D7A90747 
 291      72BF
 292 0a9e 74C106FB 		.ascii	"t\301\006\373r^bF\332\352\014.\224pi\207pi\335\264\357"
 292      725E6246 
 292      DAEA0C2E 
 292      94706987 
 292      7069DDB4 
 293 0ab3 ECD17DA7 		.ascii	"\354\321}\247\233+&\355ky\206\262\016^\236\305\246\355"
 293      9B2B26ED 
 293      6B7986B2 
 293      0E5E9EC5 
 293      A6ED
 294 0ac5 845599BB 		.ascii	"\204U\231\273\362\225\271\313\222\244\250\336E|\356"
 294      F295B9CB 
 294      92A4A8DE 
 294      457CEE
 295 0ad4 25C34BF4 		.ascii	"%\303K\364\002$\341$\037\"\273W\204\336\202?cT\013}"
 295      0224E124 
 295      1F22BB57 
 295      84DE823F 
 295      63540B7D 
 296 0ae8 EEF62C0D 		.ascii	"\356\366,\015\351\344\310\252\304\006|\343(\236q\327"
 296      E9E4C8AA 
 296      C4067CE3 
 296      289E71D7 
 297 0af8 D13E728F 		.ascii	"\321>r\217\026\242L\240\210\357x\250\232J\331\270X\277"
 297      16A24CA0 
 297      88EF78A8 
 297      9A4AD9B8 
 297      58BF
 298 0b0a C9DA58EE 		.ascii	"\311\332X\356\252\345k\201\"\036\301%\225\230\037\354"
 298      AAE56B81 
 298      221EC125 
 298      95981FEC 
 299 0b1a 642AAF6A 		.ascii	"d*\257j7\006{\314\356\024\222W\022.\025DM2\2669b\206"
 299      37067BCC 
 299      EE149257 
 299      122E1544 
 299      4D32B639 
 300 0b30 0842977E 		.ascii	"\010B\227~\234sx\247Tfx8\353\241^0\341\305-\034\357"
 300      9C7378A7 
 300      54667838 
 300      EBA15E30 
 300      E1C52D1C 
 301 0b45 973E2C88 		.ascii	"\227>,\210\026\005\217\234\361\330\246\202o\320\212"
 301      16058F9C 
 301      F1D8A682 
 301      6FD08A
 302 0b54 3B5179CA 		.ascii	";Qy\312\307R[\325\332?\326\2303e\323M\200*\\\326\334"
 302      C7525BD5 
 302      DA3FD698 
 302      3365D34D 
 302      802A5CD6 
ARM GAS  /tmp/cchAnumW.s 			page 23


 303 0b69 206EE0E8 		.ascii	" n\340\350*\276\\\0370\367s5\017\253O\256p\372\240\243"
 303      2ABE5C1F 
 303      30F77335 
 303      0FAB4FAE 
 303      70FAA0A3 
 304 0b7d 9FE1BA08 		.ascii	"\237\341\272\010p\320\356:zs\302z\274t\325n;ioN\236"
 304      70D0EE3A 
 304      7A73C27A 
 304      BC74D56E 
 304      3B696F4E 
 305 0b92 B2342AA7 		.ascii	"\2624*\2479\311j\355'\315Z\255\277\331n\345\301s\012"
 305      39C96AED 
 305      27CD5AAD 
 305      BFD96EE5 
 305      C1730A
 306 0ba5 B8D62609 		.ascii	"\270\326&\011\253\202\224E\011+\030\311\234\317\001"
 306      AB829445 
 306      092B18C9 
 306      9CCF01
 307 0bb4 C41CBC7C 		.ascii	"\304\034\274|\334#\026t\211v\346\361\264\273M\224\003"
 307      DC231674 
 307      8976E6F1 
 307      B4BB4D94 
 307      03
 308 0bc5 92C1EAE7 		.ascii	"\222\301\352\347N\363\022\353iA\250\214F\372#'\347\262"
 308      4EF312EB 
 308      6941A88C 
 308      46FA2327 
 308      E7B2
 309 0bd7 36965137 		.ascii	"6\226Q7\347W+P\353\213\255\323^q\204\303m\242\026I\302"
 309      E7572B50 
 309      EB8BADD3 
 309      5E7184C3 
 309      6DA21649 
 310 0bec A620F90E 		.ascii	"\246 \371\016\354\333\302&U]\226{\253?\207\246\331\275"
 310      ECDBC226 
 310      555D967B 
 310      AB3F87A6 
 310      D9BD
 311 0bfe E60ABC1D 		.ascii	"\346\012\274\035\370\261\215\3428G\201\014qp\336Vuu"
 311      F8B18DE2 
 311      3847810C 
 311      7170DE56 
 311      7575
 312 0c10 749AE11E 		.ascii	"t\232\341\036;K\344B\022\351\005\252\275(\223>\003\277"
 312      3B4BE442 
 312      12E905AA 
 312      BD28933E 
 312      03BF
 313 0c22 B744AE5E 		.ascii	"\267D\256^[Y\227\255\262^\346(K\020\276#lA&\335\321"
 313      5B5997AD 
 313      B25EE628 
 313      4B10BE23 
 313      6C4126DD 
 314 0c37 327FB4D7 		.ascii	"2\177\264\327\270\306\316dP}\331C|=\207\276\233\333"
 314      B8C6CE64 
 314      507DD943 
ARM GAS  /tmp/cchAnumW.s 			page 24


 314      7C3D87BE 
 314      9BDB
 315 0c49 9DD3AE42 		.ascii	"\235\323\256B\3731'7<<\216\177\035\365\035:\250\021"
 315      FB312737 
 315      3C3C8E7F 
 315      1DF51D3A 
 315      A811
 316 0c5b EBA829EB 		.ascii	"\353\250)\3539\236R\306{\315\321x\352\255\3104\363\215"
 316      399E52C6 
 316      7BCDD178 
 316      EAADC834 
 316      F38D
 317 0c6d FC15DC52 		.ascii	"\374\025\334R\334\366\360\330\255\315\340R\021\257\225"
 317      DCF6F0D8 
 317      ADCDE052 
 317      11AF95
 318 0c7c C865D9AD 		.ascii	"\310e\331\255U=de\272\301\237\351\254e\265\337`\015"
 318      553D6465 
 318      BAC19FE9 
 318      AC65B5DF 
 318      600D
 319 0c8e 8A676258 		.ascii	"\212gbX\215\225\311 {\256\327\311j\353\217\031V\323"
 319      8D95C920 
 319      7BAED7C9 
 319      6AEB8F19 
 319      56D3
 320 0ca0 3F619484 		.ascii	"?a\224\204c\234\024>\355-\207Bv.\233\353\2374]\337\344"
 320      639C143E 
 320      ED2D8742 
 320      762E9BEB 
 320      9F345DDF 
 321 0cb5 909DCBEE 		.ascii	"\220\235\313\356\372W\254\262nq\224\305 \221\225\311"
 321      FA57ACB2 
 321      6E7194C5 
 321      209195C9 
 322 0cc5 20719123 		.ascii	" q\221#\211\227\216\271v\375e\336\322\256O9w\017\247"
 322      89978EB9 
 322      76FD65DE 
 322      D2AE4F39 
 322      770FA7
 323 0cd8 65969665 		.ascii	"e\226\226e\031v\256\"l\2612\031J\256,d\253#\247\255"
 323      1976AE22 
 323      6CB13219 
 323      4AAE2C64 
 323      AB23A7AD 
 324 0cec 7C7BB1F3 		.ascii	"|{\261\363\007\266T\023~\202\261\022\322\\F\274\353"
 324      07B65413 
 324      7E82B112 
 324      D25C46BC 
 324      EB
 325 0cfd DC835B55 		.ascii	"\334\203[Uu\264\"\266{\361\347\011\024=V\274\027\210"
 325      75B422B6 
 325      7BF1E709 
 325      143D56BC 
 325      1788
 326 0d0f 0BB64758 		.ascii	"\013\266GX\266Y\353\3366\331J\347V\343\371\303\336|"
 326      B659EBDE 
ARM GAS  /tmp/cchAnumW.s 			page 25


 326      36D94AE7 
 326      56E3F9C3 
 326      DE7C
 327 0d21 AB611AA8 		.ascii	"\253a\032\250\215\313@\033\254\230\3604\006g\347\262"
 327      8DCB401B 
 327      AC98F034 
 327      0667E7B2 
 328 0d31 1928ABEE 		.ascii	"\031(\253\356;\377\363i:%B\221L\206\246\035\216\006"
 328      3BFFF369 
 328      3A254291 
 328      4C86A61D 
 328      8E06
 329 0d43 1A7A1BAD 		.ascii	"\032z\033\255\344U\277\032\036\366\270\370\002\372\005"
 329      E455BF1A 
 329      1EF6B8F8 
 329      02FA05
 330 0d52 0ED68A7D 		.ascii	"\016\326\212}\035m\353&\346<&\370\0171\273\317b\002"
 330      1D6DEB26 
 330      E63C26F8 
 330      0F31BBCF 
 330      6202
 331 0d64 7678C97E 		.ascii	"vx\311~b\256oo\337\\\343Sht\257\364p\360\326G\232\250"
 331      62AE6F6F 
 331      DF5CE353 
 331      6874AFF4 
 331      70F0D647 
 332 0d7a 3E5D658C 		.ascii	">]e\214\211\325\026\365A\333\313\034\342e\204\345c}"
 332      89D516F5 
 332      41DBCB1C 
 332      E26584E5 
 332      637D
 333 0d8c 0F6DC33E 		.ascii	"\017m\303>\366\177\330\022\373)3\363#\015/Z5\016\257"
 333      F67FD812 
 333      FB2933F3 
 333      230D2F5A 
 333      350EAF
 334 0d9f F6DE8B81 		.ascii	"\366\336\213\201^\253\244\235U\242V\332H\344J\033\011"
 334      5EABA49D 
 334      55A256DA 
 334      48E44A1B 
 334      09
 335 0db0 2D5EBF33 		.ascii	"-^\2773<\234_\274.\241%7\242Pf.I8b\221\352$v\251\216"
 335      3C9C5FBC 
 335      2EA12537 
 335      A250662E 
 335      49386291 
 336 0dc9 6F16D81F 		.ascii	"o\026\330\037\332$\316\231\253n\235h,6\342\342\363\342"
 336      DA24CE99 
 336      AB6E9D68 
 336      2C36E2E2 
 336      F3E2
 337 0ddb DF1FC07C 		.ascii	"\337\037\300|\276\202i8^@\203\207\242\301C*\344\011"
 337      BE826938 
 337      5E408387 
 337      A2C1432A 
 337      E409
 338 0ded E613C83D 		.ascii	"\346\023\310=\001\343\035\327z\214\246\364\270\261I"
ARM GAS  /tmp/cchAnumW.s 			page 26


 338      01E31DD7 
 338      7A8CA6F4 
 338      B8B149
 339 0dfc 5C3A57ED 		.ascii	"\\:W\355\234\310\277\240\034\374\342\237va=^\307z\374"
 339      9CC8BFA0 
 339      1CFCE29F 
 339      76613D5E 
 339      C77AFC
 340 0e0f BE408F72 		.ascii	"\276@\217r\326\223\237\2415q7x\000M\016\357wo\221\303"
 340      D6939FA1 
 340      35713778 
 340      004D0EEF 
 340      776F91C3 
 341 0e23 FFAC5BE4 		.ascii	"\377\254[\3440\326\344\302\237\301\"\237\361X\204\275"
 341      30D6E4C2 
 341      9FC1229F 
 341      F15884BD 
 342 0e33 B417F438 		.ascii	"\264\027\3648\276\331\275\036\347\214\232z\024\353q"
 342      BED9BD1E 
 342      E78C9A7A 
 342      14EB71
 343 0e42 D5A9A672 		.ascii	"\325\251\246r!\015/zn2\256\251\307\365\317\"\2766!."
 343      210D2F7A 
 343      6E32AEA9 
 343      C7F5CF22 
 343      BE36212E 
 344 0e56 D99B37C2 		.ascii	"\331\2337\302-{\264?\367\226\301\336E\203\275n\254\364"
 344      2D7BB43F 
 344      F796C1DE 
 344      4583BD6E 
 344      ACF4
 345 0e68 A21165B3 		.ascii	"\242\021e\263\327\265Ng\257\027\003-\035\361\027f\257"
 345      D7B54E67 
 345      AF17032D 
 345      1DF11766 
 345      AF
 346 0e79 CD357BF6 		.ascii	"\3155{\366:\204\333\024\203=3\346w\270F$\377\205\301"
 346      3A84DB14 
 346      833D33E6 
 346      77B84624 
 346      FF85C1
 347 0e8c 9AA81159 		.ascii	"\232\250\021Y\370>\216\332\325\373\220\336\2539\205"
 347      F83E8EDA 
 347      D5FB90DE 
 347      AB3985
 348 0e9b 4BDF5A40 		.ascii	"K\337Z@\340|\272\245p\365)\332.Z\033\247\030\303^\037"
 348      E07CBAA5 
 348      70F529DA 
 348      2E5A1BA7 
 348      18C35E1F 
 349 0eaf 83BCEB05 		.ascii	"\203\274\353\005[\264\344\324\251o\334v\254\323\031"
 349      5BB4E4D4 
 349      A96FDC76 
 349      ACD319
 350 0ebe 7D645AA0 		.ascii	"}dZ\240\323\327\372\272\356\220k\225\012L\276JW\011"
 350      D3D7FABA 
 350      EE906B95 
ARM GAS  /tmp/cchAnumW.s 			page 27


 350      0A4CBE4A 
 350      5709
 351 0ed0 E34AC251 		.ascii	"\343J\302Q\036\300\"\253u\372.\032\253\267tu{\\\303"
 351      1EC022AB 
 351      75FA2E1A 
 351      ABB77475 
 351      7B5CC3
 352 0ee3 11F269A7 		.ascii	"\021\362i\247\315\305`X\270>\036\264\020[\2703\244p"
 352      CDC56058 
 352      B83E1EB4 
 352      105BB833 
 352      A470
 353 0ef5 FDAEE148 		.ascii	"\375\256\341H\341\316\022\302}\312\203\306\3740\333"
 353      E1CE12C2 
 353      7DCA83C6 
 353      FC30DB
 354 0f04 5CA986A1 		.ascii	"\\\251\206\241\256\272\206\"\005\373\"\0175\247\212"
 354      AEBA8622 
 354      05FB220F 
 354      35A78A
 355 0f13 038AF9F1 		.ascii	"\003\212\371\361\202\252]9Wa[]=\025\215M\374\3545\024"
 355      82AA5D39 
 355      57615B5D 
 355      3D158D4D 
 355      FCEC3514 
 356 0f27 97BC6EDF 		.ascii	"\227\274n\337\274\014y\235\337\274\230\235;\210\307"
 356      BC0C799D 
 356      DFBC989D 
 356      3B88C7
 357 0f36 B40644A9 		.ascii	"\264\006D\251N\032\204\004rc\225\275\335k\037#Q\243"
 357      4E1A8404 
 357      726395BD 
 357      DD6B1F23 
 357      51A3
 358 0f48 9A95558E 		.ascii	"\232\225U\216\243\232\371\273.z\012G5[\312\032v\262"
 358      A39AF9BB 
 358      2E7A0A47 
 358      355BCA1A 
 358      76B2
 359 0f5a 73D92604 		.ascii	"s\331&\004\206P\246\355x\224\267\036\213\304\316e\350"
 359      8650A6ED 
 359      7894B71E 
 359      8BC4CE65 
 359      E8
 360 0f6b E3385A65 		.ascii	"\3438Ze\3452T\277\3548\266_\323eM\220\2401\273$lt$E"
 360      E53254BF 
 360      EC38B65F 
 360      D3654D90 
 360      A031BB24 
 361 0f83 BD4D0FC3 		.ascii	"\275M\017\303op\361\321n\215\362v`\\v\256\"\303pV&C"
 361      6F70F1D1 
 361      6E8DF276 
 361      605C76AE 
 361      22C37056 
 362 0f99 B19B858A 		.ascii	"\261\233\205\212\345Zs"
 362      E55A73
 363 0fa0 87FA7BFF 		.ascii	"\207\372{\377\266m\257:\357)\030 <)R\343\274)\354\205"
ARM GAS  /tmp/cchAnumW.s 			page 28


 363      B66DAF3A 
 363      EF291820 
 363      3C2952E3 
 363      BC29EC85 
 364 0fb4 E3AA8F18 		.ascii	"\343\252\217\030\347\271\370\012s\355\357/\033_af\361"
 364      E7B9F80A 
 364      73EDEF2F 
 364      1B5F6166 
 364      F1
 365 0fc5 52E50FAA 		.ascii	"R\345\017\252\276~\257\231\362\330s\024\244\0114\337"
 365      BE7EAF99 
 365      F2D87314 
 365      A40934DF 
 366 0fd5 5748C1EE 		.ascii	"WH\301\356\334\301\301\343\3516\365\310<\025\260\252"
 366      DCC1C1E3 
 366      E936F5C8 
 366      3C15B0AA 
 367 0fe5 556D1717 		.ascii	"Um\027\027\013Xo\250\222#E\223\004IX\016'\006\037\367"
 367      0B586FA8 
 367      92234593 
 367      0449580E 
 367      27061FF7 
 368 0ff9 09ED23D7 		.ascii	"\011\355#\327\251\025\002"
 368      A91502
 369 1000 25C0021F 		.ascii	"%\300\002\0375:\236\302\236\351\314\372\234\246\030"
 369      353A9EC2 
 369      9EE9CCFA 
 369      9CA618
 370 100f D68DB4AB 		.ascii	"\326\215\264\253f\024\274\331.\305\213#\311\341 \265"
 370      6614BCD9 
 370      2EC58B23 
 370      C9E120B5 
 371 101f 51D32BC8 		.ascii	"Q\323+\310\216,\033\257\362\021\023%\337\0226\252=="
 371      8E2C1BAF 
 371      F2111325 
 371      DF1236AA 
 371      3D3D
 372 1031 B90B9BDA 		.ascii	"\271\013\233\332\304\2059pZ\030Q\212V8\\\003X\037r\254"
 372      C4853970 
 372      5A18518A 
 372      56385C03 
 372      581F72AC 
 373 1045 29CBAF15 		.ascii	")\313\257\025\003Q\367\214\244\2464\250l0B\036i\276"
 373      0351F78C 
 373      A4A634A8 
 373      6C30421E 
 373      69BE
 374 1057 93850E38 		.ascii	"\223\205\0168-\373\202\"\262\267\373\362\021\355\357"
 374      2DFB8222 
 374      B2B7FBF2 
 374      11EDEF
 375 1066 2634A553 		.ascii	"&4\245S\023\322\251\360\204p}\254&\226LO\200\277\231"
 375      13D2A9F0 
 375      84707DAC 
 375      26964C4F 
 375      80BF99
 376 1079 4A2A966C 		.ascii	"J*\226lJOH\317N\207\225x<\375pX\360\313\251h4\221\361"
ARM GAS  /tmp/cchAnumW.s 			page 29


 376      4A4F48CF 
 376      4E879578 
 376      3CFD7058 
 376      F0CBA968 
 377 1090 FFFB4F9F 		.ascii	"\377\373O\237\010=*\204p\256X\"\034o\212D'$\242\315"
 377      083D2A84 
 377      70AE5822 
 377      1C6F8A44 
 377      2724A2CD 
 378 10a4 F1580D7A 		.ascii	"\361X\015zz\002~\350\341zx<\232J%\222~Y\376\267\237"
 378      7A027EE8 
 378      E17A783C 
 378      9A4A2592 
 378      7E59FEB7 
 379 10b9 3CFE5840 		.ascii	"<\376X@\226\323\350W\222\033%9%\311\315~\2716\256\324"
 379      96D3E857 
 379      921B2539 
 379      25C9CD7E 
 379      B936AED4 
 380 10cd A57D726D 		.ascii	"\245}rm,\036\205\207\3225M\265>\271FIG}r:\366\277Q\217"
 380      2C1E8587 
 380      D2354DB5 
 380      3EB94649 
 380      477D723A 
 381 10e5 5C535B21 		.ascii	"\\S[!\307kj\321I@\016'\2233bQo\270^I\371@\016%\342\227"
 381      C76B6AD1 
 381      49400E27 
 381      93336251 
 381      6FB85E49 
 382 10ff 9B53B14C 		.ascii	"\233S\261L\364~\226\030rfvc4\015r\004\344\332\306dZ"
 382      F47E9618 
 382      72667663 
 382      340D7204 
 382      E4DAC664 
 383 1114 CE006C34 		.ascii	"\316\000l4:\303/\207\343\3114\2407\325\300\336\010;"
 383      3AC32F87 
 383      E3C934A0 
 383      37D5C0DE 
 383      083B
 384 1126 E035E1B2 		.ascii	"\3405\341\262\023p\364@\211\025rM|\006*\325/'kk\345"
 384      1370F440 
 384      8915724D 
 384      7C062AD5 
 384      2F276B6B 
 385 113b 4C00FDA4 		.ascii	"L\000\375\244\243\000\020Q2J\005\310\235\014\317\220"
 385      A3001051 
 385      324A05C8 
 385      9D0CCF90 
 386 114b 33E35825 		.ascii	"3\343X%\243\333P\356\030\371\361\237=\372\037\362/\036"
 386      A3DB50EE 
 386      18F9F19F 
 386      3DFA1FF2 
 386      2F1E
 387 115d 7BF4895F 		.ascii	"{\364\211_\374\362'\377\375\230\374_>\031\335\252\224"
 387      FCF227FF 
 387      FD98FC5F 
 387      3E19DDAA 
ARM GAS  /tmp/cchAnumW.s 			page 30


 387      94
 388 116e 1B6AD219 		.ascii	"\033j\322\031%\023E\310\240WS\"3\021C\241\374u\341\360"
 388      251345C8 
 388      A0575322 
 388      331143A1 
 388      FC75E1F0 
 389 1182 0425D5F0 		.ascii	"\004%\325\360P\"\231\210>\024Ujb\023&=<\331*$\235\211"
 389      50229988 
 389      3E14556A 
 389      6213263D 
 389      3CD92A24 
 390 1198 44A2B588 		.ascii	"D\242\265\210\333\346X\"\203T\222\233\303\365~|\254"
 390      DBE65822 
 390      8354929B 
 390      C3F57E7C 
 390      AC
 391 11a9 01B0994A 		.ascii	"\001\260\231J\274)Za\342\007t\206\277\347\227!_,\021"
 391      BC295A61 
 391      E2077486 
 391      BFE79721 
 391      5F2C11
 392 11bc 403FC9A6 		.ascii	"@?\311\246\014\376\005\323xe\200\255\224\243\015\321"
 392      0CFE05D3 
 392      786580AD 
 392      94A30DD1 
 393 11cc 545D3411 		.ascii	"T]4\021\236=F\0167\245R`;9\014\231\353\222\251\331w"
 393      9E3D460E 
 393      37A55260 
 393      3B390C99 
 393      EB92A9D9 
 394 11e1 5957406E 		.ascii	"YW@n%\036\255\004+Eb\000\025\313\004A\362xTI45\006\344"
 394      251EAD04 
 394      2B456200 
 394      15CB0441 
 394      F2785449 
 395 11f9 1FC7EA40 		.ascii	"\037\307\352@\032\340/:+#\3113\002r\2032\2539\222Ff"
 395      1AE02F3A 
 395      2B23C933 
 395      02728332 
 395      AB399246 
 396 120e AC4B7865 		.ascii	"\254KxeH\202hO<\236L\324I\362\254\000\030/\335\024\007"
 396      4882684F 
 396      3C9E4CD4 
 396      49F2AC00 
 396      182FDD14 
 397 1223 00FD579E 		.ascii	"\000\375W\236\341\225\033\377!\035\224k\301o\342\261"
 397      E1951BFF 
 397      211D946B 
 397      C16FE2B1 
 398 1233 3488179E 		.ascii	"4\210\027\236\231\211G\023\370\027,R%7%\232\322\321"
 398      99894713 
 398      F8172C52 
 398      2537259A 
 398      D2D1
 399 1245 889C5212 		.ascii	"\210\234R\022\221*\220=\225I\316\220\343J:S%+\351p&"
 399      912A903D 
 399      9549CE90 
ARM GAS  /tmp/cchAnumW.s 			page 31


 399      E34A3A53 
 399      252BE970 
 400 125a D61095E1 		.ascii	"\326\020\225\3411\257,g\032*\320\001\314\034\326\023"
 400      31AF2C67 
 400      1A2AD001 
 400      CC1CD613 
 401 126a 0DB14410 		.ascii	"\015\261D\020'\352\223M)=\325\020Qf\0337\223\306\315"
 401      27EA934D 
 401      293DD510 
 401      51661B37 
 401      93C6CD
 402 127d D951C5B8 		.ascii	"\331Q\305\270\331\0147\215k\220\252\304\251X:\222\316"
 402      D90C378D 
 402      6B90AAC4 
 402      A9583A92 
 402      CE
 403 128e 8CD20930 		.ascii	"\214\322\0110\313\032%\327)\015\015\012\326\017R\225"
 403      CB1A25D7 
 403      290D0D0A 
 403      D60F5295 
 404 129e 5834AC7E 		.ascii	"X4\254~\000''M\306\276\026\361\311\015\240\241WV\"\021"
 404      0027274D 
 404      C6BE16F1 
 404      C90DA0A1 
 404      57562211 
 405 12b2 AF9C9A34 		.ascii	"\257\234\2324\271\012,\003\232\311\330:#\341$\223l\016"
 405      B90A2C03 
 405      9AC9D83A 
 405      23E12493 
 405      6C0E
 406 12c4 9B67CDE1 		.ascii	"\233g\315\341L\262\241F?\013\312\361\037LRPQ#p!J\\\306"
 406      4CB2A146 
 406      3F0BCAF1 
 406      1F4C5250 
 406      51237021 
 407 12db 4CD44533 		.ascii	"L\324E3\021\3448`=\224=e\201\215Bgy\264\321\310\005"
 407      11E43860 
 407      3D943D65 
 407      818D4267 
 407      79B4D1C8 
 408 12f0 F079DABC 		.ascii	"\360y\332\274\337\034N\345\361G\303i\032\237\033\367"
 408      DF1C4EE5 
 408      F147C369 
 408      1A9F1BF7 
 409 1300 2BE47AB3 		.ascii	"+\344z\263\266\"5\240\342%\032\240\326'\303\001\203"
 409      B62235A0 
 409      E2251AA0 
 409      D627C301 
 409      83
 410 1311 7D2F5C6F 		.ascii	"}/\\o\016\310\360\350\254X\006y\016\\\251M\244G\312"
 410      0EC8F0E8 
 410      AC580679 
 410      0E5CA94D 
 410      A447CA
 411 1324 C9848C2E 		.ascii	"\311\204\214.\311J\252\016\314\\\233@\277#\344H:)\327"
 411      C94AAA0E 
 411      CC5C9B40 
ARM GAS  /tmp/cchAnumW.s 			page 32


 411      BF23E448 
 411      3A29D7
 412 1337 03137140 		.ascii	"\003\023q@\256M\340\232\030\000*\345\360,\250?:\310"
 412      AE4DE09A 
 412      18002AE5 
 412      F02CA83F 
 412      3AC8
 413 1349 C420524D 		.ascii	"\304 RM\256mJ\204}r\035\370-\024\035K\326\200\333\240"
 413      AE6D4A84 
 413      7D721DF8 
 413      2D141D4B 
 413      D680DBA0 
 414 135d 230A17E8 		.ascii	"#\012\027\350\"\2305]\033\300\025^N\211)/\012\026\236"
 414      2298355D 
 414      1BC0155E 
 414      4E89292F 
 414      0A169E
 415 1370 C64CCA03 		.ascii	"\306L\312\003\252Ct@5ZNy\"\261T\205\036\016dH\340\012"
 415      AA437440 
 415      355A4E79 
 415      22B15485 
 415      1E0E6448 
 416 1386 2EA79801 		.ascii	".\247\230\001\312\012\014a0L\012\325\302tM\012`\274"
 416      CA0A0C61 
 416      304C0AD5 
 416      C2744D0A 
 416      60BC
 417 1398 F06CCA8B 		.ascii	"\360l\312\213\370`Vmt\023r\372\"\321\231\270\366\342"
 417      F860566D 
 417      741372FA 
 417      22D199B8 
 417      F6E2
 418 13aa 5F7F3A83 		.ascii	"_\177:\203\022\276X\"\251\237@\302\337\220\214\240\012"
 418      12BE5822 
 418      A99F40C2 
 418      DF908CA0 
 418      0A
 419 13bb 0E672815 		.ascii	"\016g(\025H\304c\011\210\031\025p\216\223\276\246X\004"
 419      48C46309 
 419      88191570 
 419      8E93BEA6 
 419      5804
 420 13cd 23E05F94 		.ascii	"#\340_\224\011\022\276:\343b\235y\021\022\010\"\205"
 420      0912BE3A 
 420      E3629D79 
 420      11120822 
 420      85
 421 13de E0F55804 		.ascii	"\340\365X\004g84a_\304x\012J\006\321\365F%\025}\004"
 421      67383461 
 421      5FC4780A 
 421      4A06D1F5 
 421      4625157D 
 422 13f3 5D6A202E 		.ascii	"]j .}\017]\012\023\227\276_\011)#\312\005q\022\002S"
 422      7D0F5D0A 
 422      1397BE5F 
 422      092923CA 
 422      05711202 
ARM GAS  /tmp/cchAnumW.s 			page 33


 423 1408 DABA3D09 		.ascii	"\332\272=\011\254\206T\205@\235\206\232\032K+\231\314"
 423      AC865485 
 423      409D869A 
 423      1A4B2B99 
 423      CC
 424 1419 6C38A98D 		.ascii	"l8\251\215|\327\251\255He,\256\302\365\015\321\206p"
 424      7CD7A9AD 
 424      48652CAE 
 424      C2F50DD1 
 424      8670
 425 142b 32154541 		.ascii	"2\025EA\012\241\313\231\021\341\372G\341\302\277\"w"
 425      0AA1CB99 
 425      11E1FA47 
 425      E1C2BF22 
 425      77
 426 143c BAD791D8 		.ascii	"\272\327\221\330L*\226\250C\006\201\250\227h\212\307"
 426      4C2A96A8 
 426      430681A8 
 426      97688AC7 
 427 144c 03B58950 		.ascii	"\003\265\211P\2721\032\026\037\361\003\032D^\270\221"
 427      BA311A16 
 427      1FF1031A 
 427      445EB891 
 428 145c A94F259B 		.ascii	"\251O%\233\275\020r\3007\261\323\310\362H3\361\360?"
 428      BD1072C0 
 428      37B1D3C8 
 428      F24833F1 
 428      F03F
 429 146e 4EFAFE0F 		.ascii	"N\372\376\017\376\037\373\237\004z"
 429      FE1FFB9F 
 429      047A
 430              		.text
 431              		.section	.gnu.lto_.symtab.dc70065dfaf339ae,"",%progbits
 432 0000 5F726561 		.ascii	"_read_r\000\000\000\000\000\000\000\000\000\000\000"
 432      645F7200 
 432      00000000 
 432      00000000 
 432      0000
 433 0012 00A10000 		.ascii	"\000\241\000\000\000_lseek_r\000\000\000\000\000\000"
 433      005F6C73 
 433      65656B5F 
 433      72000000 
 433      000000
 434 0025 00000000 		.ascii	"\000\000\000\000\000\000\375\001\000\000_write_r\000"
 434      0000FD01 
 434      00005F77 
 434      72697465 
 434      5F7200
 435 0038 00000000 		.ascii	"\000\000\000\000\000\000\000\000\000\000\000\012\002"
 435      00000000 
 435      0000000A 
 435      02
 436 0045 00005F63 		.ascii	"\000\000_close_r\000\000\000\000\000\000\000\000\000"
 436      6C6F7365 
 436      5F720000 
 436      00000000 
 436      000000
ARM GAS  /tmp/cchAnumW.s 			page 34


 437 0058 00000011 		.ascii	"\000\000\000\021\002\000\000_sbrk_r\000\000\000\000"
 437      0200005F 
 437      7362726B 
 437      5F720000 
 437      0000
 438 006a 00000000 		.ascii	"\000\000\000\000\000\000\000\000\031\002\000\000_fs"
 438      00000000 
 438      19020000 
 438      5F6673
 439 0079 7461745F 		.ascii	"tat_r\000\000\000\000\000\000\000\000\000\000\000\000"
 439      72000000 
 439      00000000 
 439      00000000 
 439      00
 440 008a 25020000 		.ascii	"%\002\000\000_isatty_r\000\000\000\000\000\000\000\000"
 440      5F697361 
 440      7474795F 
 440      72000000 
 440      00000000 
 441 009f 00000000 		.ascii	"\000\000\000\000y\002\000\000chCoreAlloc\000\000\002"
 441      79020000 
 441      6368436F 
 441      7265416C 
 441      6C6F6300 
 442 00b5 00000000 		.ascii	"\000\000\000\000\000\000\000\000\000\177\002\000\000"
 442      00000000 
 442      007F0200 
 442      00
 443              		.text
 444              		.section	.gnu.lto_.opts,"",%progbits
 445 0000 272D6D63 		.ascii	"'-mcpu=cortex-m4' '-mno-thumb-interwork' '-mthumb' "
 445      70753D63 
 445      6F727465 
 445      782D6D34 
 445      2720272D 
 446 0033 272D6767 		.ascii	"'-ggdb' '-O2' '-fomit-frame-pointer' '-falign-funct"
 446      64622720 
 446      272D4F32 
 446      2720272D 
 446      666F6D69 
 447 0066 696F6E73 		.ascii	"ions=16' '-ffunction-sections' '-fdata-sections' '-"
 447      3D313627 
 447      20272D66 
 447      66756E63 
 447      74696F6E 
 448 0099 666E6F2D 		.ascii	"fno-common' '-flto'\000"
 448      636F6D6D 
 448      6F6E2720 
 448      272D666C 
 448      746F2700 
 449              		.text
 450              		.cfi_sections	.debug_frame
 451              		.section	.text._read_r,"ax",%progbits
 452              		.align	2
 453              		.p2align 4,,15
 454              		.global	_read_r
 455              		.thumb
ARM GAS  /tmp/cchAnumW.s 			page 35


 456              		.thumb_func
 457              		.type	_read_r, %function
 458              	_read_r:
 459              	.LFB229:
 460              		.file 1 "/usr/src/chibios/os/various/syscalls.c"
 461              		.loc 1 71 0
 462              		.cfi_startproc
 463              		@ args = 0, pretend = 0, frame = 0
 464              		@ frame_needed = 0, uses_anonymous_args = 0
 465              		@ link register save eliminated.
 466              	.LVL0:
 467              		.loc 1 84 0
 468 0000 1623     		movs	r3, #22
 469              	.LVL1:
 470 0002 0360     		str	r3, [r0]
 471              		.loc 1 87 0
 472 0004 4FF0FF30 		mov	r0, #-1
 473              	.LVL2:
 474 0008 7047     		bx	lr
 475              		.cfi_endproc
 476              	.LFE229:
 477              		.size	_read_r, .-_read_r
 478 000a 00BF     		.section	.text._lseek_r,"ax",%progbits
 479              		.align	2
 480              		.p2align 4,,15
 481              		.global	_lseek_r
 482              		.thumb
 483              		.thumb_func
 484              		.type	_lseek_r, %function
 485              	_lseek_r:
 486              	.LFB230:
 487              		.loc 1 92 0
 488              		.cfi_startproc
 489              		@ args = 0, pretend = 0, frame = 0
 490              		@ frame_needed = 0, uses_anonymous_args = 0
 491              		@ link register save eliminated.
 492              	.LVL3:
 493              		.loc 1 99 0
 494 0000 0020     		movs	r0, #0
 495              	.LVL4:
 496 0002 7047     		bx	lr
 497              		.cfi_endproc
 498              	.LFE230:
 499              		.size	_lseek_r, .-_lseek_r
 500              		.section	.text._write_r,"ax",%progbits
 501              		.align	2
 502              		.p2align 4,,15
 503              		.global	_write_r
 504              		.thumb
 505              		.thumb_func
 506              		.type	_write_r, %function
 507              	_write_r:
 508              	.LFB231:
 509              		.loc 1 104 0
 510              		.cfi_startproc
 511              		@ args = 0, pretend = 0, frame = 0
 512              		@ frame_needed = 0, uses_anonymous_args = 0
ARM GAS  /tmp/cchAnumW.s 			page 36


 513              		@ link register save eliminated.
 514              	.LVL5:
 515              		.loc 1 116 0
 516 0000 1846     		mov	r0, r3
 517              	.LVL6:
 518 0002 7047     		bx	lr
 519              		.cfi_endproc
 520              	.LFE231:
 521              		.size	_write_r, .-_write_r
 522              		.section	.text._close_r,"ax",%progbits
 523              		.align	2
 524              		.p2align 4,,15
 525              		.global	_close_r
 526              		.thumb
 527              		.thumb_func
 528              		.type	_close_r, %function
 529              	_close_r:
 530              	.LFB232:
 531              		.loc 1 121 0
 532              		.cfi_startproc
 533              		@ args = 0, pretend = 0, frame = 0
 534              		@ frame_needed = 0, uses_anonymous_args = 0
 535              		@ link register save eliminated.
 536              	.LVL7:
 537              		.loc 1 126 0
 538 0000 0020     		movs	r0, #0
 539              	.LVL8:
 540 0002 7047     		bx	lr
 541              		.cfi_endproc
 542              	.LFE232:
 543              		.size	_close_r, .-_close_r
 544              		.section	.text._sbrk_r,"ax",%progbits
 545              		.align	2
 546              		.p2align 4,,15
 547              		.global	_sbrk_r
 548              		.thumb
 549              		.thumb_func
 550              		.type	_sbrk_r, %function
 551              	_sbrk_r:
 552              	.LFB233:
 553              		.loc 1 131 0
 554              		.cfi_startproc
 555              		@ args = 0, pretend = 0, frame = 0
 556              		@ frame_needed = 0, uses_anonymous_args = 0
 557              	.LVL9:
 558 0000 10B5     		push	{r4, lr}
 559              		.cfi_def_cfa_offset 8
 560              		.cfi_offset 4, -8
 561              		.cfi_offset 14, -4
 562              		.loc 1 131 0
 563 0002 0446     		mov	r4, r0
 564              		.loc 1 137 0
 565 0004 0846     		mov	r0, r1
 566              	.LVL10:
 567 0006 FFF7FEFF 		bl	chCoreAlloc
 568              	.LVL11:
 569              		.loc 1 138 0
ARM GAS  /tmp/cchAnumW.s 			page 37


 570 000a 00B1     		cbz	r0, .L9
 571              		.loc 1 148 0
 572 000c 10BD     		pop	{r4, pc}
 573              	.LVL12:
 574              	.L9:
 575              		.loc 1 139 0
 576 000e 0C23     		movs	r3, #12
 577 0010 2360     		str	r3, [r4]
 578              		.loc 1 140 0
 579 0012 4FF0FF30 		mov	r0, #-1
 580              	.LVL13:
 581              		.loc 1 148 0
 582 0016 10BD     		pop	{r4, pc}
 583              		.cfi_endproc
 584              	.LFE233:
 585              		.size	_sbrk_r, .-_sbrk_r
 586              		.section	.text._fstat_r,"ax",%progbits
 587              		.align	2
 588              		.p2align 4,,15
 589              		.global	_fstat_r
 590              		.thumb
 591              		.thumb_func
 592              		.type	_fstat_r, %function
 593              	_fstat_r:
 594              	.LFB234:
 595              		.loc 1 153 0
 596              		.cfi_startproc
 597              		@ args = 0, pretend = 0, frame = 0
 598              		@ frame_needed = 0, uses_anonymous_args = 0
 599              	.LVL14:
 600 0000 10B5     		push	{r4, lr}
 601              		.cfi_def_cfa_offset 8
 602              		.cfi_offset 4, -8
 603              		.cfi_offset 14, -4
 604              		.loc 1 157 0
 605 0002 1046     		mov	r0, r2
 606              	.LVL15:
 607              		.loc 1 153 0
 608 0004 1446     		mov	r4, r2
 609              		.loc 1 157 0
 610 0006 0021     		movs	r1, #0
 611              	.LVL16:
 612 0008 3C22     		movs	r2, #60
 613              	.LVL17:
 614 000a FFF7FEFF 		bl	memset
 615              	.LVL18:
 616              		.loc 1 158 0
 617 000e 4FF40053 		mov	r3, #8192
 618 0012 6360     		str	r3, [r4, #4]
 619              		.loc 1 160 0
 620 0014 0020     		movs	r0, #0
 621 0016 10BD     		pop	{r4, pc}
 622              		.cfi_endproc
 623              	.LFE234:
 624              		.size	_fstat_r, .-_fstat_r
 625              		.section	.text._isatty_r,"ax",%progbits
 626              		.align	2
ARM GAS  /tmp/cchAnumW.s 			page 38


 627              		.p2align 4,,15
 628              		.global	_isatty_r
 629              		.thumb
 630              		.thumb_func
 631              		.type	_isatty_r, %function
 632              	_isatty_r:
 633              	.LFB235:
 634              		.loc 1 165 0
 635              		.cfi_startproc
 636              		@ args = 0, pretend = 0, frame = 0
 637              		@ frame_needed = 0, uses_anonymous_args = 0
 638              		@ link register save eliminated.
 639              	.LVL19:
 640              		.loc 1 170 0
 641 0000 0120     		movs	r0, #1
 642              	.LVL20:
 643 0002 7047     		bx	lr
 644              		.cfi_endproc
 645              	.LFE235:
 646              		.size	_isatty_r, .-_isatty_r
 647              		.text
 648              	.Letext0:
 649              		.file 2 "/usr/lib/gcc/arm-none-eabi/4.8/include/stddef.h"
 650              		.file 3 "/usr/include/newlib/machine/_default_types.h"
 651              		.file 4 "/usr/include/newlib/sys/lock.h"
 652              		.file 5 "/usr/include/newlib/sys/_types.h"
 653              		.file 6 "/usr/include/newlib/sys/reent.h"
 654              		.file 7 "/usr/include/newlib/sys/_stdint.h"
 655              		.file 8 "/usr/include/newlib/sys/types.h"
 656              		.file 9 "/usr/include/newlib/sys/stat.h"
 657              		.file 10 "/usr/src/chibios/os/rt/ports/ARMCMx/compilers/GCC/chtypes.h"
 658              		.file 11 "/usr/src/chibios/os/rt/include/chsystypes.h"
 659              		.file 12 "/usr/src/chibios/os/rt/include/chschd.h"
 660              		.file 13 "/usr/src/chibios/os/rt/ports/ARMCMx/chcore.h"
 661              		.file 14 "/usr/src/chibios/os/rt/ports/ARMCMx/chcore_v7m.h"
 662              		.file 15 "/usr/src/chibios/os/rt/include/chtm.h"
 663              		.file 16 "/usr/src/chibios/os/rt/include/chsem.h"
 664              		.file 17 "/usr/src/chibios/os/rt/include/chmtx.h"
 665              		.file 18 "/usr/src/chibios/os/ext/CMSIS/include/core_cm4.h"
 666              		.file 19 "/usr/src/chibios/os/rt/include/chmemcore.h"