ARM GAS  /tmp/ccKXXJYw.s 			page 1


   1              		.syntax unified
   2              		.cpu cortex-m4
   3              		.fpu softvfp
   4              		.eabi_attribute 20, 1
   5              		.eabi_attribute 21, 1
   6              		.eabi_attribute 23, 3
   7              		.eabi_attribute 24, 1
   8              		.eabi_attribute 25, 1
   9              		.eabi_attribute 26, 1
  10              		.eabi_attribute 30, 2
  11              		.eabi_attribute 34, 1
  12              		.eabi_attribute 18, 4
  13              		.thumb
  14              		.file	"testmsg.c"
  15              		.text
  16              	.Ltext0:
  17              		.section	.gnu.lto_.jmpfuncs.cd2b05d61250d9d5,"",%progbits
  18 0000 789C6362 		.ascii	"x\234cb`b\300\006f\0031+\020\003e\231\230\"\0303\031"
  18      6062C006 
  18      6603312B 
  18      10036599 
  18      98221833 
  19 0015 191881AC 		.ascii	"\031\030\201\254j\206_\0153\032\0042\031\031\345\030"
  19      6A865F0D 
  19      331A0432 
  19      1919E518 
  20 0025 18E736CC 		.ascii	"\030\3476\314p\310d\204hgd`\300\305\000\232\0021\340"
  20      70C86484 
  20      68676460 
  20      C0C5009A 
  20      0231E0
  21 0038 04980F36 		.ascii	"\004\230\0176\243\003d\006s2#\3242fF&f U\006U\311\342"
  21      A3036406 
  21      733223D4 
  21      32664626 
  21      66205506 
  22 004f 0C64A008 		.ascii	"\014d\240\0108\241\0138\0029,\216N\316\014\000d\375"
  22      38A10B38 
  22      02392C8E 
  22      4ECE0C00 
  22      64FD
  23 0061 1256     		.ascii	"\022V"
  24              		.text
  25              		.section	.gnu.lto_.inline.cd2b05d61250d9d5,"",%progbits
  26 0000 789C6362 		.ascii	"x\234cb`b\300\006&Ci\240\254V\017##\003\223@C-\003\333"
  26      6062C006 
  26      264369A0 
  26      AC560F23 
  26      23039340 
  27 0018 0279B06A 		.ascii	"\002y\260jf\036\260\004\0237\003\003\343\004?0o\202"
  27      661EB004 
  27      13370303 
  27      E3043F30 
  27      6F82
  28 002a DF043F10 		.ascii	"\337\004?\020\237\004Av\001\006\006\326\011~\014`\304"
  28      9F044176 
  28      010606D6 
ARM GAS  /tmp/ccKXXJYw.s 			page 2


  28      097E0C60 
  28      C4
  29 003b CCC0A3C6 		.ascii	"\314\300\243\306\010v\013\212%@9t\232\001\000a\243\022"
  29      08760B8A 
  29      25403974 
  29      9A010061 
  29      A312
  30 004d 0D       		.ascii	"\015"
  31              		.text
  32              		.section	.gnu.lto_.pureconst.cd2b05d61250d9d5,"",%progbits
  33 0000 789C6362 		.ascii	"x\234cb`b`e\200\000&\006If\011\000\001\005\000@"
  33      60626065 
  33      80002606 
  33      49660900 
  33      01050040 
  34              		.text
  35              		.section	.gnu.lto_msg1_execute.cd2b05d61250d9d5,"",%progbits
  36 0000 789CAD94 		.ascii	"x\234\255\224\337K\223Q\030\307\237\347\335\246[\253"
  36      DF4B9351 
  36      18C79FE7 
  36      DDA65BAB 
  37 0010 E96C3AE7 		.ascii	"\351l:\347o\012\212\224\\\004]t\327\217\177\301\240"
  37      6F0A8A94 
  37      5C045D74 
  37      D78F7FC1 
  37      A0
  38 0021 2EE7ABCC 		.ascii	".\347\253\314\027Z\3056\257\272\360\270\271\360\302"
  38      175AC536 
  38      AFBAF0B8 
  38      B9F0C2
  39 0030 6079A366 		.ascii	"`y\243f\222V\027\245\013\221\010$\203FB(Z\346mt1\264"
  39      925617A5 
  39      0B910824 
  39      83464228 
  39      5AE66D74 
  40 0046 22E82630 		.ascii	"\"\350&0\010*Z\317s\336\037k*\352\205/\333y\317\373"
  40      082A5ACF 
  40      73DE1F6B 
  40      2AEA852F 
  40      DB79CFFB 
  41 005a 9CE77CCF 		.ascii	"\234\347|\317\367\371\274\347\274\012(\260\371\012\320"
  41      F7F9BCE7 
  41      BC0A28B0 
  41      F90AD0
  42 0069 7FA30420 		.ascii	"\177\243\004 Ew\264\001*\351w\000\275N\005\221;\200"
  42      4577B401 
  42      2AE97700 
  42      BD4E0591 
  42      3B80
  43 007b D0A360CF 		.ascii	"\320\243`\317\025\344T<\002\023B\014\346>\257}\305\021"
  43      15E4543C 
  43      0213420C 
  43      E63EAF7D 
  43      C511
  44 008d 91ED1B17 		.ascii	"\221\355\033\027\177\362yD\015I\366\030\202\212p\231"
  44      7FF27944 
  44      0D49F618 
ARM GAS  /tmp/ccKXXJYw.s 			page 3


  44      828A7099 
  45 009d 1EB049DE 		.ascii	"\036\260I\336\024{\361:\323J6\227\317gf\306\327f\321"
  45      147BF13A 
  45      D34A3697 
  45      CF6766C6 
  45      D766D1
  46 00b0 5BA78086 		.ascii	"[\247\200\2066\0335v\0075\340\204\020N\220\274\213\036"
  46      361B3576 
  46      0735E084 
  46      104E90BC 
  46      8B1E
  47 00c2 1C6E6A4A 		.ascii	"\034njJ<F\244\214#^\216\370\214H%G\374\034\251\341\251"
  47      3C46A48C 
  47      235E8EF8 
  47      8C482547 
  47      FC1CA9E1 
  48 00d7 B5D49492 		.ascii	"\265\324\224\222\276\003\372\204H7\3519\322h:;\362f"
  48      BE03FA84 
  48      4837E939 
  48      D2683A3B 
  48      F266
  49 00e9 2020C613 		.ascii	"  \306\023i\361\227|j\350T\340\304n6\201\307\351j\243"
  49      69F1977C 
  49      6AE854E0 
  49      C46E3681 
  49      C7E96AA3 
  50 00fd 96015C42 		.ascii	"\226\001\\B\205\357\266\267\220\3708\373e\301\036\302"
  50      85EFB6B7 
  50      90F838FB 
  50      65C11EC2 
  51 010d 87E88030 		.ascii	"\207\350\2000*'!#\3125t\215\302\335\3364\367\016\334"
  51      2A272123 
  51      CA35748D 
  51      C2DDDE34 
  51      F70EDC
  52 0120 845F6298 		.ascii	"\204_b\230{\356\210\224`y7\230\275\203\377-Ab\037^\016"
  52      7BEE8894 
  52      60793798 
  52      BD83FF2D 
  52      41621F5E 
  53 0135 FD386D78 		.ascii	"\3758mx6\315\213\237CA\253\020\263\223]Z\236\361\222"
  53      36CD8B9F 
  53      4341AB10 
  53      B3935D5A 
  53      9EF192
  54 0148 9EBEB08A 		.ascii	"\236\276\260\212\250{\224/2\2145-0)\204\310\315M\014"
  54      A87B942F 
  54      328C352D 
  54      302984C8 
  54      CD4D0C
  55 015b 35130CFD 		.ascii	"5\023\014\375I\234\325\360\020\373\022\354\306\303\276"
  55      499CD5F0 
  55      10FB12EC 
  55      C6C3BE
  56 016a FAB95716 		.ascii	"\372\271W\026\221\263\331M\231\364\321\316\217!\234"
  56      91B3D94D 
  56      99F4D1CE 
ARM GAS  /tmp/ccKXXJYw.s 			page 4


  56      8F219C
  57 0179 2461EAA3 		.ascii	"$a\352\243\325\327\035\316\276\012\204pJV[k\010\307"
  57      D5D71DCE 
  57      BE0A8470 
  57      4A565B6B 
  57      08C7
  58 018b 88B5255C 		.ascii	"\210\265%\\N\313\263\026\030Z\012\317\317\230\363\223"
  58      4ECBB316 
  58      185A0ACF 
  58      CF98F393 
  59 019b FDF34BCB 		.ascii	"\375\363K\313w\\&/\033\211p\262\235\323W\240\332\214"
  59      775C262F 
  59      1B8970B2 
  59      9DD357A0 
  59      DA8C
  60 01ad 3B2C775E 		.ascii	";,w^\225\266\237^\225\302\231\025\013\012\317\343q\247"
  60      95B69F5E 
  60      95C29915 
  60      0B0ACFE3 
  60      71A7
  61 01bf 86875534 		.ascii	"\206\207U4\330s\325\032\372\244\307\305\367\245z\220"
  61      D873D51A 
  61      FAA4C7C5 
  61      F7A57A90 
  62 01cf DF065D67 		.ascii	"\337\006]g\310\215\345\257\322\222\256\212H^\254Z\265"
  62      C88DE5AF 
  62      D292AE8A 
  62      485EAC5A 
  62      B5
  63 01e0 CD0B09B3 		.ascii	"\315\013\011\263\352\012$s\243\363h\372rZ\223\375\252"
  63      EA0A2473 
  63      A3F368FA 
  63      725A93FD 
  63      AA
  64 01f1 5E12EDB3 		.ascii	"^\022\355\263j\200EP\364\024}\243Q\2424\362\"5=P\317"
  64      6A804550 
  64      F4147DA3 
  64      51A234F2 
  64      22353D50 
  65 0206 4ABC1F78 		.ascii	"J\274\037x\253\321\200dsJ_b\021\022\271{\353\206z\204"
  65      ABD18064 
  65      734A5F62 
  65      1112B97B 
  65      EB867A84 
  66 021a 69386590 		.ascii	"i8e\220Z\343Pm\334\372\264\212\203I\261 \372\262\264"
  66      5AE3506D 
  66      DCFAB48A 
  66      8349B120 
  66      FAB2B4
  67 022d 5B1B696E 		.ascii	"[\033in\010\037\220\357\235\367k\204\241\221\320\367"
  67      081F90EF 
  67      9DF76B84 
  67      A191D0F7 
  68 023d D7CFEA4C 		.ascii	"\327\317\352Lc\217\310\030H\314\251\334\330\272A\010"
  68      638FC818 
  68      48CCA9DC 
  68      D8BA4108 
ARM GAS  /tmp/ccKXXJYw.s 			page 5


  69 024d C0AA28A0 		.ascii	"\300\252(\240b\211Q8\371tiX#k\370\226\374=\320l\326"
  69      62895138 
  69      F9746958 
  69      236BF896 
  69      FC3DD06C 
  70 0262 EFA60156 		.ascii	"\357\246\001V\260o\231]\253\312\363\306\263\335\032"
  70      B06F995D 
  70      ABCAF3C6 
  70      B3DD1A
  71 0271 D6E9E4EE 		.ascii	"\326\351\344\356\027\310y\366J\316SL\256\314\"\347\331"
  71      17C879F6 
  71      4ACE534C 
  71      AECC22E7 
  71      D9
  72 0282 4CEE7111 		.ascii	"L\356q\0219\317>\223K<\337\226\334\223\235\311y\310"
  72      39CF3E93 
  72      4B3CDF96 
  72      DC939DC9 
  72      79C8
  73 0294 7181DCD4 		.ascii	"q\201\334\324m\213\2347\314\247k\027r^\213\334T\201"
  73      6D8B9C37 
  73      CCA76B17 
  73      725E8BDC 
  73      5481
  74 02a6 9C6FAFE4 		.ascii	"\234o\257\344|\305\344*-r\276\315\3442E\344|\373\275"
  74      7CC5E42A 
  74      2D72BECD 
  74      E43245E4 
  74      7CFBBD
  75 02b9 E7B627F7 		.ascii	"\347\266'\367tgr>r\\ 7W \347\247\201]\311\371\015r\251"
  75      7467723E 
  75      725C2037 
  75      5720E7A7 
  75      815DC9F9 
  76 02d0 DCB4BA25 		.ascii	"\334\264\272%\257^\345se\034\360\012\224\003\325\032"
  76      AF5EE573 
  76      651CF00A 
  76      9403D51A 
  77 02e0 3634402F 		.ascii	"64@/\216\211\341s\0326\032\037R\"\333\004\260\012hj"
  77      8E89E173 
  77      1A361A1F 
  77      5222DB04 
  77      B00A686A 
  78 02f4 E8571B7D 		.ascii	"\350W\033}\005\351s\317_\213\243\301\356X4\030\213\252"
  78      05E973CF 
  78      5F8BA3C1 
  78      EE583418 
  78      8BAA
  79 0306 41B54B6B 		.ascii	"A\265Kk\327\256\307\202\361\316X<\030\215\313{$\026"
  79      D7AEC782 
  79      F1CE583C 
  79      188DCB7B 
  79      2416
  80 0318 6E554189 		.ascii	"nUA\211\337\260Q\257eK*\375(Q\273\246^\355\356\350\244"
  80      DFB051AF 
  80      654B2AFD 
  80      2851BBA6 
ARM GAS  /tmp/ccKXXJYw.s 			page 6


  80      5EEDEEE8 
  81 032d 68BC2BDA 		.ascii	"h\274+\332\031\352\210\265v\301\361]sY\272\013\354\347"
  81      19EA88B5 
  81      76C1F15D 
  81      7359BA0B 
  81      ECE7
  82 033f 2F5C847F 		.ascii	"/\\\204\177\210\266\307\351"
  82      88B6C7E9 
  83              		.text
  84              		.section	.gnu.lto_thread.cd2b05d61250d9d5,"",%progbits
  85 0000 789C6362 		.ascii	"x\234cb`b@\007\222@\374\024\210U\201\230\221\231\201"
  85      60624007 
  85      9240FC14 
  85      88558198 
  85      919981
  86 0013 9169C239 		.ascii	"\221i\3029\006\206F\016&FF\020\203\201\221\241\236\211"
  86      0686460E 
  86      26464610 
  86      838191A1 
  86      9E89
  87 0025 B13E9211 		.ascii	"\261>\222\021\254v=\323\201\007\377\377\257\373\266"
  87      AC763DD3 
  87      8107FFFF 
  87      AFFBB6
  88 0034 F05107A3 		.ascii	"\360Q\007\243 \033\023c.X\230\225\241\245\241a\202\002"
  88      201B1363 
  88      2E589895 
  88      A1A5A161 
  88      8202
  89 0046 03433298 		.ascii	"\003C2\230\033\002$AZC\031\231@4\363y\206\326\007\177"
  89      1B022441 
  89      5A431999 
  89      4034F379 
  89      86D6077F 
  90 005a 2D121917 		.ascii	"-\022\031\0272\262\002e\253\031~5t4\010d2\002UC\014"
  90      32B20265 
  90      AB197E35 
  90      74340864 
  90      32025543 
  91 006f 4D67648A 		.ascii	"Mgd\212`\314ddtd\310\004\352`\000*_PGX\265\023Bu=a\325"
  91      60CC6464 
  91      7464C804 
  91      EA60002A 
  91      5F504758 
  92 008a CE10D517 		.ascii	"\316\020\325\027\031\032\037t(\303\224C@\010P)\320\231"
  92      191A1F74 
  92      28C39443 
  92      40085029 
  92      D099
  93 009c A08051D6 		.ascii	"\240\200Q\326/-.\322/.J\326O\316\310L\312\314/\326/"
  93      2F2D2ED2 
  93      2F2E4AD6 
  93      4FCEC84C 
  93      CACC2FD6 
  94 00b1 492D2ED1 		.ascii	"I-.\321/*\001\323\271\305\351z\311\014\000\202\001C"
  94      2F2A01D3 
  94      B9C5E97A 
ARM GAS  /tmp/ccKXXJYw.s 			page 7


  94      C90C0082 
  94      0143
  95 00c3 8F       		.ascii	"\217"
  96              		.text
  97              		.section	.gnu.lto_.symbol_nodes.cd2b05d61250d9d5,"",%progbits
  98 0000 789C4DCC 		.ascii	"x\234M\314M\012\3020\024\004\340\231\244\265V\275\203"
  98      4D0AC230 
  98      1404E099 
  98      A4B556BD 
  98      83
  99 0011 67F324AF 		.ascii	"g\363$\257\220\205HA\305\265\273\036%{\317\240\024\377"
  99      90854841 
  99      C5B5BB1E 
  99      257BCFA0 
  99      14FF
 100 0023 EBDF05C4 		.ascii	"\353\337\005\304\327F\214\331|\314\314#\006\006\031"
 100      D7468CD9 
 100      7CCCCC23 
 100      060619
 101 0032 119E3950 		.ascii	"\021\2369P\210\345\006\020Y\317&\351Y\007A\372\"\025"
 101      88E50610 
 101      59CF26E9 
 101      590741FA 
 101      2215
 102 0044 B3A7E06F 		.ascii	"\263\247\340o\274\322\264\343\2116U\216L\024>(&\334"
 102      BCD2B4E3 
 102      8936558E 
 102      4C143E28 
 102      26DC
 103 0056 140579A7 		.ascii	"\024\005y\247\330\230n\224$\246\206\222\306t\241\364"
 103      D8986E94 
 103      24A68692 
 103      C674A1F4 
 104 0066 627A52B2 		.ascii	"bzR\262_\262\030\302\355\336\352\000\2763\207\2336c"
 104      5FB218C2 
 104      EDDEEA00 
 104      BE33879B 
 104      3663
 105 0078 8B3E7CE7 		.ascii	"\213>|\347\000ug\216\252\014}]\206\336\315C\357\027"
 105      0075678E 
 105      AA0C7D5D 
 105      86DECD43 
 105      EF17
 106 008a A177ABD6 		.ascii	"\241w\253\326\014U\253\035\301m\365?\265\372\352U|\000"
 106      0C55AB1D 
 106      C16DF53F 
 106      B5FAEA55 
 106      7C00
 107 009c 48134D77 		.ascii	"H\023Mw"
 108              		.text
 109              		.section	.gnu.lto_.refs.cd2b05d61250d9d5,"",%progbits
 110 0000 789C25C1 		.ascii	"x\234%\301A\001\0000\010\304\260^\007\030\300\277\327"
 110      41010030 
 110      08C4B05E 
 110      0718C0BF 
 110      D7
 111 0011 3D484496 		.ascii	"=HD\226S\020\364\245\322NF\370\004\007\000@"
ARM GAS  /tmp/ccKXXJYw.s 			page 8


 111      5310F4A5 
 111      D24E46F8 
 111      04070040 
 112              		.text
 113              		.section	.gnu.lto_.decls.cd2b05d61250d9d5,"",%progbits
 114 0000 789CBD5B 		.ascii	"x\234\275[{t\024U\232\257\252\356N\247I\010\340\254"
 114      7B741455 
 114      9AAFAAEE 
 114      4EA74908 
 114      E0AC
 115 0012 0ECE3ADA 		.ascii	"\016\316:\332\270\243\3438J`\307\035\3319;\302,{\216"
 115      B8A3E338 
 115      4A60C71D 
 115      D9393BC2 
 115      2C7B8E
 116 0025 BB678F7B 		.ascii	"\273g\217{\366\214;g\375\257\267\350\024I\257\351\207"
 116      F68C3B67 
 116      FDAFB7E8 
 116      1449AFE9 
 116      87
 117 0036 D5151276 		.ascii	"\325\025\022v\377\260\222@\010\012\032\010\320\301\004"
 117      FFB09240 
 117      080A1A08 
 117      D0C104
 118 0045 081005C9 		.ascii	"\010\020\005\311\256\002\002\213(\244t5\200\3411\022"
 118      AE02028B 
 118      28A47435 
 118      80E13112 
 119 0055 14423004 		.ascii	"\024B0\004\001\221\203\214<E^f\277\373\335\252\356\252"
 119      0191838C 
 119      3C455E66 
 119      BFFBDDAA 
 119      EEAA
 120 0067 EAAAEEAA 		.ascii	"\352\252\356\252\240['\367\366\355\233{\177\367\373"
 120      A05B27F7 
 120      F6ED9B7B 
 120      7FF7FB
 121 0076 EEF7BA8F 		.ascii	"\356\367\272\217j\216\341\230F\226a\206\340\231\377"
 121      6A8EE198 
 121      46966186 
 121      E099FF
 122 0085 5B8699EA 		.ascii	"[\206\231\352g\030\017\3030O@\362\251i%\244U\220\326"
 122      67180FC3 
 122      304F40F2 
 122      A96925A4 
 122      5590D6
 123 0098 40EA64E8 		.ascii	"@\352d\350S\010i\023\244\267!m\207\324\015\351#H\317"
 123      53086913 
 123      A4B7216D 
 123      87D40DE9 
 123      2348CF
 124 00ab 019604A9 		.ascii	"\001\226\004\251\216\245}\347\300\347<H\027!}\003\251"
 124      8EA57DE7 
 124      C0E73C48 
 124      17217D03 
 124      A9
 125 00bc 98630C0F 		.ascii	"\230c\014\017\351?\016\322^H%\220\212!M\206\004d0\005"
ARM GAS  /tmp/ccKXXJYw.s 			page 9


 125      E93F0ED2 
 125      5E482590 
 125      8A214D86 
 125      04643005 
 126 00d0 905643EA 		.ascii	"\220VC\352S\307\235\013\375\011\255w\001\206\027\276"
 126      53C79D0B 
 126      FD09AD77 
 126      018617BE 
 127 00e0 2F82F27C 		.ascii	"/\202\362|H?\206\357\373\340\373X\216\216I\350\254\202"
 127      483F86EF 
 127      FBE0FB58 
 127      8E8E49E8 
 127      AC82
 128 00f2 FA4B90EE 		.ascii	"\372K\220\356\206\272\237@\022\241\374\347\360\331\003"
 128      86BA9F40 
 128      12A1FCE7 
 128      F0D903
 129 0101 FFBB073E 		.ascii	"\377\273\007>w\302\347O\271\014o;\030\312w3\264\353"
 129      77C2E74F 
 129      B90C6F3B 
 129      18CA7733 
 129      B4EB
 130 0113 807418CA 		.ascii	"\200t\030\312\001\225\276{\241\335\375\034\345k\223"
 130      0195BE7B 
 130      A1DDFD1C 
 130      E56B93
 131 0122 CAE3472A 		.ascii	"\312\343G*\317\204w\257\211\317\007L<nR\261\037\344"
 131      CF8477AF 
 131      89CF074C 
 131      3C6E52B1 
 131      1FE4
 132 0134 281FF52C 		.ascii	"(\037\365,\255\347\324\377\221\271\"U[\214\335\230\""
 132      ADE7D4FF 
 132      91B92255 
 132      5B8CDD98 
 132      22
 133 0145 E60559AE 		.ascii	"\346\005Y\256\223\333\033\344\277\337U2\206i\222\341"
 133      93DB1BE4 
 133      BFDF5532 
 133      866992E1 
 134 0155 699FD252 		.ascii	"i\237\322R\022`\032I\375\340\253\362\330\261\014\363"
 134      12601A49 
 134      FDE0ABF2 
 134      D8B10CF3 
 135 0165 0CCBB350 		.ascii	"\014\313\263PU\210\205\342\000\"=\300t@[\350\300\361"
 135      558885E2 
 135      00223DC0 
 135      74405BE8 
 135      C0F1
 136 0177 EC6A3600 		.ascii	"\354j6\000#q,c\371\320\377\223\207t\247e\2554\304\246"
 136      23712C63 
 136      F9D0FF93 
 136      8774A765 
 136      AD34C4A6 
 137 018b D1831ABA 		.ascii	"\321\203\032\272W\355\265\212\035\203%\244EVi\304\026"
 137      57EDB58A 
 137      1D8325A4 
ARM GAS  /tmp/ccKXXJYw.s 			page 10


 137      455669C4 
 137      16
 138 019c 763D5ED3 		.ascii	"v=^\323\215S\034\310\024<*%v\375V\262E\226\023r\027"
 138      8D531CC8 
 138      143C2A25 
 138      76FD56B2 
 138      45961372 
 139 01b1 B3581D59 		.ascii	"\263X\035Yf%\236}\342N[\204\265\354]X\362\340\214C\305"
 139      66259E7D 
 139      E24E5B84 
 139      B5EC5D58 
 139      F2E08C43 
 140 01c6 E422C8FE 		.ascii	"\344\"\310\376\240\015l?\364\032\030\372a\346u:\225"
 140      A00D6C3F 
 140      F41A18FA 
 140      61E6753A 
 140      95
 141 01d7 9F5BCCA0 		.ascii	"\237[\314\240\201{k\034\024E\323\340\366\313\363~+\313"
 141      817B6B1C 
 141      1445D3E0 
 141      F6CBF37E 
 141      2BCB
 142 01e9 853CDB89 		.ascii	"\205<\333\211\342\370G\026\340\327\261\017\273\306\351"
 142      E2F84716 
 142      E0D7B10F 
 142      BBC6E9
 143 01f8 ED5EF14B 		.ascii	"\355^\361K\304y\003q\244\341\342\\\333\3315\011q6 \316"
 143      C4790371 
 143      A4E1E25C 
 143      DBD93509 
 143      713620CE 
 144 020c 3AD608C4 		.ascii	":\326\010\304\263\005\001\243\232\300w\255\001A\203"
 144      B30501A3 
 144      9AC077AD 
 144      014183
 145 021b AF64A46F 		.ascii	"\257d\244o\211\337`\237Wk\310\027?\363\377\336\357>"
 145      89DF609F 
 145      576BC817 
 145      3FF3FFDE 
 145      EF3E
 146 022d 66B9AC9C 		.ascii	"f\271\254\234\037\354\353\331>v\251\254\314\222\207"
 146      1FECEBD9 
 146      3E76A9AC 
 146      CC9287
 147 023c 869E57A5 		.ascii	"\206\236W\245\3161\207M\214\375\214Y-\313\013\345\215"
 147      CE31874D 
 147      8CFD8C59 
 147      2DCB0BE5 
 147      8D
 148 024d B21C403D 		.ascii	"\262\034@=\340\230c\330b\023{\237\345ta#x\036d^%\343"
 148      E09863D8 
 148      62137B9F 
 148      E5746123 
 148      781E645E 
 149 0263 CB6B650F 		.ascii	"\313ke\017\352\032\243\3661\320\274\2315X>\245KY\334"
 149      EA1AA3F6 
 149      31D0BC99 
ARM GAS  /tmp/ccKXXJYw.s 			page 11


 149      35583EA5 
 149      4B59DC
 150 0276 FDD2DD72 		.ascii	"\375\322\335r{\235244\231q\256\264\333T\245\315(*\307"
 150      7B9D3234 
 150      349971AE 
 150      B4DB54A5 
 150      CD282AC7 
 151 028a 1C373163 		.ascii	"\03471cM\326\333f\262\336\311&k\0204r\377g\265\354\202"
 151      4DD6DB66 
 151      B2DEC926 
 151      6B103472 
 151      FF67B5EC 
 152 029f FAF65DF2 		.ascii	"\372\366]\362\371\241\241QF\312\012\2319\350af\313\265"
 152      F9A1A151 
 152      46CA0A99 
 152      39E86166 
 152      CBB5
 153 02b1 EC73F95D 		.ascii	"\354s\371]L\027[\010\324\275l\357cH\003F\225$-k\245"
 153      4C175B08 
 153      D4BD6CEF 
 153      63480346 
 153      95242D6B 
 154 02c6 1C2E6687 		.ascii	"\034.f\207\331l}\001\255lp\004\324Y\331\241|\220q\037"
 154      D96C7D01 
 154      AD6C7004 
 154      D459D9A1 
 154      7C90711F 
 155 02da 86D9C409 		.ascii	"\206\331\304\011]\314\231'\2246\372\320j\306\224\363"
 155      5DCC9927 
 155      9436FAD0 
 155      6AC694F3 
 156 02ea DDF364B6 		.ascii	"\335\363d\266\251vph\350>\347r\334i\346\202\020k\"\243"
 156      A9767068 
 156      E83EE772 
 156      DC69E682 
 156      106B22A3 
 157 02fe D3868CDD 		.ascii	"\323\206\214\335\226\202\373\246\271\353ny\245[}\352"
 157      9682FBA6 
 157      B9EB6E79 
 157      A55B7DEA 
 158 030e 31D26198 		.ascii	"1\322a\230\301;\230\005\004%\250\363\031\355^\015\340"
 158      C13B9805 
 158      0425A8F3 
 158      19ED5E0D 
 158      E0
 159 031f EF98B4D3 		.ascii	"\357\230\264\323H\035\352\372\015:\215}\354\035\000"
 159      481DEAFA 
 159      0D3A8D7D 
 159      EC1D00
 160 032e D3E43192 		.ascii	"\323\3441\222\235\027\206c\226b\227\217\241;\355H\265"
 160      9D178663 
 160      9662978F 
 160      A13BED48 
 160      B5
 161 033f 6830D5FA 		.ascii	"h0\325\372a=[\013<\320\3771\026\263\241>\343\230v\240"
 161      613D5B0B 
 161      3CD0FF31 
ARM GAS  /tmp/ccKXXJYw.s 			page 12


 161      16B3A13E 
 161      E39876A0 
 162 0353 5B49BDB4 		.ascii	"[I\275\264\014l\352}h\277\227%F\274'\215k\305\177:\344"
 162      0C6CEA7D 
 162      68BF9725 
 162      46BC278D 
 162      6BC57F3A 
 163 0368 683A5812 		.ascii	"h:X\0220\341\275\262\257\270\211\327\300z]\203\005\015"
 163      30E1BDB2 
 163      AFB889D7 
 163      C07A5D83 
 163      050D
 164 037a 602BF6B5 		.ascii	"`+\366\265!qj\234v\022\035\316\253\321\241\017\275\361"
 164      21716A9C 
 164      76121DCE 
 164      ABD1A10F 
 164      BDF1
 165 038c 118F855B 		.ascii	"\021\217\205[w\004\324\333\320\361\010\002\035E\240"
 165      7704D4DB 
 165      D0F10802 
 165      1D45A0
 166 039b CF870D74 		.ascii	"\317\207\015tm\347\007\013\330z\224\3101\204:\3531G"
 166      6DE7070B 
 166      D87A94C8 
 166      31843AEB 
 166      3147
 167 03ad 08BF2942 		.ascii	"\010\277)B\370\215\036\333\037\310\024\210\243\036\305"
 167      F88D1EDB 
 167      1FC81488 
 167      A31EC5
 168 03bc FCC0CD39 		.ascii	"\374\300\3159\346\033'\202\313x\"\223\026\310\203KZ"
 168      E61B2782 
 168      CB782293 
 168      16C8834B 
 168      5A
 169 03cd F7784804 		.ascii	"\367xH\004\361\250\232\334^`7K\034s\013\307:i\326\344"
 169      F1A89ADC 
 169      5E60374B 
 169      1C730BC7 
 169      3A69D6E4 
 170 03e1 D6CF77FD 		.ascii	"\326\317w\375\242E\226G\323\177\345W\344\315\037\245"
 170      A2459647 
 170      D37FE557 
 170      E4CD1FA5 
 171 03f1 5057F2DA 		.ascii	"PW\362\332#\247\015\3773\034\376-/\031\376\214y\370"
 171      23A70DFF 
 171      331CFE2D 
 171      2F19FE8C 
 171      79F8
 172 0403 A113834F 		.ascii	"\241\023\203O\320\341\3178\032~\305\201E\331\303\333"
 172      D0E1CF38 
 172      1A7EC581 
 172      45D9C3DB 
 173 0413 FA115537 		.ascii	"\372\021U7Z?\377\362\236\0258\3109\264\227\013^\263"
 173      5A3FFFF2 
 173      9E1538C8 
 173      39B4970B 
ARM GAS  /tmp/ccKXXJYw.s 			page 13


 173      5EB3
 174 0425 6A4CD6FB 		.ascii	"jL\326\373\\m\301\225n\3001\327\323\324\017\313\\\201"
 174      5C6DC195 
 174      6EC031D7 
 174      D3D40FCB 
 174      5C81
 175 0437 4DE51F5E 		.ascii	"M\345\037^\207\030>\267@\243\341\226k\304\240a\"6\036"
 175      87183EB7 
 175      40A3E196 
 175      6BC4A061 
 175      22361E
 176 044a 400740C1 		.ascii	"@\007@\301d\237\0030[=\252S6\351\301\352]\203\031)\333"
 176      649F0330 
 176      5B3DAA53 
 176      36E9C1EA 
 176      5D831929 
 177 045f A2076B70 		.ascii	"\242\007kp\0026\332\236\262\255z\260\271\256\301\214"
 177      0236DA9E 
 177      B2AD7AB0 
 177      B9AEC18C 
 178 046f 946DD383 		.ascii	"\224m\323\203\315s\0026\326\236\262w\365`M\256\301\214"
 178      CD730236 
 178      D69EB277 
 178      F5604DAE 
 178      C18C
 179 0481 94EDD083 		.ascii	"\224\355\320\203-r\002\026\264\240,\375\330\305\324"
 179      2D720216 
 179      B4A02CFD 
 179      D8C5D4
 180 0490 2F336B0B 		.ascii	"/3k\013\216I\3714\207\340R\247\231\014F\253\317\255"
 180      8E49F934 
 180      87E052A7 
 180      990C46AB 
 180      CFAD
 181 04a2 0333F00D 		.ascii	"\0033\360\015qt\357j\266\271^\3365A\213e+\235 \346P"
 181      7174EF6A 
 181      B6B95EDE 
 181      35418B65 
 181      2B9D20E6 
 182 04b7 982DFAC0 		.ascii	"\230-\372\300\370\272k0\243X\016\0220\203\253Ioe\225"
 182      F8BA6B30 
 182      A3580E12 
 182      3083AB49 
 182      6F6595
 183 04ca B12D1967 		.ascii	"\261-\031ggXh\362l\007\373\300\260\367\251\215\234N"
 183      675868F2 
 183      6C07FBC0 
 183      B0F7A98D 
 183      9C4E
 184 04dc 441B9CD0 		.ascii	"D\033\234\320\237CGo\354k\373\261<\250\260\272\015\270"
 184      9F43476F 
 184      EC6BFBB1 
 184      3CA8B0BA 
 184      0DB8
 185 04ee 1DD55A60 		.ascii	"\035\325Z`?\251\006\366y\034\011\242[}\226\361\330\001"
 185      3FA906F6 
 185      791C09A2 
ARM GAS  /tmp/ccKXXJYw.s 			page 14


 185      5B7D96F1 
 185      D801
 186 0500 506FC312 		.ascii	"Po\303\022\272\357{\031\201\336\0336\320\265\235\313"
 186      BAEF7B19 
 186      81DE1B36 
 186      D0B59DCB 
 187 0510 E9C66F21 		.ascii	"\351\306o!\002\355\366\231}7k\012\353\2541\360\246g"
 187      02EDF699 
 187      7D376B0A 
 187      EBAC31F0 
 187      A667
 188 0522 5E9DF81F 		.ascii	"^\235\370\037\252-,\303\314\3222\260\223\327\011\014"
 188      AA2D2CC3 
 188      CCD232B0 
 188      93D7090C 
 189 0532 A6FA4F36 		.ascii	"\246\372O6\263\227\352\344\226\011.\3445\250\312+\205"
 189      B397EAE4 
 189      96092EE4 
 189      35A8CA2B 
 189      85
 190 0543 B3D39F35 		.ascii	"\263\323\2375;d\372\335\261q\3025\033\017\031\331h="
 190      3B64FADD 
 190      B171C235 
 190      1B0F19D9 
 190      683D
 191 0555 ED9E8D2F 		.ascii	"\355\236\215/U6\332\220\215\263\337\003\033\227\\\263"
 191      5536DA90 
 191      8DB3DF03 
 191      1B975CB3 
 192 0565 3141C706 		.ascii	"1A\307\006,\361\373//\242\256\351G\314\302\334\213+"
 192      2CF1FB2F 
 192      2FA2AEE9 
 192      47CCC2DC 
 192      8B2B
 193 0577 3CF5E17E 		.ascii	"<\365\341~dX\331(W\366\263AZ\235oU#+\315\007\332\324"
 193      6458D928 
 193      57F6B341 
 193      5A9D6F55 
 193      232BCD07 
 194 058d DD013D6D 		.ascii	"\335\001=m\271\216\264\223\276\303Yn\310\312z\032N("
 194      B98EB493 
 194      BEC3596E 
 194      C8CA7A1A 
 194      4E28
 195 059f 586DC1ED 		.ascii	"Xm\301\355\200\325)]\013\265\255\013\036?\274p\233p"
 195      80D5295D 
 195      0BB5AD0B 
 195      1E3FBC70 
 195      9B70
 196 05b1 470F987D 		.ascii	"G\017\230}\252i-\267\317\306\335i{\272T\367{l\035.\364"
 196      AA692DB7 
 196      CFC6DD69 
 196      7BBA54F7 
 196      7B6C1D2E 
 197 05c6 3B3942D0 		.ascii	";9B\320\202\002\263\262\354eM\3139R\241kb'\303uz\337"
 197      8202B3B2 
 197      EC654DCB 
ARM GAS  /tmp/ccKXXJYw.s 			page 15


 197      3952A16B 
 197      6227C375 
 198 05dc DB717B7C 		.ascii	"\333q{|\202\031\034\353\240\372\223o\251\374o\032Z1"
 198      82191CEB 
 198      A0FA936F 
 198      A9FC6F1A 
 198      5A31
 199 05ee 0EBC0E07 		.ascii	"\016\274\016\007\336\300\231V\312\307.\0156\250|\223"
 199      DEC09956 
 199      CAC72E0D 
 199      36A87C93 
 200 05fe FFE557AA 		.ascii	"\377\345W\252\376S\001ya\261\305xS\364\2019=\253\007"
 200      FE530179 
 200      61B1C578 
 200      53F48139 
 200      3DAB07
 201 0611 17B0B310 		.ascii	"\027\260\263\020}3G\366\312\307L\263\252\3550\246\330"
 201      7D3347F6 
 201      CAC74CB3 
 201      AAED30A6 
 201      D8
 202 0622 0171CCD7 		.ascii	"\001q\314\327\330e\253\231\360T\377\325:u\257\274\325"
 202      D865AB99 
 202      F054FFD5 
 202      3A75AFBC 
 202      D5
 203 0633 01E175CA 		.ascii	"\001\341u\312\205\027\365{e\236\375\204\345T\334\341"
 203      8517F57B 
 203      659EFD84 
 203      E554DCE1 
 204 0643 69DCC59E 		.ascii	"i\334\305\236\364\222\200g\017\271\006\013Z\221\252"
 204      F4928067 
 204      0FB9060B 
 204      5A91AA
 205 0652 6956865B 		.ascii	"iV\206[\236\335\306\221\260\377\0167\016\362w\271q\231"
 205      9EDDC691 
 205      B0FF0E37 
 205      0EF277B9 
 205      7199
 206 0664 66B040F7 		.ascii	"f\260@\367k2\265\232\272\274\006\015\302\377v\011U&"
 206      6B32B59A 
 206      BABC060D 
 206      C2FF7609 
 206      5526
 207 0676 1727B81D 		.ascii	"\027'\270\035\363\251O\355B\237\332\3507\233\311\033"
 207      F3A94FED 
 207      429FDAE8 
 207      379BC91B 
 208 0686 E6C8E9E2 		.ascii	"\346\310\351\342\010\223c^2\263\344t\317\221~\354\314"
 208      0893635E 
 208      32B3E474 
 208      CF917EEC 
 208      CC
 209 0697 70BDDE0C 		.ascii	"p\275\336\014\027\371o\323\014\373O;4C\231\325\257\010"
 209      17F96FD3 
 209      0CFB4F3B 
 209      344399D5 
ARM GAS  /tmp/ccKXXJYw.s 			page 16


 209      AF08
 210 06a9 616D8B23 		.ascii	"am\213#w\233\325y\351\215]sTu\356vd\207W\320\0165\273"
 210      779BD579 
 210      E98D5D73 
 210      5475EE76 
 210      648757D0 
 211 06c0 DA93461D 		.ascii	"\332\223F\035\216&\324)\327\316\354f\021\216\256p\017"
 211      8E26D429 
 211      D7CEEC66 
 211      118EAE70 
 211      0F
 212 06d1 9AE15CEE 		.ascii	"\232\341\\\356\374n\012n'\206j\227\322w\212\204\267"
 212      FC6E0A6E 
 212      27866A97 
 212      D2778A84 
 212      B7
 213 06e2 FDC8D3D1 		.ascii	"\375\310\323\321,\325\2423\243S\255n\235\235\354B;\331"
 213      2CD5A233 
 213      A353AD6E 
 213      9D9DEC42 
 213      3BD9
 214 06f4 8D76D283 		.ascii	"\215v\322\203\371^\275\265\330\251\305>\275Z\234t\315"
 214      F95EBDB5 
 214      D8A9C53E 
 214      BD5A9C74 
 214      CD
 215 0705 77D0A1F6 		.ascii	"w\320\241\366}\250\037\346\354mj\337\222\376\257\275"
 215      7DA81FE6 
 215      EC6D6ADF 
 215      92FEAFBD 
 216 0715 7840E3E2 		.ascii	"x@\343\342h\355\246\272\024\372\004\315\366b\326\334"
 216      68EDA6BA 
 216      14FA04CD 
 216      F662D6DC 
 217 0725 1E359BAD 		.ascii	"\0365\233\255\223\223\246\357\206\313H\372\341\230\331"
 217      9393A6EF 
 217      86CB48FA 
 217      E198D9
 218 0734 850E7623 		.ascii	"\205\016v#A\273\311 \207\246W\325\025U\336\343\252\364"
 218      41BBC920 
 218      87A657D5 
 218      1555DEE3 
 218      AAF4
 219 0746 F9ED9E5A 		.ascii	"\371\355\236Z5*\365\243\246\315-\264\216J9\316\275Z"
 219      352AF5A3 
 219      A6CD2DB4 
 219      8E4A39CE 
 219      BD5A
 220 0758 B0CB4056 		.ascii	"\260\313@VTj\275\254E\245\001GQ\251\3272*\015\270\217"
 220      546ABDAC 
 220      45A50147 
 220      51A9D732 
 220      2A0DB88F 
 221 076c 4A568F9E 		.ascii	"JV\217\236@\236\035D\0039n\014!k]\317~P?\373\312\265"
 221      409E1D44 
 221      03396E0C 
 221      216B5DCF 
ARM GAS  /tmp/ccKXXJYw.s 			page 17


 221      7E503FFB 
 222 0782 DE3696D2 		.ascii	"\3366\226\322O\035\321F3\236\225#z\310V\232J\323\247"
 222      4F1DD146 
 222      339E9523 
 222      7AC8569A 
 222      4AD3A7
 223 0795 BA35E676 		.ascii	"\2725\346v'\304M\260\003\253S\332(\030U\371\377u\015"
 223      27C44DB0 
 223      03AB53DA 
 223      281855F9 
 223      FF750D
 224 07a8 163480BD 		.ascii	"\0264\200\275\263D\223\324\207\270@\334\347\004o\222"
 224      B34493D4 
 224      87B840DC 
 224      E7046F92 
 225 07b8 3D71BD9F 		.ascii	"=q\275\237j\253sz\332}\3305\236\221\276\013K\014\013"
 225      6AAB737A 
 225      DA7DD835 
 225      9E91BE0B 
 225      4B0C0B
 226 07cb EA134EE0 		.ascii	"\352\023N\340\246"
 226      A6
 227 07d0 3856A4CC 		.ascii	"8V\244\314]\005\317\366\342A\304A\226\370\330O1?\214"
 227      5D05CFF6 
 227      E241C441 
 227      96F8D84F 
 227      313F8C
 228 07e3 F909CCEB 		.ascii	"\371\011\314\353\321\367\316\306|\016\346/b\276\004"
 228      D1F7CEC6 
 228      7C0EE62F 
 228      62BE04
 229 07f2 F356CCDB 		.ascii	"\363V\314\3331?\202\371\011\314Oa~\032\3633\230\237"
 229      313F82F9 
 229      09CC4F61 
 229      7E1AF333 
 229      989F
 230 0804 C5FC9C13 		.ascii	"\305\374\234\023\037nZ\210\247\357\230:\251O3]3\235"
 230      1F6E5A88 
 230      A7EF983A 
 230      A94F335D 
 230      339D
 231 0816 3559BBC6 		.ascii	"5Y\273\306\342y\316\352\232\351j\357\216{\227\312\357"
 231      E279CEEA 
 231      9AE96AEF 
 231      8E7B97CA 
 231      EF
 232 0827 D3EB54D3 		.ascii	"\323\353T\323=\023\031\327\216\246\213\\\366\305\345"
 232      3D1319D7 
 232      8EA68B5C 
 232      F6C5E5
 233 0836 B736235F 		.ascii	"\2676#_\262\034y\361\272\335\277X\266Q\2365W\376n\350"
 233      B21C79F1 
 233      BADDBF58 
 233      B6519E35 
 233      57FE6EE8 
 234 084a 79D6C5D0 		.ascii	"y\326\305\320W\270\354\213~\265\354\"`t\036\377\315"
 234      57B8EC8B 
ARM GAS  /tmp/ccKXXJYw.s 			page 18


 234      7EB5EC22 
 234      60741EFF 
 234      CD
 235 085b 9B78BAFD 		.ascii	"\233x\272\375-\232\317\261\2009b\370L\001\303g\014\030"
 235      2D9ACFB1 
 235      803962F8 
 235      4C01C367 
 235      0C18
 236 086d BE40A690 		.ascii	"\276@\246\220\271\311H\323\324Gec}\223I.\255s\320\266"
 236      B9C948D3 
 236      D4476563 
 236      7D93492E 
 236      AD73D0B6 
 237 0881 78DD716D 		.ascii	"x\335qm\323r\013m\361\213,\342\326\2307kk\214:b\232"
 237      D3720B6D 
 237      F18B2CE2 
 237      D698376B 
 237      6B8C3A62 
 238 0896 9E6C2DF9 		.ascii	"\236l-\371S\300ZV\265\036K-i\336q\267\235\226t\346\270"
 238      53C05A56 
 238      B51E4B2D 
 238      69DE71B7 
 238      9D9674E6 
 239 08ab 96ADF798 		.ascii	"\226\255\367\230DE\344\232G\177\345\021\326\2245\030"
 239      4445E49A 
 239      477FE511 
 239      D6943518 
 240 08bb 29BB9F59 		.ascii	")\273\237Y)\257'\367\333_\325\261\315r\373.p\256\260"
 240      29AF27F7 
 240      DB5FD5B1 
 240      CD72FB2E 
 240      70AEB0
 241 08ce E0BE4F7D 		.ascii	"\340\276O}\201&\250\333 +\271.;\262\357-\264'\203d\270"
 241      8126A8DB 
 241      202BB92E 
 241      3BB2EF2D 
 241      B4278364 
 242 08e3 E9E0D917 		.ascii	"\351\340\331\027<c\030\353\007\366\371Y\304\203\177"
 242      3C6318EB 
 242      07F6F959 
 242      C4837F
 243 08f2 C8104E88 		.ascii	"\310\020N\210\206\351L\365\357\031\373_u\362\254\015"
 243      86E94CF5 
 243      EF19FB5F 
 243      75F2AC0D 
 244 0902 803FC40E 		.ascii	"\200?\304\016M\326\226\217\215'2g\234\362\235\032\231"
 244      4DD6968F 
 244      8D273267 
 244      9CF29D1A 
 244      99
 245 0913 7F24DDD3 		.ascii	"\177$\335\323;\316\313+\325\013\273\371\036\022\220"
 245      3BCECB2B 
 245      D50BBBF9 
 245      1E1290
 246 0922 E69B0674 		.ascii	"\346\233\006t\000\3051K\261S\223'\373~V[\244\223\377"
 246      00C5314B 
 246      B1539327 
ARM GAS  /tmp/ccKXXJYw.s 			page 19


 246      FB7E565B 
 246      A493FF
 247 0935 E55FA42F 		.ascii	"\345_\244/\033\240\321\321b\371;\230^\376\336\243\243"
 247      1BA0D1D1 
 247      62F93B98 
 247      5EFEDEA3 
 247      A3
 248 0946 FED0A1E3 		.ascii	"\376\320\241\343*\365\213\220\372\3256\324\333\002q"
 248      2AF58B90 
 248      FAD536D4 
 248      DB0271
 249 0955 CC7AEC92 		.ascii	"\314z\354\222\312\246\375`\203J{\312\021\355\275G\214"
 249      CAA6FD60 
 249      834A7BCA 
 249      11EDBD47 
 249      8C
 250 0966 917D471A 		.ascii	"\221}G\032wx[\214\203G0\030\323`\327m\006s\265\301\220"
 250      77785B8C 
 250      83473018 
 250      D360D76D 
 250      0673B5C1 
 251 097b 95C314EC 		.ascii	"\225\303\024\354$^\300\357u\015\0264Pv\354\025\343-"
 251      245EC0EF 
 251      750D1634 
 251      5076EC15 
 251      E32D
 252 098d 7AAF13BC 		.ascii	"z\257\023\274\034\227\005\347\217\350.\013\372]\203"
 252      1C9705E7 
 252      8FE82E0B 
 252      FA5D83
 253 099c 1989FB46 		.ascii	"\031\211\373F\017v\302\011\230\325\311\275\325\243W"
 253      0F76C209 
 253      98D5C9BD 
 253      D5A357
 254 09ab 129E5DEA 		.ascii	"\022\236]\352!A\375\025\017\011\272m\230/\307\274\035"
 254      2141FD15 
 254      0F09BA6D 
 254      982FC7BC 
 254      1D
 255 09bc F3559877 		.ascii	"\363U\230wx\014k\307si+\261T\305|*!+\233\355\315\303"
 255      780C6BC7 
 255      73692BB1 
 255      54C57C2A 
 255      212B9BED 
 256 09d2 6A7708C6 		.ascii	"jw\010\306}\272\226\235\215:\274\026\315\343R~\3630"
 256      7DBA969D 
 256      8D3ABC16 
 256      CDE3527E 
 256      F330
 257 09e4 EFBFE716 		.ascii	"\357\277\347\026\221.\235Y\346\321\177k\266j\036\235"
 257      912E9D59 
 257      E6D17F6B 
 257      B66A1E9D 
 258 09f4 0ECC0376 		.ascii	"\016\314\003v\314\251e\316n\254\323\343\377\231\216"
 258      CCA965CE 
 258      6EACD3E3 
 258      FF998E
ARM GAS  /tmp/ccKXXJYw.s 			page 20


 259 0a03 914327B5 		.ascii	"\221C'\265s\261\365\310H{Q\376wH\014@`\347\330\345\255"
 259      73B1F5C8 
 259      487B51FE 
 259      77480C40 
 259      60E7D8E5 
 260 0a18 6C46CE69 		.ascii	"lF\316i\214\274\345\210\221\267S\232\366\277\351!:\366"
 260      8CBCE588 
 260      91B7539A 
 260      F6BFE921 
 260      3AF6
 261 0a2a 5E1A7758 		.ascii	"^\032wX\233Se\333!TX\012\266\3335\230Q\373\267\037r"
 261      9B5365DB 
 261      2154580A 
 261      B6DB3598 
 261      51FBB71F 
 262 0a3f FB0E49EA 		.ascii	"\373\016I\352\320\346\207q\243\373\216\2078\232\217"
 262      D0E68771 
 262      A3FB8E87 
 262      389A8F
 263 0a4e 8BCC2B83 		.ascii	"\213\314+\203amt\373\235\360a\177 \002R\371z\261\305"
 263      616D74FB 
 263      9DF0617F 
 263      200252F9 
 263      7AB1C5
 264 0a61 7951DE95 		.ascii	"yQ\336\225N*5P\253\256t\024\234\320\223Y\374\344[\351"
 264      4E2A3550 
 264      ABAE7414 
 264      9CD09359 
 264      FCE45BE9 
 265 0a75 809DBA26 		.ascii	"\200\235\272&>h\"\376\362\253\332u*\356-\2568\001\264"
 265      3E6822FE 
 265      F2ABDA75 
 265      2AEE2DAE 
 265      3801B4
 266 0a88 7290568F 		.ascii	"r\220V\217^\207!\326\240\033\332\202\356f+\346\3330"
 266      5E8721D6 
 266      A01BDA82 
 266      EE662BE6 
 266      DB30
 267 0a9a EFC2FC03 		.ascii	"\357\302\374\003\217\203\335\000\321\2744\366\377x8"
 267      8F83DD00 
 267      D1BC34F6 
 267      FF7838
 268 0aa9 D5DC87A7 		.ascii	"\325\334\207\247\31573\332\314\263o\273\0063j\363\202"
 268      CD3733DA 
 268      CCB36FBB 
 268      06336AF3 
 268      82
 269 0aba 23DA968F 		.ascii	"#\332\226\217('\317\356p\202\227\343\230m=\215\015T"
 269      2827CFEE 
 269      708297E3 
 269      986D3D8D 
 269      0D54
 270 0acc D36FA61D 		.ascii	"\323o\246\035\233K)[\013\245S'\224\377F\241\274\201"
 270      9B4B295B 
 270      0BA55327 
 270      94FF46A1 
ARM GAS  /tmp/ccKXXJYw.s 			page 21


 270      BC81
 271 0ade 22E8C67C 		.ascii	"\"\350\306|'\346\273\214\361\240\261\330\024\017\214"
 271      27E6BB8C 
 271      F1A0B1D8 
 271      140F8C
 272 0aed BED72A3C 		.ascii	"\276\327*<\351\347GV\336\035\000~\234\237\342\234\323"
 272      E9E74756 
 272      DE1D007E 
 272      9C9FE29C 
 272      D3
 273 0afe 4E71F6A0 		.ascii	"Nq\366\240\017}\271\330\365)\316r\354\262?{\255tJ[+"
 273      0F7DB9D8 
 273      F529CE72 
 273      ECB23F7B 
 273      AD744A5B 
 274 0b13 EDCFEF43 		.ascii	"\355\317\357Cg\325+\233[_\313\004\203\372\264q\317\345"
 274      67D52B9B 
 274      5B5FCB04 
 274      83FAB471 
 274      CFE5
 275 0b25 EC57FE86 		.ascii	"\354W\376\206\033\3717\322t\270\324Rk\331\355\327\311"
 275      1BF937D2 
 275      74B8D452 
 275      6BD9EDD7 
 275      C9
 276 0b36 EE6394DD 		.ascii	"\356c\224\335\001\243\244\266\232%e5\236\341\224\306"
 276      01A3A4B6 
 276      9A256535 
 276      9EE194C6 
 277 0b46 28A84F06 		.ascii	"(\250O\006\264\265!}\005\362]3\236\361\205G\265h{R#"
 277      B4B5217D 
 277      05F25D33 
 277      9EF18547 
 277      B5687B52 
 278 0b5b 2B036E24 		.ascii	"+\003n$\277\342\2133\217\323\327\004Q\356\177r+w\214"
 278      BFE28B33 
 278      8FD3D704 
 278      51EE7F72 
 278      2B778C
 279 0b6e 0226992B 		.ascii	"\002&\231+\027\204 \255u\020\372O\341a\271\213\275\364"
 279      178420AD 
 279      7510FA4F 
 279      E161B98B 
 279      BDF4
 280 0b80 26F5F0F5 		.ascii	"&\365\360\365\030Z\352P\361\367\022\223\346\214dUF\276"
 280      185AEA50 
 280      F1F71293 
 280      E68C6455 
 280      46BE
 281 0b92 17A539AA 		.ascii	"\027\2459\252S\232\317Pi\006\214J\363\322H\007J\223"
 281      539ACF50 
 281      69068C4A 
 281      F3D24807 
 281      4A93
 282 0ba4 B0551A08 		.ascii	"\260U\032\010#\247\036\257\225\225\226\011\332\306\021"
 282      23A71EAF 
 282      95959609 
ARM GAS  /tmp/ccKXXJYw.s 			page 22


 282      DAC611
 283 0bb3 B660EA1C 		.ascii	"\266`\352\034*\015r#[\273\341\236tO\303\336\"\363\276"
 283      2A0D7223 
 283      5BBBE19E 
 283      744FC3DE 
 283      22F3BE
 284 0bc6 DD4FD7E1 		.ascii	"\335O\327\341\211\304\0278\215\013FZ\276\374\341\010"
 284      89C41738 
 284      8D0B465A 
 284      BEFCE108 
 285 0bd6 ABB7610D 		.ascii	"\253\267a\015}A\364\014B\265\335\006\324\265\235\237"
 285      7D41F40C 
 285      42B5DD06 
 285      D4B59D9F 
 286 0be6 69AF887E 		.ascii	"i\257\210~\205`\257\2164\2137`\222n\300(\335@ S\030"
 286      8560AF8E 
 286      348B3760 
 286      926EC028 
 286      DD402053 
 287 0bfb D21EF37B 		.ascii	"\322\036\363{\"?`\037\2259e\244\306\335aV\0058\345q"
 287      223F601F 
 287      953965A4 
 287      C6DD6156 
 287      0538E571 
 288 0c0f FBF396AF 		.ascii	"\373\363\226\257=\326?o\371IZ\215\326\233\325\3104\256"
 288      3DD63F6F 
 288      F9495A8D 
 288      D69BD5C8 
 288      34AE
 289 0c21 5AAE71AC 		.ascii	"Z\256q\254\270M:\305]\210\212\333\214\321i\015\346="
 289      B84D3AC5 
 289      5D888ADB 
 289      8CD1690D 
 289      E63D
 290 0c33 987F8AF9 		.ascii	"\230\177\212\371a\314O\032\325\272+-.-j\031O\003\310"
 290      61CC4F1A 
 290      D5BA2B2D 
 290      2E2D6A19 
 290      4F03C8
 291 0c46 10178C27 		.ascii	"\020\027\214'\024\355\344X\345\364*v\241\325\261\212"
 291      14EDE458 
 291      E5F42A76 
 291      A1D5B18A 
 292 0c56 E16CCEB8 		.ascii	"\341l\316\270h\307\263>\327Sz\331fJ\275i\026\3367\263"
 292      68C7B33E 
 292      D7537AD9 
 292      664ABD69 
 292      16DE37B3 
 293 0c6a 903DEC15 		.ascii	"\220=\354\025#\007\353\225\301\276\027O\177\314.\222"
 293      2307EB95 
 293      C1BE174F 
 293      7FCC2E92 
 294 0c7a 651307E4 		.ascii	"e\023\007\344*\336p2\244\271S\320\360\034\333\252\217"
 294      2ADE7032 
 294      A4B953D0 
 294      F01CDBAA 
 294      8F
ARM GAS  /tmp/ccKXXJYw.s 			page 23


 295 0c8b 8084BCBB 		.ascii	"\200\204\274\273/\236\275\216+\236\033\346\200\273}"
 295      2F9EBD8E 
 295      2B9E1BE6 
 295      80BB7D
 296 0c9a FFF6B168 		.ascii	"\377\366\261h\2167\2349\340[\273\350me#\236\376\365"
 296      8E379C39 
 296      E05BBBE8 
 296      6D65239E 
 296      FEF5
 297 0cac 22FB3786 		.ascii	"\"\3737\206\275\306\273q\006\341L+\363m6+sB\236\354"
 297      BDC6BB71 
 297      06E14C2B 
 297      F36D362B 
 297      73429EEC 
 298 0cc0 D505EFC3 		.ascii	"\325\005\357\303\256\207\017\032\206'\227\245\024\222"
 298      AE870F1A 
 298      862797A5 
 298      1492
 299 0cce 63069C60 		.ascii	"c\006\234`\345X\021~\247\303:\355\032+\230e[T\016<{"
 299      E558117E 
 299      A7C33AED 
 299      1A2B9865 
 299      5B540E3C 
 300 0ce3 0B2D6708 		.ascii	"\013-g\010\363:/\311gy\363.\305M\023z\315\206\022<\273"
 300      F33A2FC9 
 300      6779F32E 
 300      C54D137A 
 300      CD86123C 
 301 0cf8 F41699C6 		.ascii	"\364\026\231\306\266\362\270\3513G\242\244\264\223u"
 301      B6F2B8E9 
 301      3347A2A4 
 301      B49375
 302 0d07 339E9DE3 		.ascii	"3\236\235\343ukf\215^k3\323;\325L+\362b\212\331\352"
 302      756B668D 
 302      5E6B33D3 
 302      3BD54C2B 
 302      F2628AD9 
 303 0d1c B28898EB 		.ascii	"\262\210\230\353\245F\367\030\363\226\334\250\300\372"
 303      A546F718 
 303      F396DCA8 
 303      C0FA
 304 0d2a E22A187F 		.ascii	"\342*\030\177Zn\377\311\\\227[d\260\303\257&R^\210a"
 304      5A6EFFC9 
 304      5C975B64 
 304      B0C3AF26 
 304      525E8861 
 305 0d3e 9EFFA372 		.ascii	"\236\377\243r\245a\031,\256`\323\367\035\230%\2356\216"
 305      A561192C 
 305      AE60D3F7 
 305      1D98259D 
 305      368E
 306 0d50 B99EE5A5 		.ascii	"\271\236\345\245\014\226EF\233\017\243\335\313\324\227"
 306      0C964546 
 306      9B0FA3DD 
 306      CBD497
 307 0d5f 2C930B75 		.ascii	",\223\013u\243N\241\010T\204tH\345j7k\365\243\312`\213"
 307      A34EA108 
ARM GAS  /tmp/ccKXXJYw.s 			page 24


 307      54847448 
 307      E56A376B 
 307      F5A3CA60 
 308 0d74 F1474435 		.ascii	"\361GD5\332\010\243\324\021\026\272\236\324f\233I-\311"
 308      DA08A3D4 
 308      1116BA9E 
 308      D4669B49 
 308      2DC9
 309 0d86 A9383CBB 		.ascii	"\2518<\273 \243\017\3672\213\200\245\226)\231\341\251"
 309      20A30FF7 
 309      328B80A5 
 309      962999E1 
 309      A9
 310 0d97 22921ED4 		.ascii	"\"\222\036\324\016\251J\352\277\023\345$\2746\312\312"
 310      0EA94AEA 
 310      BF13E524 
 310      BC36CACA 
 311 0da7 CD025A6D 		.ascii	"\315\002Zm\374A\230:.\235CM\371L\372\332\230\021V\026"
 311      FC41983A 
 311      2E9D434D 
 311      F94CFADA 
 311      98115616 
 312 0dbb 7D4BBCD6 		.ascii	"}K\274\326\277\306\244\247\316v\275R\266\275\310\225"
 312      BFC6A4A7 
 312      CE76BD52 
 312      B6BDC895 
 313 0dcb 8D5DAF16 		.ascii	"\215]\257\026\333^\227rP\270\324\266\327\305\034c\275"
 313      DB5E9772 
 313      50B8D4B6 
 313      D7C51C63 
 313      BD
 314 0ddc 62DBAB27 		.ascii	"b\333\253'\207;l\265\355\2653G\2576\333^;r\364Z\226"
 314      873B6CB5 
 314      EDB53347 
 314      AF36DB5E 
 314      3B72F45A 
 315 0df1 E9A5FEE0 		.ascii	"\351\245\376\340q\361\272\276\3227\311\257 \310=Y\355"
 315      71F1BABE 
 315      D237C9AF 
 315      20C83D59 
 315      ED
 316 0e02 ACDF99AE 		.ascii	"\254\337\231\256_\372r\\\277\254\360f_\322u\224\230"
 316      5FFA725C 
 316      BFACF066 
 316      5FD27594 
 316      98
 317 0e13 6F28F0D7 		.ascii	"o(\360\327\205u\362\306\265\344\307\222\364\336\212"
 317      8575F2C6 
 317      B5E4C792 
 317      F4DE8A
 318 0e22 67977BAD 		.ascii	"g\227{\255\177)\251\342\265{\255~\003\271\275\247M\375"
 318      7F29A9E2 
 318      B57BAD7E 
 318      03B9BDA7 
 318      4DFD
 319 0e34 0D64973C 		.ascii	"\015d\227<\256\220\212\202c\266\344\036\221\276w\310"
 319      AE908A82 
ARM GAS  /tmp/ccKXXJYw.s 			page 25


 319      63B6E41E 
 319      91BE77C8 
 320 0e44 B3AB728F 		.ascii	"\263\253r\217\270\3328\342\317\231\327Hd\355\35397f"
 320      B8DA38E2 
 320      CF99D748 
 320      64EDEB39 
 320      3766
 321 0e56 695361D6 		.ascii	"iSa\326\333\213YsNn\242\354\246\3515\235w\366\206+x"
 321      DB8B5973 
 321      4E6EA2EC 
 321      A6E9359D 
 321      77F6862B 
 322 0e6b B1E0C97F 		.ascii	"\261\340\311\177\372Cp*\3637\245UI\2614)\206K\303\025"
 322      FA43702A 
 322      F337A555 
 322      49B13429 
 322      864BC315 
 323 0e7f 91699178 		.ascii	"\221i\221x\262\024\376D\2514\021\027\245d\351\357~\377"
 323      B214FE44 
 323      A9341117 
 323      A564E9EF 
 323      7EFF
 324 0e91 D4D4A76A 		.ascii	"\324\324\247jJ\303\361h\"R)\210\311\322'\247N\205\206"
 324      4AC3F168 
 324      22522988 
 324      C9D227A7 
 324      4E8586
 325 0ea4 D2CC8490 		.ascii	"\322\314\204\220\034_\301\370\242\311\362\220t?BDb\341"
 325      1C5FC1F8 
 325      A2C9F290 
 325      743F4244 
 325      62E1
 326 0eb6 CAAA32A1 		.ascii	"\312\2522\2414&TWF\246\225&g&KCI\251,\022\223\240\241"
 326      34265457 
 326      46A69526 
 326      67264B43 
 326      49A92C12 
 327 0ecd 1F3E7EF5 		.ascii	"\037>~\365\227!\351Q\253\246Q\036\206\216\011\245\241"
 327      9721E951 
 327      ABA6511E 
 327      868E09A5 
 327      A1
 328 0ede 32613A5F 		.ascii	"2a:_U)\2054\370@(\244\366\373\213,*%!)\021:\311'P1>"
 328      55298534 
 328      F84028A4 
 328      F6FB8B2C 
 328      2A252129 
 329 0ef9 CC144815 		.ascii	"\314\024H\025\242\300\227\261\211b\370>1$\324\010\341"
 329      A2C097B1 
 329      8962F83E 
 329      3124D408 
 329      E1
 330 0f0a 2A4908E6 		.ascii	"*I\010\346\354Ix\010\375m<^yg\210|\015\361\311\244 "
 330      EC497808 
 330      FD6D3C5E 
 330      7967887C 
 330      0DF1C9A4 
ARM GAS  /tmp/ccKXXJYw.s 			page 26


 331 0f1f 4AA1A4F0 		.ascii	"J\241\244\360\\\225\020\013\013\243\260R\210F\200\246"
 331      5C95100B 
 331      0BA3B052 
 331      884680A6 
 332 0f2f F8B342EC 		.ascii	"\370\263B\354\3476\223\2451\024\256 \244T0\217\344m"
 332      E73693A5 
 332      3114AE20 
 332      A454308F 
 332      E46D
 333 0f41 07D3A371 		.ascii	"\007\323\243qYH\351\016I\201pE\210\226\037\312\337?"
 333      5948E90E 
 333      49817045 
 333      88961FCA 
 333      DF3F
 334 0f53 5C51067D 		.ascii	"\\Q\006}\013\022\241\230P#\301GB\024f\370\245\204\030"
 334      0B12A198 
 334      5023C147 
 334      421466F8 
 334      A58418
 335 0f66 8987A4C2 		.ascii	"\211\207\244\302*u\332F\204BZ\021\233D\342\376p<&A\217"
 335      2A75DA46 
 335      84425A11 
 335      9B44E2FE 
 335      703C2641 
 336 0f7b 471D89BD 		.ascii	"G\035\211\275\"\034\027\005\030\246\210T\023Y\204\245"
 336      221C1705 
 336      18A68854 
 336      135984A5 
 337 0f8b 9A89CE7B 		.ascii	"\232\211\316{\206f<\036%\014\212B9/FC\022'>\306\211"
 337      86663C1E 
 337      250C8A42 
 337      392F4643 
 337      12273EC6 
 338 0fa0 7FC589BF 		.ascii	"\177\305\211\277\346\304\3079q\022'\376\265G\2348\001"
 338      E6C4C739 
 338      711227FE 
 338      B5479C38 
 338      01
 339 0fb1 D244AE52 		.ascii	"\322D\256R\204\217_\371\022!\030\301O\230\252\026D\370"
 339      848F5FF9 
 339      122118C1 
 339      4F98AA16 
 339      44F8
 340 0fc3 8C579609 		.ascii	"\214W\226\011\"a\222\217\012\205RR\342%!$\371\011O\223"
 340      2261928F 
 340      0A855252 
 340      E2252124 
 340      F9094F93 
 341 0fd7 60BE2877 		.ascii	"`\276(wP\202\226\370?\277\024\215\227\011\370}z%_\236"
 341      508296F8 
 341      3FBF148D 
 341      9709F87D 
 341      7A255F9E 
 342 0feb F44BA230 		.ascii	"\364K\2420=\211\314\223B\201X6\023\004T(\324D\24404"
 342      3D89CC93 
 342      42815836 
 342      13045428 
ARM GAS  /tmp/ccKXXJYw.s 			page 27


 342      D444A430 
 343 1000 2CA896E2 		.ascii	",\250\226\342\323\376=q\207*\000h\"\210D\354!\311W-"
 343      D3FE3D71 
 343      872A0068 
 343      228844EC 
 343      21C9572D 
 344 1014 4962A218 		.ascii	"Ib\242\030\004\222\024\242|\242\002\230\311/{h\012\334"
 344      049214A2 
 344      7CA20298 
 344      C92F7B68 
 344      0ADC
 345 1026 8EA268C9 		.ascii	"\216\242h\311\020\250P\025@\215NKU\255\362\253\237\276"
 345      10A85015 
 345      408D4E4B 
 345      55ADF2AB 
 345      9FBE
 346 1038 700CD4CA 		.ascii	"p\014\324\312\227\014\301'P\002\275\023\205\3206\012"
 346      970CC127 
 346      5002BD13 
 346      85D0360A 
 347 1048 4A5BE340 		.ascii	"J[\343@\321\244\032bWQ\0253\032\212W\307`\312\26070"
 347      D1A41A62 
 347      57511533 
 347      1A8A57C7 
 347      60CAB037 
 348 105d 1CA57A51 		.ascii	"\034\245zQ-A\273D\2210C\210IQ>\371,\374G\250&\005O\""
 348      2D41BB44 
 348      91304388 
 348      49513EF9 
 348      2CFC47A8 
 349 1075 5455A291 		.ascii	"TU\242\221U\031\001-\227F\351\010%5\201D\250\232\217"
 349      5519012D 
 349      9746E908 
 349      25358144 
 349      A89A8F
 350 1088 489158F9 		.ascii	"H\221X\371\210D\010\246\215\022\215E\250\020\022B\014"
 350      884408A6 
 350      8D128D45 
 350      A8101242 
 350      0C
 351 1099 8CBB1C5A 		.ascii	"\214\273\034Z\301\020\244\375\0102\311|%j\031T&\300"
 351      C110A4FD 
 351      0832C97C 
 351      256A1954 
 351      26C0
 352 10ab AA60029F 		.ascii	"\252`\002\237J\226\377^\250\024\370\244\020\300/\377"
 352      4A96FF5E 
 352      A814F8A4 
 352      10C02FFF 
 353 10bb 0A90BFCC 		.ascii	"\012\220\277\314\313\235J\007p8\001\333\0227Q\036\016"
 353      CB9D4A07 
 353      703801DB 
 353      1237511E 
 353      0E
 354 10cc 97821A3D 		.ascii	"\227\202\032=\032\213\307\204G\005~Z\244\364\261\361"
 354      1A8BC784 
 354      47057E5A 
ARM GAS  /tmp/ccKXXJYw.s 			page 28


 354      A4F4B1F1 
 355 10dc 93D27DC0 		.ascii	"\223\322}\300\325\200\373 &\221\214\374\007Q\001izU"
 355      D580FB20 
 355      26918CFC 
 355      07510169 
 355      7A55
 356 10ee 2C1C92C6 		.ascii	",\034\222\306\204+\376\245\242l*\300I\302\323\240#\221"
 356      842BFEA5 
 356      A26C2AC0 
 356      49C2D3A0 
 356      2391
 357 1100 30A5E369 		.ascii	"0\245\343i \237\253\346\213\210\210\301\026\205(\265"
 357      209FABE6 
 357      8B8888C1 
 357      168528B5 
 358 1110 3F5A2E26 		.ascii	"?Z.&\243\317T\347e$Tg\276\373E:\343\005\"\332\223OD"
 358      A3CF54E7 
 358      65245467 
 358      BEFB453A 
 358      E30522DA 
 359 1127 8D15558D 		.ascii	"\215\025U\215\025\251\306\006\240\266J\004]\222|\"\351"
 359      15A9C606 
 359      A0B64A04 
 359      5D927C22 
 359      E9
 360 1138 74E78C88 		.ascii	"t\347\214\210(U\361\225!)\022\005/\252\002\337\005\300"
 360      2855F195 
 360      21291205 
 360      2FAA02DF 
 360      05C0
 361 114a 16FF1865 		.ascii	"\026\377\030e\250\243\012d\250\362\317\220P\272\344"
 361      A8A30A64 
 361      A8F2CF90 
 361      50BAE4
 362 1159 93987D80 		.ascii	"\223\230}\200\020\015\377\000\303\207\2322\241R\342"
 362      100DFF00 
 362      C3879A32 
 362      A152E2
 363 1168 A140D927 		.ascii	"\241@\331'mH\251\200\264\345\305\"\370\250\344\223\022"
 363      6D48A980 
 363      B4E5C522 
 363      F8A8E493 
 363      12
 364 1179 690E5564 		.ascii	"i\016Ud\270\022\225\3752aZU9\325\002}M \301\307\"a\""
 364      B81295FD 
 364      32615A55 
 364      39D5027D 
 364      4D20C1C7 
 365 1190 744FD9B4 		.ascii	"tO\331\264\362\021Q\036,\016\205\363`~!\022s\030-EC"
 365      F211511E 
 365      2C0E85F3 
 365      607E2112 
 365      73182D45 
 366 11a5 611EE427 		.ascii	"a\036\344'\302\334\307c@\221(\241\342\027\304\247OO"
 366      C2DCC763 
 366      409128A1 
 366      E217C4A7 
ARM GAS  /tmp/ccKXXJYw.s 			page 29


 366      4F4F
 367 11b7 0A122745 		.ascii	"\012\022'EG$\245g\241EyL\365\\\277~,\355\271H\261$R"
 367      4724A567 
 367      A145794C 
 367      F55CBF7E 
 367      2CEDB948 
 368 11ce 5629A89A 		.ascii	"V)\250\232\011\032\311\205+\374\252z\024\022\367\034"
 368      091AC985 
 368      2BFCAA7A 
 368      1412F71C 
 369 11de 06D5F212 		.ascii	"\006\325\362\022\377\340\003\264\252\004\324\361b\031"
 369      FFE003B4 
 369      AA04D4F1 
 369      6219
 370 11ec 18835F0D 		.ascii	"\030\203_\015\000#\022\274$\011b\214\030\276\032,&\216"
 370      002312BC 
 370      2409628C 
 370      18BE1A2C 
 370      268E
 371 11fe 1E2FC6CB 		.ascii	"\036/\306\313x\211\037\257U\214zJH&\371r!\371H\2602"
 371      78891FAF 
 371      558C7A4A 
 371      4826F972 
 371      21F948B0 
 372 1213 1E4F3054 		.ascii	"\036O0Tk\236\024\244\177\006\031\213\021i\3463#\265"
 372      6B9E14A4 
 372      7F06198B 
 372      1169E633 
 372      23B5
 373 1225 9AA785CA 		.ascii	"\232\247\205\312\351\317\374\037\250<\022u"
 373      E9CFFC1F 
 373      A83C1275 
 374              		.text
 375              		.section	.gnu.lto_.symtab.cd2b05d61250d9d5,"",%progbits
 376 0000 70617474 		.ascii	"patternmsg\000\000\000\000\000\000\000\000\000\000\000"
 376      65726E6D 
 376      73670000 
 376      00000000 
 376      00000000 
 377 0015 00F60100 		.ascii	"\000\366\001\000\000testmsg1\000\000\000\000\000\000"
 377      00746573 
 377      746D7367 
 377      31000000 
 377      000000
 378 0028 00000000 		.ascii	"\000\000\000\000\000\000\014\002\000\000wa\000\000\002"
 378      00000C02 
 378      00007761 
 378      000002
 379 0037 00000000 		.ascii	"\000\000\000\000\000\000\000\000\000\207\001\000\000"
 379      00000000 
 379      00870100 
 379      00
 380 0044 63680000 		.ascii	"ch\000\000\002\000\000\000\000\000\000\000\000\000\214"
 380      02000000 
 380      00000000 
 380      00008C
 381 0053 01000074 		.ascii	"\001\000\000threads\000\000\002\000\000\000\000\000"
ARM GAS  /tmp/ccKXXJYw.s 			page 30


 381      68726561 
 381      64730000 
 381      02000000 
 381      0000
 382 0065 00000000 		.ascii	"\000\000\000\000\362\001\000\000_test_assert_sequen"
 382      F2010000 
 382      5F746573 
 382      745F6173 
 382      73657274 
 383 0080 63650000 		.ascii	"ce\000\000\002\000\000\000\000\000\000\000\000\000\275"
 383      02000000 
 383      00000000 
 383      0000BD
 384 008f 00000074 		.ascii	"\000\000\000test_emit_token\000\000\002\000\000\000"
 384      6573745F 
 384      656D6974 
 384      5F746F6B 
 384      656E0000 
 385 00a7 00000000 		.ascii	"\000\000\000\000\000\000\306\000\000\000chMsgReleas"
 385      0000C600 
 385      00006368 
 385      4D736752 
 385      656C6561 
 386 00bc 65000002 		.ascii	"e\000\000\002\000\000\000\000\000\000\000\000\000\312"
 386      00000000 
 386      00000000 
 386      00CA
 387 00ca 00000063 		.ascii	"\000\000\000chMsgWait\000\000\002\000\000\000\000\000"
 387      684D7367 
 387      57616974 
 387      00000200 
 387      00000000 
 388 00de 00000000 		.ascii	"\000\000\000\000q\001\000\000chThdCreateStatic\000\000"
 388      71010000 
 388      63685468 
 388      64437265 
 388      61746553 
 389 00f9 02000000 		.ascii	"\002\000\000\000\000\000\000\000\000\000t\001\000\000"
 389      00000000 
 389      00007401 
 389      0000
 390 0107 63684D73 		.ascii	"chMsgSend\000\000\002\000\000\000\000\000\000\000\000"
 390      6753656E 
 390      64000002 
 390      00000000 
 390      00000000 
 391 011b 00820100 		.ascii	"\000\202\001\000\000"
 391      00
 392              		.text
 393              		.section	.gnu.lto_.opts,"",%progbits
 394 0000 272D6D63 		.ascii	"'-mcpu=cortex-m4' '-mno-thumb-interwork' '-mthumb' "
 394      70753D63 
 394      6F727465 
 394      782D6D34 
 394      2720272D 
 395 0033 272D6767 		.ascii	"'-ggdb' '-O2' '-fomit-frame-pointer' '-falign-funct"
 395      64622720 
ARM GAS  /tmp/ccKXXJYw.s 			page 31


 395      272D4F32 
 395      2720272D 
 395      666F6D69 
 396 0066 696F6E73 		.ascii	"ions=16' '-ffunction-sections' '-fdata-sections' '-"
 396      3D313627 
 396      20272D66 
 396      66756E63 
 396      74696F6E 
 397 0099 666E6F2D 		.ascii	"fno-common' '-flto'\000"
 397      636F6D6D 
 397      6F6E2720 
 397      272D666C 
 397      746F2700 
 398              		.text
 399              		.cfi_sections	.debug_frame
 400              		.section	.text.msg1_execute,"ax",%progbits
 401              		.align	2
 402              		.p2align 4,,15
 403              		.thumb
 404              		.thumb_func
 405              		.type	msg1_execute, %function
 406              	msg1_execute:
 407              	.LFB230:
 408              		.file 1 "/usr/src/chibios/test/rt/testmsg.c"
 409              		.loc 1 66 0
 410              		.cfi_startproc
 411              		@ args = 0, pretend = 0, frame = 0
 412              		@ frame_needed = 0, uses_anonymous_args = 0
 413 0000 10B5     		push	{r4, lr}
 414              		.cfi_def_cfa_offset 8
 415              		.cfi_offset 4, -8
 416              		.cfi_offset 14, -4
 417              	.LBB16:
 418              	.LBB17:
 419              	.LBB18:
 420              	.LBB19:
 421              		.file 2 "/usr/src/chibios/os/rt/include/chthreads.h"
 422              		.loc 2 176 0
 423 0002 184A     		ldr	r2, .L2
 424              	.LBE19:
 425              	.LBE18:
 426              	.LBE17:
 427              	.LBE16:
 428              		.loc 1 73 0
 429 0004 184B     		ldr	r3, .L2+4
 430              	.LBB23:
 431              	.LBB22:
 432              	.LBB21:
 433              	.LBB20:
 434              		.loc 2 176 0
 435 0006 9169     		ldr	r1, [r2, #24]
 436              	.LBE20:
 437              	.LBE21:
 438              	.LBE22:
 439              	.LBE23:
 440              		.loc 1 73 0
 441 0008 1868     		ldr	r0, [r3]
ARM GAS  /tmp/ccKXXJYw.s 			page 32


 442 000a 8A68     		ldr	r2, [r1, #8]
 443 000c 174B     		ldr	r3, .L2+8
 444              		.loc 1 66 0
 445 000e 82B0     		sub	sp, sp, #8
 446              		.cfi_def_cfa_offset 16
 447              		.loc 1 73 0
 448 0010 0132     		adds	r2, r2, #1
 449 0012 0091     		str	r1, [sp]
 450 0014 4FF4A471 		mov	r1, #328
 451 0018 FFF7FEFF 		bl	chThdCreateStatic
 452              	.LVL0:
 453 001c 144B     		ldr	r3, .L2+12
 454 001e 1860     		str	r0, [r3]
 455              		.loc 1 75 0
 456 0020 FFF7FEFF 		bl	chMsgWait
 457              	.LVL1:
 458              		.loc 1 67 0
 459 0024 046B     		ldr	r4, [r0, #48]
 460              	.LVL2:
 461              		.loc 1 77 0
 462 0026 2146     		mov	r1, r4
 463 0028 FFF7FEFF 		bl	chMsgRelease
 464              	.LVL3:
 465              		.loc 1 78 0
 466 002c E0B2     		uxtb	r0, r4
 467 002e FFF7FEFF 		bl	test_emit_token
 468              	.LVL4:
 469              		.loc 1 79 0
 470 0032 FFF7FEFF 		bl	chMsgWait
 471              	.LVL5:
 472              		.loc 1 67 0
 473 0036 046B     		ldr	r4, [r0, #48]
 474              	.LVL6:
 475              		.loc 1 81 0
 476 0038 2146     		mov	r1, r4
 477 003a FFF7FEFF 		bl	chMsgRelease
 478              	.LVL7:
 479              		.loc 1 82 0
 480 003e E0B2     		uxtb	r0, r4
 481 0040 FFF7FEFF 		bl	test_emit_token
 482              	.LVL8:
 483              		.loc 1 83 0
 484 0044 FFF7FEFF 		bl	chMsgWait
 485              	.LVL9:
 486              		.loc 1 67 0
 487 0048 046B     		ldr	r4, [r0, #48]
 488              	.LVL10:
 489              		.loc 1 85 0
 490 004a 2146     		mov	r1, r4
 491 004c FFF7FEFF 		bl	chMsgRelease
 492              	.LVL11:
 493              		.loc 1 86 0
 494 0050 E0B2     		uxtb	r0, r4
 495 0052 FFF7FEFF 		bl	test_emit_token
 496              	.LVL12:
 497              		.loc 1 87 0
 498 0056 0749     		ldr	r1, .L2+16
ARM GAS  /tmp/ccKXXJYw.s 			page 33


 499 0058 0120     		movs	r0, #1
 500              		.loc 1 88 0
 501 005a 02B0     		add	sp, sp, #8
 502              		@ sp needed
 503 005c BDE81040 		pop	{r4, lr}
 504              		.loc 1 87 0
 505 0060 FFF7FEBF 		b	_test_assert_sequence
 506              	.LVL13:
 507              	.L3:
 508              		.align	2
 509              	.L2:
 510 0064 00000000 		.word	ch
 511 0068 00000000 		.word	wa
 512 006c 00000000 		.word	thread
 513 0070 00000000 		.word	threads
 514 0074 00000000 		.word	.LC0
 515              		.cfi_endproc
 516              	.LFE230:
 517              		.size	msg1_execute, .-msg1_execute
 518              		.section	.text.thread,"ax",%progbits
 519              		.align	2
 520              		.p2align 4,,15
 521              		.thumb
 522              		.thumb_func
 523              		.type	thread, %function
 524              	thread:
 525              	.LFB229:
 526              		.loc 1 59 0
 527              		.cfi_startproc
 528              		@ args = 0, pretend = 0, frame = 0
 529              		@ frame_needed = 0, uses_anonymous_args = 0
 530              	.LVL14:
 531 0000 10B5     		push	{r4, lr}
 532              		.cfi_def_cfa_offset 8
 533              		.cfi_offset 4, -8
 534              		.cfi_offset 14, -4
 535              		.loc 1 61 0
 536 0002 4121     		movs	r1, #65
 537              		.loc 1 59 0
 538 0004 0446     		mov	r4, r0
 539              		.loc 1 61 0
 540 0006 FFF7FEFF 		bl	chMsgSend
 541              	.LVL15:
 542              		.loc 1 62 0
 543 000a 2046     		mov	r0, r4
 544 000c 4221     		movs	r1, #66
 545 000e FFF7FEFF 		bl	chMsgSend
 546              	.LVL16:
 547              		.loc 1 63 0
 548 0012 2046     		mov	r0, r4
 549 0014 4321     		movs	r1, #67
 550              		.loc 1 64 0
 551 0016 BDE81040 		pop	{r4, lr}
 552              	.LVL17:
 553              		.loc 1 63 0
 554 001a FFF7FEBF 		b	chMsgSend
 555              	.LVL18:
ARM GAS  /tmp/ccKXXJYw.s 			page 34


 556              		.cfi_endproc
 557              	.LFE229:
 558              		.size	thread, .-thread
 559              		.global	patternmsg
 560              		.global	testmsg1
 561 001e 00BF     		.section	.rodata.testmsg1,"a",%progbits
 562              		.align	2
 563              		.type	testmsg1, %object
 564              		.size	testmsg1, 16
 565              	testmsg1:
 566 0000 04000000 		.word	.LC1
 567 0004 00000000 		.word	0
 568 0008 00000000 		.word	0
 569 000c 00000000 		.word	msg1_execute
 570              		.section	.rodata.str1.4,"aMS",%progbits,1
 571              		.align	2
 572              	.LC0:
 573 0000 41424300 		.ascii	"ABC\000"
 574              	.LC1:
 575 0004 4D657373 		.ascii	"Messages, loop\000"
 575      61676573 
 575      2C206C6F 
 575      6F7000
 576              		.section	.rodata.patternmsg,"a",%progbits
 577              		.align	2
 578              		.type	patternmsg, %object
 579              		.size	patternmsg, 8
 580              	patternmsg:
 581 0000 00000000 		.word	testmsg1
 582 0004 00000000 		.word	0
 583              		.text
 584              	.Letext0:
 585              		.file 3 "/usr/lib/gcc/arm-none-eabi/4.8/include/stddef.h"
 586              		.file 4 "/usr/include/newlib/machine/_default_types.h"
 587              		.file 5 "/usr/include/newlib/sys/_stdint.h"
 588              		.file 6 "/usr/src/chibios/os/rt/ports/ARMCMx/compilers/GCC/chtypes.h"
 589              		.file 7 "/usr/src/chibios/os/rt/include/chsystypes.h"
 590              		.file 8 "/usr/src/chibios/os/rt/include/chschd.h"
 591              		.file 9 "/usr/src/chibios/os/rt/ports/ARMCMx/chcore.h"
 592              		.file 10 "/usr/src/chibios/os/rt/ports/ARMCMx/chcore_v7m.h"
 593              		.file 11 "/usr/src/chibios/os/rt/include/chtm.h"
 594              		.file 12 "/usr/src/chibios/os/rt/include/chsem.h"
 595              		.file 13 "/usr/src/chibios/os/rt/include/chmtx.h"
 596              		.file 14 "/usr/src/chibios/test/rt/test.h"
 597              		.file 15 "/usr/src/chibios/os/ext/CMSIS/include/core_cm4.h"
 598              		.file 16 "/usr/src/chibios/os/rt/include/chmsg.h"
 599              		.section	.debug_info,"",%progbits
 600              	.Ldebug_info0:
 601 0000 50090000 		.4byte	0x950
 602 0004 0400     		.2byte	0x4
 603 0006 00000000 		.4byte	.Ldebug_abbrev0
 604 000a 04       		.byte	0x4
 605 000b 01       		.uleb128 0x1
 606 000c 26020000 		.4byte	.LASF122
 607 0010 01       		.byte	0x1
 608 0011 BA050000 		.4byte	.LASF123
 609 0015 30000000 		.4byte	.Ldebug_ranges0+0x30
ARM GAS  /tmp/ccKXXJYw.s 			page 35


 610 0019 00000000 		.4byte	0
 611 001d 00000000 		.4byte	.Ldebug_line0
 612 0021 02       		.uleb128 0x2
 613 0022 04       		.byte	0x4
 614 0023 05       		.byte	0x5
 615 0024 696E7400 		.ascii	"int\000"
 616 0028 03       		.uleb128 0x3
 617 0029 15000000 		.4byte	.LASF2
 618 002d 03       		.byte	0x3
 619 002e D4       		.byte	0xd4
 620 002f 33000000 		.4byte	0x33
 621 0033 04       		.uleb128 0x4
 622 0034 04       		.byte	0x4
 623 0035 07       		.byte	0x7
 624 0036 6A010000 		.4byte	.LASF0
 625 003a 04       		.uleb128 0x4
 626 003b 01       		.byte	0x1
 627 003c 06       		.byte	0x6
 628 003d C5000000 		.4byte	.LASF1
 629 0041 03       		.uleb128 0x3
 630 0042 2C000000 		.4byte	.LASF3
 631 0046 04       		.byte	0x4
 632 0047 1D       		.byte	0x1d
 633 0048 4C000000 		.4byte	0x4c
 634 004c 04       		.uleb128 0x4
 635 004d 01       		.byte	0x1
 636 004e 08       		.byte	0x8
 637 004f EE030000 		.4byte	.LASF4
 638 0053 04       		.uleb128 0x4
 639 0054 02       		.byte	0x2
 640 0055 05       		.byte	0x5
 641 0056 06040000 		.4byte	.LASF5
 642 005a 04       		.uleb128 0x4
 643 005b 02       		.byte	0x2
 644 005c 07       		.byte	0x7
 645 005d AE010000 		.4byte	.LASF6
 646 0061 03       		.uleb128 0x3
 647 0062 FF010000 		.4byte	.LASF7
 648 0066 04       		.byte	0x4
 649 0067 3F       		.byte	0x3f
 650 0068 6C000000 		.4byte	0x6c
 651 006c 04       		.uleb128 0x4
 652 006d 04       		.byte	0x4
 653 006e 05       		.byte	0x5
 654 006f 08010000 		.4byte	.LASF8
 655 0073 03       		.uleb128 0x3
 656 0074 FB040000 		.4byte	.LASF9
 657 0078 04       		.byte	0x4
 658 0079 41       		.byte	0x41
 659 007a 7E000000 		.4byte	0x7e
 660 007e 04       		.uleb128 0x4
 661 007f 04       		.byte	0x4
 662 0080 07       		.byte	0x7
 663 0081 B6040000 		.4byte	.LASF10
 664 0085 04       		.uleb128 0x4
 665 0086 08       		.byte	0x8
 666 0087 05       		.byte	0x5
ARM GAS  /tmp/ccKXXJYw.s 			page 36


 667 0088 B7000000 		.4byte	.LASF11
 668 008c 03       		.uleb128 0x3
 669 008d 8F030000 		.4byte	.LASF12
 670 0091 04       		.byte	0x4
 671 0092 5B       		.byte	0x5b
 672 0093 97000000 		.4byte	0x97
 673 0097 04       		.uleb128 0x4
 674 0098 08       		.byte	0x8
 675 0099 07       		.byte	0x7
 676 009a 51000000 		.4byte	.LASF13
 677 009e 03       		.uleb128 0x3
 678 009f 6C050000 		.4byte	.LASF14
 679 00a3 05       		.byte	0x5
 680 00a4 14       		.byte	0x14
 681 00a5 41000000 		.4byte	0x41
 682 00a9 03       		.uleb128 0x3
 683 00aa E6030000 		.4byte	.LASF15
 684 00ae 05       		.byte	0x5
 685 00af 1F       		.byte	0x1f
 686 00b0 61000000 		.4byte	0x61
 687 00b4 03       		.uleb128 0x3
 688 00b5 85040000 		.4byte	.LASF16
 689 00b9 05       		.byte	0x5
 690 00ba 20       		.byte	0x20
 691 00bb 73000000 		.4byte	0x73
 692 00bf 03       		.uleb128 0x3
 693 00c0 23000000 		.4byte	.LASF17
 694 00c4 05       		.byte	0x5
 695 00c5 26       		.byte	0x26
 696 00c6 8C000000 		.4byte	0x8c
 697 00ca 05       		.uleb128 0x5
 698 00cb A9000000 		.4byte	0xa9
 699 00cf 03       		.uleb128 0x3
 700 00d0 1F050000 		.4byte	.LASF18
 701 00d4 06       		.byte	0x6
 702 00d5 45       		.byte	0x45
 703 00d6 B4000000 		.4byte	0xb4
 704 00da 03       		.uleb128 0x3
 705 00db DD010000 		.4byte	.LASF19
 706 00df 06       		.byte	0x6
 707 00e0 48       		.byte	0x48
 708 00e1 9E000000 		.4byte	0x9e
 709 00e5 03       		.uleb128 0x3
 710 00e6 1B010000 		.4byte	.LASF20
 711 00ea 06       		.byte	0x6
 712 00eb 49       		.byte	0x49
 713 00ec 9E000000 		.4byte	0x9e
 714 00f0 03       		.uleb128 0x3
 715 00f1 9A030000 		.4byte	.LASF21
 716 00f5 06       		.byte	0x6
 717 00f6 4A       		.byte	0x4a
 718 00f7 9E000000 		.4byte	0x9e
 719 00fb 03       		.uleb128 0x3
 720 00fc C1030000 		.4byte	.LASF22
 721 0100 06       		.byte	0x6
 722 0101 4C       		.byte	0x4c
 723 0102 B4000000 		.4byte	0xb4
ARM GAS  /tmp/ccKXXJYw.s 			page 37


 724 0106 03       		.uleb128 0x3
 725 0107 CB010000 		.4byte	.LASF23
 726 010b 06       		.byte	0x6
 727 010c 4D       		.byte	0x4d
 728 010d A9000000 		.4byte	0xa9
 729 0111 03       		.uleb128 0x3
 730 0112 F3010000 		.4byte	.LASF24
 731 0116 06       		.byte	0x6
 732 0117 4F       		.byte	0x4f
 733 0118 B4000000 		.4byte	0xb4
 734 011c 03       		.uleb128 0x3
 735 011d 64010000 		.4byte	.LASF25
 736 0121 06       		.byte	0x6
 737 0122 51       		.byte	0x51
 738 0123 A9000000 		.4byte	0xa9
 739 0127 03       		.uleb128 0x3
 740 0128 DD040000 		.4byte	.LASF26
 741 012c 07       		.byte	0x7
 742 012d 33       		.byte	0x33
 743 012e B4000000 		.4byte	0xb4
 744 0132 03       		.uleb128 0x3
 745 0133 CD040000 		.4byte	.LASF27
 746 0137 07       		.byte	0x7
 747 0138 3F       		.byte	0x3f
 748 0139 3D010000 		.4byte	0x13d
 749 013d 06       		.uleb128 0x6
 750 013e C1010000 		.4byte	.LASF47
 751 0142 44       		.byte	0x44
 752 0143 08       		.byte	0x8
 753 0144 C2       		.byte	0xc2
 754 0145 2A020000 		.4byte	0x22a
 755 0149 07       		.uleb128 0x7
 756 014a 37040000 		.4byte	.LASF28
 757 014e 08       		.byte	0x8
 758 014f C3       		.byte	0xc3
 759 0150 35020000 		.4byte	0x235
 760 0154 00       		.byte	0
 761 0155 07       		.uleb128 0x7
 762 0156 B2030000 		.4byte	.LASF29
 763 015a 08       		.byte	0x8
 764 015b C5       		.byte	0xc5
 765 015c 35020000 		.4byte	0x235
 766 0160 04       		.byte	0x4
 767 0161 07       		.uleb128 0x7
 768 0162 B0000000 		.4byte	.LASF30
 769 0166 08       		.byte	0x8
 770 0167 C7       		.byte	0xc7
 771 0168 FB000000 		.4byte	0xfb
 772 016c 08       		.byte	0x8
 773 016d 07       		.uleb128 0x7
 774 016e AC050000 		.4byte	.LASF31
 775 0172 08       		.byte	0x8
 776 0173 C8       		.byte	0xc8
 777 0174 65040000 		.4byte	0x465
 778 0178 0C       		.byte	0xc
 779 0179 07       		.uleb128 0x7
 780 017a 24010000 		.4byte	.LASF32
ARM GAS  /tmp/ccKXXJYw.s 			page 38


 781 017e 08       		.byte	0x8
 782 017f CA       		.byte	0xca
 783 0180 35020000 		.4byte	0x235
 784 0184 10       		.byte	0x10
 785 0185 07       		.uleb128 0x7
 786 0186 41030000 		.4byte	.LASF33
 787 018a 08       		.byte	0x8
 788 018b CB       		.byte	0xcb
 789 018c 35020000 		.4byte	0x235
 790 0190 14       		.byte	0x14
 791 0191 07       		.uleb128 0x7
 792 0192 88050000 		.4byte	.LASF34
 793 0196 08       		.byte	0x8
 794 0197 D2       		.byte	0xd2
 795 0198 E4050000 		.4byte	0x5e4
 796 019c 18       		.byte	0x18
 797 019d 07       		.uleb128 0x7
 798 019e 10040000 		.4byte	.LASF35
 799 01a2 08       		.byte	0x8
 800 01a3 DD       		.byte	0xdd
 801 01a4 E5000000 		.4byte	0xe5
 802 01a8 1C       		.byte	0x1c
 803 01a9 07       		.uleb128 0x7
 804 01aa 3E040000 		.4byte	.LASF36
 805 01ae 08       		.byte	0x8
 806 01af E1       		.byte	0xe1
 807 01b0 DA000000 		.4byte	0xda
 808 01b4 1D       		.byte	0x1d
 809 01b5 07       		.uleb128 0x7
 810 01b6 51050000 		.4byte	.LASF37
 811 01ba 08       		.byte	0x8
 812 01bb E6       		.byte	0xe6
 813 01bc F0000000 		.4byte	0xf0
 814 01c0 1E       		.byte	0x1e
 815 01c1 08       		.uleb128 0x8
 816 01c2 705F7500 		.ascii	"p_u\000"
 817 01c6 08       		.byte	0x8
 818 01c7 3101     		.2byte	0x131
 819 01c9 1F050000 		.4byte	0x51f
 820 01cd 20       		.byte	0x20
 821 01ce 09       		.uleb128 0x9
 822 01cf DC020000 		.4byte	.LASF38
 823 01d3 08       		.byte	0x8
 824 01d4 3601     		.2byte	0x136
 825 01d6 3B020000 		.4byte	0x23b
 826 01da 24       		.byte	0x24
 827 01db 09       		.uleb128 0x9
 828 01dc 86010000 		.4byte	.LASF39
 829 01e0 08       		.byte	0x8
 830 01e1 3C01     		.2byte	0x13c
 831 01e3 5F020000 		.4byte	0x25f
 832 01e7 28       		.byte	0x28
 833 01e8 09       		.uleb128 0x9
 834 01e9 9E050000 		.4byte	.LASF40
 835 01ed 08       		.byte	0x8
 836 01ee 4001     		.2byte	0x140
 837 01f0 06010000 		.4byte	0x106
ARM GAS  /tmp/ccKXXJYw.s 			page 39


 838 01f4 30       		.byte	0x30
 839 01f5 09       		.uleb128 0x9
 840 01f6 7A040000 		.4byte	.LASF41
 841 01fa 08       		.byte	0x8
 842 01fb 4601     		.2byte	0x146
 843 01fd 11010000 		.4byte	0x111
 844 0201 34       		.byte	0x34
 845 0202 09       		.uleb128 0x9
 846 0203 FC030000 		.4byte	.LASF42
 847 0207 08       		.byte	0x8
 848 0208 4D01     		.2byte	0x14d
 849 020a DE050000 		.4byte	0x5de
 850 020e 38       		.byte	0x38
 851 020f 09       		.uleb128 0x9
 852 0210 E7040000 		.4byte	.LASF43
 853 0214 08       		.byte	0x8
 854 0215 5101     		.2byte	0x151
 855 0217 FB000000 		.4byte	0xfb
 856 021b 3C       		.byte	0x3c
 857 021c 09       		.uleb128 0x9
 858 021d D1000000 		.4byte	.LASF44
 859 0221 08       		.byte	0x8
 860 0222 5801     		.2byte	0x158
 861 0224 12030000 		.4byte	0x312
 862 0228 40       		.byte	0x40
 863 0229 00       		.byte	0
 864 022a 03       		.uleb128 0x3
 865 022b FA020000 		.4byte	.LASF45
 866 022f 07       		.byte	0x7
 867 0230 44       		.byte	0x44
 868 0231 35020000 		.4byte	0x235
 869 0235 0A       		.uleb128 0xa
 870 0236 04       		.byte	0x4
 871 0237 32010000 		.4byte	0x132
 872 023b 03       		.uleb128 0x3
 873 023c 8F050000 		.4byte	.LASF46
 874 0240 07       		.byte	0x7
 875 0241 49       		.byte	0x49
 876 0242 46020000 		.4byte	0x246
 877 0246 06       		.uleb128 0x6
 878 0247 A6040000 		.4byte	.LASF48
 879 024b 04       		.byte	0x4
 880 024c 08       		.byte	0x8
 881 024d B0       		.byte	0xb0
 882 024e 5F020000 		.4byte	0x25f
 883 0252 07       		.uleb128 0x7
 884 0253 37040000 		.4byte	.LASF28
 885 0257 08       		.byte	0x8
 886 0258 B1       		.byte	0xb1
 887 0259 35020000 		.4byte	0x235
 888 025d 00       		.byte	0
 889 025e 00       		.byte	0
 890 025f 03       		.uleb128 0x3
 891 0260 38050000 		.4byte	.LASF49
 892 0264 07       		.byte	0x7
 893 0265 50       		.byte	0x50
 894 0266 6A020000 		.4byte	0x26a
ARM GAS  /tmp/ccKXXJYw.s 			page 40


 895 026a 06       		.uleb128 0x6
 896 026b 9F000000 		.4byte	.LASF50
 897 026f 08       		.byte	0x8
 898 0270 08       		.byte	0x8
 899 0271 B7       		.byte	0xb7
 900 0272 8F020000 		.4byte	0x28f
 901 0276 07       		.uleb128 0x7
 902 0277 37040000 		.4byte	.LASF28
 903 027b 08       		.byte	0x8
 904 027c B8       		.byte	0xb8
 905 027d 35020000 		.4byte	0x235
 906 0281 00       		.byte	0
 907 0282 07       		.uleb128 0x7
 908 0283 B2030000 		.4byte	.LASF29
 909 0287 08       		.byte	0x8
 910 0288 B9       		.byte	0xb9
 911 0289 35020000 		.4byte	0x235
 912 028d 04       		.byte	0x4
 913 028e 00       		.byte	0
 914 028f 03       		.uleb128 0x3
 915 0290 08000000 		.4byte	.LASF51
 916 0294 07       		.byte	0x7
 917 0295 57       		.byte	0x57
 918 0296 9A020000 		.4byte	0x29a
 919 029a 0B       		.uleb128 0xb
 920 029b E5010000 		.4byte	.LASF52
 921 029f 1C       		.byte	0x1c
 922 02a0 08       		.byte	0x8
 923 02a1 9001     		.2byte	0x190
 924 02a3 F6020000 		.4byte	0x2f6
 925 02a7 09       		.uleb128 0x9
 926 02a8 95040000 		.4byte	.LASF53
 927 02ac 08       		.byte	0x8
 928 02ad 9101     		.2byte	0x191
 929 02af 5F020000 		.4byte	0x25f
 930 02b3 00       		.byte	0
 931 02b4 09       		.uleb128 0x9
 932 02b5 20040000 		.4byte	.LASF54
 933 02b9 08       		.byte	0x8
 934 02ba 9201     		.2byte	0x192
 935 02bc FB000000 		.4byte	0xfb
 936 02c0 08       		.byte	0x8
 937 02c1 09       		.uleb128 0x9
 938 02c2 49030000 		.4byte	.LASF55
 939 02c6 08       		.byte	0x8
 940 02c7 9401     		.2byte	0x194
 941 02c9 65040000 		.4byte	0x465
 942 02cd 0C       		.byte	0xc
 943 02ce 09       		.uleb128 0x9
 944 02cf 34010000 		.4byte	.LASF56
 945 02d3 08       		.byte	0x8
 946 02d4 9701     		.2byte	0x197
 947 02d6 35020000 		.4byte	0x235
 948 02da 10       		.byte	0x10
 949 02db 09       		.uleb128 0x9
 950 02dc 87030000 		.4byte	.LASF57
 951 02e0 08       		.byte	0x8
ARM GAS  /tmp/ccKXXJYw.s 			page 41


 952 02e1 9801     		.2byte	0x198
 953 02e3 35020000 		.4byte	0x235
 954 02e7 14       		.byte	0x14
 955 02e8 09       		.uleb128 0x9
 956 02e9 7D030000 		.4byte	.LASF58
 957 02ed 08       		.byte	0x8
 958 02ee 9B01     		.2byte	0x19b
 959 02f0 35020000 		.4byte	0x235
 960 02f4 18       		.byte	0x18
 961 02f5 00       		.byte	0
 962 02f6 03       		.uleb128 0x3
 963 02f7 F2040000 		.4byte	.LASF59
 964 02fb 07       		.byte	0x7
 965 02fc 5C       		.byte	0x5c
 966 02fd 01030000 		.4byte	0x301
 967 0301 0A       		.uleb128 0xa
 968 0302 04       		.byte	0x4
 969 0303 07030000 		.4byte	0x307
 970 0307 0C       		.uleb128 0xc
 971 0308 12030000 		.4byte	0x312
 972 030c 0D       		.uleb128 0xd
 973 030d 12030000 		.4byte	0x312
 974 0311 00       		.byte	0
 975 0312 0E       		.uleb128 0xe
 976 0313 04       		.byte	0x4
 977 0314 03       		.uleb128 0x3
 978 0315 A2030000 		.4byte	.LASF60
 979 0319 07       		.byte	0x7
 980 031a 61       		.byte	0x61
 981 031b 1F030000 		.4byte	0x31f
 982 031f 0B       		.uleb128 0xb
 983 0320 46040000 		.4byte	.LASF61
 984 0324 14       		.byte	0x14
 985 0325 08       		.byte	0x8
 986 0326 6B01     		.2byte	0x16b
 987 0328 6E030000 		.4byte	0x36e
 988 032c 09       		.uleb128 0x9
 989 032d 77010000 		.4byte	.LASF62
 990 0331 08       		.byte	0x8
 991 0332 6C01     		.2byte	0x16c
 992 0334 F6050000 		.4byte	0x5f6
 993 0338 00       		.byte	0
 994 0339 09       		.uleb128 0x9
 995 033a 45010000 		.4byte	.LASF63
 996 033e 08       		.byte	0x8
 997 033f 6D01     		.2byte	0x16d
 998 0341 F6050000 		.4byte	0x5f6
 999 0345 04       		.byte	0x4
 1000 0346 09       		.uleb128 0x9
 1001 0347 9D040000 		.4byte	.LASF64
 1002 034b 08       		.byte	0x8
 1003 034c 6E01     		.2byte	0x16e
 1004 034e 27010000 		.4byte	0x127
 1005 0352 08       		.byte	0x8
 1006 0353 09       		.uleb128 0x9
 1007 0354 B2050000 		.4byte	.LASF65
 1008 0358 08       		.byte	0x8
ARM GAS  /tmp/ccKXXJYw.s 			page 42


 1009 0359 6F01     		.2byte	0x16f
 1010 035b F6020000 		.4byte	0x2f6
 1011 035f 0C       		.byte	0xc
 1012 0360 09       		.uleb128 0x9
 1013 0361 27050000 		.4byte	.LASF66
 1014 0365 08       		.byte	0x8
 1015 0366 7101     		.2byte	0x171
 1016 0368 12030000 		.4byte	0x312
 1017 036c 10       		.byte	0x10
 1018 036d 00       		.byte	0
 1019 036e 03       		.uleb128 0x3
 1020 036f 7C000000 		.4byte	.LASF67
 1021 0373 07       		.byte	0x7
 1022 0374 66       		.byte	0x66
 1023 0375 79030000 		.4byte	0x379
 1024 0379 0B       		.uleb128 0xb
 1025 037a 0D030000 		.4byte	.LASF68
 1026 037e 10       		.byte	0x10
 1027 037f 08       		.byte	0x8
 1028 0380 7B01     		.2byte	0x17b
 1029 0382 BB030000 		.4byte	0x3bb
 1030 0386 09       		.uleb128 0x9
 1031 0387 77010000 		.4byte	.LASF62
 1032 038b 08       		.byte	0x8
 1033 038c 7C01     		.2byte	0x17c
 1034 038e F6050000 		.4byte	0x5f6
 1035 0392 00       		.byte	0
 1036 0393 09       		.uleb128 0x9
 1037 0394 45010000 		.4byte	.LASF63
 1038 0398 08       		.byte	0x8
 1039 0399 7E01     		.2byte	0x17e
 1040 039b F6050000 		.4byte	0x5f6
 1041 039f 04       		.byte	0x4
 1042 03a0 09       		.uleb128 0x9
 1043 03a1 9D040000 		.4byte	.LASF64
 1044 03a5 08       		.byte	0x8
 1045 03a6 8001     		.2byte	0x180
 1046 03a8 27010000 		.4byte	0x127
 1047 03ac 08       		.byte	0x8
 1048 03ad 09       		.uleb128 0x9
 1049 03ae 35030000 		.4byte	.LASF69
 1050 03b2 08       		.byte	0x8
 1051 03b3 8801     		.2byte	0x188
 1052 03b5 27010000 		.4byte	0x127
 1053 03b9 0C       		.byte	0xc
 1054 03ba 00       		.byte	0
 1055 03bb 03       		.uleb128 0x3
 1056 03bc 42000000 		.4byte	.LASF70
 1057 03c0 07       		.byte	0x7
 1058 03c1 6B       		.byte	0x6b
 1059 03c2 C6030000 		.4byte	0x3c6
 1060 03c6 0B       		.uleb128 0xb
 1061 03c7 D0030000 		.4byte	.LASF71
 1062 03cb 04       		.byte	0x4
 1063 03cc 08       		.byte	0x8
 1064 03cd A201     		.2byte	0x1a2
 1065 03cf E1030000 		.4byte	0x3e1
ARM GAS  /tmp/ccKXXJYw.s 			page 43


 1066 03d3 09       		.uleb128 0x9
 1067 03d4 06050000 		.4byte	.LASF72
 1068 03d8 08       		.byte	0x8
 1069 03d9 AA01     		.2byte	0x1aa
 1070 03db FC050000 		.4byte	0x5fc
 1071 03df 00       		.byte	0
 1072 03e0 00       		.byte	0
 1073 03e1 03       		.uleb128 0x3
 1074 03e2 D1010000 		.4byte	.LASF73
 1075 03e6 07       		.byte	0x7
 1076 03e7 70       		.byte	0x70
 1077 03e8 EC030000 		.4byte	0x3ec
 1078 03ec 0F       		.uleb128 0xf
 1079 03ed FE000000 		.4byte	.LASF74
 1080 03f1 5001     		.2byte	0x150
 1081 03f3 08       		.byte	0x8
 1082 03f4 C201     		.2byte	0x1c2
 1083 03f6 48040000 		.4byte	0x448
 1084 03fa 09       		.uleb128 0x9
 1085 03fb 58050000 		.4byte	.LASF75
 1086 03ff 08       		.byte	0x8
 1087 0400 C601     		.2byte	0x1c6
 1088 0402 8F020000 		.4byte	0x28f
 1089 0406 00       		.byte	0
 1090 0407 09       		.uleb128 0x9
 1091 0408 F1000000 		.4byte	.LASF76
 1092 040c 08       		.byte	0x8
 1093 040d CA01     		.2byte	0x1ca
 1094 040f 6E030000 		.4byte	0x36e
 1095 0413 1C       		.byte	0x1c
 1096 0414 08       		.uleb128 0x8
 1097 0415 64626700 		.ascii	"dbg\000"
 1098 0419 08       		.byte	0x8
 1099 041a CE01     		.2byte	0x1ce
 1100 041c BB030000 		.4byte	0x3bb
 1101 0420 2C       		.byte	0x2c
 1102 0421 09       		.uleb128 0x9
 1103 0422 71000000 		.4byte	.LASF77
 1104 0426 08       		.byte	0x8
 1105 0427 D201     		.2byte	0x1d2
 1106 0429 32010000 		.4byte	0x132
 1107 042d 30       		.byte	0x30
 1108 042e 08       		.uleb128 0x8
 1109 042f 746D00   		.ascii	"tm\000"
 1110 0432 08       		.byte	0x8
 1111 0433 D701     		.2byte	0x1d7
 1112 0435 14050000 		.4byte	0x514
 1113 0439 74       		.byte	0x74
 1114 043a 09       		.uleb128 0x9
 1115 043b 55010000 		.4byte	.LASF78
 1116 043f 08       		.byte	0x8
 1117 0440 E301     		.2byte	0x1e3
 1118 0442 01060000 		.4byte	0x601
 1119 0446 78       		.byte	0x78
 1120 0447 00       		.byte	0
 1121 0448 04       		.uleb128 0x4
 1122 0449 04       		.byte	0x4
ARM GAS  /tmp/ccKXXJYw.s 			page 44


 1123 044a 07       		.byte	0x7
 1124 044b F1020000 		.4byte	.LASF79
 1125 044f 03       		.uleb128 0x3
 1126 0450 3C010000 		.4byte	.LASF80
 1127 0454 09       		.byte	0x9
 1128 0455 65       		.byte	0x65
 1129 0456 12030000 		.4byte	0x312
 1130 045a 03       		.uleb128 0x3
 1131 045b 09020000 		.4byte	.LASF81
 1132 045f 09       		.byte	0x9
 1133 0460 6D       		.byte	0x6d
 1134 0461 BF000000 		.4byte	0xbf
 1135 0465 06       		.uleb128 0x6
 1136 0466 17050000 		.4byte	.LASF82
 1137 046a 04       		.byte	0x4
 1138 046b 09       		.byte	0x9
 1139 046c 89       		.byte	0x89
 1140 046d 7E040000 		.4byte	0x47e
 1141 0471 10       		.uleb128 0x10
 1142 0472 72313300 		.ascii	"r13\000"
 1143 0476 09       		.byte	0x9
 1144 0477 8A       		.byte	0x8a
 1145 0478 F9040000 		.4byte	0x4f9
 1146 047c 00       		.byte	0
 1147 047d 00       		.byte	0
 1148 047e 06       		.uleb128 0x6
 1149 047f 36000000 		.4byte	.LASF83
 1150 0483 24       		.byte	0x24
 1151 0484 0A       		.byte	0xa
 1152 0485 F4       		.byte	0xf4
 1153 0486 F9040000 		.4byte	0x4f9
 1154 048a 08       		.uleb128 0x8
 1155 048b 723400   		.ascii	"r4\000"
 1156 048e 0A       		.byte	0xa
 1157 048f 0701     		.2byte	0x107
 1158 0491 4F040000 		.4byte	0x44f
 1159 0495 00       		.byte	0
 1160 0496 08       		.uleb128 0x8
 1161 0497 723500   		.ascii	"r5\000"
 1162 049a 0A       		.byte	0xa
 1163 049b 0801     		.2byte	0x108
 1164 049d 4F040000 		.4byte	0x44f
 1165 04a1 04       		.byte	0x4
 1166 04a2 08       		.uleb128 0x8
 1167 04a3 723600   		.ascii	"r6\000"
 1168 04a6 0A       		.byte	0xa
 1169 04a7 0901     		.2byte	0x109
 1170 04a9 4F040000 		.4byte	0x44f
 1171 04ad 08       		.byte	0x8
 1172 04ae 08       		.uleb128 0x8
 1173 04af 723700   		.ascii	"r7\000"
 1174 04b2 0A       		.byte	0xa
 1175 04b3 0A01     		.2byte	0x10a
 1176 04b5 4F040000 		.4byte	0x44f
 1177 04b9 0C       		.byte	0xc
 1178 04ba 08       		.uleb128 0x8
 1179 04bb 723800   		.ascii	"r8\000"
ARM GAS  /tmp/ccKXXJYw.s 			page 45


 1180 04be 0A       		.byte	0xa
 1181 04bf 0B01     		.2byte	0x10b
 1182 04c1 4F040000 		.4byte	0x44f
 1183 04c5 10       		.byte	0x10
 1184 04c6 08       		.uleb128 0x8
 1185 04c7 723900   		.ascii	"r9\000"
 1186 04ca 0A       		.byte	0xa
 1187 04cb 0C01     		.2byte	0x10c
 1188 04cd 4F040000 		.4byte	0x44f
 1189 04d1 14       		.byte	0x14
 1190 04d2 08       		.uleb128 0x8
 1191 04d3 72313000 		.ascii	"r10\000"
 1192 04d7 0A       		.byte	0xa
 1193 04d8 0D01     		.2byte	0x10d
 1194 04da 4F040000 		.4byte	0x44f
 1195 04de 18       		.byte	0x18
 1196 04df 08       		.uleb128 0x8
 1197 04e0 72313100 		.ascii	"r11\000"
 1198 04e4 0A       		.byte	0xa
 1199 04e5 0E01     		.2byte	0x10e
 1200 04e7 4F040000 		.4byte	0x44f
 1201 04eb 1C       		.byte	0x1c
 1202 04ec 08       		.uleb128 0x8
 1203 04ed 6C7200   		.ascii	"lr\000"
 1204 04f0 0A       		.byte	0xa
 1205 04f1 0F01     		.2byte	0x10f
 1206 04f3 4F040000 		.4byte	0x44f
 1207 04f7 20       		.byte	0x20
 1208 04f8 00       		.byte	0
 1209 04f9 0A       		.uleb128 0xa
 1210 04fa 04       		.byte	0x4
 1211 04fb 7E040000 		.4byte	0x47e
 1212 04ff 11       		.uleb128 0x11
 1213 0500 04       		.byte	0x4
 1214 0501 0B       		.byte	0xb
 1215 0502 38       		.byte	0x38
 1216 0503 14050000 		.4byte	0x514
 1217 0507 07       		.uleb128 0x7
 1218 0508 10050000 		.4byte	.LASF84
 1219 050c 0B       		.byte	0xb
 1220 050d 3C       		.byte	0x3c
 1221 050e CF000000 		.4byte	0xcf
 1222 0512 00       		.byte	0
 1223 0513 00       		.byte	0
 1224 0514 03       		.uleb128 0x3
 1225 0515 24030000 		.4byte	.LASF85
 1226 0519 0B       		.byte	0xb
 1227 051a 3D       		.byte	0x3d
 1228 051b FF040000 		.4byte	0x4ff
 1229 051f 12       		.uleb128 0x12
 1230 0520 04       		.byte	0x4
 1231 0521 08       		.byte	0x8
 1232 0522 FA       		.byte	0xfa
 1233 0523 7C050000 		.4byte	0x57c
 1234 0527 13       		.uleb128 0x13
 1235 0528 1C000000 		.4byte	.LASF86
 1236 052c 08       		.byte	0x8
ARM GAS  /tmp/ccKXXJYw.s 			page 46


 1237 052d 0101     		.2byte	0x101
 1238 052f 06010000 		.4byte	0x106
 1239 0533 13       		.uleb128 0x13
 1240 0534 68000000 		.4byte	.LASF87
 1241 0538 08       		.byte	0x8
 1242 0539 0801     		.2byte	0x108
 1243 053b 06010000 		.4byte	0x106
 1244 053f 13       		.uleb128 0x13
 1245 0540 81050000 		.4byte	.LASF88
 1246 0544 08       		.byte	0x8
 1247 0545 0F01     		.2byte	0x10f
 1248 0547 12030000 		.4byte	0x312
 1249 054b 13       		.uleb128 0x13
 1250 054c F8000000 		.4byte	.LASF89
 1251 0550 08       		.byte	0x8
 1252 0551 1601     		.2byte	0x116
 1253 0553 7C050000 		.4byte	0x57c
 1254 0557 13       		.uleb128 0x13
 1255 0558 7F010000 		.4byte	.LASF90
 1256 055c 08       		.byte	0x8
 1257 055d 1E01     		.2byte	0x11e
 1258 055f A7050000 		.4byte	0x5a7
 1259 0563 13       		.uleb128 0x13
 1260 0564 8E040000 		.4byte	.LASF91
 1261 0568 08       		.byte	0x8
 1262 0569 2701     		.2byte	0x127
 1263 056b DE050000 		.4byte	0x5de
 1264 056f 13       		.uleb128 0x13
 1265 0570 30040000 		.4byte	.LASF92
 1266 0574 08       		.byte	0x8
 1267 0575 2F01     		.2byte	0x12f
 1268 0577 11010000 		.4byte	0x111
 1269 057b 00       		.byte	0
 1270 057c 0A       		.uleb128 0xa
 1271 057d 04       		.byte	0x4
 1272 057e 2A020000 		.4byte	0x22a
 1273 0582 06       		.uleb128 0x6
 1274 0583 6D040000 		.4byte	.LASF93
 1275 0587 0C       		.byte	0xc
 1276 0588 0C       		.byte	0xc
 1277 0589 34       		.byte	0x34
 1278 058a A7050000 		.4byte	0x5a7
 1279 058e 07       		.uleb128 0x7
 1280 058f 2C010000 		.4byte	.LASF94
 1281 0593 0C       		.byte	0xc
 1282 0594 35       		.byte	0x35
 1283 0595 5F020000 		.4byte	0x25f
 1284 0599 00       		.byte	0
 1285 059a 07       		.uleb128 0x7
 1286 059b A8010000 		.4byte	.LASF95
 1287 059f 0C       		.byte	0xc
 1288 05a0 37       		.byte	0x37
 1289 05a1 1C010000 		.4byte	0x11c
 1290 05a5 08       		.byte	0x8
 1291 05a6 00       		.byte	0
 1292 05a7 0A       		.uleb128 0xa
 1293 05a8 04       		.byte	0x4
ARM GAS  /tmp/ccKXXJYw.s 			page 47


 1294 05a9 82050000 		.4byte	0x582
 1295 05ad 06       		.uleb128 0x6
 1296 05ae 48050000 		.4byte	.LASF96
 1297 05b2 10       		.byte	0x10
 1298 05b3 0D       		.byte	0xd
 1299 05b4 39       		.byte	0x39
 1300 05b5 DE050000 		.4byte	0x5de
 1301 05b9 07       		.uleb128 0x7
 1302 05ba D9000000 		.4byte	.LASF97
 1303 05be 0D       		.byte	0xd
 1304 05bf 3A       		.byte	0x3a
 1305 05c0 5F020000 		.4byte	0x25f
 1306 05c4 00       		.byte	0
 1307 05c5 07       		.uleb128 0x7
 1308 05c6 A4050000 		.4byte	.LASF98
 1309 05ca 0D       		.byte	0xd
 1310 05cb 3C       		.byte	0x3c
 1311 05cc 35020000 		.4byte	0x235
 1312 05d0 08       		.byte	0x8
 1313 05d1 07       		.uleb128 0x7
 1314 05d2 D6040000 		.4byte	.LASF99
 1315 05d6 0D       		.byte	0xd
 1316 05d7 3E       		.byte	0x3e
 1317 05d8 27060000 		.4byte	0x627
 1318 05dc 0C       		.byte	0xc
 1319 05dd 00       		.byte	0
 1320 05de 0A       		.uleb128 0xa
 1321 05df 04       		.byte	0x4
 1322 05e0 AD050000 		.4byte	0x5ad
 1323 05e4 0A       		.uleb128 0xa
 1324 05e5 04       		.byte	0x4
 1325 05e6 EA050000 		.4byte	0x5ea
 1326 05ea 14       		.uleb128 0x14
 1327 05eb EF050000 		.4byte	0x5ef
 1328 05ef 04       		.uleb128 0x4
 1329 05f0 01       		.byte	0x1
 1330 05f1 08       		.byte	0x8
 1331 05f2 C8040000 		.4byte	.LASF100
 1332 05f6 0A       		.uleb128 0xa
 1333 05f7 04       		.byte	0x4
 1334 05f8 14030000 		.4byte	0x314
 1335 05fc 05       		.uleb128 0x5
 1336 05fd E4050000 		.4byte	0x5e4
 1337 0601 15       		.uleb128 0x15
 1338 0602 5A040000 		.4byte	0x45a
 1339 0606 11060000 		.4byte	0x611
 1340 060a 16       		.uleb128 0x16
 1341 060b 48040000 		.4byte	0x448
 1342 060f 1A       		.byte	0x1a
 1343 0610 00       		.byte	0
 1344 0611 03       		.uleb128 0x3
 1345 0612 00000000 		.4byte	.LASF101
 1346 0616 02       		.byte	0x2
 1347 0617 34       		.byte	0x34
 1348 0618 01030000 		.4byte	0x301
 1349 061c 03       		.uleb128 0x3
 1350 061d 4D010000 		.4byte	.LASF102
ARM GAS  /tmp/ccKXXJYw.s 			page 48


 1351 0621 0D       		.byte	0xd
 1352 0622 34       		.byte	0x34
 1353 0623 AD050000 		.4byte	0x5ad
 1354 0627 0A       		.uleb128 0xa
 1355 0628 04       		.byte	0x4
 1356 0629 1C060000 		.4byte	0x61c
 1357 062d 06       		.uleb128 0x6
 1358 062e 64040000 		.4byte	.LASF103
 1359 0632 10       		.byte	0x10
 1360 0633 0E       		.byte	0xe
 1361 0634 3B       		.byte	0x3b
 1362 0635 6A060000 		.4byte	0x66a
 1363 0639 07       		.uleb128 0x7
 1364 063a A3010000 		.4byte	.LASF104
 1365 063e 0E       		.byte	0xe
 1366 063f 3C       		.byte	0x3c
 1367 0640 E4050000 		.4byte	0x5e4
 1368 0644 00       		.byte	0
 1369 0645 07       		.uleb128 0x7
 1370 0646 61030000 		.4byte	.LASF105
 1371 064a 0E       		.byte	0xe
 1372 064b 3D       		.byte	0x3d
 1373 064c 6B060000 		.4byte	0x66b
 1374 0650 04       		.byte	0x4
 1375 0651 07       		.uleb128 0x7
 1376 0652 91010000 		.4byte	.LASF106
 1377 0656 0E       		.byte	0xe
 1378 0657 3E       		.byte	0x3e
 1379 0658 6B060000 		.4byte	0x66b
 1380 065c 08       		.byte	0x8
 1381 065d 07       		.uleb128 0x7
 1382 065e B9030000 		.4byte	.LASF107
 1383 0662 0E       		.byte	0xe
 1384 0663 3F       		.byte	0x3f
 1385 0664 6B060000 		.4byte	0x66b
 1386 0668 0C       		.byte	0xc
 1387 0669 00       		.byte	0
 1388 066a 17       		.uleb128 0x17
 1389 066b 0A       		.uleb128 0xa
 1390 066c 04       		.byte	0x4
 1391 066d 6A060000 		.4byte	0x66a
 1392 0671 18       		.uleb128 0x18
 1393 0672 5E050000 		.4byte	.LASF108
 1394 0676 02       		.byte	0x2
 1395 0677 AE       		.byte	0xae
 1396 0678 35020000 		.4byte	0x235
 1397 067c 03       		.byte	0x3
 1398 067d 19       		.uleb128 0x19
 1399 067e 9A010000 		.4byte	.LASF124
 1400 0682 10       		.byte	0x10
 1401 0683 60       		.byte	0x60
 1402 0684 06010000 		.4byte	0x106
 1403 0688 03       		.byte	0x3
 1404 0689 98060000 		.4byte	0x698
 1405 068d 1A       		.uleb128 0x1a
 1406 068e 747000   		.ascii	"tp\000"
 1407 0691 10       		.byte	0x10
ARM GAS  /tmp/ccKXXJYw.s 			page 49


 1408 0692 60       		.byte	0x60
 1409 0693 35020000 		.4byte	0x235
 1410 0697 00       		.byte	0
 1411 0698 18       		.uleb128 0x18
 1412 0699 4F030000 		.4byte	.LASF109
 1413 069d 02       		.byte	0x2
 1414 069e BB       		.byte	0xbb
 1415 069f FB000000 		.4byte	0xfb
 1416 06a3 03       		.byte	0x3
 1417 06a4 1B       		.uleb128 0x1b
 1418 06a5 74050000 		.4byte	.LASF110
 1419 06a9 01       		.byte	0x1
 1420 06aa 42       		.byte	0x42
 1421 06ab 00000000 		.4byte	.LFB230
 1422 06af 78000000 		.4byte	.LFE230-.LFB230
 1423 06b3 01       		.uleb128 0x1
 1424 06b4 9C       		.byte	0x9c
 1425 06b5 BF070000 		.4byte	0x7bf
 1426 06b9 1C       		.uleb128 0x1c
 1427 06ba 747000   		.ascii	"tp\000"
 1428 06bd 01       		.byte	0x1
 1429 06be 43       		.byte	0x43
 1430 06bf 35020000 		.4byte	0x235
 1431 06c3 00000000 		.4byte	.LLST0
 1432 06c7 1D       		.uleb128 0x1d
 1433 06c8 6D736700 		.ascii	"msg\000"
 1434 06cc 01       		.byte	0x1
 1435 06cd 44       		.byte	0x44
 1436 06ce 06010000 		.4byte	0x106
 1437 06d2 1E       		.uleb128 0x1e
 1438 06d3 98060000 		.4byte	0x698
 1439 06d7 02000000 		.4byte	.LBB16
 1440 06db 00000000 		.4byte	.Ldebug_ranges0+0
 1441 06df 01       		.byte	0x1
 1442 06e0 49       		.byte	0x49
 1443 06e1 F5060000 		.4byte	0x6f5
 1444 06e5 1F       		.uleb128 0x1f
 1445 06e6 71060000 		.4byte	0x671
 1446 06ea 02000000 		.4byte	.LBB18
 1447 06ee 18000000 		.4byte	.Ldebug_ranges0+0x18
 1448 06f2 02       		.byte	0x2
 1449 06f3 BD       		.byte	0xbd
 1450 06f4 00       		.byte	0
 1451 06f5 20       		.uleb128 0x20
 1452 06f6 1C000000 		.4byte	.LVL0
 1453 06fa BB080000 		.4byte	0x8bb
 1454 06fe 13070000 		.4byte	0x713
 1455 0702 21       		.uleb128 0x21
 1456 0703 01       		.uleb128 0x1
 1457 0704 53       		.byte	0x53
 1458 0705 05       		.uleb128 0x5
 1459 0706 03       		.byte	0x3
 1460 0707 00000000 		.4byte	thread
 1461 070b 21       		.uleb128 0x21
 1462 070c 01       		.uleb128 0x1
 1463 070d 51       		.byte	0x51
 1464 070e 03       		.uleb128 0x3
ARM GAS  /tmp/ccKXXJYw.s 			page 50


 1465 070f 0A       		.byte	0xa
 1466 0710 4801     		.2byte	0x148
 1467 0712 00       		.byte	0
 1468 0713 22       		.uleb128 0x22
 1469 0714 24000000 		.4byte	.LVL1
 1470 0718 E4080000 		.4byte	0x8e4
 1471 071c 20       		.uleb128 0x20
 1472 071d 2C000000 		.4byte	.LVL3
 1473 0721 EF080000 		.4byte	0x8ef
 1474 0725 30070000 		.4byte	0x730
 1475 0729 21       		.uleb128 0x21
 1476 072a 01       		.uleb128 0x1
 1477 072b 51       		.byte	0x51
 1478 072c 02       		.uleb128 0x2
 1479 072d 74       		.byte	0x74
 1480 072e 00       		.sleb128 0
 1481 072f 00       		.byte	0
 1482 0730 20       		.uleb128 0x20
 1483 0731 32000000 		.4byte	.LVL4
 1484 0735 05090000 		.4byte	0x905
 1485 0739 44070000 		.4byte	0x744
 1486 073d 21       		.uleb128 0x21
 1487 073e 01       		.uleb128 0x1
 1488 073f 50       		.byte	0x50
 1489 0740 02       		.uleb128 0x2
 1490 0741 74       		.byte	0x74
 1491 0742 00       		.sleb128 0
 1492 0743 00       		.byte	0
 1493 0744 22       		.uleb128 0x22
 1494 0745 36000000 		.4byte	.LVL5
 1495 0749 E4080000 		.4byte	0x8e4
 1496 074d 20       		.uleb128 0x20
 1497 074e 3E000000 		.4byte	.LVL7
 1498 0752 EF080000 		.4byte	0x8ef
 1499 0756 61070000 		.4byte	0x761
 1500 075a 21       		.uleb128 0x21
 1501 075b 01       		.uleb128 0x1
 1502 075c 51       		.byte	0x51
 1503 075d 02       		.uleb128 0x2
 1504 075e 74       		.byte	0x74
 1505 075f 00       		.sleb128 0
 1506 0760 00       		.byte	0
 1507 0761 20       		.uleb128 0x20
 1508 0762 44000000 		.4byte	.LVL8
 1509 0766 05090000 		.4byte	0x905
 1510 076a 75070000 		.4byte	0x775
 1511 076e 21       		.uleb128 0x21
 1512 076f 01       		.uleb128 0x1
 1513 0770 50       		.byte	0x50
 1514 0771 02       		.uleb128 0x2
 1515 0772 74       		.byte	0x74
 1516 0773 00       		.sleb128 0
 1517 0774 00       		.byte	0
 1518 0775 22       		.uleb128 0x22
 1519 0776 48000000 		.4byte	.LVL9
 1520 077a E4080000 		.4byte	0x8e4
 1521 077e 20       		.uleb128 0x20
ARM GAS  /tmp/ccKXXJYw.s 			page 51


 1522 077f 50000000 		.4byte	.LVL11
 1523 0783 EF080000 		.4byte	0x8ef
 1524 0787 92070000 		.4byte	0x792
 1525 078b 21       		.uleb128 0x21
 1526 078c 01       		.uleb128 0x1
 1527 078d 51       		.byte	0x51
 1528 078e 02       		.uleb128 0x2
 1529 078f 74       		.byte	0x74
 1530 0790 00       		.sleb128 0
 1531 0791 00       		.byte	0
 1532 0792 20       		.uleb128 0x20
 1533 0793 56000000 		.4byte	.LVL12
 1534 0797 05090000 		.4byte	0x905
 1535 079b A6070000 		.4byte	0x7a6
 1536 079f 21       		.uleb128 0x21
 1537 07a0 01       		.uleb128 0x1
 1538 07a1 50       		.byte	0x50
 1539 07a2 02       		.uleb128 0x2
 1540 07a3 74       		.byte	0x74
 1541 07a4 00       		.sleb128 0
 1542 07a5 00       		.byte	0
 1543 07a6 23       		.uleb128 0x23
 1544 07a7 64000000 		.4byte	.LVL13
 1545 07ab 16090000 		.4byte	0x916
 1546 07af 21       		.uleb128 0x21
 1547 07b0 01       		.uleb128 0x1
 1548 07b1 51       		.byte	0x51
 1549 07b2 05       		.uleb128 0x5
 1550 07b3 03       		.byte	0x3
 1551 07b4 00000000 		.4byte	.LC0
 1552 07b8 21       		.uleb128 0x21
 1553 07b9 01       		.uleb128 0x1
 1554 07ba 50       		.byte	0x50
 1555 07bb 01       		.uleb128 0x1
 1556 07bc 31       		.byte	0x31
 1557 07bd 00       		.byte	0
 1558 07be 00       		.byte	0
 1559 07bf 1B       		.uleb128 0x1b
 1560 07c0 C9030000 		.4byte	.LASF111
 1561 07c4 01       		.byte	0x1
 1562 07c5 3B       		.byte	0x3b
 1563 07c6 00000000 		.4byte	.LFB229
 1564 07ca 1E000000 		.4byte	.LFE229-.LFB229
 1565 07ce 01       		.uleb128 0x1
 1566 07cf 9C       		.byte	0x9c
 1567 07d0 2D080000 		.4byte	0x82d
 1568 07d4 24       		.uleb128 0x24
 1569 07d5 7000     		.ascii	"p\000"
 1570 07d7 01       		.byte	0x1
 1571 07d8 3B       		.byte	0x3b
 1572 07d9 12030000 		.4byte	0x312
 1573 07dd 29000000 		.4byte	.LLST1
 1574 07e1 20       		.uleb128 0x20
 1575 07e2 0A000000 		.4byte	.LVL15
 1576 07e6 3D090000 		.4byte	0x93d
 1577 07ea FB070000 		.4byte	0x7fb
 1578 07ee 21       		.uleb128 0x21
ARM GAS  /tmp/ccKXXJYw.s 			page 52


 1579 07ef 01       		.uleb128 0x1
 1580 07f0 51       		.byte	0x51
 1581 07f1 02       		.uleb128 0x2
 1582 07f2 08       		.byte	0x8
 1583 07f3 41       		.byte	0x41
 1584 07f4 21       		.uleb128 0x21
 1585 07f5 01       		.uleb128 0x1
 1586 07f6 50       		.byte	0x50
 1587 07f7 02       		.uleb128 0x2
 1588 07f8 74       		.byte	0x74
 1589 07f9 00       		.sleb128 0
 1590 07fa 00       		.byte	0
 1591 07fb 20       		.uleb128 0x20
 1592 07fc 12000000 		.4byte	.LVL16
 1593 0800 3D090000 		.4byte	0x93d
 1594 0804 15080000 		.4byte	0x815
 1595 0808 21       		.uleb128 0x21
 1596 0809 01       		.uleb128 0x1
 1597 080a 51       		.byte	0x51
 1598 080b 02       		.uleb128 0x2
 1599 080c 08       		.byte	0x8
 1600 080d 42       		.byte	0x42
 1601 080e 21       		.uleb128 0x21
 1602 080f 01       		.uleb128 0x1
 1603 0810 50       		.byte	0x50
 1604 0811 02       		.uleb128 0x2
 1605 0812 74       		.byte	0x74
 1606 0813 00       		.sleb128 0
 1607 0814 00       		.byte	0
 1608 0815 23       		.uleb128 0x23
 1609 0816 1E000000 		.4byte	.LVL18
 1610 081a 3D090000 		.4byte	0x93d
 1611 081e 21       		.uleb128 0x21
 1612 081f 01       		.uleb128 0x1
 1613 0820 51       		.byte	0x51
 1614 0821 02       		.uleb128 0x2
 1615 0822 08       		.byte	0x8
 1616 0823 43       		.byte	0x43
 1617 0824 21       		.uleb128 0x21
 1618 0825 01       		.uleb128 0x1
 1619 0826 50       		.byte	0x50
 1620 0827 03       		.uleb128 0x3
 1621 0828 F3       		.byte	0xf3
 1622 0829 01       		.uleb128 0x1
 1623 082a 50       		.byte	0x50
 1624 082b 00       		.byte	0
 1625 082c 00       		.byte	0
 1626 082d 25       		.uleb128 0x25
 1627 082e 92000000 		.4byte	.LASF112
 1628 0832 0F       		.byte	0xf
 1629 0833 A706     		.2byte	0x6a7
 1630 0835 CA000000 		.4byte	0xca
 1631 0839 26       		.uleb128 0x26
 1632 083a 636800   		.ascii	"ch\000"
 1633 083d 08       		.byte	0x8
 1634 083e 0902     		.2byte	0x209
 1635 0840 E1030000 		.4byte	0x3e1
ARM GAS  /tmp/ccKXXJYw.s 			page 53


 1636 0844 15       		.uleb128 0x15
 1637 0845 35020000 		.4byte	0x235
 1638 0849 54080000 		.4byte	0x854
 1639 084d 16       		.uleb128 0x16
 1640 084e 48040000 		.4byte	0x448
 1641 0852 04       		.byte	0x4
 1642 0853 00       		.byte	0
 1643 0854 27       		.uleb128 0x27
 1644 0855 18040000 		.4byte	.LASF113
 1645 0859 0E       		.byte	0xe
 1646 085a A7       		.byte	0xa7
 1647 085b 44080000 		.4byte	0x844
 1648 085f 15       		.uleb128 0x15
 1649 0860 12030000 		.4byte	0x312
 1650 0864 6A080000 		.4byte	0x86a
 1651 0868 28       		.uleb128 0x28
 1652 0869 00       		.byte	0
 1653 086a 29       		.uleb128 0x29
 1654 086b 776100   		.ascii	"wa\000"
 1655 086e 0E       		.byte	0xe
 1656 086f A9       		.byte	0xa9
 1657 0870 74080000 		.4byte	0x874
 1658 0874 14       		.uleb128 0x14
 1659 0875 5F080000 		.4byte	0x85f
 1660 0879 2A       		.uleb128 0x2a
 1661 087a 27040000 		.4byte	.LASF114
 1662 087e 01       		.byte	0x1
 1663 087f 5A       		.byte	0x5a
 1664 0880 8A080000 		.4byte	0x88a
 1665 0884 05       		.uleb128 0x5
 1666 0885 03       		.byte	0x3
 1667 0886 00000000 		.4byte	testmsg1
 1668 088a 14       		.uleb128 0x14
 1669 088b 2D060000 		.4byte	0x62d
 1670 088f 15       		.uleb128 0x15
 1671 0890 9F080000 		.4byte	0x89f
 1672 0894 9F080000 		.4byte	0x89f
 1673 0898 16       		.uleb128 0x16
 1674 0899 48040000 		.4byte	0x448
 1675 089d 01       		.byte	0x1
 1676 089e 00       		.byte	0
 1677 089f 0A       		.uleb128 0xa
 1678 08a0 04       		.byte	0x4
 1679 08a1 8A080000 		.4byte	0x88a
 1680 08a5 2A       		.uleb128 0x2a
 1681 08a6 E6020000 		.4byte	.LASF115
 1682 08aa 01       		.byte	0x1
 1683 08ab 66       		.byte	0x66
 1684 08ac B6080000 		.4byte	0x8b6
 1685 08b0 05       		.uleb128 0x5
 1686 08b1 03       		.byte	0x3
 1687 08b2 00000000 		.4byte	patternmsg
 1688 08b6 14       		.uleb128 0x14
 1689 08b7 8F080000 		.4byte	0x88f
 1690 08bb 2B       		.uleb128 0x2b
 1691 08bc 14020000 		.4byte	.LASF118
 1692 08c0 02       		.byte	0x2
ARM GAS  /tmp/ccKXXJYw.s 			page 54


 1693 08c1 89       		.byte	0x89
 1694 08c2 35020000 		.4byte	0x235
 1695 08c6 E4080000 		.4byte	0x8e4
 1696 08ca 0D       		.uleb128 0xd
 1697 08cb 12030000 		.4byte	0x312
 1698 08cf 0D       		.uleb128 0xd
 1699 08d0 28000000 		.4byte	0x28
 1700 08d4 0D       		.uleb128 0xd
 1701 08d5 FB000000 		.4byte	0xfb
 1702 08d9 0D       		.uleb128 0xd
 1703 08da 11060000 		.4byte	0x611
 1704 08de 0D       		.uleb128 0xd
 1705 08df 12030000 		.4byte	0x312
 1706 08e3 00       		.byte	0
 1707 08e4 2C       		.uleb128 0x2c
 1708 08e5 2E050000 		.4byte	.LASF125
 1709 08e9 10       		.byte	0x10
 1710 08ea 3D       		.byte	0x3d
 1711 08eb 35020000 		.4byte	0x235
 1712 08ef 2D       		.uleb128 0x2d
 1713 08f0 57040000 		.4byte	.LASF116
 1714 08f4 10       		.byte	0x10
 1715 08f5 3E       		.byte	0x3e
 1716 08f6 05090000 		.4byte	0x905
 1717 08fa 0D       		.uleb128 0xd
 1718 08fb 35020000 		.4byte	0x235
 1719 08ff 0D       		.uleb128 0xd
 1720 0900 06010000 		.4byte	0x106
 1721 0904 00       		.byte	0
 1722 0905 2D       		.uleb128 0x2d
 1723 0906 E1000000 		.4byte	.LASF117
 1724 090a 0E       		.byte	0xe
 1725 090b 58       		.byte	0x58
 1726 090c 16090000 		.4byte	0x916
 1727 0910 0D       		.uleb128 0xd
 1728 0911 EF050000 		.4byte	0x5ef
 1729 0915 00       		.byte	0
 1730 0916 2B       		.uleb128 0x2b
 1731 0917 67030000 		.4byte	.LASF119
 1732 091b 0E       		.byte	0xe
 1733 091c 5B       		.byte	0x5b
 1734 091d 30090000 		.4byte	0x930
 1735 0921 30090000 		.4byte	0x930
 1736 0925 0D       		.uleb128 0xd
 1737 0926 33000000 		.4byte	0x33
 1738 092a 0D       		.uleb128 0xd
 1739 092b 37090000 		.4byte	0x937
 1740 092f 00       		.byte	0
 1741 0930 04       		.uleb128 0x4
 1742 0931 01       		.byte	0x1
 1743 0932 02       		.byte	0x2
 1744 0933 E0030000 		.4byte	.LASF120
 1745 0937 0A       		.uleb128 0xa
 1746 0938 04       		.byte	0x4
 1747 0939 EF050000 		.4byte	0x5ef
 1748 093d 2E       		.uleb128 0x2e
 1749 093e 11010000 		.4byte	.LASF121
ARM GAS  /tmp/ccKXXJYw.s 			page 55


 1750 0942 10       		.byte	0x10
 1751 0943 3C       		.byte	0x3c
 1752 0944 06010000 		.4byte	0x106
 1753 0948 0D       		.uleb128 0xd
 1754 0949 35020000 		.4byte	0x235
 1755 094d 0D       		.uleb128 0xd
 1756 094e 06010000 		.4byte	0x106
 1757 0952 00       		.byte	0
 1758 0953 00       		.byte	0
 1759              		.section	.debug_abbrev,"",%progbits
 1760              	.Ldebug_abbrev0:
 1761 0000 01       		.uleb128 0x1
 1762 0001 11       		.uleb128 0x11
 1763 0002 01       		.byte	0x1
 1764 0003 25       		.uleb128 0x25
 1765 0004 0E       		.uleb128 0xe
 1766 0005 13       		.uleb128 0x13
 1767 0006 0B       		.uleb128 0xb
 1768 0007 03       		.uleb128 0x3
 1769 0008 0E       		.uleb128 0xe
 1770 0009 55       		.uleb128 0x55
 1771 000a 17       		.uleb128 0x17
 1772 000b 11       		.uleb128 0x11
 1773 000c 01       		.uleb128 0x1
 1774 000d 10       		.uleb128 0x10
 1775 000e 17       		.uleb128 0x17
 1776 000f 00       		.byte	0
 1777 0010 00       		.byte	0
 1778 0011 02       		.uleb128 0x2
 1779 0012 24       		.uleb128 0x24
 1780 0013 00       		.byte	0
 1781 0014 0B       		.uleb128 0xb
 1782 0015 0B       		.uleb128 0xb
 1783 0016 3E       		.uleb128 0x3e
 1784 0017 0B       		.uleb128 0xb
 1785 0018 03       		.uleb128 0x3
 1786 0019 08       		.uleb128 0x8
 1787 001a 00       		.byte	0
 1788 001b 00       		.byte	0
 1789 001c 03       		.uleb128 0x3
 1790 001d 16       		.uleb128 0x16
 1791 001e 00       		.byte	0
 1792 001f 03       		.uleb128 0x3
 1793 0020 0E       		.uleb128 0xe
 1794 0021 3A       		.uleb128 0x3a
 1795 0022 0B       		.uleb128 0xb
 1796 0023 3B       		.uleb128 0x3b
 1797 0024 0B       		.uleb128 0xb
 1798 0025 49       		.uleb128 0x49
 1799 0026 13       		.uleb128 0x13
 1800 0027 00       		.byte	0
 1801 0028 00       		.byte	0
 1802 0029 04       		.uleb128 0x4
 1803 002a 24       		.uleb128 0x24
 1804 002b 00       		.byte	0
 1805 002c 0B       		.uleb128 0xb
 1806 002d 0B       		.uleb128 0xb
ARM GAS  /tmp/ccKXXJYw.s 			page 56


 1807 002e 3E       		.uleb128 0x3e
 1808 002f 0B       		.uleb128 0xb
 1809 0030 03       		.uleb128 0x3
 1810 0031 0E       		.uleb128 0xe
 1811 0032 00       		.byte	0
 1812 0033 00       		.byte	0
 1813 0034 05       		.uleb128 0x5
 1814 0035 35       		.uleb128 0x35
 1815 0036 00       		.byte	0
 1816 0037 49       		.uleb128 0x49
 1817 0038 13       		.uleb128 0x13
 1818 0039 00       		.byte	0
 1819 003a 00       		.byte	0
 1820 003b 06       		.uleb128 0x6
 1821 003c 13       		.uleb128 0x13
 1822 003d 01       		.byte	0x1
 1823 003e 03       		.uleb128 0x3
 1824 003f 0E       		.uleb128 0xe
 1825 0040 0B       		.uleb128 0xb
 1826 0041 0B       		.uleb128 0xb
 1827 0042 3A       		.uleb128 0x3a
 1828 0043 0B       		.uleb128 0xb
 1829 0044 3B       		.uleb128 0x3b
 1830 0045 0B       		.uleb128 0xb
 1831 0046 01       		.uleb128 0x1
 1832 0047 13       		.uleb128 0x13
 1833 0048 00       		.byte	0
 1834 0049 00       		.byte	0
 1835 004a 07       		.uleb128 0x7
 1836 004b 0D       		.uleb128 0xd
 1837 004c 00       		.byte	0
 1838 004d 03       		.uleb128 0x3
 1839 004e 0E       		.uleb128 0xe
 1840 004f 3A       		.uleb128 0x3a
 1841 0050 0B       		.uleb128 0xb
 1842 0051 3B       		.uleb128 0x3b
 1843 0052 0B       		.uleb128 0xb
 1844 0053 49       		.uleb128 0x49
 1845 0054 13       		.uleb128 0x13
 1846 0055 38       		.uleb128 0x38
 1847 0056 0B       		.uleb128 0xb
 1848 0057 00       		.byte	0
 1849 0058 00       		.byte	0
 1850 0059 08       		.uleb128 0x8
 1851 005a 0D       		.uleb128 0xd
 1852 005b 00       		.byte	0
 1853 005c 03       		.uleb128 0x3
 1854 005d 08       		.uleb128 0x8
 1855 005e 3A       		.uleb128 0x3a
 1856 005f 0B       		.uleb128 0xb
 1857 0060 3B       		.uleb128 0x3b
 1858 0061 05       		.uleb128 0x5
 1859 0062 49       		.uleb128 0x49
 1860 0063 13       		.uleb128 0x13
 1861 0064 38       		.uleb128 0x38
 1862 0065 0B       		.uleb128 0xb
 1863 0066 00       		.byte	0
ARM GAS  /tmp/ccKXXJYw.s 			page 57


 1864 0067 00       		.byte	0
 1865 0068 09       		.uleb128 0x9
 1866 0069 0D       		.uleb128 0xd
 1867 006a 00       		.byte	0
 1868 006b 03       		.uleb128 0x3
 1869 006c 0E       		.uleb128 0xe
 1870 006d 3A       		.uleb128 0x3a
 1871 006e 0B       		.uleb128 0xb
 1872 006f 3B       		.uleb128 0x3b
 1873 0070 05       		.uleb128 0x5
 1874 0071 49       		.uleb128 0x49
 1875 0072 13       		.uleb128 0x13
 1876 0073 38       		.uleb128 0x38
 1877 0074 0B       		.uleb128 0xb
 1878 0075 00       		.byte	0
 1879 0076 00       		.byte	0
 1880 0077 0A       		.uleb128 0xa
 1881 0078 0F       		.uleb128 0xf
 1882 0079 00       		.byte	0
 1883 007a 0B       		.uleb128 0xb
 1884 007b 0B       		.uleb128 0xb
 1885 007c 49       		.uleb128 0x49
 1886 007d 13       		.uleb128 0x13
 1887 007e 00       		.byte	0
 1888 007f 00       		.byte	0
 1889 0080 0B       		.uleb128 0xb
 1890 0081 13       		.uleb128 0x13
 1891 0082 01       		.byte	0x1
 1892 0083 03       		.uleb128 0x3
 1893 0084 0E       		.uleb128 0xe
 1894 0085 0B       		.uleb128 0xb
 1895 0086 0B       		.uleb128 0xb
 1896 0087 3A       		.uleb128 0x3a
 1897 0088 0B       		.uleb128 0xb
 1898 0089 3B       		.uleb128 0x3b
 1899 008a 05       		.uleb128 0x5
 1900 008b 01       		.uleb128 0x1
 1901 008c 13       		.uleb128 0x13
 1902 008d 00       		.byte	0
 1903 008e 00       		.byte	0
 1904 008f 0C       		.uleb128 0xc
 1905 0090 15       		.uleb128 0x15
 1906 0091 01       		.byte	0x1
 1907 0092 27       		.uleb128 0x27
 1908 0093 19       		.uleb128 0x19
 1909 0094 01       		.uleb128 0x1
 1910 0095 13       		.uleb128 0x13
 1911 0096 00       		.byte	0
 1912 0097 00       		.byte	0
 1913 0098 0D       		.uleb128 0xd
 1914 0099 05       		.uleb128 0x5
 1915 009a 00       		.byte	0
 1916 009b 49       		.uleb128 0x49
 1917 009c 13       		.uleb128 0x13
 1918 009d 00       		.byte	0
 1919 009e 00       		.byte	0
 1920 009f 0E       		.uleb128 0xe
ARM GAS  /tmp/ccKXXJYw.s 			page 58


 1921 00a0 0F       		.uleb128 0xf
 1922 00a1 00       		.byte	0
 1923 00a2 0B       		.uleb128 0xb
 1924 00a3 0B       		.uleb128 0xb
 1925 00a4 00       		.byte	0
 1926 00a5 00       		.byte	0
 1927 00a6 0F       		.uleb128 0xf
 1928 00a7 13       		.uleb128 0x13
 1929 00a8 01       		.byte	0x1
 1930 00a9 03       		.uleb128 0x3
 1931 00aa 0E       		.uleb128 0xe
 1932 00ab 0B       		.uleb128 0xb
 1933 00ac 05       		.uleb128 0x5
 1934 00ad 3A       		.uleb128 0x3a
 1935 00ae 0B       		.uleb128 0xb
 1936 00af 3B       		.uleb128 0x3b
 1937 00b0 05       		.uleb128 0x5
 1938 00b1 01       		.uleb128 0x1
 1939 00b2 13       		.uleb128 0x13
 1940 00b3 00       		.byte	0
 1941 00b4 00       		.byte	0
 1942 00b5 10       		.uleb128 0x10
 1943 00b6 0D       		.uleb128 0xd
 1944 00b7 00       		.byte	0
 1945 00b8 03       		.uleb128 0x3
 1946 00b9 08       		.uleb128 0x8
 1947 00ba 3A       		.uleb128 0x3a
 1948 00bb 0B       		.uleb128 0xb
 1949 00bc 3B       		.uleb128 0x3b
 1950 00bd 0B       		.uleb128 0xb
 1951 00be 49       		.uleb128 0x49
 1952 00bf 13       		.uleb128 0x13
 1953 00c0 38       		.uleb128 0x38
 1954 00c1 0B       		.uleb128 0xb
 1955 00c2 00       		.byte	0
 1956 00c3 00       		.byte	0
 1957 00c4 11       		.uleb128 0x11
 1958 00c5 13       		.uleb128 0x13
 1959 00c6 01       		.byte	0x1
 1960 00c7 0B       		.uleb128 0xb
 1961 00c8 0B       		.uleb128 0xb
 1962 00c9 3A       		.uleb128 0x3a
 1963 00ca 0B       		.uleb128 0xb
 1964 00cb 3B       		.uleb128 0x3b
 1965 00cc 0B       		.uleb128 0xb
 1966 00cd 01       		.uleb128 0x1
 1967 00ce 13       		.uleb128 0x13
 1968 00cf 00       		.byte	0
 1969 00d0 00       		.byte	0
 1970 00d1 12       		.uleb128 0x12
 1971 00d2 17       		.uleb128 0x17
 1972 00d3 01       		.byte	0x1
 1973 00d4 0B       		.uleb128 0xb
 1974 00d5 0B       		.uleb128 0xb
 1975 00d6 3A       		.uleb128 0x3a
 1976 00d7 0B       		.uleb128 0xb
 1977 00d8 3B       		.uleb128 0x3b
ARM GAS  /tmp/ccKXXJYw.s 			page 59


 1978 00d9 0B       		.uleb128 0xb
 1979 00da 01       		.uleb128 0x1
 1980 00db 13       		.uleb128 0x13
 1981 00dc 00       		.byte	0
 1982 00dd 00       		.byte	0
 1983 00de 13       		.uleb128 0x13
 1984 00df 0D       		.uleb128 0xd
 1985 00e0 00       		.byte	0
 1986 00e1 03       		.uleb128 0x3
 1987 00e2 0E       		.uleb128 0xe
 1988 00e3 3A       		.uleb128 0x3a
 1989 00e4 0B       		.uleb128 0xb
 1990 00e5 3B       		.uleb128 0x3b
 1991 00e6 05       		.uleb128 0x5
 1992 00e7 49       		.uleb128 0x49
 1993 00e8 13       		.uleb128 0x13
 1994 00e9 00       		.byte	0
 1995 00ea 00       		.byte	0
 1996 00eb 14       		.uleb128 0x14
 1997 00ec 26       		.uleb128 0x26
 1998 00ed 00       		.byte	0
 1999 00ee 49       		.uleb128 0x49
 2000 00ef 13       		.uleb128 0x13
 2001 00f0 00       		.byte	0
 2002 00f1 00       		.byte	0
 2003 00f2 15       		.uleb128 0x15
 2004 00f3 01       		.uleb128 0x1
 2005 00f4 01       		.byte	0x1
 2006 00f5 49       		.uleb128 0x49
 2007 00f6 13       		.uleb128 0x13
 2008 00f7 01       		.uleb128 0x1
 2009 00f8 13       		.uleb128 0x13
 2010 00f9 00       		.byte	0
 2011 00fa 00       		.byte	0
 2012 00fb 16       		.uleb128 0x16
 2013 00fc 21       		.uleb128 0x21
 2014 00fd 00       		.byte	0
 2015 00fe 49       		.uleb128 0x49
 2016 00ff 13       		.uleb128 0x13
 2017 0100 2F       		.uleb128 0x2f
 2018 0101 0B       		.uleb128 0xb
 2019 0102 00       		.byte	0
 2020 0103 00       		.byte	0
 2021 0104 17       		.uleb128 0x17
 2022 0105 15       		.uleb128 0x15
 2023 0106 00       		.byte	0
 2024 0107 27       		.uleb128 0x27
 2025 0108 19       		.uleb128 0x19
 2026 0109 00       		.byte	0
 2027 010a 00       		.byte	0
 2028 010b 18       		.uleb128 0x18
 2029 010c 2E       		.uleb128 0x2e
 2030 010d 00       		.byte	0
 2031 010e 03       		.uleb128 0x3
 2032 010f 0E       		.uleb128 0xe
 2033 0110 3A       		.uleb128 0x3a
 2034 0111 0B       		.uleb128 0xb
ARM GAS  /tmp/ccKXXJYw.s 			page 60


 2035 0112 3B       		.uleb128 0x3b
 2036 0113 0B       		.uleb128 0xb
 2037 0114 27       		.uleb128 0x27
 2038 0115 19       		.uleb128 0x19
 2039 0116 49       		.uleb128 0x49
 2040 0117 13       		.uleb128 0x13
 2041 0118 20       		.uleb128 0x20
 2042 0119 0B       		.uleb128 0xb
 2043 011a 00       		.byte	0
 2044 011b 00       		.byte	0
 2045 011c 19       		.uleb128 0x19
 2046 011d 2E       		.uleb128 0x2e
 2047 011e 01       		.byte	0x1
 2048 011f 03       		.uleb128 0x3
 2049 0120 0E       		.uleb128 0xe
 2050 0121 3A       		.uleb128 0x3a
 2051 0122 0B       		.uleb128 0xb
 2052 0123 3B       		.uleb128 0x3b
 2053 0124 0B       		.uleb128 0xb
 2054 0125 27       		.uleb128 0x27
 2055 0126 19       		.uleb128 0x19
 2056 0127 49       		.uleb128 0x49
 2057 0128 13       		.uleb128 0x13
 2058 0129 20       		.uleb128 0x20
 2059 012a 0B       		.uleb128 0xb
 2060 012b 01       		.uleb128 0x1
 2061 012c 13       		.uleb128 0x13
 2062 012d 00       		.byte	0
 2063 012e 00       		.byte	0
 2064 012f 1A       		.uleb128 0x1a
 2065 0130 05       		.uleb128 0x5
 2066 0131 00       		.byte	0
 2067 0132 03       		.uleb128 0x3
 2068 0133 08       		.uleb128 0x8
 2069 0134 3A       		.uleb128 0x3a
 2070 0135 0B       		.uleb128 0xb
 2071 0136 3B       		.uleb128 0x3b
 2072 0137 0B       		.uleb128 0xb
 2073 0138 49       		.uleb128 0x49
 2074 0139 13       		.uleb128 0x13
 2075 013a 00       		.byte	0
 2076 013b 00       		.byte	0
 2077 013c 1B       		.uleb128 0x1b
 2078 013d 2E       		.uleb128 0x2e
 2079 013e 01       		.byte	0x1
 2080 013f 03       		.uleb128 0x3
 2081 0140 0E       		.uleb128 0xe
 2082 0141 3A       		.uleb128 0x3a
 2083 0142 0B       		.uleb128 0xb
 2084 0143 3B       		.uleb128 0x3b
 2085 0144 0B       		.uleb128 0xb
 2086 0145 27       		.uleb128 0x27
 2087 0146 19       		.uleb128 0x19
 2088 0147 11       		.uleb128 0x11
 2089 0148 01       		.uleb128 0x1
 2090 0149 12       		.uleb128 0x12
 2091 014a 06       		.uleb128 0x6
ARM GAS  /tmp/ccKXXJYw.s 			page 61


 2092 014b 40       		.uleb128 0x40
 2093 014c 18       		.uleb128 0x18
 2094 014d 9742     		.uleb128 0x2117
 2095 014f 19       		.uleb128 0x19
 2096 0150 01       		.uleb128 0x1
 2097 0151 13       		.uleb128 0x13
 2098 0152 00       		.byte	0
 2099 0153 00       		.byte	0
 2100 0154 1C       		.uleb128 0x1c
 2101 0155 34       		.uleb128 0x34
 2102 0156 00       		.byte	0
 2103 0157 03       		.uleb128 0x3
 2104 0158 08       		.uleb128 0x8
 2105 0159 3A       		.uleb128 0x3a
 2106 015a 0B       		.uleb128 0xb
 2107 015b 3B       		.uleb128 0x3b
 2108 015c 0B       		.uleb128 0xb
 2109 015d 49       		.uleb128 0x49
 2110 015e 13       		.uleb128 0x13
 2111 015f 02       		.uleb128 0x2
 2112 0160 17       		.uleb128 0x17
 2113 0161 00       		.byte	0
 2114 0162 00       		.byte	0
 2115 0163 1D       		.uleb128 0x1d
 2116 0164 34       		.uleb128 0x34
 2117 0165 00       		.byte	0
 2118 0166 03       		.uleb128 0x3
 2119 0167 08       		.uleb128 0x8
 2120 0168 3A       		.uleb128 0x3a
 2121 0169 0B       		.uleb128 0xb
 2122 016a 3B       		.uleb128 0x3b
 2123 016b 0B       		.uleb128 0xb
 2124 016c 49       		.uleb128 0x49
 2125 016d 13       		.uleb128 0x13
 2126 016e 00       		.byte	0
 2127 016f 00       		.byte	0
 2128 0170 1E       		.uleb128 0x1e
 2129 0171 1D       		.uleb128 0x1d
 2130 0172 01       		.byte	0x1
 2131 0173 31       		.uleb128 0x31
 2132 0174 13       		.uleb128 0x13
 2133 0175 52       		.uleb128 0x52
 2134 0176 01       		.uleb128 0x1
 2135 0177 55       		.uleb128 0x55
 2136 0178 17       		.uleb128 0x17
 2137 0179 58       		.uleb128 0x58
 2138 017a 0B       		.uleb128 0xb
 2139 017b 59       		.uleb128 0x59
 2140 017c 0B       		.uleb128 0xb
 2141 017d 01       		.uleb128 0x1
 2142 017e 13       		.uleb128 0x13
 2143 017f 00       		.byte	0
 2144 0180 00       		.byte	0
 2145 0181 1F       		.uleb128 0x1f
 2146 0182 1D       		.uleb128 0x1d
 2147 0183 00       		.byte	0
 2148 0184 31       		.uleb128 0x31
ARM GAS  /tmp/ccKXXJYw.s 			page 62


 2149 0185 13       		.uleb128 0x13
 2150 0186 52       		.uleb128 0x52
 2151 0187 01       		.uleb128 0x1
 2152 0188 55       		.uleb128 0x55
 2153 0189 17       		.uleb128 0x17
 2154 018a 58       		.uleb128 0x58
 2155 018b 0B       		.uleb128 0xb
 2156 018c 59       		.uleb128 0x59
 2157 018d 0B       		.uleb128 0xb
 2158 018e 00       		.byte	0
 2159 018f 00       		.byte	0
 2160 0190 20       		.uleb128 0x20
 2161 0191 898201   		.uleb128 0x4109
 2162 0194 01       		.byte	0x1
 2163 0195 11       		.uleb128 0x11
 2164 0196 01       		.uleb128 0x1
 2165 0197 31       		.uleb128 0x31
 2166 0198 13       		.uleb128 0x13
 2167 0199 01       		.uleb128 0x1
 2168 019a 13       		.uleb128 0x13
 2169 019b 00       		.byte	0
 2170 019c 00       		.byte	0
 2171 019d 21       		.uleb128 0x21
 2172 019e 8A8201   		.uleb128 0x410a
 2173 01a1 00       		.byte	0
 2174 01a2 02       		.uleb128 0x2
 2175 01a3 18       		.uleb128 0x18
 2176 01a4 9142     		.uleb128 0x2111
 2177 01a6 18       		.uleb128 0x18
 2178 01a7 00       		.byte	0
 2179 01a8 00       		.byte	0
 2180 01a9 22       		.uleb128 0x22
 2181 01aa 898201   		.uleb128 0x4109
 2182 01ad 00       		.byte	0
 2183 01ae 11       		.uleb128 0x11
 2184 01af 01       		.uleb128 0x1
 2185 01b0 31       		.uleb128 0x31
 2186 01b1 13       		.uleb128 0x13
 2187 01b2 00       		.byte	0
 2188 01b3 00       		.byte	0
 2189 01b4 23       		.uleb128 0x23
 2190 01b5 898201   		.uleb128 0x4109
 2191 01b8 01       		.byte	0x1
 2192 01b9 11       		.uleb128 0x11
 2193 01ba 01       		.uleb128 0x1
 2194 01bb 9542     		.uleb128 0x2115
 2195 01bd 19       		.uleb128 0x19
 2196 01be 31       		.uleb128 0x31
 2197 01bf 13       		.uleb128 0x13
 2198 01c0 00       		.byte	0
 2199 01c1 00       		.byte	0
 2200 01c2 24       		.uleb128 0x24
 2201 01c3 05       		.uleb128 0x5
 2202 01c4 00       		.byte	0
 2203 01c5 03       		.uleb128 0x3
 2204 01c6 08       		.uleb128 0x8
 2205 01c7 3A       		.uleb128 0x3a
ARM GAS  /tmp/ccKXXJYw.s 			page 63


 2206 01c8 0B       		.uleb128 0xb
 2207 01c9 3B       		.uleb128 0x3b
 2208 01ca 0B       		.uleb128 0xb
 2209 01cb 49       		.uleb128 0x49
 2210 01cc 13       		.uleb128 0x13
 2211 01cd 02       		.uleb128 0x2
 2212 01ce 17       		.uleb128 0x17
 2213 01cf 00       		.byte	0
 2214 01d0 00       		.byte	0
 2215 01d1 25       		.uleb128 0x25
 2216 01d2 34       		.uleb128 0x34
 2217 01d3 00       		.byte	0
 2218 01d4 03       		.uleb128 0x3
 2219 01d5 0E       		.uleb128 0xe
 2220 01d6 3A       		.uleb128 0x3a
 2221 01d7 0B       		.uleb128 0xb
 2222 01d8 3B       		.uleb128 0x3b
 2223 01d9 05       		.uleb128 0x5
 2224 01da 49       		.uleb128 0x49
 2225 01db 13       		.uleb128 0x13
 2226 01dc 3F       		.uleb128 0x3f
 2227 01dd 19       		.uleb128 0x19
 2228 01de 3C       		.uleb128 0x3c
 2229 01df 19       		.uleb128 0x19
 2230 01e0 00       		.byte	0
 2231 01e1 00       		.byte	0
 2232 01e2 26       		.uleb128 0x26
 2233 01e3 34       		.uleb128 0x34
 2234 01e4 00       		.byte	0
 2235 01e5 03       		.uleb128 0x3
 2236 01e6 08       		.uleb128 0x8
 2237 01e7 3A       		.uleb128 0x3a
 2238 01e8 0B       		.uleb128 0xb
 2239 01e9 3B       		.uleb128 0x3b
 2240 01ea 05       		.uleb128 0x5
 2241 01eb 49       		.uleb128 0x49
 2242 01ec 13       		.uleb128 0x13
 2243 01ed 3F       		.uleb128 0x3f
 2244 01ee 19       		.uleb128 0x19
 2245 01ef 3C       		.uleb128 0x3c
 2246 01f0 19       		.uleb128 0x19
 2247 01f1 00       		.byte	0
 2248 01f2 00       		.byte	0
 2249 01f3 27       		.uleb128 0x27
 2250 01f4 34       		.uleb128 0x34
 2251 01f5 00       		.byte	0
 2252 01f6 03       		.uleb128 0x3
 2253 01f7 0E       		.uleb128 0xe
 2254 01f8 3A       		.uleb128 0x3a
 2255 01f9 0B       		.uleb128 0xb
 2256 01fa 3B       		.uleb128 0x3b
 2257 01fb 0B       		.uleb128 0xb
 2258 01fc 49       		.uleb128 0x49
 2259 01fd 13       		.uleb128 0x13
 2260 01fe 3F       		.uleb128 0x3f
 2261 01ff 19       		.uleb128 0x19
 2262 0200 3C       		.uleb128 0x3c
ARM GAS  /tmp/ccKXXJYw.s 			page 64


 2263 0201 19       		.uleb128 0x19
 2264 0202 00       		.byte	0
 2265 0203 00       		.byte	0
 2266 0204 28       		.uleb128 0x28
 2267 0205 21       		.uleb128 0x21
 2268 0206 00       		.byte	0
 2269 0207 00       		.byte	0
 2270 0208 00       		.byte	0
 2271 0209 29       		.uleb128 0x29
 2272 020a 34       		.uleb128 0x34
 2273 020b 00       		.byte	0
 2274 020c 03       		.uleb128 0x3
 2275 020d 08       		.uleb128 0x8
 2276 020e 3A       		.uleb128 0x3a
 2277 020f 0B       		.uleb128 0xb
 2278 0210 3B       		.uleb128 0x3b
 2279 0211 0B       		.uleb128 0xb
 2280 0212 49       		.uleb128 0x49
 2281 0213 13       		.uleb128 0x13
 2282 0214 3F       		.uleb128 0x3f
 2283 0215 19       		.uleb128 0x19
 2284 0216 3C       		.uleb128 0x3c
 2285 0217 19       		.uleb128 0x19
 2286 0218 00       		.byte	0
 2287 0219 00       		.byte	0
 2288 021a 2A       		.uleb128 0x2a
 2289 021b 34       		.uleb128 0x34
 2290 021c 00       		.byte	0
 2291 021d 03       		.uleb128 0x3
 2292 021e 0E       		.uleb128 0xe
 2293 021f 3A       		.uleb128 0x3a
 2294 0220 0B       		.uleb128 0xb
 2295 0221 3B       		.uleb128 0x3b
 2296 0222 0B       		.uleb128 0xb
 2297 0223 49       		.uleb128 0x49
 2298 0224 13       		.uleb128 0x13
 2299 0225 3F       		.uleb128 0x3f
 2300 0226 19       		.uleb128 0x19
 2301 0227 02       		.uleb128 0x2
 2302 0228 18       		.uleb128 0x18
 2303 0229 00       		.byte	0
 2304 022a 00       		.byte	0
 2305 022b 2B       		.uleb128 0x2b
 2306 022c 2E       		.uleb128 0x2e
 2307 022d 01       		.byte	0x1
 2308 022e 3F       		.uleb128 0x3f
 2309 022f 19       		.uleb128 0x19
 2310 0230 03       		.uleb128 0x3
 2311 0231 0E       		.uleb128 0xe
 2312 0232 3A       		.uleb128 0x3a
 2313 0233 0B       		.uleb128 0xb
 2314 0234 3B       		.uleb128 0x3b
 2315 0235 0B       		.uleb128 0xb
 2316 0236 27       		.uleb128 0x27
 2317 0237 19       		.uleb128 0x19
 2318 0238 49       		.uleb128 0x49
 2319 0239 13       		.uleb128 0x13
ARM GAS  /tmp/ccKXXJYw.s 			page 65


 2320 023a 3C       		.uleb128 0x3c
 2321 023b 19       		.uleb128 0x19
 2322 023c 01       		.uleb128 0x1
 2323 023d 13       		.uleb128 0x13
 2324 023e 00       		.byte	0
 2325 023f 00       		.byte	0
 2326 0240 2C       		.uleb128 0x2c
 2327 0241 2E       		.uleb128 0x2e
 2328 0242 00       		.byte	0
 2329 0243 3F       		.uleb128 0x3f
 2330 0244 19       		.uleb128 0x19
 2331 0245 03       		.uleb128 0x3
 2332 0246 0E       		.uleb128 0xe
 2333 0247 3A       		.uleb128 0x3a
 2334 0248 0B       		.uleb128 0xb
 2335 0249 3B       		.uleb128 0x3b
 2336 024a 0B       		.uleb128 0xb
 2337 024b 27       		.uleb128 0x27
 2338 024c 19       		.uleb128 0x19
 2339 024d 49       		.uleb128 0x49
 2340 024e 13       		.uleb128 0x13
 2341 024f 3C       		.uleb128 0x3c
 2342 0250 19       		.uleb128 0x19
 2343 0251 00       		.byte	0
 2344 0252 00       		.byte	0
 2345 0253 2D       		.uleb128 0x2d
 2346 0254 2E       		.uleb128 0x2e
 2347 0255 01       		.byte	0x1
 2348 0256 3F       		.uleb128 0x3f
 2349 0257 19       		.uleb128 0x19
 2350 0258 03       		.uleb128 0x3
 2351 0259 0E       		.uleb128 0xe
 2352 025a 3A       		.uleb128 0x3a
 2353 025b 0B       		.uleb128 0xb
 2354 025c 3B       		.uleb128 0x3b
 2355 025d 0B       		.uleb128 0xb
 2356 025e 27       		.uleb128 0x27
 2357 025f 19       		.uleb128 0x19
 2358 0260 3C       		.uleb128 0x3c
 2359 0261 19       		.uleb128 0x19
 2360 0262 01       		.uleb128 0x1
 2361 0263 13       		.uleb128 0x13
 2362 0264 00       		.byte	0
 2363 0265 00       		.byte	0
 2364 0266 2E       		.uleb128 0x2e
 2365 0267 2E       		.uleb128 0x2e
 2366 0268 01       		.byte	0x1
 2367 0269 3F       		.uleb128 0x3f
 2368 026a 19       		.uleb128 0x19
 2369 026b 03       		.uleb128 0x3
 2370 026c 0E       		.uleb128 0xe
 2371 026d 3A       		.uleb128 0x3a
 2372 026e 0B       		.uleb128 0xb
 2373 026f 3B       		.uleb128 0x3b
 2374 0270 0B       		.uleb128 0xb
 2375 0271 27       		.uleb128 0x27
 2376 0272 19       		.uleb128 0x19
ARM GAS  /tmp/ccKXXJYw.s 			page 66


 2377 0273 49       		.uleb128 0x49
 2378 0274 13       		.uleb128 0x13
 2379 0275 3C       		.uleb128 0x3c
 2380 0276 19       		.uleb128 0x19
 2381 0277 00       		.byte	0
 2382 0278 00       		.byte	0
 2383 0279 00       		.byte	0
 2384              		.section	.debug_loc,"",%progbits
 2385              	.Ldebug_loc0:
 2386              	.LLST0:
 2387 0000 24000000 		.4byte	.LVL1
 2388 0004 2B000000 		.4byte	.LVL3-1
 2389 0008 0100     		.2byte	0x1
 2390 000a 50       		.byte	0x50
 2391 000b 36000000 		.4byte	.LVL5
 2392 000f 3D000000 		.4byte	.LVL7-1
 2393 0013 0100     		.2byte	0x1
 2394 0015 50       		.byte	0x50
 2395 0016 48000000 		.4byte	.LVL9
 2396 001a 4F000000 		.4byte	.LVL11-1
 2397 001e 0100     		.2byte	0x1
 2398 0020 50       		.byte	0x50
 2399 0021 00000000 		.4byte	0
 2400 0025 00000000 		.4byte	0
 2401              	.LLST1:
 2402 0029 00000000 		.4byte	.LVL14
 2403 002d 09000000 		.4byte	.LVL15-1
 2404 0031 0100     		.2byte	0x1
 2405 0033 50       		.byte	0x50
 2406 0034 09000000 		.4byte	.LVL15-1
 2407 0038 1A000000 		.4byte	.LVL17
 2408 003c 0100     		.2byte	0x1
 2409 003e 54       		.byte	0x54
 2410 003f 1A000000 		.4byte	.LVL17
 2411 0043 1D000000 		.4byte	.LVL18-1
 2412 0047 0100     		.2byte	0x1
 2413 0049 50       		.byte	0x50
 2414 004a 1D000000 		.4byte	.LVL18-1
 2415 004e 1E000000 		.4byte	.LFE229
 2416 0052 0400     		.2byte	0x4
 2417 0054 F3       		.byte	0xf3
 2418 0055 01       		.uleb128 0x1
 2419 0056 50       		.byte	0x50
 2420 0057 9F       		.byte	0x9f
 2421 0058 00000000 		.4byte	0
 2422 005c 00000000 		.4byte	0
 2423              		.section	.debug_aranges,"",%progbits
 2424 0000 24000000 		.4byte	0x24
 2425 0004 0200     		.2byte	0x2
 2426 0006 00000000 		.4byte	.Ldebug_info0
 2427 000a 04       		.byte	0x4
 2428 000b 00       		.byte	0
 2429 000c 0000     		.2byte	0
 2430 000e 0000     		.2byte	0
 2431 0010 00000000 		.4byte	.LFB230
 2432 0014 78000000 		.4byte	.LFE230-.LFB230
 2433 0018 00000000 		.4byte	.LFB229
ARM GAS  /tmp/ccKXXJYw.s 			page 67


 2434 001c 1E000000 		.4byte	.LFE229-.LFB229
 2435 0020 00000000 		.4byte	0
 2436 0024 00000000 		.4byte	0
 2437              		.section	.debug_ranges,"",%progbits
 2438              	.Ldebug_ranges0:
 2439 0000 02000000 		.4byte	.LBB16
 2440 0004 04000000 		.4byte	.LBE16
 2441 0008 06000000 		.4byte	.LBB23
 2442 000c 08000000 		.4byte	.LBE23
 2443 0010 00000000 		.4byte	0
 2444 0014 00000000 		.4byte	0
 2445 0018 02000000 		.4byte	.LBB18
 2446 001c 04000000 		.4byte	.LBE18
 2447 0020 06000000 		.4byte	.LBB21
 2448 0024 08000000 		.4byte	.LBE21
 2449 0028 00000000 		.4byte	0
 2450 002c 00000000 		.4byte	0
 2451 0030 00000000 		.4byte	.LFB230
 2452 0034 78000000 		.4byte	.LFE230
 2453 0038 00000000 		.4byte	.LFB229
 2454 003c 1E000000 		.4byte	.LFE229
 2455 0040 00000000 		.4byte	0
 2456 0044 00000000 		.4byte	0
 2457              		.section	.debug_line,"",%progbits
 2458              	.Ldebug_line0:
 2459 0000 56020000 		.section	.debug_str,"MS",%progbits,1
 2459      0200F301 
 2459      00000201 
 2459      FB0E0D00 
 2459      01010101 
 2460              	.LASF101:
 2461 0000 7466756E 		.ascii	"tfunc_t\000"
 2461      635F7400 
 2462              	.LASF51:
 2463 0008 72656164 		.ascii	"ready_list_t\000"
 2463      795F6C69 
 2463      73745F74 
 2463      00
 2464              	.LASF2:
 2465 0015 73697A65 		.ascii	"size_t\000"
 2465      5F7400
 2466              	.LASF86:
 2467 001c 7264796D 		.ascii	"rdymsg\000"
 2467      736700
 2468              	.LASF17:
 2469 0023 75696E74 		.ascii	"uint64_t\000"
 2469      36345F74 
 2469      00
 2470              	.LASF3:
 2471 002c 5F5F7569 		.ascii	"__uint8_t\000"
 2471      6E74385F 
 2471      7400
 2472              	.LASF83:
 2473 0036 706F7274 		.ascii	"port_intctx\000"
 2473      5F696E74 
 2473      63747800 
 2474              	.LASF70:
ARM GAS  /tmp/ccKXXJYw.s 			page 68


 2475 0042 73797374 		.ascii	"system_debug_t\000"
 2475      656D5F64 
 2475      65627567 
 2475      5F7400
 2476              	.LASF13:
 2477 0051 6C6F6E67 		.ascii	"long long unsigned int\000"
 2477      206C6F6E 
 2477      6720756E 
 2477      7369676E 
 2477      65642069 
 2478              	.LASF87:
 2479 0068 65786974 		.ascii	"exitcode\000"
 2479      636F6465 
 2479      00
 2480              	.LASF77:
 2481 0071 6D61696E 		.ascii	"mainthread\000"
 2481      74687265 
 2481      616400
 2482              	.LASF67:
 2483 007c 76697274 		.ascii	"virtual_timers_list_t\000"
 2483      75616C5F 
 2483      74696D65 
 2483      72735F6C 
 2483      6973745F 
 2484              	.LASF112:
 2485 0092 49544D5F 		.ascii	"ITM_RxBuffer\000"
 2485      52784275 
 2485      66666572 
 2485      00
 2486              	.LASF50:
 2487 009f 63685F74 		.ascii	"ch_threads_queue\000"
 2487      68726561 
 2487      64735F71 
 2487      75657565 
 2487      00
 2488              	.LASF30:
 2489 00b0 705F7072 		.ascii	"p_prio\000"
 2489      696F00
 2490              	.LASF11:
 2491 00b7 6C6F6E67 		.ascii	"long long int\000"
 2491      206C6F6E 
 2491      6720696E 
 2491      7400
 2492              	.LASF1:
 2493 00c5 7369676E 		.ascii	"signed char\000"
 2493      65642063 
 2493      68617200 
 2494              	.LASF44:
 2495 00d1 705F6D70 		.ascii	"p_mpool\000"
 2495      6F6F6C00 
 2496              	.LASF97:
 2497 00d9 6D5F7175 		.ascii	"m_queue\000"
 2497      65756500 
 2498              	.LASF117:
 2499 00e1 74657374 		.ascii	"test_emit_token\000"
 2499      5F656D69 
 2499      745F746F 
ARM GAS  /tmp/ccKXXJYw.s 			page 69


 2499      6B656E00 
 2500              	.LASF76:
 2501 00f1 76746C69 		.ascii	"vtlist\000"
 2501      737400
 2502              	.LASF89:
 2503 00f8 77747472 		.ascii	"wttrp\000"
 2503      7000
 2504              	.LASF74:
 2505 00fe 63685F73 		.ascii	"ch_system\000"
 2505      79737465 
 2505      6D00
 2506              	.LASF8:
 2507 0108 6C6F6E67 		.ascii	"long int\000"
 2507      20696E74 
 2507      00
 2508              	.LASF121:
 2509 0111 63684D73 		.ascii	"chMsgSend\000"
 2509      6753656E 
 2509      6400
 2510              	.LASF20:
 2511 011b 74737461 		.ascii	"tstate_t\000"
 2511      74655F74 
 2511      00
 2512              	.LASF32:
 2513 0124 705F6E65 		.ascii	"p_newer\000"
 2513      77657200 
 2514              	.LASF94:
 2515 012c 735F7175 		.ascii	"s_queue\000"
 2515      65756500 
 2516              	.LASF56:
 2517 0134 725F6E65 		.ascii	"r_newer\000"
 2517      77657200 
 2518              	.LASF80:
 2519 013c 72656761 		.ascii	"regarm_t\000"
 2519      726D5F74 
 2519      00
 2520              	.LASF63:
 2521 0145 76745F70 		.ascii	"vt_prev\000"
 2521      72657600 
 2522              	.LASF102:
 2523 014d 6D757465 		.ascii	"mutex_t\000"
 2523      785F7400 
 2524              	.LASF78:
 2525 0155 69646C65 		.ascii	"idle_thread_wa\000"
 2525      5F746872 
 2525      6561645F 
 2525      776100
 2526              	.LASF25:
 2527 0164 636E745F 		.ascii	"cnt_t\000"
 2527      7400
 2528              	.LASF0:
 2529 016a 756E7369 		.ascii	"unsigned int\000"
 2529      676E6564 
 2529      20696E74 
 2529      00
 2530              	.LASF62:
 2531 0177 76745F6E 		.ascii	"vt_next\000"
ARM GAS  /tmp/ccKXXJYw.s 			page 70


 2531      65787400 
 2532              	.LASF90:
 2533 017f 77747365 		.ascii	"wtsemp\000"
 2533      6D7000
 2534              	.LASF39:
 2535 0186 705F6D73 		.ascii	"p_msgqueue\000"
 2535      67717565 
 2535      756500
 2536              	.LASF106:
 2537 0191 74656172 		.ascii	"teardown\000"
 2537      646F776E 
 2537      00
 2538              	.LASF124:
 2539 019a 63684D73 		.ascii	"chMsgGet\000"
 2539      67476574 
 2539      00
 2540              	.LASF104:
 2541 01a3 6E616D65 		.ascii	"name\000"
 2541      00
 2542              	.LASF95:
 2543 01a8 735F636E 		.ascii	"s_cnt\000"
 2543      7400
 2544              	.LASF6:
 2545 01ae 73686F72 		.ascii	"short unsigned int\000"
 2545      7420756E 
 2545      7369676E 
 2545      65642069 
 2545      6E7400
 2546              	.LASF47:
 2547 01c1 63685F74 		.ascii	"ch_thread\000"
 2547      68726561 
 2547      6400
 2548              	.LASF23:
 2549 01cb 6D73675F 		.ascii	"msg_t\000"
 2549      7400
 2550              	.LASF73:
 2551 01d1 63685F73 		.ascii	"ch_system_t\000"
 2551      79737465 
 2551      6D5F7400 
 2552              	.LASF19:
 2553 01dd 746D6F64 		.ascii	"tmode_t\000"
 2553      655F7400 
 2554              	.LASF52:
 2555 01e5 63685F72 		.ascii	"ch_ready_list\000"
 2555      65616479 
 2555      5F6C6973 
 2555      7400
 2556              	.LASF24:
 2557 01f3 6576656E 		.ascii	"eventmask_t\000"
 2557      746D6173 
 2557      6B5F7400 
 2558              	.LASF7:
 2559 01ff 5F5F696E 		.ascii	"__int32_t\000"
 2559      7433325F 
 2559      7400
 2560              	.LASF81:
 2561 0209 73746B61 		.ascii	"stkalign_t\000"
ARM GAS  /tmp/ccKXXJYw.s 			page 71


 2561      6C69676E 
 2561      5F7400
 2562              	.LASF118:
 2563 0214 63685468 		.ascii	"chThdCreateStatic\000"
 2563      64437265 
 2563      61746553 
 2563      74617469 
 2563      6300
 2564              	.LASF122:
 2565 0226 474E5520 		.ascii	"GNU C 4.8.4 20141219 (release) -mcpu=cortex-m4 -mno"
 2565      4320342E 
 2565      382E3420 
 2565      32303134 
 2565      31323139 
 2566 0259 2D746875 		.ascii	"-thumb-interwork -mthumb -ggdb -O2 -fomit-frame-poi"
 2566      6D622D69 
 2566      6E746572 
 2566      776F726B 
 2566      202D6D74 
 2567 028c 6E746572 		.ascii	"nter -falign-functions=16 -ffunction-sections -fdat"
 2567      202D6661 
 2567      6C69676E 
 2567      2D66756E 
 2567      6374696F 
 2568 02bf 612D7365 		.ascii	"a-sections -fno-common -flto\000"
 2568      6374696F 
 2568      6E73202D 
 2568      666E6F2D 
 2568      636F6D6D 
 2569              	.LASF38:
 2570 02dc 705F7761 		.ascii	"p_waiting\000"
 2570      6974696E 
 2570      6700
 2571              	.LASF115:
 2572 02e6 70617474 		.ascii	"patternmsg\000"
 2572      65726E6D 
 2572      736700
 2573              	.LASF79:
 2574 02f1 73697A65 		.ascii	"sizetype\000"
 2574      74797065 
 2574      00
 2575              	.LASF45:
 2576 02fa 74687265 		.ascii	"thread_reference_t\000"
 2576      61645F72 
 2576      65666572 
 2576      656E6365 
 2576      5F7400
 2577              	.LASF68:
 2578 030d 63685F76 		.ascii	"ch_virtual_timers_list\000"
 2578      69727475 
 2578      616C5F74 
 2578      696D6572 
 2578      735F6C69 
 2579              	.LASF85:
 2580 0324 746D5F63 		.ascii	"tm_calibration_t\000"
 2580      616C6962 
 2580      72617469 
ARM GAS  /tmp/ccKXXJYw.s 			page 72


 2580      6F6E5F74 
 2580      00
 2581              	.LASF69:
 2582 0335 76745F6C 		.ascii	"vt_lasttime\000"
 2582      61737474 
 2582      696D6500 
 2583              	.LASF33:
 2584 0341 705F6F6C 		.ascii	"p_older\000"
 2584      64657200 
 2585              	.LASF55:
 2586 0349 725F6374 		.ascii	"r_ctx\000"
 2586      7800
 2587              	.LASF109:
 2588 034f 63685468 		.ascii	"chThdGetPriorityX\000"
 2588      64476574 
 2588      5072696F 
 2588      72697479 
 2588      5800
 2589              	.LASF105:
 2590 0361 73657475 		.ascii	"setup\000"
 2590      7000
 2591              	.LASF119:
 2592 0367 5F746573 		.ascii	"_test_assert_sequence\000"
 2592      745F6173 
 2592      73657274 
 2592      5F736571 
 2592      75656E63 
 2593              	.LASF58:
 2594 037d 725F6375 		.ascii	"r_current\000"
 2594      7272656E 
 2594      7400
 2595              	.LASF57:
 2596 0387 725F6F6C 		.ascii	"r_older\000"
 2596      64657200 
 2597              	.LASF12:
 2598 038f 5F5F7569 		.ascii	"__uint64_t\000"
 2598      6E743634 
 2598      5F7400
 2599              	.LASF21:
 2600 039a 74726566 		.ascii	"trefs_t\000"
 2600      735F7400 
 2601              	.LASF60:
 2602 03a2 76697274 		.ascii	"virtual_timer_t\000"
 2602      75616C5F 
 2602      74696D65 
 2602      725F7400 
 2603              	.LASF29:
 2604 03b2 705F7072 		.ascii	"p_prev\000"
 2604      657600
 2605              	.LASF107:
 2606 03b9 65786563 		.ascii	"execute\000"
 2606      75746500 
 2607              	.LASF22:
 2608 03c1 74707269 		.ascii	"tprio_t\000"
 2608      6F5F7400 
 2609              	.LASF111:
 2610 03c9 74687265 		.ascii	"thread\000"
ARM GAS  /tmp/ccKXXJYw.s 			page 73


 2610      616400
 2611              	.LASF71:
 2612 03d0 63685F73 		.ascii	"ch_system_debug\000"
 2612      79737465 
 2612      6D5F6465 
 2612      62756700 
 2613              	.LASF120:
 2614 03e0 5F426F6F 		.ascii	"_Bool\000"
 2614      6C00
 2615              	.LASF15:
 2616 03e6 696E7433 		.ascii	"int32_t\000"
 2616      325F7400 
 2617              	.LASF4:
 2618 03ee 756E7369 		.ascii	"unsigned char\000"
 2618      676E6564 
 2618      20636861 
 2618      7200
 2619              	.LASF42:
 2620 03fc 705F6D74 		.ascii	"p_mtxlist\000"
 2620      786C6973 
 2620      7400
 2621              	.LASF5:
 2622 0406 73686F72 		.ascii	"short int\000"
 2622      7420696E 
 2622      7400
 2623              	.LASF35:
 2624 0410 705F7374 		.ascii	"p_state\000"
 2624      61746500 
 2625              	.LASF113:
 2626 0418 74687265 		.ascii	"threads\000"
 2626      61647300 
 2627              	.LASF54:
 2628 0420 725F7072 		.ascii	"r_prio\000"
 2628      696F00
 2629              	.LASF114:
 2630 0427 74657374 		.ascii	"testmsg1\000"
 2630      6D736731 
 2630      00
 2631              	.LASF92:
 2632 0430 65776D61 		.ascii	"ewmask\000"
 2632      736B00
 2633              	.LASF28:
 2634 0437 705F6E65 		.ascii	"p_next\000"
 2634      787400
 2635              	.LASF36:
 2636 043e 705F666C 		.ascii	"p_flags\000"
 2636      61677300 
 2637              	.LASF61:
 2638 0446 63685F76 		.ascii	"ch_virtual_timer\000"
 2638      69727475 
 2638      616C5F74 
 2638      696D6572 
 2638      00
 2639              	.LASF116:
 2640 0457 63684D73 		.ascii	"chMsgRelease\000"
 2640      6752656C 
 2640      65617365 
ARM GAS  /tmp/ccKXXJYw.s 			page 74


 2640      00
 2641              	.LASF103:
 2642 0464 74657374 		.ascii	"testcase\000"
 2642      63617365 
 2642      00
 2643              	.LASF93:
 2644 046d 63685F73 		.ascii	"ch_semaphore\000"
 2644      656D6170 
 2644      686F7265 
 2644      00
 2645              	.LASF41:
 2646 047a 705F6570 		.ascii	"p_epending\000"
 2646      656E6469 
 2646      6E6700
 2647              	.LASF16:
 2648 0485 75696E74 		.ascii	"uint32_t\000"
 2648      33325F74 
 2648      00
 2649              	.LASF91:
 2650 048e 77746D74 		.ascii	"wtmtxp\000"
 2650      787000
 2651              	.LASF53:
 2652 0495 725F7175 		.ascii	"r_queue\000"
 2652      65756500 
 2653              	.LASF64:
 2654 049d 76745F64 		.ascii	"vt_delta\000"
 2654      656C7461 
 2654      00
 2655              	.LASF48:
 2656 04a6 63685F74 		.ascii	"ch_threads_list\000"
 2656      68726561 
 2656      64735F6C 
 2656      69737400 
 2657              	.LASF10:
 2658 04b6 6C6F6E67 		.ascii	"long unsigned int\000"
 2658      20756E73 
 2658      69676E65 
 2658      6420696E 
 2658      7400
 2659              	.LASF100:
 2660 04c8 63686172 		.ascii	"char\000"
 2660      00
 2661              	.LASF27:
 2662 04cd 74687265 		.ascii	"thread_t\000"
 2662      61645F74 
 2662      00
 2663              	.LASF99:
 2664 04d6 6D5F6E65 		.ascii	"m_next\000"
 2664      787400
 2665              	.LASF26:
 2666 04dd 73797374 		.ascii	"systime_t\000"
 2666      696D655F 
 2666      7400
 2667              	.LASF43:
 2668 04e7 705F7265 		.ascii	"p_realprio\000"
 2668      616C7072 
 2668      696F00
ARM GAS  /tmp/ccKXXJYw.s 			page 75


 2669              	.LASF59:
 2670 04f2 76746675 		.ascii	"vtfunc_t\000"
 2670      6E635F74 
 2670      00
 2671              	.LASF9:
 2672 04fb 5F5F7569 		.ascii	"__uint32_t\000"
 2672      6E743332 
 2672      5F7400
 2673              	.LASF72:
 2674 0506 70616E69 		.ascii	"panic_msg\000"
 2674      635F6D73 
 2674      6700
 2675              	.LASF84:
 2676 0510 6F666673 		.ascii	"offset\000"
 2676      657400
 2677              	.LASF82:
 2678 0517 636F6E74 		.ascii	"context\000"
 2678      65787400 
 2679              	.LASF18:
 2680 051f 7274636E 		.ascii	"rtcnt_t\000"
 2680      745F7400 
 2681              	.LASF66:
 2682 0527 76745F70 		.ascii	"vt_par\000"
 2682      617200
 2683              	.LASF125:
 2684 052e 63684D73 		.ascii	"chMsgWait\000"
 2684      67576169 
 2684      7400
 2685              	.LASF49:
 2686 0538 74687265 		.ascii	"threads_queue_t\000"
 2686      6164735F 
 2686      71756575 
 2686      655F7400 
 2687              	.LASF96:
 2688 0548 63685F6D 		.ascii	"ch_mutex\000"
 2688      75746578 
 2688      00
 2689              	.LASF37:
 2690 0551 705F7265 		.ascii	"p_refs\000"
 2690      667300
 2691              	.LASF75:
 2692 0558 726C6973 		.ascii	"rlist\000"
 2692      7400
 2693              	.LASF108:
 2694 055e 63685468 		.ascii	"chThdGetSelfX\000"
 2694      64476574 
 2694      53656C66 
 2694      5800
 2695              	.LASF14:
 2696 056c 75696E74 		.ascii	"uint8_t\000"
 2696      385F7400 
 2697              	.LASF110:
 2698 0574 6D736731 		.ascii	"msg1_execute\000"
 2698      5F657865 
 2698      63757465 
 2698      00
 2699              	.LASF88:
ARM GAS  /tmp/ccKXXJYw.s 			page 76


 2700 0581 77746F62 		.ascii	"wtobjp\000"
 2700      6A7000
 2701              	.LASF34:
 2702 0588 705F6E61 		.ascii	"p_name\000"
 2702      6D6500
 2703              	.LASF46:
 2704 058f 74687265 		.ascii	"threads_list_t\000"
 2704      6164735F 
 2704      6C697374 
 2704      5F7400
 2705              	.LASF40:
 2706 059e 705F6D73 		.ascii	"p_msg\000"
 2706      6700
 2707              	.LASF98:
 2708 05a4 6D5F6F77 		.ascii	"m_owner\000"
 2708      6E657200 
 2709              	.LASF31:
 2710 05ac 705F6374 		.ascii	"p_ctx\000"
 2710      7800
 2711              	.LASF65:
 2712 05b2 76745F66 		.ascii	"vt_func\000"
 2712      756E6300 
 2713              	.LASF123:
 2714 05ba 2F757372 		.ascii	"/usr/src/chibios/test/rt/testmsg.c\000"
 2714      2F737263 
 2714      2F636869 
 2714      62696F73 
 2714      2F746573 
 2715              		.comm	__gnu_lto_v1,1,1
 2716              		.ident	"GCC: (4.8.4-1+11-1) 4.8.4 20141219 (release)"
ARM GAS  /tmp/ccKXXJYw.s 			page 77


DEFINED SYMBOLS
                            *ABS*:00000000 testmsg.c
     /tmp/ccKXXJYw.s:401    .text.msg1_execute:00000000 $t
     /tmp/ccKXXJYw.s:406    .text.msg1_execute:00000000 msg1_execute
     /tmp/ccKXXJYw.s:510    .text.msg1_execute:00000064 $d
     /tmp/ccKXXJYw.s:524    .text.thread:00000000 thread
     /tmp/ccKXXJYw.s:519    .text.thread:00000000 $t
     /tmp/ccKXXJYw.s:580    .rodata.patternmsg:00000000 patternmsg
     /tmp/ccKXXJYw.s:565    .rodata.testmsg1:00000000 testmsg1
     /tmp/ccKXXJYw.s:562    .rodata.testmsg1:00000000 $d
     /tmp/ccKXXJYw.s:571    .rodata.str1.4:00000000 $d
     /tmp/ccKXXJYw.s:577    .rodata.patternmsg:00000000 $d
                            *COM*:00000001 __gnu_lto_v1
                     .debug_frame:00000010 $d

UNDEFINED SYMBOLS
chThdCreateStatic
chMsgWait
chMsgRelease
test_emit_token
_test_assert_sequence
ch
wa
threads
chMsgSend
