ARM GAS  /tmp/ccKXXJYw.s 			page 1


   1              		.syntax unified
   2              		.cpu cortex-m4
   3              		.fpu softvfp
   4              		.eabi_attribute 20, 1
   5              		.eabi_attribute 21, 1
   6              		.eabi_attribute 23, 3
   7              		.eabi_attribute 24, 1
   8              		.eabi_attribute 25, 1
   9              		.eabi_attribute 26, 1
  10              		.eabi_attribute 30, 2
  11              		.eabi_attribute 34, 1
  12              		.eabi_attribute 18, 4
  13              		.thumb
  14              		.file	"testmsg.c"
  15              		.text
  16              	.Ltext0:
  17              		.section	.gnu.lto_.jmpfuncs.cd2b05d61250d9d5,"",%progbits
  18 0000 789C6362 		.ascii	"x\234cb`b\300\006f\0031+\020\003e\231\230\"\0303\031"
  18      6062C006 
  18      6603312B 
  18      10036599 
  18      98221833 
  19 0015 191881AC 		.ascii	"\031\030\201\254j\206_\0153\032\0042\031\031\345\030"
  19      6A865F0D 
  19      331A0432 
  19      1919E518 
  20 0025 18E736CC 		.ascii	"\030\3476\314p\310d\204hgd`\300\305\000\232\0021\340"
  20      70C86484 
  20      68676460 
  20      C0C5009A 
  20      0231E0
  21 0038 04980F36 		.ascii	"\004\230\0176\243\003d\006s2#\3242fF&f U\006U\311\342"
  21      A3036406 
  21      733223D4 
  21      32664626 
  21      66205506 
  22 004f 0C64A008 		.ascii	"\014d\240\0108\241\0138\0029,\216N\316\014\000d\375"
  22      38A10B38 
  22      02392C8E 
  22      4ECE0C00 
  22      64FD
  23 0061 1256     		.ascii	"\022V"
  24              		.text
  25              		.section	.gnu.lto_.inline.cd2b05d61250d9d5,"",%progbits
  26 0000 789C6362 		.ascii	"x\234cb`b\300\006&Ci\240\254V\017##\003\223@C-\003\333"
  26      6062C006 
  26      264369A0 
  26      AC560F23 
  26      23039340 
  27 0018 0279B06A 		.ascii	"\002y\260jf\036\260\004\0237\003\003\343\004?0o\202"
  27      661EB004 
  27      13370303 
  27      E3043F30 
  27      6F82
  28 002a DF043F10 		.ascii	"\337\004?\020\237\004Av\001\006\006\326\011~\014`\304"
  28      9F044176 
  28      010606D6 
ARM GAS  /tmp/ccKXXJYw.s 			page 2


  28      097E0C60 
  28      C4
  29 003b CCC0A3C6 		.ascii	"\314\300\243\306\010v\013\212%@9t\232\001\000a\243\022"
  29      08760B8A 
  29      25403974 
  29      9A010061 
  29      A312
  30 004d 0D       		.ascii	"\015"
  31              		.text
  32              		.section	.gnu.lto_.pureconst.cd2b05d61250d9d5,"",%progbits
  33 0000 789C6362 		.ascii	"x\234cb`b`e\200\000&\006If\011\000\001\005\000@"
  33      60626065 
  33      80002606 
  33      49660900 
  33      01050040 
  34              		.text
  35              		.section	.gnu.lto_msg1_execute.cd2b05d61250d9d5,"",%progbits
  36 0000 789CAD94 		.ascii	"x\234\255\224\337K\223Q\030\307\237\347\335\246[\253"
  36      DF4B9351 
  36      18C79FE7 
  36      DDA65BAB 
  37 0010 E96C3AE7 		.ascii	"\351l:\347o\012\212\224\\\004]t\327\217\177\301\240"
  37      6F0A8A94 
  37      5C045D74 
  37      D78F7FC1 
  37      A0
  38 0021 2EE7ABCC 		.ascii	".\347\253\314\027Z\3056\257\272\360\270\271\360\302"
  38      175AC536 
  38      AFBAF0B8 
  38      B9F0C2
  39 0030 6079A366 		.ascii	"`y\243f\222V\027\245\013\221\010$\203FB(Z\346mt1\264"
  39      925617A5 
  39      0B910824 
  39      83464228 
  39      5AE66D74 
  40 0046 22E82630 		.ascii	"\"\350&0\010*Z\317s\336\037k*\352\205/\333y\317\373"
  40      082A5ACF 
  40      73DE1F6B 
  40      2AEA852F 
  40      DB79CFFB 
  41 005a 9CE77CCF 		.ascii	"\234\347|\317\367\371\274\347\274\012(\260\371\012\320"
  41      F7F9BCE7 
  41      BC0A28B0 
  41      F90AD0
  42 0069 7FA30420 		.ascii	"\177\243\004 Ew\264\001*\351w\000\275N\005\221;\200"
  42      4577B401 
  42      2AE97700 
  42      BD4E0591 
  42      3B80
  43 007b D0A360CF 		.ascii	"\320\243`\317\025\344T<\002\023B\014\346>\257}\305\021"
  43      15E4543C 
  43      0213420C 
  43      E63EAF7D 
  43      C511
  44 008d 91ED1B17 		.ascii	"\221\355\033\027\177\362yD\015I\366\030\202\212p\231"
  44      7FF27944 
  44      0D49F618 
ARM GAS  /tmp/ccKXXJYw.s 			page 3


  44      828A7099 
  45 009d 1EB049DE 		.ascii	"\036\260I\336\024{\361:\323J6\227\317gf\306\327f\321"
  45      147BF13A 
  45      D34A3697 
  45      CF6766C6 
  45      D766D1
  46 00b0 5BA78086 		.ascii	"[\247\200\2066\0335v\0075\340\204\020N\220\274\213\036"
  46      361B3576 
  46      0735E084 
  46      104E90BC 
  46      8B1E
  47 00c2 1C6E6A4A 		.ascii	"\034njJ<F\244\214#^\216\370\214H%G\374\034\251\341\251"
  47      3C46A48C 
  47      235E8EF8 
  47      8C482547 
  47      FC1CA9E1 
  48 00d7 B5D49492 		.ascii	"\265\324\224\222\276\003\372\204H7\3519\322h:;\362f"
  48      BE03FA84 
  48      4837E939 
  48      D2683A3B 
  48      F266
  49 00e9 2020C613 		.ascii	"  \306\023i\361\227|j\350T\340\304n6\201\307\351j\243"
  49      69F1977C 
  49      6AE854E0 
  49      C46E3681 
  49      C7E96AA3 
  50 00fd 96015C42 		.ascii	"\226\001\\B\205\357\266\267\220\3708\373e\301\036\302"
  50      85EFB6B7 
  50      90F838FB 
  50      65C11EC2 
  51 010d 87E88030 		.ascii	"\207\350\2000*'!#\3125t\215\302\335\3364\367\016\334"
  51      2A272123 
  51      CA35748D 
  51      C2DDDE34 
  51      F70EDC
  52 0120 845F6298 		.ascii	"\204_b\230{\356\210\224`y7\230\275\203\377-Ab\037^\016"
  52      7BEE8894 
  52      60793798 
  52      BD83FF2D 
  52      41621F5E 
  53 0135 FD386D78 		.ascii	"\3758mx6\315\213\237CA\253\020\263\223]Z\236\361\222"
  53      36CD8B9F 
  53      4341AB10 
  53      B3935D5A 
  53      9EF192
  54 0148 9EBEB08A 		.ascii	"\236\276\260\212\250{\224/2\2145-0)\204\310\315M\014"
  54      A87B942F 
  54      328C352D 
  54      302984C8 
  54      CD4D0C
  55 015b 35130CFD 		.ascii	"5\023\014\375I\234\325\360\020\373\022\354\306\303\276"
  55      499CD5F0 
  55      10FB12EC 
  55      C6C3BE
  56 016a FAB95716 		.ascii	"\372\271W\026\221\263\331M\231\364\321\316\217!\234"
  56      91B3D94D 
  56      99F4D1CE 
ARM GAS  /tmp/ccKXXJYw.s 			page 4


  56      8F219C
  57 0179 2461EAA3 		.ascii	"$a\352\243\325\327\035\316\276\012\204pJV[k\010\307"
  57      D5D71DCE 
  57      BE0A8470 
  57      4A565B6B 
  57      08C7
  58 018b 88B5255C 		.ascii	"\210\265%\\N\313\263\026\030Z\012\317\317\230\363\223"
  58      4ECBB316 
  58      185A0ACF 
  58      CF98F393 
  59 019b FDF34BCB 		.ascii	"\375\363K\313w\\&/\033\211p\262\235\323W\240\332\214"
  59      775C262F 
  59      1B8970B2 
  59      9DD357A0 
  59      DA8C
  60 01ad 3B2C775E 		.ascii	";,w^\225\266\237^\225\302\231\025\013\012\317\343q\247"
  60      95B69F5E 
  60      95C29915 
  60      0B0ACFE3 
  60      71A7
  61 01bf 86875534 		.ascii	"\206\207U4\330s\325\032\372\244\307\305\367\245z\220"
  61      D873D51A 
  61      FAA4C7C5 
  61      F7A57A90 
  62 01cf DF065D67 		.ascii	"\337\006]g\310\215\345\257\322\222\256\212H^\254Z\265"
  62      C88DE5AF 
  62      D292AE8A 
  62      485EAC5A 
  62      B5
  63 01e0 CD0B09B3 		.ascii	"\315\013\011\263\352\012$s\243\363h\372rZ\223\375\252"
  63      EA0A2473 
  63      A3F368FA 
  63      725A93FD 
  63      AA
  64 01f1 5E12EDB3 		.ascii	"^\022\355\263j\200EP\364\024}\243Q\2424\362\"5=P\317"
  64      6A804550 
  64      F4147DA3 
  64      51A234F2 
  64      22353D50 
  65 0206 4ABC1F78 		.ascii	"J\274\037x\253\321\200dsJ_b\021\022\271{\353\206z\204"
  65      ABD18064 
  65      734A5F62 
  65      1112B97B 
  65      EB867A84 
  66 021a 69386590 		.ascii	"i8e\220Z\343Pm\334\372\264\212\203I\261 \372\262\264"
  66      5AE3506D 
  66      DCFAB48A 
  66      8349B120 
  66      FAB2B4
  67 022d 5B1B696E 		.ascii	"[\033in\010\037\220\357\235\367k\204\241\221\320\367"
  67      081F90EF 
  67      9DF76B84 
  67      A191D0F7 
  68 023d D7CFEA4C 		.ascii	"\327\317\352Lc\217\310\030H\314\251\334\330\272A\010"
  68      638FC818 
  68      48CCA9DC 
  68      D8BA4108 
ARM GAS  /tmp/ccKXXJYw.s 			page 5


  69 024d C0AA28A0 		.ascii	"\300\252(\240b\211Q8\371tiX#k\370\226\374=\320l\326"
  69      62895138 
  69      F9746958 
  69      236BF896 
  69      FC3DD06C 
  70 0262 EFA60156 		.ascii	"\357\246\001V\260o\231]\253\312\363\306\263\335\032"
  70      B06F995D 
  70      ABCAF3C6 
  70      B3DD1A
  71 0271 D6E9E4EE 		.ascii	"\326\351\344\356\027\310y\366J\316SL\256\314\"\347\331"
  71      17C879F6 
  71      4ACE534C 
  71      AECC22E7 
  71      D9
  72 0282 4CEE7111 		.ascii	"L\356q\0219\317>\223K<\337\226\334\223\235\311y\310"
  72      39CF3E93 
  72      4B3CDF96 
  72      DC939DC9 
  72      79C8
  73 0294 7181DCD4 		.ascii	"q\201\334\324m\213\2347\314\247k\027r^\213\334T\201"
  73      6D8B9C37 
  73      CCA76B17 
  73      725E8BDC 
  73      5481
  74 02a6 9C6FAFE4 		.ascii	"\234o\257\344|\305\344*-r\276\315\3442E\344|\373\275"
  74      7CC5E42A 
  74      2D72BECD 
  74      E43245E4 
  74      7CFBBD
  75 02b9 E7B627F7 		.ascii	"\347\266'\367tgr>r\\ 7W \347\247\201]\311\371\015r\251"
  75      7467723E 
  75      725C2037 
  75      5720E7A7 
  75      815DC9F9 
  76 02d0 DCB4BA25 		.ascii	"\334\264\272%\257^\345se\034\360\012\224\003\325\032"
  76      AF5EE573 
  76      651CF00A 
  76      9403D51A 
  77 02e0 3634402F 		.ascii	"64@/\216\211\341s\0326\032\037R\"\333\004\260\012hj"
  77      8E89E173 
  77      1A361A1F 
  77      5222DB04 
  77      B00A686A 
  78 02f4 E8571B7D 		.ascii	"\350W\033}\005\351s\317_\213\243\301\356X4\030\213\252"
  78      05E973CF 
  78      5F8BA3C1 
  78      EE583418 
  78      8BAA
  79 0306 41B54B6B 		.ascii	"A\265Kk\327\256\307\202\361\316X<\030\215\313{$\026"
  79      D7AEC782 
  79      F1CE583C 
  79      188DCB7B 
  79      2416
  80 0318 6E554189 		.ascii	"nUA\211\337\260Q\257eK*\375(Q\273\246^\355\356\350\244"
  80      DFB051AF 
  80      654B2AFD 
  80      2851BBA6 
ARM GAS  /tmp/ccKXXJYw.s 			page 6


  80      5EEDEEE8 
  81 032d 68BC2BDA 		.ascii	"h\274+\332\031\352\210\265v\301\361]sY\272\013\354\347"
  81      19EA88B5 
  81      76C1F15D 
  81      7359BA0B 
  81      ECE7
  82 033f 2F5C847F 		.ascii	"/\\\204\177\210\266\307\351"
  82      88B6C7E9 
  83              		.text
  84              		.section	.gnu.lto_thread.cd2b05d61250d9d5,"",%progbits
  85 0000 789C6362 		.ascii	"x\234cb`b@\007\222@\374\024\210U\201\230\221\231\201"
  85      60624007 
  85      9240FC14 
  85      88558198 
  85      919981
  86 0013 9169C239 		.ascii	"\221i\3029\006\206F\016&FF\020\203\201\221\241\236\211"
  86      0686460E 
  86      26464610 
  86      838191A1 
  86      9E89
  87 0025 B13E9211 		.ascii	"\261>\222\021\254v=\323\201\007\377\377\257\373\266"
  87      AC763DD3 
  87      8107FFFF 
  87      AFFBB6
  88 0034 F05107A3 		.ascii	"\360Q\007\243 \033\023c.X\230\225\241\245\241a\202\002"
  88      201B1363 
  88      2E589895 
  88      A1A5A161 
  88      8202
  89 0046 03433298 		.ascii	"\003C2\230\033\002$AZC\031\231@4\363y\206\326\007\177"
  89      1B022441 
  89      5A431999 
  89      4034F379 
  89      86D6077F 
  90 005a 2D121917 		.ascii	"-\022\031\0272\262\002e\253\031~5t4\010d2\002UC\014"
  90      32B20265 
  90      AB197E35 
  90      74340864 
  90      32025543 
  91 006f 4D67648A 		.ascii	"Mgd\212`\314ddtd\310\004\352`\000*_PGX\265\023Bu=a\325"
  91      60CC6464 
  91      7464C804 
  91      EA60002A 
  91      5F504758 
  92 008a CE10D517 		.ascii	"\316\020\325\027\031\032\037t(\303\224C@\010P)\320\231"
  92      191A1F74 
  92      28C39443 
  92      40085029 
  92      D099
  93 009c A08051D6 		.ascii	"\240\200Q\326/-.\322/.J\326O\316\310L\312\314/\326/"
  93      2F2D2ED2 
  93      2F2E4AD6 
  93      4FCEC84C 
  93      CACC2FD6 
  94 00b1 492D2ED1 		.ascii	"I-.\321/*\001\323\271\305\351z\311\014\000\202\001C"
  94      2F2A01D3 
  94      B9C5E97A 
ARM GAS  /tmp/ccKXXJYw.s 			page 7


  94      C90C0082 
  94      0143
  95 00c3 8F       		.ascii	"\217"
  96              		.text
  97              		.section	.gnu.lto_.symbol_nodes.cd2b05d61250d9d5,"",%progbits
  98 0000 789C4DCC 		.ascii	"x\234M\314M\012\3020\024\004\340\231\244\265V\275\203"
  98      4D0AC230 
  98      1404E099 
  98      A4B556BD 
  98      83
  99 0011 67F324AF 		.ascii	"g\363$\257\220\205HA\305\265\273\036%{\317\240\024\377"
  99      90854841 
  99      C5B5BB1E 
  99      257BCFA0 
  99      14FF
 100 0023 EBDF05C4 		.ascii	"\353\337\005\304\327F\214\331|\314\314#\006\006\031"
 100      D7468CD9 
 100      7CCCCC23 
 100      060619
 101 0032 119E3950 		.ascii	"\021\2369P\210\345\006\020Y\317&\351Y\007A\372\"\025"
 101      88E50610 
 101      59CF26E9 
 101      590741FA 
 101      2215
 102 0044 B3A7E06F 		.ascii	"\263\247\340o\274\322\264\343\2116U\216L\024>(&\334"
 102      BCD2B4E3 
 102      8936558E 
 102      4C143E28 
 102      26DC
 103 0056 140579A7 		.ascii	"\024\005y\247\330\230n\224$\246\206\222\306t\241\364"
 103      D8986E94 
 103      24A68692 
 103      C674A1F4 
 104 0066 627A52B2 		.ascii	"bzR\262_\262\030\302\355\336\352\000\2763\207\2336c"
 104      5FB218C2 
 104      EDDEEA00 
 104      BE33879B 
 104      3663
 105 0078 8B3E7CE7 		.ascii	"\213>|\347\000ug\216\252\014}]\206\336\315C\357\027"
 105      0075678E 
 105      AA0C7D5D 
 105      86DECD43 
 105      EF17
 106 008a A177ABD6 		.ascii	"\241w\253\326\014U\253\035\301m\365?\265\372\352U|\000"
 106      0C55AB1D 
 106      C16DF53F 
 106      B5FAEA55 
 106      7C00
 107 009c 48134D77 		.ascii	"H\023Mw"
 108              		.text
 109              		.section	.gnu.lto_.refs.cd2b05d61250d9d5,"",%progbits
 110 0000 789C25C1 		.ascii	"x\234%\301A\001\0000\010\304\260^\007\030\300\277\327"
 110      41010030 
 110      08C4B05E 
 110      0718C0BF 
 110      D7
 111 0011 3D484496 		.ascii	"=HD\226S\020\364\245\322NF\370\004\007\000@"
ARM GAS  /tmp/ccKXXJYw.s 			page 8


 111      5310F4A5 
 111      D24E46F8 
 111      04070040 
 112              		.text
 113              		.section	.gnu.lto_.decls.cd2b05d61250d9d5,"",%progbits
 114 0000 789CBD5B 		.ascii	"x\234\275[{t\024U\232\257\252\356N\247I\010\340\254"
 114      7B741455 
 114      9AAFAAEE 
 114      4EA74908 
 114      E0AC
 115 0012 0ECE3ADA 		.ascii	"\016\316:\332\270\243\3438J`\307\035\3319;\302,{\216"
 115      B8A3E338 
 115      4A60C71D 
 115      D9393BC2 
 115      2C7B8E
 116 0025 BB678F7B 		.ascii	"\273g\217{\366\214;g\375\257\267\350\024I\257\351\207"
 116      F68C3B67 
 116      FDAFB7E8 
 116      1449AFE9 
 116      87
 117 0036 D5151276 		.ascii	"\325\025\022v\377\260\222@\010\012\032\010\320\301\004"
 117      FFB09240 
 117      080A1A08 
 117      D0C104
 118 0045 081005C9 		.ascii	"\010\020\005\311\256\002\002\213(\244t5\200\3411\022"
 118      AE02028B 
 118      28A47435 
 118      80E13112 
 119 0055 14423004 		.ascii	"\024B0\004\001\221\203\214<E^f\277\373\335\252\356\252"
 119      0191838C 
 119      3C455E66 
 119      BFFBDDAA 
 119      EEAA
 120 0067 EAAAEEAA 		.ascii	"\352\252\356\252\240['\367\366\355\233{\177\367\373"
 120      A05B27F7 
 120      F6ED9B7B 
 120      7FF7FB
 121 0076 EEF7BA8F 		.ascii	"\356\367\272\217j\216\341\230F\226a\206\340\231\377"
 121      6A8EE198 
 121      46966186 
 121      E099FF
 122 0085 5B8699EA 		.ascii	"[\206\231\352g\030\017\3030O@\362\251i%\244U\220\326"
 122      67180FC3 
 122      304F40F2 
 122      A96925A4 
 122      5590D6
 123 0098 40EA64E8 		.ascii	"@\352d\350S\010i\023\244\267!m\207\324\015\351#H\317"
 123      53086913 
 123      A4B7216D 
 123      87D40DE9 
 123      2348CF
 124 00ab 019604A9 		.ascii	"\001\226\004\251\216\245}\347\300\347<H\027!}\003\251"
 124      8EA57DE7 
 124      C0E73C48 
 124      17217D03 
 124      A9
 125 00bc 98630C0F 		.ascii	"\230c\014\017\351?\016\322^H%\220\212!M\206\004d0\005"
ARM GAS  /tmp/ccKXXJYw.s 			page 9


 125      E93F0ED2 
 125      5E482590 
 125      8A214D86 
 125      04643005 
 126 00d0 905643EA 		.ascii	"\220VC\352S\307\235\013\375\011\255w\001\206\027\276"
 126      53C79D0B 
 126      FD09AD77 
 126      018617BE 
 127 00e0 2F82F27C 		.ascii	"/\202\362|H?\206\357\373\340\373X\216\216I\350\254\202"
 127      483F86EF 
 127      FBE0FB58 
 127      8E8E49E8 
 127      AC82
 128 00f2 FA4B90EE 		.ascii	"\372K\220\356\206\272\237@\022\241\374\347\360\331\003"
 128      86BA9F40 
 128      12A1FCE7 
 128      F0D903
 129 0101 FFBB073E 		.ascii	"\377\273\007>w\302\347O\271\014o;\030\312w3\264\353"
 129      77C2E74F 
 129      B90C6F3B 
 129      18CA7733 
 129      B4EB
 130 0113 807418CA 		.ascii	"\200t\030\312\001\225\276{\241\335\375\034\345k\223"
 130      0195BE7B 
 130      A1DDFD1C 
 130      E56B93
 131 0122 CAE3472A 		.ascii	"\312\343G*\317\204w\257\211\317\007L<nR\261\037\344"
 131      CF8477AF 
 131      89CF074C 
 131      3C6E52B1 
 131      1FE4
 132 0134 281FF52C 		.ascii	"(\037\365,\255\347\324\377\221\271\"U[\214\335\230\""
 132      ADE7D4FF 
 132      91B92255 
 132      5B8CDD98 
 132      22
 133 0145 E60559AE 		.ascii	"\346\005Y\256\223\333\033\344\277\337U2\206i\222\341"
 133      93DB1BE4 
 133      BFDF5532 
 133      866992E1 
 134 0155 699FD252 		.ascii	"i\237\322R\022`\032I\375\340\253\362\330\261\014\363"
 134      12601A49 
 134      FDE0ABF2 
 134      D8B10CF3 
 135 0165 0CCBB350 		.ascii	"\014\313\263PU\210\205\342\000\"=\300t@[\350\300\361"
 135      558885E2 
 135      00223DC0 
 135      74405BE8 
 135      C0F1
 136 0177 EC6A3600 		.ascii	"\354j6\000#q,c\371\320\377\223\207t\247e\2554\304\246"
 136      23712C63 
 136      F9D0FF93 
 136      8774A765 
 136      AD34C4A6 
 137 018b D1831ABA 		.ascii	"\321\203\032\272W\355\265\212\035\203%\244EVi\304\026"
 137      57EDB58A 
 137      1D8325A4 
ARM GAS  /tmp/ccKXXJYw.s 			page 10


 137      455669C4 
 137      16
 138 019c 763D5ED3 		.ascii	"v=^\323\215S\034\310\024<*%v\375V\262E\226\023r\027"
 138      8D531CC8 
 138      143C2A25 
 138      76FD56B2 
 138      45961372 
 139 01b1 B3581D59 		.ascii	"\263X\035Yf%\236}\342N[\204\265\354]X\362\340\214C\305"
 139      66259E7D 
 139      E24E5B84 
 139      B5EC5D58 
 139      F2E08C43 
 140 01c6 E422C8FE 		.ascii	"\344\"\310\376\240\015l?\364\032\030\372a\346u:\225"
 140      A00D6C3F 
 140      F41A18FA 
 140      61E6753A 
 140      95
 141 01d7 9F5BCCA0 		.ascii	"\237[\314\240\201{k\034\024E\323\340\366\313\363~+\313"
 141      817B6B1C 
 141      1445D3E0 
 141      F6CBF37E 
 141      2BCB
 142 01e9 853CDB89 		.ascii	"\205<\333\211\342\370G\026\340\327\261\017\273\306\351"
 142      E2F84716 
 142      E0D7B10F 
 142      BBC6E9
 143 01f8 ED5EF14B 		.ascii	"\355^\361K\304y\003q\244\341\342\\\333\3315\011q6 \316"
 143      C4790371 
 143      A4E1E25C 
 143      DBD93509 
 143      713620CE 
 144 020c 3AD608C4 		.ascii	":\326\010\304\263\005\001\243\232\300w\255\001A\203"
 144      B30501A3 
 144      9AC077AD 
 144      014183
 145 021b AF64A46F 		.ascii	"\257d\244o\211\337`\237Wk\310\027?\363\377\336\357>"
 145      89DF609F 
 145      576BC817 
 145      3FF3FFDE 
 145      EF3E
 146 022d 66B9AC9C 		.ascii	"f\271\254\234\037\354\353\331>v\251\254\314\222\207"
 146      1FECEBD9 
 146      3E76A9AC 
 146      CC9287
 147 023c 869E57A5 		.ascii	"\206\236W\245\3161\207M\214\375\214Y-\313\013\345\215"
 147      CE31874D 
 147      8CFD8C59 
 147      2DCB0BE5 
 147      8D
 148 024d B21C403D 		.ascii	"\262\034@=\340\230c\330b\023{\237\345ta#x\036d^%\343"
 148      E09863D8 
 148      62137B9F 
 148      E5746123 
 148      781E645E 
 149 0263 CB6B650F 		.ascii	"\313ke\017\352\032\243\3661\320\274\2315X>\245KY\334"
 149      EA1AA3F6 
 149      31D0BC99 
ARM GAS  /tmp/ccKXXJYw.s 			page 11


 149      35583EA5 
 149      4B59DC
 150 0276 FDD2DD72 		.ascii	"\375\322\335r{\235244\231q\256\264\333T\245\315(*\307"
 150      7B9D3234 
 150      349971AE 
 150      B4DB54A5 
 150      CD282AC7 
 151 028a 1C373163 		.ascii	"\03471cM\326\333f\262\336\311&k\0204r\377g\265\354\202"
 151      4DD6DB66 
 151      B2DEC926 
 151      6B103472 
 151      FF67B5EC 
 152 029f FAF65DF2 		.ascii	"\372\366]\362\371\241\241QF\312\012\2319\350af\313\265"
 152      F9A1A151 
 152      46CA0A99 
 152      39E86166 
 152      CBB5
 153 02b1 EC73F95D 		.ascii	"\354s\371]L\027[\010\324\275l\357cH\003F\225$-k\245"
 153      4C175B08 
 153      D4BD6CEF 
 153      63480346 
 153      95242D6B 
 154 02c6 1C2E6687 		.ascii	"\034.f\207\331l}\001\255lp\004\324Y\331\241|\220q\037"
 154      D96C7D01 
 154      AD6C7004 
 154      D459D9A1 
 154      7C90711F 
 155 02da 86D9C409 		.ascii	"\206\331\304\011]\314\231'\2246\372\320j\306\224\363"
 155      5DCC9927 
 155      9436FAD0 
 155      6AC694F3 
 156 02ea DDF364B6 		.ascii	"\335\363d\266\251vph\350>\347r\334i\346\202\020k\"\243"
 156      A9767068 
 156      E83EE772 
 156      DC69E682 
 156      106B22A3 
 157 02fe D3868CDD 		.ascii	"\323\206\214\335\226\202\373\246\271\353ny\245[}\352"
 157      9682FBA6 
 157      B9EB6E79 
 157      A55B7DEA 
 158 030e 31D26198 		.ascii	"1\322a\230\301;\230\005\004%\250\363\031\355^\015\340"
 158      C13B9805 
 158      0425A8F3 
 158      19ED5E0D 
 158      E0
 159 031f EF98B4D3 		.ascii	"\357\230\264\323H\035\352\372\015:\215}\354\035\000"
 159      481DEAFA 
 159      0D3A8D7D 
 159      EC1D00
 160 032e D3E43192 		.ascii	"\323\3441\222\235\027\206c\226b\227\217\241;\355H\265"
 160      9D178663 
 160      9662978F 
 160      A13BED48 
 160      B5
 161 033f 6830D5FA 		.ascii	"h0\325\372a=[\013<\320\3771\026\263\241>\343\230v\240"
 161      613D5B0B 
 161      3CD0FF31 
ARM GAS  /tmp/ccKXXJYw.s 			page 12


 161      16B3A13E 
 161      E39876A0 
 162 0353 5B49BDB4 		.ascii	"[I\275\264\014l\352}h\277\227%F\274'\215k\305\177:\344"
 162      0C6CEA7D 
 162      68BF9725 
 162      46BC278D 
 162      6BC57F3A 
 163 0368 683A5812 		.ascii	"h:X\0220\341\275\262\257\270\211\327\300z]\203\005\015"
 163      30E1BDB2 
 163      AFB889D7 
 163      C07A5D83 
 163      050D
 164 037a 602BF6B5 		.ascii	"`+\366\265!qj\234v\022\035\316\253\321\241\017\275\361"
 164      21716A9C 
 164      76121DCE 
 164      ABD1A10F 
 164      BDF1
 165 038c 118F855B 		.ascii	"\021\217\205[w\004\324\333\320\361\010\002\035E\240"
 165      7704D4DB 
 165      D0F10802 
 165      1D45A0
 166 039b CF870D74 		.ascii	"\317\207\015tm\347\007\013\330z\224\3101\204:\3531G"
 166      6DE7070B 
 166      D87A94C8 
 166      31843AEB 
 166      3147
 167 03ad 08BF2942 		.ascii	"\010\277)B\370\215\036\333\037\310\024\210\243\036\305"
 167      F88D1EDB 
 167      1FC81488 
 167      A31EC5
 168 03bc FCC0CD39 		.ascii	"\374\300\3159\346\033'\202\313x\"\223\026\310\203KZ"
 168      E61B2782 
 168      CB782293 
 168      16C8834B 
 168      5A
 169 03cd F7784804 		.ascii	"\367xH\004\361\250\232\334^`7K\034s\013\307:i\326\344"
 169      F1A89ADC 
 169      5E60374B 
 169      1C730BC7 
 169      3A69D6E4 
 170 03e1 D6CF77FD 		.ascii	"\326\317w\375\242E\226G\323\177\345W\344\315\037\245"
 170      A2459647 
 170      D37FE557 
 170      E4CD1FA5 
 171 03f1 5057F2DA 		.ascii	"PW\362\332#\247\015\3773\034\376-/\031\376\214y\370"
 171      23A70DFF 
 171      331CFE2D 
 171      2F19FE8C 
 171      79F8
 172 0403 A113834F 		.ascii	"\241\023\203O\320\341\3178\032~\305\201E\331\303\333"
 172      D0E1CF38 
 172      1A7EC581 
 172      45D9C3DB 
 173 0413 FA115537 		.ascii	"\372\021U7Z?\377\362\236\0258\3109\264\227\013^\263"
 173      5A3FFFF2 
 173      9E1538C8 
 173      39B4970B 
ARM GAS  /tmp/ccKXXJYw.s 			page 13


 173      5EB3
 174 0425 6A4CD6FB 		.ascii	"jL\326\373\\m\301\225n\3001\327\323\324\017\313\\\201"
 174      5C6DC195 
 174      6EC031D7 
 174      D3D40FCB 
 174      5C81
 175 0437 4DE51F5E 		.ascii	"M\345\037^\207\030>\267@\243\341\226k\304\240a\"6\036"
 175      87183EB7 
 175      40A3E196 
 175      6BC4A061 
 175      22361E
 176 044a 400740C1 		.ascii	"@\007@\301d\237\0030[=\252S6\351\301\352]\203\031)\333"
 176      649F0330 
 176      5B3DAA53 
 176      36E9C1EA 
 176      5D831929 
 177 045f A2076B70 		.ascii	"\242\007kp\0026\332\236\262\255z\260\271\256\301\214"
 177      0236DA9E 
 177      B2AD7AB0 
 177      B9AEC18C 
 178 046f 946DD383 		.ascii	"\224m\323\203\315s\0026\326\236\262w\365`M\256\301\214"
 178      CD730236 
 178      D69EB277 
 178      F5604DAE 
 178      C18C
 179 0481 94EDD083 		.ascii	"\224\355\320\203-r\002\026\264\240,\375\330\305\324"
 179      2D720216 
 179      B4A02CFD 
 179      D8C5D4
 180 0490 2F336B0B 		.ascii	"/3k\013\216I\3714\207\340R\247\231\014F\253\317\255"
 180      8E49F934 
 180      87E052A7 
 180      990C46AB 
 180      CFAD
 181 04a2 0333F00D 		.ascii	"\0033\360\015qt\357j\266\271^\3365A\213e+\235 \346P"
 181      7174EF6A 
 181      B6B95EDE 
 181      35418B65 
 181      2B9D20E6 
 182 04b7 982DFAC0 		.ascii	"\230-\372\300\370\272k0\243X\016\0220\203\253Ioe\225"
 182      F8BA6B30 
 182      A3580E12 
 182      3083AB49 
 182      6F6595
 183 04ca B12D1967 		.ascii	"\261-\031ggXh\362l\007\373\300\260\367\251\215\234N"
 183      675868F2 
 183      6C07FBC0 
 183      B0F7A98D 
 183      9C4E
 184 04dc 441B9CD0 		.ascii	"D\033\234\320\237CGo\354k\373\261<\250\260\272\015\270"
 184      9F43476F 
 184      EC6BFBB1 
 184      3CA8B0BA 
 184      0DB8
 185 04ee 1DD55A60 		.ascii	"\035\325Z`?\251\006\366y\034\011\242[}\226\361\330\001"
 185      3FA906F6 
 185      791C09A2 
ARM GAS  /tmp/ccKXXJYw.s 			page 14


 185      5B7D96F1 
 185      D801
 186 0500 506FC312 		.ascii	"Po\303\022\272\357{\031\201\336\0336\320\265\235\313"
 186      BAEF7B19 
 186      81DE1B36 
 186      D0B59DCB 
 187 0510 E9C66F21 		.ascii	"\351\306o!\002\355\366\231}7k\012\353\2541\360\246g"
 187      02EDF699 
 187      7D376B0A 
 187      EBAC31F0 
 187      A667
 188 0522 5E9DF81F 		.ascii	"^\235\370\037\252-,\303\314\3222\260\223\327\011\014"
 188      AA2D2CC3 
 188      CCD232B0 
 188      93D7090C 
 189 0532 A6FA4F36 		.ascii	"\246\372O6\263\227\352\344\226\011.\3445\250\312+\205"
 189      B397EAE4 
 189      96092EE4 
 189      35A8CA2B 
 189      85
 190 0543 B3D39F35 		.ascii	"\263\323\2375;d\372\335\261q\3025\033\017\031\331h="
 190      3B64FADD 
 190      B171C235 
 190      1B0F19D9 
 190      683D
 191 0555 ED9E8D2F 		.ascii	"\355\236\215/U6\332\220\215\263\337\003\033\227\\\263"
 191      5536DA90 
 191      8DB3DF03 
 191      1B975CB3 
 192 0565 3141C706 		.ascii	"1A\307\006,\361\373//\242\256\351G\314\302\334\213+"
 192      2CF1FB2F 
 192      2FA2AEE9 
 192      47CCC2DC 
 192      8B2B
 193 0577 3CF5E17E 		.ascii	"<\365\341~dX\331(W\366\263AZ\235oU#+\315\007\332\324"
 193      6458D928 
 193      57F6B341 
 193      5A9D6F55 
 193      232BCD07 
 194 058d DD013D6D 		.ascii	"\335\001=m\271\216\264\223\276\303Yn\310\312z\032N("
 194      B98EB493 
 194      BEC3596E 
 194      C8CA7A1A 
 194      4E28
 195 059f 586DC1ED 		.ascii	"Xm\301\355\200\325)]\013\265\255\013\036?\274p\233p"
 195      80D5295D 
 195      0BB5AD0B 
 195      1E3FBC70 
 195      9B70
 196 05b1 470F987D 		.ascii	"G\017\230}\252i-\267\317\306\335i{\272T\367{l\035.\364"
 196      AA692DB7 
 196      CFC6DD69 
 196      7BBA54F7 
 196      7B6C1D2E 
 197 05c6 3B3942D0 		.ascii	";9B\320\202\002\263\262\354eM\3139R\241kb'\303uz\337"
 197      8202B3B2 
 197      EC654DCB 
ARM GAS  /tmp/ccKXXJYw.s 			page 15


 197      3952A16B 
 197      6227C375 
 198 05dc DB717B7C 		.ascii	"\333q{|\202\031\034\353\240\372\223o\251\374o\032Z1"
 198      82191CEB 
 198      A0FA936F 
 198      A9FC6F1A 
 198      5A31
 199 05ee 0EBC0E07 		.ascii	"\016\274\016\007\336\300\231V\312\307.\0156\250|\223"
 199      DEC09956 
 199      CAC72E0D 
 199      36A87C93 
 200 05fe FFE557AA 		.ascii	"\377\345W\252\376S\001ya\261\305xS\364\2019=\253\007"
 200      FE530179 
 200      61B1C578 
 200      53F48139 
 200      3DAB07
 201 0611 17B0B310 		.ascii	"\027\260\263\020}3G\366\312\307L\263\252\3550\246\330"
 201      7D3347F6 
 201      CAC74CB3 
 201      AAED30A6 
 201      D8
 202 0622 0171CCD7 		.ascii	"\001q\314\327\330e\253\231\360T\377\325:u\257\274\325"
 202      D865AB99 
 202      F054FFD5 
 202      3A75AFBC 
 202      D5
 203 0633 01E175CA 		.ascii	"\001\341u\312\205\027\365{e\236\375\204\345T\334\341"
 203      8517F57B 
 203      659EFD84 
 203      E554DCE1 
 204 0643 69DCC59E 		.ascii	"i\334\305\236\364\222\200g\017\271\006\013Z\221\252"
 204      F4928067 
 204      0FB9060B 
 204      5A91AA
 205 0652 6956865B 		.ascii	"iV\206[\236\335\306\221\260\377\0167\016\362w\271q\231"
 205      9EDDC691 
 205      B0FF0E37 
 205      0EF277B9 
 205      7199
 206 0664 66B040F7 		.ascii	"f\260@\367k2\265\232\272\274\006\015\302\377v\011U&"
 206      6B32B59A 
 206      BABC060D 
 206      C2FF7609 
 206      5526
 207 0676 1727B81D 		.ascii	"\027'\270\035\363\251O\355B\237\332\3507\233\311\033"
 207      F3A94FED 
 207      429FDAE8 
 207      379BC91B 
 208 0686 E6C8E9E2 		.ascii	"\346\310\351\342\010\223c^2\263\344t\317\221~\354\314"
 208      0893635E 
 208      32B3E474 
 208      CF917EEC 
 208      CC
 209 0697 70BDDE0C 		.ascii	"p\275\336\014\027\371o\323\014\373O;4C\231\325\257\010"
 209      17F96FD3 
 209      0CFB4F3B 
 209      344399D5 
ARM GAS  /tmp/ccKXXJYw.s 			page 16


 209      AF08
 210 06a9 616D8B23 		.ascii	"am\213#w\233\325y\351\215]sTu\356vd\207W\320\0165\273"
 210      779BD579 
 210      E98D5D73 
 210      5475EE76 
 210      648757D0 
 211 06c0 DA93461D 		.ascii	"\332\223F\035\216&\324)\327\316\354f\021\216\256p\017"
 211      8E26D429 
 211      D7CEEC66 
 211      118EAE70 
 211      0F
 212 06d1 9AE15CEE 		.ascii	"\232\341\\\356\374n\012n'\206j\227\322w\212\204\267"
 212      FC6E0A6E 
 212      27866A97 
 212      D2778A84 
 212      B7
 213 06e2 FDC8D3D1 		.ascii	"\375\310\323\321,\325\2423\243S\255n\235\235\354B;\331"
 213      2CD5A233 
 213      A353AD6E 
 213      9D9DEC42 
 213      3BD9
 214 06f4 8D76D283 		.ascii	"\215v\322\203\371^\275\265\330\251\305>\275Z\234t\315"
 214      F95EBDB5 
 214      D8A9C53E 
 214      BD5A9C74 
 214      CD
 215 0705 77D0A1F6 		.ascii	"w\320\241\366}\250\037\346\354mj\337\222\376\257\275"
 215      7DA81FE6 
 215      EC6D6ADF 
 215      92FEAFBD 
 216 0715 7840E3E2 		.ascii	"x@\343\342h\355\246\272\024\372\004\315\366b\326\334"
 216      68EDA6BA 
 216      14FA04CD 
 216      F662D6DC 
 217 0725 1E359BAD 		.ascii	"\0365\233\255\223\223\246\357\206\313H\372\341\230\331"
 217      9393A6EF 
 217      86CB48FA 
 217      E198D9
 218 0734 850E7623 		.ascii	"\205\016v#A\273\311 \207\246W\325\025U\336\343\252\364"
 218      41BBC920 
 218      87A657D5 
 218      1555DEE3 
 218      AAF4
 219 0746 F9ED9E5A 		.ascii	"\371\355\236Z5*\365\243\246\315-\264\216J9\316\275Z"
 219      352AF5A3 
 219      A6CD2DB4 
 219      8E4A39CE 
 219      BD5A
 220 0758 B0CB4056 		.ascii	"\260\313@VTj\275\254E\245\001GQ\251\3272*\015\270\217"
 220      546ABDAC 
 220      45A50147 
 220      51A9D732 
 220      2A0DB88F 
 221 076c 4A568F9E 		.ascii	"JV\217\236@\236\035D\0039n\014!k]\317~P?\373\312\265"
 221      409E1D44 
 221      03396E0C 
 221      216B5DCF 
ARM GAS  /tmp/ccKXXJYw.s 			page 17


 221      7E503FFB 
 222 0782 DE3696D2 		.ascii	"\3366\226\322O\035\321F3\236\225#z\310V\232J\323\247"
 222      4F1DD146 
 222      339E9523 
 222      7AC8569A 
 222      4AD3A7
 223 0795 BA35E676 		.ascii	"\2725\346v'\304M\260\003\253S\332(\030U\371\377u\015"
 223      27C44DB0 
 223      03AB53DA 
 223      281855F9 
 223      FF750D
 224 07a8 163480BD 		.ascii	"\0264\200\275\263D\223\324\207\270@\334\347\004o\222"
 224      B34493D4 
 224      87B840DC 
 224      E7046F92 
 225 07b8 3D71BD9F 		.ascii	"=q\275\237j\253sz\332}\3305\236\221\276\013K\014\013"
 225      6AAB737A 
 225      DA7DD835 
 225      9E91BE0B 
 225      4B0C0B
 226 07cb EA134EE0 		.ascii	"\352\023N\340\246"
 226      A6
 227 07d0 3856A4CC 		.ascii	"8V\244\314]\005\317\366\342A\304A\226\370\330O1?\214"
 227      5D05CFF6 
 227      E241C441 
 227      96F8D84F 
 227      313F8C
 228 07e3 F909CCEB 		.ascii	"\371\011\314\353\321\367\316\306|\016\346/b\276\004"
 228      D1F7CEC6 
 228      7C0EE62F 
 228      62BE04
 229 07f2 F356CCDB 		.ascii	"\363V\314\3331?\202\371\011\314Oa~\032\3633\230\237"
 229      313F82F9 
 229      09CC4F61 
 229      7E1AF333 
 229      989F
 230 0804 C5FC9C13 		.ascii	"\305\374\234\023\037nZ\210\247\357\230:\251O3]3\235"
 230      1F6E5A88 
 230      A7EF983A 
 230      A94F335D 
 230      339D
 231 0816 3559BBC6 		.ascii	"5Y\273\306\342y\316\352\232\351j\357\216{\227\312\357"
 231      E279CEEA 
 231      9AE96AEF 
 231      8E7B97CA 
 231      EF
 232 0827 D3EB54D3 		.ascii	"\323\353T\323=\023\031\327\216\246\213\\\366\305\345"
 232      3D1319D7 
 232      8EA68B5C 
 232      F6C5E5
 233 0836 B736235F 		.ascii	"\2676#_\262\034y\361\272\335\277X\266Q\2365W\376n\350"
 233      B21C79F1 
 233      BADDBF58 
 233      B6519E35 
 233      57FE6EE8 
 234 084a 79D6C5D0 		.ascii	"y\326\305\320W\270\354\213~\265\354\"`t\036\377\315"
 234      57B8EC8B 
ARM GAS  /tmp/ccKXXJYw.s 			page 18


 234      7EB5EC22 
 234      60741EFF 
 234      CD
 235 085b 9B78BAFD 		.ascii	"\233x\272\375-\232\317\261\2009b\370L\001\303g\014\030"
 235      2D9ACFB1 
 235      803962F8 
 235      4C01C367 
 235      0C18
 236 086d BE40A690 		.ascii	"\276@\246\220\271\311H\323\324Gec}\223I.\255s\320\266"
 236      B9C948D3 
 236      D4476563 
 236      7D93492E 
 236      AD73D0B6 
 237 0881 78DD716D 		.ascii	"x\335qm\323r\013m\361\213,\342\326\2307kk\214:b\232"
 237      D3720B6D 
 237      F18B2CE2 
 237      D698376B 
 237      6B8C3A62 
 238 0896 9E6C2DF9 		.ascii	"\236l-\371S\300ZV\265\036K-i\336q\267\235\226t\346\270"
 238      53C05A56 
 238      B51E4B2D 
 238      69DE71B7 
 238      9D9674E6 
 239 08ab 96ADF798 		.ascii	"\226\255\367\230DE\344\232G\177\345\021\326\2245\030"
 239      4445E49A 
 239      477FE511 
 239      D6943518 
 240 08bb 29BB9F59 		.ascii	")\273\237Y)\257'\367\333_\325\261\315r\373.p\256\260"
 240      29AF27F7 
 240      DB5FD5B1 
 240      CD72FB2E 
 240      70AEB0
 241 08ce E0BE4F7D 		.ascii	"\340\276O}\201&\250\333 +\271.;\262\357-\264'\203d\270"
 241      8126A8DB 
 241      202BB92E 
 241      3BB2EF2D 
 241      B4278364 
 242 08e3 E9E0D917 		.ascii	"\351\340\331\027<c\030\353\007\366\371Y\304\203\177"
 242      3C6318EB 
 242      07F6F959 
 242      C4837F
 243 08f2 C8104E88 		.ascii	"\310\020N\210\206\351L\365\357\031\373_u\362\254\015"
 243      86E94CF5 
 243      EF19FB5F 
 243      75F2AC0D 
 244 0902 803FC40E 		.ascii	"\200?\304\016M\326\226\217\215'2g\234\362\235\032\231"
 244      4DD6968F 
 244      8D273267 
 244      9CF29D1A 
 244      99
 245 0913 7F24DDD3 		.ascii	"\177$\335\323;\316\313+\325\013\273\371\036\022\220"
 245      3BCECB2B 
 245      D50BBBF9 
 245      1E1290
 246 0922 E69B0674 		.ascii	"\346\233\006t\000\3051K\261S\223'\373~V[\244\223\377"
 246      00C5314B 
 246      B1539327 
ARM GAS  /tmp/ccKXXJYw.s 			page 19


 246      FB7E565B 
 246      A493FF
 247 0935 E55FA42F 		.ascii	"\345_\244/\033\240\321\321b\371;\230^\376\336\243\243"
 247      1BA0D1D1 
 247      62F93B98 
 247      5EFEDEA3 
 247      A3
 248 0946 FED0A1E3 		.ascii	"\376\320\241\343*\365\213\220\372\3256\324\333\002q"
 248      2AF58B90 
 248      FAD536D4 
 248      DB0271
 249 0955 CC7AEC92 		.ascii	"\314z\354\222\312\246\375`\203J{\312\021\355\275G\214"
 249      CAA6FD60 
 249      834A7BCA 
 249      11EDBD47 
 249      8C
 250 0966 917D471A 		.ascii	"\221}G\032wx[\214\203G0\030\323`\327m\006s\265\301\220"
 250      77785B8C 
 250      83473018 
 250      D360D76D 
 250      0673B5C1 
 251 097b 95C314EC 		.ascii	"\225\303\024\354$^\300\357u\015\0264Pv\354\025\343-"
 251      245EC0EF 
 251      750D1634 
 251      5076EC15 
 251      E32D
 252 098d 7AAF13BC 		.ascii	"z\257\023\274\034\227\005\347\217\350.\013\372]\203"
 252      1C9705E7 
 252      8FE82E0B 
 252      FA5D83
 253 099c 1989FB46 		.ascii	"\031\211\373F\017v\302\011\230\325\311\275\325\243W"
 253      0F76C209 
 253      98D5C9BD 
 253      D5A357
 254 09ab 129E5DEA 		.ascii	"\022\236]\352!A\375\025\017\011\272m\230/\307\274\035"
 254      2141FD15 
 254      0F09BA6D 
 254      982FC7BC 
 254      1D
 255 09bc F3559877 		.ascii	"\363U\230wx\014k\307si+\261T\305|*!+\233\355\315\303"
 255      780C6BC7 
 255      73692BB1 
 255      54C57C2A 
 255      212B9BED 
 256 09d2 6A7708C6 		.ascii	"jw\010\306}\272\226\235\215:\274\026\315\343R~\3630"
 256      7DBA969D 
 256      8D3ABC16 
 256      CDE3527E 
 256      F330
 257 09e4 EFBFE716 		.ascii	"\357\277\347\026\221.\235Y\346\321\177k\266j\036\235"
 257      912E9D59 
 257      E6D17F6B 
 257      B66A1E9D 
 258 09f4 0ECC0376 		.ascii	"\016\314\003v\314\251e\316n\254\323\343\377\231\216"
 258      CCA965CE 
 258      6EACD3E3 
 258      FF998E
ARM GAS  /tmp/ccKXXJYw.s 			page 20


 259 0a03 914327B5 		.ascii	"\221C'\265s\261\365\310H{Q\376wH\014@`\347\330\345\255"
 259      73B1F5C8 
 259      487B51FE 
 259      77480C40 
 259      60E7D8E5 
 260 0a18 6C46CE69 		.ascii	"lF\316i\214\274\345\210\221\267S\232\366\277\351!:\366"
 260      8CBCE588 
 260      91B7539A 
 260      F6BFE921 
 260      3AF6
 261 0a2a 5E1A7758 		.ascii	"^\032wX\233Se\333!TX\012\266\3335\230Q\373\267\037r"
 261      9B5365DB 
 261      2154580A 
 261      B6DB3598 
 261      51FBB71F 
 262 0a3f FB0E49EA 		.ascii	"\373\016I\352\320\346\207q\243\373\216\2078\232\217"
 262      D0E68771 
 262      A3FB8E87 
 262      389A8F
 263 0a4e 8BCC2B83 		.ascii	"\213\314+\203amt\373\235\360a\177 \002R\371z\261\305"
 263      616D74FB 
 263      9DF0617F 
 263      200252F9 
 263      7AB1C5
 264 0a61 7951DE95 		.ascii	"yQ\336\225N*5P\253\256t\024\234\320\223Y\374\344[\351"
 264      4E2A3550 
 264      ABAE7414 
 264      9CD09359 
 264      FCE45BE9 
 265 0a75 809DBA26 		.ascii	"\200\235\272&>h\"\376\362\253\332u*\356-\2568\001\264"
 265      3E6822FE 
 265      F2ABDA75 
 265      2AEE2DAE 
 265      3801B4
 266 0a88 7290568F 		.ascii	"r\220V\217^\207!\326\240\033\332\202\356f+\346\3330"
 266      5E8721D6 
 266      A01BDA82 
 266      EE662BE6 
 266      DB30
 267 0a9a EFC2FC03 		.ascii	"\357\302\374\003\217\203\335\000\321\2744\366\377x8"
 267      8F83DD00 
 267      D1BC34F6 
 267      FF7838
 268 0aa9 D5DC87A7 		.ascii	"\325\334\207\247\31573\332\314\263o\273\0063j\363\202"
 268      CD3733DA 
 268      CCB36FBB 
 268      06336AF3 
 268      82
 269 0aba 23DA968F 		.ascii	"#\332\226\217('\317\356p\202\227\343\230m=\215\015T"
 269      2827CFEE 
 269      708297E3 
 269      986D3D8D 
 269      0D54
 270 0acc D36FA61D 		.ascii	"\323o\246\035\233K)[\013\245S'\224\377F\241\274\201"
 270      9B4B295B 
 270      0BA55327 
 270      94FF46A1 
ARM GAS  /tmp/ccKXXJYw.s 			page 21


 270      BC81
 271 0ade 22E8C67C 		.ascii	"\"\350\306|'\346\273\214\361\240\261\330\024\017\214"
 271      27E6BB8C 
 271      F1A0B1D8 
 271      140F8C
 272 0aed BED72A3C 		.ascii	"\276\327*<\351\347GV\336\035\000~\234\237\342\234\323"
 272      E9E74756 
 272      DE1D007E 
 272      9C9FE29C 
 272      D3
 273 0afe 4E71F6A0 		.ascii	"Nq\366\240\017}\271\330\365)\316r\354\262?{\255tJ[+"
 273      0F7DB9D8 
 273      F529CE72 
 273      ECB23F7B 
 273      AD744A5B 
 274 0b13 EDCFEF43 		.ascii	"\355\317\357Cg\325+\233[_\313\004\203\372\264q\317\345"
 274      67D52B9B 
 274      5B5FCB04 
 274      83FAB471 
 274      CFE5
 275 0b25 EC57FE86 		.ascii	"\354W\376\206\033\3717\322t\270\324Rk\331\355\327\311"
 275      1BF937D2 
 275      74B8D452 
 275      6BD9EDD7 
 275      C9
 276 0b36 EE6394DD 		.ascii	"\356c\224\335\001\243\244\266\232%e5\236\341\224\306"
 276      01A3A4B6 
 276      9A256535 
 276      9EE194C6 
 277 0b46 28A84F06 		.ascii	"(\250O\006\264\265!}\005\362]3\236\361\205G\265h{R#"
 277      B4B5217D 
 277      05F25D33 
 277      9EF18547 
 277      B5687B52 
 278 0b5b 2B036E24 		.ascii	"+\003n$\277\342\2133\217\323\327\004Q\356\177r+w\214"
 278      BFE28B33 
 278      8FD3D704 
 278      51EE7F72 
 278      2B778C
 279 0b6e 0226992B 		.ascii	"\002&\231+\027\204 \255u\020\372O\341a\271\213\275\364"
 279      178420AD 
 279      7510FA4F 
 279      E161B98B 
 279      BDF4
 280 0b80 26F5F0F5 		.ascii	"&\365\360\365\030Z\352P\361\367\022\223\346\214dUF\276"
 280      185AEA50 
 280      F1F71293 
 280      E68C6455 
 280      46BE
 281 0b92 17A539AA 		.ascii	"\027\2459\252S\232\317Pi\006\214J\363\322H\007J\223"
 281      539ACF50 
 281      69068C4A 
 281      F3D24807 
 281      4A93
 282 0ba4 B0551A08 		.ascii	"\260U\032\010#\247\036\257\225\225\226\011\332\306\021"
 282      23A71EAF 
 282      95959609 
ARM GAS  /tmp/ccKXXJYw.s 			page 22


 282      DAC611
 283 0bb3 B660EA1C 		.ascii	"\266`\352\034*\015r#[\273\341\236tO\303\336\"\363\276"
 283      2A0D7223 
 283      5BBBE19E 
 283      744FC3DE 
 283      22F3BE
 284 0bc6 DD4FD7E1 		.ascii	"\335O\327\341\211\304\0278\215\013FZ\276\374\341\010"
 284      89C41738 
 284      8D0B465A 
 284      BEFCE108 
 285 0bd6 ABB7610D 		.ascii	"\253\267a\015}A\364\014B\265\335\006\324\265\235\237"
 285      7D41F40C 
 285      42B5DD06 
 285      D4B59D9F 
 286 0be6 69AF887E 		.ascii	"i\257\210~\205`\257\2164\2137`\222n\300(\335@ S\030"
 286      8560AF8E 
 286      348B3760 
 286      926EC028 
 286      DD402053 
 287 0bfb D21EF37B 		.ascii	"\322\036\363{\"?`\037\2259e\244\306\335aV\0058\345q"
 287      223F601F 
 287      953965A4 
 287      C6DD6156 
 287      0538E571 
 288 0c0f FBF396AF 		.ascii	"\373\363\226\257=\326?o\371IZ\215\326\233\325\3104\256"
 288      3DD63F6F 
 288      F9495A8D 
 288      D69BD5C8 
 288      34AE
 289 0c21 5AAE71AC 		.ascii	"Z\256q\254\270M:\305]\210\212\333\214\321i\015\346="
 289      B84D3AC5 
 289      5D888ADB 
 289      8CD1690D 
 289      E63D
 290 0c33 987F8AF9 		.ascii	"\230\177\212\371a\314O\032\325\272+-.-j\031O\003\310"
 290      61CC4F1A 
 290      D5BA2B2D 
 290      2E2D6A19 
 290      4F03C8
 291 0c46 10178C27 		.ascii	"\020\027\214'\024\355\344X\345\364*v\241\325\261\212"
 291      14EDE458 
 291      E5F42A76 
 291      A1D5B18A 
 292 0c56 E16CCEB8 		.ascii	"\341l\316\270h\307\263>\327Sz\331fJ\275i\026\3367\263"
 292      68C7B33E 
 292      D7537AD9 
 292      664ABD69 
 292      16DE37B3 
 293 0c6a 903DEC15 		.ascii	"\220=\354\025#\007\353\225\301\276\027O\177\314.\222"
 293      2307EB95 
 293      C1BE174F 
 293      7FCC2E92 
 294 0c7a 651307E4 		.ascii	"e\023\007\344*\336p2\244\271S\320\360\034\333\252\217"
 294      2ADE7032 
 294      A4B953D0 
 294      F01CDBAA 
 294      8F
ARM GAS  /tmp/ccKXXJYw.s 			page 23


 295 0c8b 8084BCBB 		.ascii	"\200\204\274\273/\236\275\216+\236\033\346\200\273}"
 295      2F9EBD8E 
 295      2B9E1BE6 
 295      80BB7D
 296 0c9a FFF6B168 		.ascii	"\377\366\261h\2167\2349\340[\273\350me#\236\376\365"
 296      8E379C39 
 296      E05BBBE8 
 296      6D65239E 
 296      FEF5
 297 0cac 22FB3786 		.ascii	"\"\3737\206\275\306\273q\006\341L+\363m6+sB\236\354"
 297      BDC6BB71 
 297      06E14C2B 
 297      F36D362B 
 297      73429EEC 
 298 0cc0 D505EFC3 		.ascii	"\325\005\357\303\256\207\017\032\206'\227\245\024\222"
 298      AE870F1A 
 298      862797A5 
 298      1492
 299 0cce 63069C60 		.ascii	"c\006\234`\345X\021~\247\303:\355\032+\230e[T\016<{"
 299      E558117E 
 299      A7C33AED 
 299      1A2B9865 
 299      5B540E3C 
 300 0ce3 0B2D6708 		.ascii	"\013-g\010\363:/\311gy\363.\305M\023z\315\206\022<\273"
 300      F33A2FC9 
 300      6779F32E 
 300      C54D137A 
 300      CD86123C 
 301 0cf8 F41699C6 		.ascii	"\364\026\231\306\266\362\270\3513G\242\244\264\223u"
 301      B6F2B8E9 
 301      3347A2A4 
 301      B49375
 302 0d07 339E9DE3 		.ascii	"3\236\235\343ukf\215^k3\323;\325L+\362b\212\331\352"
 302      756B668D 
 302      5E6B33D3 
 302      3BD54C2B 
 302      F2628AD9 
 303 0d1c B28898EB 		.ascii	"\262\210\230\353\245F\367\030\363\226\334\250\300\372"
 303      A546F718 
 303      F396DCA8 
 303      C0FA
 304 0d2a E22A187F 		.ascii	"\342*\030\177Zn\377\311\\\227[d\260\303\257&R^\210a"
 304      5A6EFFC9 
 304      5C975B64 
 304      B0C3AF26 
 304      525E8861 
 305 0d3e 9EFFA372 		.ascii	"\236\377\243r\245a\031,\256`\323\367\035\230%\2356\216"
 305      A561192C 
 305      AE60D3F7 
 305      1D98259D 
 305      368E
 306 0d50 B99EE5A5 		.ascii	"\271\236\345\245\014\226EF\233\017\243\335\313\324\227"
 306      0C964546 
 306      9B0FA3DD 
 306      CBD497
 307 0d5f 2C930B75 		.ascii	",\223\013u\243N\241\010T\204tH\345j7k\365\243\312`\213"
 307      A34EA108 
ARM GAS  /tmp/ccKXXJYw.s 			page 24


 307      54847448 
 307      E56A376B 
 307      F5A3CA60 
 308 0d74 F1474435 		.ascii	"\361GD5\332\010\243\324\021\026\272\236\324f\233I-\311"
 308      DA08A3D4 
 308      1116BA9E 
 308      D4669B49 
 308      2DC9
 309 0d86 A9383CBB 		.ascii	"\2518<\273 \243\017\3672\213\200\245\226)\231\341\251"
 309      20A30FF7 
 309      328B80A5 
 309      962999E1 
 309      A9
 310 0d97 22921ED4 		.ascii	"\"\222\036\324\016\251J\352\277\023\345$\2746\312\312"
 310      0EA94AEA 
 310      BF13E524 
 310      BC36CACA 
 311 0da7 CD025A6D 		.ascii	"\315\002Zm\374A\230:.\235CM\371L\372\332\230\021V\026"
 311      FC41983A 
 311      2E9D434D 
 311      F94CFADA 
 311      98115616 
 312 0dbb 7D4BBCD6 		.ascii	"}K\274\326\277\306\244\247\316v\275R\266\275\310\225"
 312      BFC6A4A7 
 312      CE76BD52 
 312      B6BDC895 
 313 0dcb 8D5DAF16 		.ascii	"\215]\257\026\333^\227rP\270\324\266\327\305\034c\275"
 313      DB5E9772 
 313      50B8D4B6 
 313      D7C51C63 
 313      BD
 314 0ddc 62DBAB27 		.ascii	"b\333\253'\207;l\265\355\2653G\2576\333^;r\364Z\226"
 314      873B6CB5 
 314      EDB53347 
 314      AF36DB5E 
 314      3B72F45A 
 315 0df1 E9A5FEE0 		.ascii	"\351\245\376\340q\361\272\276\3227\311\257 \310=Y\355"
 315      71F1BABE 
 315      D237C9AF 
 315      20C83D59 
 315      ED
 316 0e02 ACDF99AE 		.ascii	"\254\337\231\256_\372r\\\277\254\360f_\322u\224\230"
 316      5FFA725C 
 316      BFACF066 
 316      5FD27594 
 316      98
 317 0e13 6F28F0D7 		.ascii	"o(\360\327\205u\362\306\265\344\307\222\364\336\212"
 317      8575F2C6 
 317      B5E4C792 
 317      F4DE8A
 318 0e22 67977BAD 		.ascii	"g\227{\255\177)\251\342\265{\255~\003\271\275\247M\375"
 318      7F29A9E2 
 318      B57BAD7E 
 318      03B9BDA7 
 318      4DFD
 319 0e34 0D64973C 		.ascii	"\015d\227<\256\220\212\202c\266\344\036\221\276w\310"
 319      AE908A82 
ARM GAS  /tmp/ccKXXJYw.s 			page 25


 319      63B6E41E 
 319      91BE77C8 
 320 0e44 B3AB728F 		.ascii	"\263\253r\217\270\3328\342\317\231\327Hd\355\35397f"
 320      B8DA38E2 
 320      CF99D748 
 320      64EDEB39 
 320      3766
 321 0e56 695361D6 		.ascii	"iSa\326\333\213YsNn\242\354\246\3515\235w\366\206+x"
 321      DB8B5973 
 321      4E6EA2EC 
 321      A6E9359D 
 321      77F6862B 
 322 0e6b B1E0C97F 		.ascii	"\261\340\311\177\372Cp*\3637\245UI\2614)\206K\303\025"
 322      FA43702A 
 322      F337A555 
 322      49B13429 
 322      864BC315 
 323 0e7f 91699178 		.ascii	"\221i\221x\262\024\376D\2514\021\027\245d\351\357~\377"
 323      B214FE44 
 323      A9341117 
 323      A564E9EF 
 323      7EFF
 324 0e91 D4D4A76A 		.ascii	"\324\324\247jJ\303\361h\"R)\210\311\322'\247N\205\206"
 324      4AC3F168 
 324      22522988 
 324      C9D227A7 
 324      4E8586
 325 0ea4 D2CC8490 		.ascii	"\322\314\204\220\034_\301\370\242\311\362\220t?BDb\341"
 325      1C5FC1F8 
 325      A2C9F290 
 325      743F4244 
 325      62E1
 326 0eb6 CAAA32A1 		.ascii	"\312\2522\2414&TWF\246\225&g&KCI\251,\022\223\240\241"
 326      34265457 
 326      46A69526 
 326      67264B43 
 326      49A92C12 
 327 0ecd 1F3E7EF5 		.ascii	"\037>~\365\227!\351Q\253\246Q\036\206\216\011\245\241"
 327      9721E951 
 327      ABA6511E 
 327      868E09A5 
 327      A1
 328 0ede 32613A5F 		.ascii	"2a:_U)\2054\370@(\244\366\373\213,*%!)\021:\311'P1>"
 328      55298534 
 328      F84028A4 
 328      F6FB8B2C 
 328      2A252129 
 329 0ef9 CC144815 		.ascii	"\314\024H\025\242\300\227\261\211b\370>1$\324\010\341"
 329      A2C097B1 
 329      8962F83E 
 329      3124D408 
 329      E1
 330 0f0a 2A4908E6 		.ascii	"*I\010\346\354Ix\010\375m<^yg\210|\015\361\311\244 "
 330      EC497808 
 330      FD6D3C5E 
 330      7967887C 
 330      0DF1C9A4 
ARM GAS  /tmp/ccKXXJYw.s 			page 26


 331 0f1f 4AA1A4F0 		.ascii	"J\241\244\360\\\225\020\013\013\243\260R\210F\200\246"
 331      5C95100B 
 331      0BA3B052 
 331      884680A6 
 332 0f2f F8B342EC 		.ascii	"\370\263B\354\3476\223\2451\024\256 \244T0\217\344m"
 332      E73693A5 
 332      3114AE20 
 332      A454308F 
 332      E46D
 333 0f41 07D3A371 		.ascii	"\007\323\243qYH\351\016I\201pE\210\226\037\312\337?"
 333      5948E90E 
 333      49817045 
 333      88961FCA 
 333      DF3F
 334 0f53 5C51067D 		.ascii	"\\Q\006}\013\022\241\230P#\301GB\024f\370\245\204\030"
 334      0B12A198 
 334      5023C147 
 334      421466F8 
 334      A58418
 335 0f66 8987A4C2 		.ascii	"\211\207\244\302*u\332F\204BZ\021\233D\342\376p<&A\217"
 335      2A75DA46 
 335      84425A11 
 335      9B44E2FE 
 335      703C2641 
 336 0f7b 471D89BD 		.ascii	"G\035\211\275\"\034\027\005\030\246\210T\023Y\204\245"
 336      221C1705 
 336      18A68854 
 336      135984A5 
 337 0f8b 9A89CE7B 		.ascii	"\232\211\316{\206f<\036%\014\212B9/FC\022'>\306\211"
 337      86663C1E 
 337      250C8A42 
 337      392F4643 
 337      12273EC6 
 338 0fa0 7FC589BF 		.ascii	"\177\305\211\277\346\304\3079q\022'\376\265G\2348\001"
 338      E6C4C739 
 338      711227FE 
 338      B5479C38 
 338      01
 339 0fb1 D244AE52 		.ascii	"\322D\256R\204\217_\371\022!\030\301O\230\252\026D\370"
 339      848F5FF9 
 339      122118C1 
 339      4F98AA16 
 339      44F8
 340 0fc3 8C579609 		.ascii	"\214W\226\011\"a\222\217\012\205RR\342%!$\371\011O\223"
 340      2261928F 
 340      0A855252 
 340      E2252124 
 340      F9094F93 
 341 0fd7 60BE2877 		.ascii	"`\276(wP\202\226\370?\277\024\215\227\011\370}z%_\236"
 341      508296F8 
 341      3FBF148D 
 341      9709F87D 
 341      7A255F9E 
 342 0feb F44BA230 		.ascii	"\364K\2420=\211\314\223B\201X6\023\004T(\324D\24404"
 342      3D89CC93 
 342      42815836 
 342      13045428 
ARM GAS  /tmp/ccKXXJYw.s 			page 27


 342      D444A430 
 343 1000 2CA896E2 		.ascii	",\250\226\342\323\376=q\207*\000h\"\210D\354!\311W-"
 343      D3FE3D71 
 343      872A0068 
 343      228844EC 
 343      21C9572D 
 344 1014 4962A218 		.ascii	"Ib\242\030\004\222\024\242|\242\002\230\311/{h\012\334"
 344      049214A2 
 344      7CA20298 
 344      C92F7B68 
 344      0ADC
 345 1026 8EA268C9 		.ascii	"\216\242h\311\020\250P\025@\215NKU\255\362\253\237\276"
 345      10A85015 
 345      408D4E4B 
 345      55ADF2AB 
 345      9FBE
 346 1038 700CD4CA 		.ascii	"p\014\324\312\227\014\301'P\002\275\023\205\3206\012"
 346      970CC127 
 346      5002BD13 
 346      85D0360A 
 347 1048 4A5BE340 		.ascii	"J[\343@\321\244\032bWQ\0253\032\212W\307`\312\26070"
 347      D1A41A62 
 347      57511533 
 347      1A8A57C7 
 347      60CAB037 
 348 105d 1CA57A51 		.ascii	"\034\245zQ-A\273D\2210C\210IQ>\371,\374G\250&\005O\""
 348      2D41BB44 
 348      91304388 
 348      49513EF9 
 348      2CFC47A8 
 349 1075 5455A291 		.ascii	"TU\242\221U\031\001-\227F\351\010%5\201D\250\232\217"
 349      5519012D 
 349      9746E908 
 349      25358144 
 349      A89A8F
 350 1088 489158F9 		.ascii	"H\221X\371\210D\010\246\215\022\215E\250\020\022B\014"
 350      884408A6 
 350      8D128D45 
 350      A8101242 
 350      0C
 351 1099 8CBB1C5A 		.ascii	"\214\273\034Z\301\020\244\375\0102\311|%j\031T&\300"
 351      C110A4FD 
 351      0832C97C 
 351      256A1954 
 351      26C0
 352 10ab AA60029F 		.ascii	"\252`\002\237J\226\377^\250\024\370\244\020\300/\377"
 352      4A96FF5E 
 352      A814F8A4 
 352      10C02FFF 
 353 10bb 0A90BFCC 		.ascii	"\012\220\277\314\313\235J\007p8\001\333\0227Q\036\016"
 353      CB9D4A07 
 353      703801DB 
 353      1237511E 
 353      0E
 354 10cc 97821A3D 		.ascii	"\227\202\032=\032\213\307\204G\005~Z\244\364\261\361"
 354      1A8BC784 
 354      47057E5A 
ARM GAS  /tmp/ccKXXJYw.s 			page 28


 354      A4F4B1F1 
 355 10dc 93D27DC0 		.ascii	"\223\322}\300\325\200\373 &\221\214\374\007Q\001izU"
 355      D580FB20 
 355      26918CFC 
 355      07510169 
 355      7A55
 356 10ee 2C1C92C6 		.ascii	",\034\222\306\204+\376\245\242l*\300I\302\323\240#\221"
 356      842BFEA5 
 356      A26C2AC0 
 356      49C2D3A0 
 356      2391
 357 1100 30A5E369 		.ascii	"0\245\343i \237\253\346\213\210\210\301\026\205(\265"
 357      209FABE6 
 357      8B8888C1 
 357      168528B5 
 358 1110 3F5A2E26 		.ascii	"?Z.&\243\317T\347e$Tg\276\373E:\343\005\"\332\223OD"
 358      A3CF54E7 
 358      65245467 
 358      BEFB453A 
 358      E30522DA 
 359 1127 8D15558D 		.ascii	"\215\025U\215\025\251\306\006\240\266J\004]\222|\"\351"
 359      15A9C606 
 359      A0B64A04 
 359      5D927C22 
 359      E9
 360 1138 74E78C88 		.ascii	"t\347\214\210(U\361\225!)\022\005/\252\002\337\005\300"
 360      2855F195 
 360      21291205 
 360      2FAA02DF 
 360      05C0
 361 114a 16FF1865 		.ascii	"\026\377\030e\250\243\012d\250\362\317\220P\272\344"
 361      A8A30A64 
 361      A8F2CF90 
 361      50BAE4
 362 1159 93987D80 		.ascii	"\223\230}\200\020\015\377\000\303\207\2322\241R\342"
 362      100DFF00 
 362      C3879A32 
 362      A152E2
 363 1168 A140D927 		.ascii	"\241@\331'mH\251\200\264\345\305\"\370\250\344\223\022"
 363      6D48A980 
 363      B4E5C522 
 363      F8A8E493 
 363      12
 364 1179 690E5564 		.ascii	"i\016Ud\270\022\225\3752aZU9\325\002}M \301\307\"a\""
 364      B81295FD 
 364      32615A55 
 364      39D5027D 
 364      4D20C1C7 
 365 1190 744FD9B4 		.ascii	"tO\331\264\362\021Q\036,\016\205\363`~!\022s\030-EC"
 365      F211511E 
 365      2C0E85F3 
 365      607E2112 
 365      73182D45 
 366 11a5 611EE427 		.ascii	"a\036\344'\302\334\307c@\221(\241\342\027\304\247OO"
 366      C2DCC763 
 366      409128A1 
 366      E217C4A7 
ARM GAS  /tmp/ccKXXJYw.s 			page 29


 366      4F4F
 367 11b7 0A122745 		.ascii	"\012\022'EG$\245g\241EyL\365\\\277~,\355\271H\261$R"
 367      4724A567 
 367      A145794C 
 367      F55CBF7E 
 367      2CEDB948 
 368 11ce 5629A89A 		.ascii	"V)\250\232\011\032\311\205+\374\252z\024\022\367\034"
 368      091AC985 
 368      2BFCAA7A 
 368      1412F71C 
 369 11de 06D5F212 		.ascii	"\006\325\362\022\377\340\003\264\252\004\324\361b\031"
 369      FFE003B4 
 369      AA04D4F1 
 369      6219
 370 11ec 18835F0D 		.ascii	"\030\203_\015\000#\022\274$\011b\214\030\276\032,&\216"
 370      002312BC 
 370      2409628C 
 370      18BE1A2C 
 370      268E
 371 11fe 1E2FC6CB 		.ascii	"\036/\306\313x\211\037\257U\214zJH&\371r!\371H\2602"
 371      78891FAF 
 371      558C7A4A 
 371      4826F972 
 371      21F948B0 
 372 1213 1E4F3054 		.ascii	"\036O0Tk\236\024\244\177\006\031\213\021i\3463#\265"
 372      6B9E14A4 
 372      7F06198B 
 372      1169E633 
 372      23B5
 373 1225 9AA785CA 		.ascii	"\232\247\205\312\351\317\374\037\250<\022u"
 373      E9CFFC1F 
 373      A83C1275 
 374              		.text
 375              		.section	.gnu.lto_.symtab.cd2b05d61250d9d5,"",%progbits
 376 0000 70617474 		.ascii	"patternmsg\000\000\000\000\000\000\000\000\000\000\000"
 376      65726E6D 
 376      73670000 
 376      00000000 
 376      00000000 
 377 0015 00F60100 		.ascii	"\000\366\001\000\000testmsg1\000\000\000\000\000\000"
 377      00746573 
 377      746D7367 
 377      31000000 
 377      000000
 378 0028 00000000 		.ascii	"\000\000\000\000\000\000\014\002\000\000wa\000\000\002"
 378      00000C02 
 378      00007761 
 378      000002
 379 0037 00000000 		.ascii	"\000\000\000\000\000\000\000\000\000\207\001\000\000"
 379      00000000 
 379      00870100 
 379      00
 380 0044 63680000 		.ascii	"ch\000\000\002\000\000\000\000\000\000\000\000\000\214"
 380      02000000 
 380      00000000 
 380      00008C
 381 0053 01000074 		.ascii	"\001\000\000threads\000\000\002\000\000\000\000\000"
ARM GAS  /tmp/ccKXXJYw.s 			page 30


 381      68726561 
 381      64730000 
 381      02000000 
 381      0000
 382 0065 00000000 		.ascii	"\000\000\000\000\362\001\000\000_test_assert_sequen"
 382      F2010000 
 382      5F746573 
 382      745F6173 
 382      73657274 
 383 0080 63650000 		.ascii	"ce\000\000\002\000\000\000\000\000\000\000\000\000\275"
 383      02000000 
 383      00000000 
 383      0000BD
 384 008f 00000074 		.ascii	"\000\000\000test_emit_token\000\000\002\000\000\000"
 384      6573745F 
 384      656D6974 
 384      5F746F6B 
 384      656E0000 
 385 00a7 00000000 		.ascii	"\000\000\000\000\000\000\306\000\000\000chMsgReleas"
 385      0000C600 
 385      00006368 
 385      4D736752 
 385      656C6561 
 386 00bc 65000002 		.ascii	"e\000\000\002\000\000\000\000\000\000\000\000\000\312"
 386      00000000 
 386      00000000 
 386      00CA
 387 00ca 00000063 		.ascii	"\000\000\000chMsgWait\000\000\002\000\000\000\000\000"
 387      684D7367 
 387      57616974 
 387      00000200 
 387      00000000 
 388 00de 00000000 		.ascii	"\000\000\000\000q\001\000\000chThdCreateStatic\000\000"
 388      71010000 
 388      63685468 
 388      64437265 
 388      61746553 
 389 00f9 02000000 		.ascii	"\002\000\000\000\000\000\000\000\000\000t\001\000\000"
 389      00000000 
 389      00007401 
 389      0000
 390 0107 63684D73 		.ascii	"chMsgSend\000\000\002\000\000\000\000\000\000\000\000"
 390      6753656E 
 390      64000002 
 390      00000000 
 390      00000000 
 391 011b 00820100 		.ascii	"\000\202\001\000\000"
 391      00
 392              		.text
 393              		.section	.gnu.lto_.opts,"",%progbits
 394 0000 272D6D63 		.ascii	"'-mcpu=cortex-m4' '-mno-thumb-interwork' '-mthumb' "
 394      70753D63 
 394      6F727465 
 394      782D6D34 
 394      2720272D 
 395 0033 272D6767 		.ascii	"'-ggdb' '-O2' '-fomit-frame-pointer' '-falign-funct"
 395      64622720 
ARM GAS  /tmp/ccKXXJYw.s 			page 31


 395      272D4F32 
 395      2720272D 
 395      666F6D69 
 396 0066 696F6E73 		.ascii	"ions=16' '-ffunction-sections' '-fdata-sections' '-"
 396      3D313627 
 396      20272D66 
 396      66756E63 
 396      74696F6E 
 397 0099 666E6F2D 		.ascii	"fno-common' '-flto'\000"
 397      636F6D6D 
 397      6F6E2720 
 397      272D666C 
 397      746F2700 
 398              		.text
 399              		.cfi_sections	.debug_frame
 400              		.section	.text.msg1_execute,"ax",%progbits
 401              		.align	2
 402              		.p2align 4,,15
 403              		.thumb
 404              		.thumb_func
 405              		.type	msg1_execute, %function
 406              	msg1_execute:
 407              	.LFB230:
 408              		.file 1 "/usr/src/chibios/test/rt/testmsg.c"
 409              		.loc 1 66 0
 410              		.cfi_startproc
 411              		@ args = 0, pretend = 0, frame = 0
 412              		@ frame_needed = 0, uses_anonymous_args = 0
 413 0000 10B5     		push	{r4, lr}
 414              		.cfi_def_cfa_offset 8
 415              		.cfi_offset 4, -8
 416              		.cfi_offset 14, -4
 417              	.LBB16:
 418              	.LBB17:
 419              	.LBB18:
 420              	.LBB19:
 421              		.file 2 "/usr/src/chibios/os/rt/include/chthreads.h"
 422              		.loc 2 176 0
 423 0002 184A     		ldr	r2, .L2
 424              	.LBE19:
 425              	.LBE18:
 426              	.LBE17:
 427              	.LBE16:
 428              		.loc 1 73 0
 429 0004 184B     		ldr	r3, .L2+4
 430              	.LBB23:
 431              	.LBB22:
 432              	.LBB21:
 433              	.LBB20:
 434              		.loc 2 176 0
 435 0006 9169     		ldr	r1, [r2, #24]
 436              	.LBE20:
 437              	.LBE21:
 438              	.LBE22:
 439              	.LBE23:
 440              		.loc 1 73 0
 441 0008 1868     		ldr	r0, [r3]
ARM GAS  /tmp/ccKXXJYw.s 			page 32


 442 000a 8A68     		ldr	r2, [r1, #8]
 443 000c 174B     		ldr	r3, .L2+8
 444              		.loc 1 66 0
 445 000e 82B0     		sub	sp, sp, #8
 446              		.cfi_def_cfa_offset 16
 447              		.loc 1 73 0
 448 0010 0132     		adds	r2, r2, #1
 449 0012 0091     		str	r1, [sp]
 450 0014 4FF4A471 		mov	r1, #328
 451 0018 FFF7FEFF 		bl	chThdCreateStatic
 452              	.LVL0:
 453 001c 144B     		ldr	r3, .L2+12
 454 001e 1860     		str	r0, [r3]
 455              		.loc 1 75 0
 456 0020 FFF7FEFF 		bl	chMsgWait
 457              	.LVL1:
 458              		.loc 1 67 0
 459 0024 046B     		ldr	r4, [r0, #48]
 460              	.LVL2:
 461              		.loc 1 77 0
 462 0026 2146     		mov	r1, r4
 463 0028 FFF7FEFF 		bl	chMsgRelease
 464              	.LVL3:
 465              		.loc 1 78 0
 466 002c E0B2     		uxtb	r0, r4
 467 002e FFF7FEFF 		bl	test_emit_token
 468              	.LVL4:
 469              		.loc 1 79 0
 470 0032 FFF7FEFF 		bl	chMsgWait
 471              	.LVL5:
 472              		.loc 1 67 0
 473 0036 046B     		ldr	r4, [r0, #48]
 474              	.LVL6:
 475              		.loc 1 81 0
 476 0038 2146     		mov	r1, r4
 477 003a FFF7FEFF 		bl	chMsgRelease
 478              	.LVL7:
 479              		.loc 1 82 0
 480 003e E0B2     		uxtb	r0, r4
 481 0040 FFF7FEFF 		bl	test_emit_token
 482              	.LVL8:
 483              		.loc 1 83 0
 484 0044 FFF7FEFF 		bl	chMsgWait
 485              	.LVL9:
 486              		.loc 1 67 0
 487 0048 046B     		ldr	r4, [r0, #48]
 488              	.LVL10:
 489              		.loc 1 85 0
 490 004a 2146     		mov	r1, r4
 491 004c FFF7FEFF 		bl	chMsgRelease
 492              	.LVL11:
 493              		.loc 1 86 0
 494 0050 E0B2     		uxtb	r0, r4
 495 0052 FFF7FEFF 		bl	test_emit_token
 496              	.LVL12:
 497              		.loc 1 87 0
 498 0056 0749     		ldr	r1, .L2+16
ARM GAS  /tmp/ccKXXJYw.s 			page 33


 499 0058 0120     		movs	r0, #1
 500              		.loc 1 88 0
 501 005a 02B0     		add	sp, sp, #8
 502              		@ sp needed
 503 005c BDE81040 		pop	{r4, lr}
 504              		.loc 1 87 0
 505 0060 FFF7FEBF 		b	_test_assert_sequence
 506              	.LVL13:
 507              	.L3:
 508              		.align	2
 509              	.L2:
 510 0064 00000000 		.word	ch
 511 0068 00000000 		.word	wa
 512 006c 00000000 		.word	thread
 513 0070 00000000 		.word	threads
 514 0074 00000000 		.word	.LC0
 515              		.cfi_endproc
 516              	.LFE230:
 517              		.size	msg1_execute, .-msg1_execute
 518              		.section	.text.thread,"ax",%progbits
 519              		.align	2
 520              		.p2align 4,,15
 521              		.thumb
 522              		.thumb_func
 523              		.type	thread, %function
 524              	thread:
 525              	.LFB229:
 526              		.loc 1 59 0
 527              		.cfi_startproc
 528              		@ args = 0, pretend = 0, frame = 0
 529              		@ frame_needed = 0, uses_anonymous_args = 0
 530              	.LVL14:
 531 0000 10B5     		push	{r4, lr}
 532              		.cfi_def_cfa_offset 8
 533              		.cfi_offset 4, -8
 534              		.cfi_offset 14, -4
 535              		.loc 1 61 0
 536 0002 4121     		movs	r1, #65
 537              		.loc 1 59 0
 538 0004 0446     		mov	r4, r0
 539              		.loc 1 61 0
 540 0006 FFF7FEFF 		bl	chMsgSend
 541              	.LVL15:
 542              		.loc 1 62 0
 543 000a 2046     		mov	r0, r4
 544 000c 4221     		movs	r1, #66
 545 000e FFF7FEFF 		bl	chMsgSend
 546              	.LVL16:
 547              		.loc 1 63 0
 548 0012 2046     		mov	r0, r4
 549 0014 4321     		movs	r1, #67
 550              		.loc 1 64 0
 551 0016 BDE81040 		pop	{r4, lr}
 552              	.LVL17:
 553              		.loc 1 63 0
 554 001a FFF7FEBF 		b	chMsgSend
 555              	.LVL18:
ARM GAS  /tmp/ccKXXJYw.s 			page 34


 556              		.cfi_endproc
 557              	.LFE229:
 558              		.size	thread, .-thread
 559              		.global	patternmsg
 560              		.global	testmsg1
 561 001e 00BF     		.section	.rodata.testmsg1,"a",%progbits
 562              		.align	2
 563              		.type	testmsg1, %object
 564              		.size	testmsg1, 16
 565              	testmsg1:
 566 0000 04000000 		.word	.LC1
 567 0004 00000000 		.word	0
 568 0008 00000000 		.word	0
 569 000c 00000000 		.word	msg1_execute
 570              		.section	.rodata.str1.4,"aMS",%progbits,1
 571              		.align	2
 572              	.LC0:
 573 0000 41424300 		.ascii	"ABC\000"
 574              	.LC1:
 575 0004 4D657373 		.ascii	"Messages, loop\000"
 575      61676573 
 575      2C206C6F 
 575      6F7000
 576              		.section	.rodata.patternmsg,"a",%progbits
 577              		.align	2
 578              		.type	patternmsg, %object
 579              		.size	patternmsg, 8
 580              	patternmsg:
 581 0000 00000000 		.word	testmsg1
 582 0004 00000000 		.word	0
 583              		.text
 584              	.Letext0:
 585              		.file 3 "/usr/lib/gcc/arm-none-eabi/4.8/include/stddef.h"
 586              		.file 4 "/usr/include/newlib/machine/_default_types.h"
 587              		.file 5 "/usr/include/newlib/sys/_stdint.h"
 588              		.file 6 "/usr/src/chibios/os/rt/ports/ARMCMx/compilers/GCC/chtypes.h"
 589              		.file 7 "/usr/src/chibios/os/rt/include/chsystypes.h"
 590              		.file 8 "/usr/src/chibios/os/rt/include/chschd.h"
 591              		.file 9 "/usr/src/chibios/os/rt/ports/ARMCMx/chcore.h"
 592              		.file 10 "/usr/src/chibios/os/rt/ports/ARMCMx/chcore_v7m.h"
 593              		.file 11 "/usr/src/chibios/os/rt/include/chtm.h"
 594              		.file 12 "/usr/src/chibios/os/rt/include/chsem.h"
 595              		.file 13 "/usr/src/chibios/os/rt/include/chmtx.h"
 596              		.file 14 "/usr/src/chibios/test/rt/test.h"
 597              		.file 15 "/usr/src/chibios/os/ext/CMSIS/include/core_cm4.h"
 598              		.file 16 "/usr/src/chibios/os/rt/include/chmsg.h"