ARM GAS  /tmp/ccCXs8VA.s 			page 1


   1              		.syntax unified
   2              		.cpu cortex-m4
   3              		.fpu softvfp
   4              		.eabi_attribute 20, 1
   5              		.eabi_attribute 21, 1
   6              		.eabi_attribute 23, 3
   7              		.eabi_attribute 24, 1
   8              		.eabi_attribute 25, 1
   9              		.eabi_attribute 26, 1
  10              		.eabi_attribute 30, 2
  11              		.eabi_attribute 34, 1
  12              		.eabi_attribute 18, 4
  13              		.thumb
  14              		.file	"testmbox.c"
  15              		.text
  16              	.Ltext0:
  17              		.section	.gnu.lto_.jmpfuncs.f151c395481d8388,"",%progbits
  18 0000 789C9591 		.ascii	"x\234\225\221IZ\302@\020F\253:$\001\034@\234'\004\007"
  18      495AC240 
  18      1046AB3A 
  18      24011C40 
  18      9C270407 
  19 0014 5071B882 		.ascii	"Pq\270\202a\270\003kvYp\0027\275\364\010\331x\001\216"
  19      61B8036B 
  19      76597002 
  19      37BDF408 
  19      D978018E 
  20 0028 E846D331 		.ascii	"\350F\3231\026\377'\241\351d\223\367\245^U\245\377V"
  20      16FF27A1 
  20      E96493F7 
  20      A55E55A5 
  20      FF56
  21 003a A4A8E849 		.ascii	"\244\250\350I|\2420}\247U\245\246\0343\275\232\3179"
  21      7CA2307D 
  21      A755A5A6 
  21      1C33BD9A 
  21      CF39
  22 004c BF003F03 		.ascii	"\277\000?\003?\031f\365N_\372C7c\3469\023\224\007\300"
  22      3F1966F5 
  22      4E5FFA43 
  22      3763E639 
  22      139407C0 
  23 0060 8FC00FC0 		.ascii	"\217\300\017\300\367)\231\376\304\364\2536\361\247N"
  23      F72999FE 
  23      C4F4AB36 
  23      F1A74E
  24 006f DE62F6B2 		.ascii	"\336b\366\2629,Z\377\267ee\223\010=\340\2735rV\255D"
  24      392C5AFF 
  24      B7656593 
  24      083DE0BB 
  24      357256AD 
  25 0084 E2DD5ABD 		.ascii	"\342\335Z\275\241x7Vo$\336\265\325\033\213\327\265z"
  25      A1783756 
  25      6F24DEB5 
  25      D51B8BD7 
  25      B57A
  26 0096 13F13A70 		.ascii	"\023\361:p\246+\3406\360\245[~\027\233\362;\007>s\374"
ARM GAS  /tmp/ccCXs8VA.s 			page 2


  26      A62BE036 
  26      F0A55B7E 
  26      179BF23B 
  26      073E73FC 
  27 00aa BF53C7F3 		.ascii	"\277S\307\363\2368\346w\354x\037G\216\367{\010g:\000"
  27      9E38E677 
  27      EC781F47 
  27      8EF77B08 
  27      673A00
  28 00bd DE076E6D 		.ascii	"\336\007nm\012f\317\260W(\230\272\277\314\270\011]\015"
  28      0A66CFB0 
  28      572898BA 
  28      BFCCB809 
  28      5D0D
  29 00cf E05DFB84 		.ascii	"\340]\373\204\340;}\032b\357\224\262\267\335\256\177"
  29      E03B7D1A 
  29      62EF94B2 
  29      B7DDAE7F 
  30 00df ABD4D03A 		.ascii	"\253\324\320:\374|\015\270\012\034Z\357`*^\260f\363"
  30      FC7C0DB8 
  30      0A1C5AEF 
  30      602A5EB0 
  30      66F3
  31 00f1 D2FB97A2 		.ascii	"\322\373\227\242\3578\270Rv\260gm\210\212\243P\245\202"
  31      EF38B852 
  31      76B0676D 
  31      888AA350 
  31      A582
  32 0103 CB6AAA70 		.ascii	"\313j\252p\211|\011\007\264\320\332PU\2506g\236\345"
  32      897C0907 
  32      B4D0DA50 
  32      55A83667 
  32      9EE5
  33 0115 8367FCB7 		.ascii	"\203g\374\267!\337Q7\211\004\321p4\236\320\017\036,"
  33      21DF5137 
  33      8904D170 
  33      349ED00F 
  33      1E2C
  34 0127 D4CA     		.ascii	"\324\312"
  35              		.text
  36              		.section	.gnu.lto_.inline.f151c395481d8388,"",%progbits
  37 0000 789C6362 		.ascii	"x\234cb`b\300\006\362\240\302L\014,\013X\0362020\275"
  37      6062C006 
  37      F2A0C24C 
  37      0C2C0B58 
  37      1E323032 
  38 0016 626E38C0 		.ascii	"bn8\300\304\300\266@\036,\303\302\013\222\233\340\207"
  38      C4C0B640 
  38      1E2CC3C2 
  38      0B929BE0 
  38      87
  39 0027 8B66E266 		.ascii	"\213f\342f\000j\302\257\212\201\211\233\221\201\021"
  39      006AC2AF 
  39      8A81899B 
  39      918111
  40 0036 C463848A 		.ascii	"\304c\204\212\202h\034\232\030\250\307\035\254\356\300"
  40      82681C9A 
ARM GAS  /tmp/ccCXs8VA.s 			page 3


  40      18A8C71D 
  40      ACEEC0
  41 0045 50C6CAC7 		.ascii	"P\306\312\307\300\300\214'\260\321\345!\374\011~\014"
  41      C0C08C27 
  41      B0D1E521 
  41      FC097E0C 
  42 0055 D8FDC5CA 		.ascii	"\330\375\305\312\307\210\3278\222\\\201S\032\301G\266"
  42      C788D738 
  42      925C8153 
  42      1AC147B6 
  43 0065 15EE2860 		.ascii	"\025\356(`\322``\347\007\0070Jb\002ia\000\000G\0305"
  43      D26060E7 
  43      0707304A 
  43      62026961 
  43      00004718 
  44 007a FA       		.ascii	"\372"
  45              		.text
  46              		.section	.gnu.lto_.pureconst.f151c395481d8388,"",%progbits
  47 0000 789C6362 		.ascii	"x\234cb`b`e\200\000&\006+&\011\000\001f\000`"
  47      60626065 
  47      80002606 
  47      2B260900 
  47      01660060 
  48              		.text
  49              		.section	.gnu.lto_mbox1_execute.f151c395481d8388,"",%progbits
  50 0000 789CCD5D 		.ascii	"x\234\315]{TU\307\325\2379\367\362P@\020\004A\021Q\361"
  50      7B5455C7 
  50      D59F39F7 
  50      F2504010 
  50      04411151 
  51 0015 85088AC6 		.ascii	"\205\010\212\306\367\373U\323H\323\326\332\324|i\262"
  51      F7FB55D3 
  51      48D3D6DA 
  51      D47C69B2 
  52 0025 F086E06D 		.ascii	"\360\206\340mB\264\242MR\377\360*\242R\0371\306\022"
  52      42B4A24D 
  52      52FFF02A 
  52      A2521F31 
  52      C612
  53 0037 12636A8D 		.ascii	"\022cj\215\215\017R5\352\3623J\227\210Q\202/\242\313"
  53      8D0F5235 
  53      EAF2334A 
  53      97885182 
  53      2FA2CB
  54 004a 46AD34A1 		.ascii	"F\2554\241\346A\022\255\2174\222\324\344\223o\366>s"
  54      E64112AD 
  54      8F3492D4 
  54      E4936FF6 
  54      3E73
  55 005c CEB99733 		.ascii	"\316\271\2273\003\367\312\361,X\351\276w\3579{f~3\373"
  55      03F7CAF1 
  55      2C58E9BE 
  55      77EF397B 
  55      667E33FB 
  56 0070 378F7DAE 		.ascii	"7\217}\256\253\012QH\343\277ANBjf\023\362\020%\204>"
  56      AB0A5148 
  56      E3BF414E 
ARM GAS  /tmp/ccCXs8VA.s 			page 4


  56      426A6613 
  56      F2102584 
  57 0085 4CA8B2F6 		.ascii	"L\250\262\366\014!\213C\025\305\261\2427\361\264u\202"
  57      0C218B43 
  57      15C5B1A2 
  57      37F1B475 
  57      82
  58 0096 0C77D02C 		.ascii	"\014w\320,\325\354\244!\352\227 %\253\302\301\312\203"
  58      D5ECA421 
  58      EA972025 
  58      ABC2C1CA 
  58      83
  59 00a7 CF9C20EC 		.ascii	"\317\234 \354\201`\325~$4D\011*\037\303\354\241\037"
  59      8160D57E 
  59      24344409 
  59      2A1FC3EC 
  59      A11F
  60 00b9 443273A8 		.ascii	"D2s\250\222U6\224im\316\3071\255\015\327\332\242\326"
  60      92553694 
  60      696DCEC7 
  60      31AD0DD7 
  60      DAA2D6
  61 00cc 966B61A8 		.ascii	"\226ka\250\205q-\034\265p\256E\240\026\241\264C-\022"
  61      85712D1C 
  61      B570AE45 
  61      A016A1B4 
  61      432D12
  62 00df B5765A5F 		.ascii	"\265vZ_\"\225(4\267Gs\224fn\257Dc\317c\260\347\321\232"
  62      22952834 
  62      B7477394 
  62      666EAF44 
  62      63CF63B0 
  63 00f6 3986C6A9 		.ascii	"9\206\306\251_:\360\236\307\252=\217U\355GB\343\224"
  63      5F3AF09E 
  63      C7AA3D8F 
  63      55ED4742 
  63      E394
  64 0108 0EAB8F30 		.ascii	"\016\253\2170K\333\216\005\021\314\336\221w!\036k\217"
  64      4BDB8E05 
  64      11CCDE91 
  64      77211E6B 
  64      8F
  65 0119 E75A026A 		.ascii	"\347Z\002j\011\\\353\204Z'\256uF\2553\327\022QK\344"
  65      095CEB84 
  65      5A27AE75 
  65      46AD33D7 
  65      12514BE4 
  66 012d 5A17D4BA 		.ascii	"Z\027\324\272p-\011\265$\245+j\311\250u\325:\232\254"
  66      702D09B5 
  66      24A52B6A 
  66      C9A875D5 
  66      3A9AAC
  67 0140 74437377 		.ascii	"tCsw4w\323\314\335\225\036hNAs\017\315\234\302\253\354"
  67      3477D3CC 
  67      DD951E68 
  67      4E41730F 
  67      CD9CC2AB 
ARM GAS  /tmp/ccCXs8VA.s 			page 5


  68 0155 89E69E5C 		.ascii	"\211\346\236\\\353\205Z/\256\365F\2557\327\372\240\326"
  68      EB855A2F 
  68      AEF546AD 
  68      37D7FAA0 
  68      D6
  69 0166 876B7D51 		.ascii	"\207k}Q\353\253d\341\230\245\342\230\245\322\376P9\355"
  69      EBAB64E1 
  69      98A5E298 
  69      A5D2FE50 
  69      39ED
  70 0178 C7472A4D 		.ascii	"\307G*M\035\2514\325|$\264\277\322O\035\251t\034\251"
  70      1DA934D5 
  70      7C24B4BF 
  70      D24F1DA9 
  70      741CA9
  71 018b 745E5506 		.ascii	"t^U\006V\225\241\014@m j\003\264~\016T2\321<\010\315"
  71      5695A10C 
  71      406D206A 
  71      03B47E0E 
  71      5432D13C 
  72 01a1 999A7910 		.ascii	"\231\232y\020\367\035\214\346\301\\{\000\265\007\270"
  72      F71D8CE6 
  72      C15C7B00 
  72      B507B8
  73 01b0 3604B521 		.ascii	"6\004\265!\\\033\212\332P\256\015Cm\030\327\206\243"
  73      5C1B8ADA 
  73      50AE0D43 
  73      6D18D786 
  73      A3
  74 01c1 369C8319 		.ascii	"6\234\203\031\201`F\320\321\010f$\0073J\0053J5\037\011"
  74      816046D0 
  74      D1086624 
  74      07334A05 
  74      334A351F 
  75 01d6 1DAD8C54 		.ascii	"\035\255\214T\301\214A0cxUc\261\252\261\3128\324\306"
  75      C18C4130 
  75      63785563 
  75      B1AAB1CA 
  75      38D4C6
  76 01e9 A3564EB4 		.ascii	"\243VN\264n\037!\312\004,\230\210\005\025z\301Q\302"
  76      6E1F21CA 
  76      042C9888 
  76      05157AC1 
  76      51C2
  77 01fb FD2761C1 		.ascii	"\375'a\301{D\231\214\352\024T\217\351\317\035'\312\217"
  77      7B44998C 
  77      EA14548F 
  77      E9CF1D27 
  77      CA8F
  78 020d B0602A16 		.ascii	"\260`*\026T\352\005\357\023\345A,\3701\026T\351\005"
  78      54EA05EF 
  78      13E5412C 
  78      F8311654 
  78      E905
  79 021f 2788F2D0 		.ascii	"'\210\362\320\371\014V0\255,\211\025\234\324\013N\021"
  79      F90C5630 
  79      AD2C8915 
ARM GAS  /tmp/ccCXs8VA.s 			page 6


  79      9CD40B4E 
  79      11
  80 0230 FA13F5DB 		.ascii	"\372\023\365\333i\375\333\031B)|#\224,R\034\316\240"
  80      69FDDB19 
  80      42297C23 
  80      942C521C 
  80      CEA0
  81 0242 E090D036 		.ascii	"\340\220\3206m\303\302#\332EF\265\217\216\351\020\033"
  81      6DC3C223 
  81      DA4546B5 
  81      8F8EE910 
  81      1B
  82 0253 D7313EA1 		.ascii	"\3271>\241S\347\304.I]\223\273u\357\221\322\263W\357"
  82      53E7C42E 
  82      495D93BB 
  82      75EF91D2 
  82      B357EF
  83 0266 3E7D53FB 		.ascii	">}S\373\245\365O\317\03000s\320\340\007\206\014\035"
  83      A5F54FCF 
  83      18303073 
  83      D0E00786 
  83      0C1D
  84 0278 367CC4C8 		.ascii	"6|\304\310Q\243\307\214-'GH\0059J\336#\307\310qRI\336"
  84      51A3C78C 
  84      2D274748 
  84      05394ADE 
  84      23C7C871 
  85 028f 2755E404 		.ascii	"'U\344\0049IN\221\323\204\265\262h&\205E\304\331\235"
  85      39494E91 
  85      D384B5B2 
  85      68268545 
  85      C4D99D
  86 02a2 FCD9E359 		.ascii	"\374\331\343Y[[\330P\253\274\272\276|\351&\317\017\015"
  86      5B5BD850 
  86      ABBCBABE 
  86      7CE926CF 
  86      0F0D
  87 02b4 0D94BA29 		.ascii	"\015\224\272)[pzS\342\242\344WL\241\311\370\2418}W "
  87      5B707A53 
  87      E2A2E457 
  87      4CA1C9F8 
  87      A1387D57 
  88 02c9 D5B7FCD0 		.ascii	"\325\267\374\320\361U\011\236MK\326z\3562W7u($\335\037"
  88      F155099E 
  88      4D4BD67A 
  88      EE325737 
  88      752824DD 
  89 02de CFF2B59E 		.ascii	"\317\362\265\236\303O\276\357YZ\336\3200\026\275\006"
  89      C34FBEEF 
  89      595ADED0 
  89      3016BD06 
  90 02ee F9D5DEBA 		.ascii	"\371\325\336\272\362\277-[\343\335\236S!\303\232\363"
  90      F2BF2D5B 
  90      E3DD9E53 
  90      21C39AF3 
  91 02fe DCA594D7 		.ascii	"\334\245\224\32764\234\332\273\345J\031\215\271\241"
  91      36349CDA 
ARM GAS  /tmp/ccCXs8VA.s 			page 7


  91      BBE54A19 
  91      8DB9A1
  92 030d 50924DB7 		.ascii	"P\222M\267\322\356\014\243\372\351\340\237N\376\031"
  92      D2EE0CA3 
  92      FAE9E09F 
  92      4EFE19
  93 031c 41DC3428 		.ascii	"A\3344(\022D4\023\316\030&H,+{\223\225\305\2019\036"
  93      12443413 
  93      CE182648 
  93      2C2B7B93 
  93      95C58139 
  94 0331 44027FBA 		.ascii	"D\002\177\2723/I\004c\022\210dn\351\006J\017\020\275"
  94      332F4904 
  94      63128864 
  94      6EE9064A 
  94      0F10BD
  95 0344 B8A50F28 		.ascii	"\270\245\017(\251 \322\270\245?(\031 2\271e0(C@\014"
  95      A920D2B8 
  95      A53F2819 
  95      2032B965 
  95      30284340 
  96 0359 033102C4 		.ascii	"\0031\002\304\030\020\343@Lb\"x2\210)\240N\0051\215"
  96      1810E340 
  96      4C622278 
  96      328829A0 
  96      4E05318D 
  97 036d 7B6681F2 		.ascii	"{f\201\3620\210\2372\313\237\231\345gL\011\231\316;"
  97      30889F32 
  97      CB9F99E5 
  97      674C0999 
  97      CE3B
  98 037f 3A034A7E 		.ascii	":\003J~\011\210\036\001D3\271\327\243`~\014\304\343"
  98      09881E01 
  98      4433B9D7 
  98      A3607E0C 
  98      C4E3
  99 0391 DCF20428 		.ascii	"\334\362\004(\331 fAC.\020O\202\372\024\210\\Pg\203"
  99      D9206641 
  99      432E104F 
  99      82FA1488 
  99      5C506783 
 100 03a5 7083FA34 		.ascii	"p\203\3724\210<\356\371,(sA\344s\313\002P\236\003\361"
 100      883CEEF9 
 100      2C287341 
 100      E473CB02 
 100      509E03F1 
 101 03b9 02888520 		.ascii	"\002\210\205 \026\201XLA\026\202\014^\206r9Z\212P\256"
 101      1681584C 
 101      4116820C 
 101      5E867239 
 101      5A8A50AE 
 102 03cd A1DCFF45 		.ascii	"\241\334\377ET_B\371\262f\\\217j1\312\022\315\370*\252"
 102      545F42F9 
 102      B2665C8F 
 102      6A31CA12 
 102      CDF82AAA 
 103 03e1 1B506ED4 		.ascii	"\033Pn\324\214o\240\272\011\345f\315\270\005\325\267"
ARM GAS  /tmp/ccCXs8VA.s 			page 8


 103      8C6FA0BA 
 103      09E566CD 
 103      B805D5B7 
 104 03f1 506EC5A6 		.ascii	"Pn\305\246\267\241\334\216\226R\224;\265\207w\243\272"
 104      B7A1DC8E 
 104      9652943B 
 104      B58777A3 
 104      BA
 105 0402 07E55ECA 		.ascii	"\007\345^\312\307u\037\250!\373\265@:\200\245\007Q\226"
 105      C7751FA8 
 105      21FBB540 
 105      3A80A507 
 105      5196
 106 0414 A12C4759 		.ascii	"\241,GY\201\362\030V~\034e%Z\252P\236\322\2328\215j"
 106      81F21856 
 106      7E1C6525 
 106      5AAA509E 
 106      D29A388D 
 107 0429 35CAB39A 		.ascii	"5\312\263\232\361\034\252\347Q~\250\031/\240z\011\345"
 107      F11CAAE7 
 107      517EA819 
 107      2FA07A09 
 107      E5
 108 043a 65CD5883 		.ascii	"e\315X\203\352G(k5\343\025T?E\371\0316\3759\312:\264"
 108      EA47286B 
 108      35E31554 
 108      3F45F919 
 108      36FD39CA 
 109 0450 7C89F29A 		.ascii	"|\211\362\232\366\360uTo\242\274\245a\374\0321~\243"
 109      F6F07554 
 109      6FA2BCA5 
 109      61FC1A31 
 109      7EA3
 110 0462 61ACC7D2 		.ascii	"a\254\307\322\357P\336Ay\027\245G\001Y\0002x)\312B\264"
 110      EF50DE41 
 110      7917A547 
 110      01590032 
 110      7829CA42 
 111 0477 2C47F907 		.ascii	",G\371\007\224\253P\256E\271\016e1>\371\012\312\022"
 111      94AB50AE 
 111      45B90E65 
 111      313EF90A 
 111      CA12
 112 0489 B4BC86F2 		.ascii	"\264\274\206\362\015\264\374\011\345&\264lF\271\025"
 112      0DB4FC09 
 112      E526B46C 
 112      46B915
 113 0498 24D98672 		.ascii	"$\331\206r;\312\035(KQ\276\215\362\257(w\242\334\205"
 113      3BCA1D28 
 113      4B51BE8D 
 113      F2AF2877 
 113      A2DC85
 114 04ab 7237CA77 		.ascii	"r7\312wP^\324\330^\243}a\177Ad)[\302\222\325Q\310\246"
 114      505ED4D8 
 114      5EA37D61 
 114      7F416429 
 114      5BC292D5 
ARM GAS  /tmp/ccCXs8VA.s 			page 9


 115 04c2 7F41A996 		.ascii	"\177A\251\226\271p\201\374\005\2237S\310\014\252\260"
 115      B97081FC 
 115      05933753 
 115      C80CAAB0 
 116 04d2 0F471559 		.ascii	"\017G\025Y\022\252\255C\265\267o\375o\332\253\036\257"
 116      12AAAD43 
 116      B5B76FFD 
 116      6FDAAB1E 
 116      AF
 117 04e3 35335421 		.ascii	"53T!\3174\267\022\201-4\231}9C\226\334\372\352\350\236"
 117      CF34B712 
 117      812D3499 
 117      7D394396 
 117      DCFAEAE8 
 118 04f8 550EDE05 		.ascii	"U\016\336\005\255/\345W\277\277\021\245d\323\035\330"
 118      AD2FE557 
 118      BFBF11A5 
 118      64D31DD8 
 119 0508 096E3B5C 		.ascii	"\011n;\\\\\026\226\250k'\377>\220\260nn\247A\2541hP"
 119      5C1696A8 
 119      6B27FF3E 
 119      90B06E6E 
 119      A741AC31 
 120 051e 61FF7310 		.ascii	"a\377s\020\3345(\251f_\331i\321\241\036\031\223H-\335"
 120      DC3528A9 
 120      665FD969 
 120      D1A11E19 
 120      93482DDD 
 121 0532 E82919E7 		.ascii	"\350)\031\347\246m|\2327\312?\341\345m\325\016zC,\177"
 121      A66D7C9A 
 121      37CA3FE1 
 121      E56DD50E 
 121      7A432C7F 
 122 0546 F7B8CF52 		.ascii	"\367\270\317R\033\246\220\253\2649\204\013\311\035\317"
 122      1BA690AB 
 122      B439840B 
 122      C91DCF
 123 0555 0A4FF985 		.ascii	"\012O\371\205\343\340\220GyG\325\232o~\\\271\347,\353"
 123      E3E09047 
 123      7947D59A 
 123      6F7E5CB9 
 123      E72CEB
 124 0568 691EA5EA 		.ascii	"i\036\245\352cQn\032\336\217\354\360\260\277En\032\301"
 124      63516E1A 
 124      DE8FECF0 
 124      B0BF456E 
 124      1AC1
 125 057a 1E9F45BD 		.ascii	"\036\237E\275\352:M\226\034,\374\212Yr\351Ve\003ym\261"
 125      EA3A4D96 
 125      1C2CFC8A 
 125      5972E956 
 125      6503796D 
 126 058f 073CDAA9 		.ascii	"\007<\332\251\276\265\237}\025\357\323\004\364&<E\207"
 126      BEB59F7D 
 126      15EFD304 
 126      F4263C45 
 126      87
ARM GAS  /tmp/ccCXs8VA.s 			page 10


 127 05a0 B19B3546 		.ascii	"\261\2335F\241-\2055\347\013\254\366\366\271\017\317"
 127      A12D8535 
 127      E70BACF6 
 127      F6B90FCF 
 128 05b0 D175051E 		.ascii	"\321u\005\036u\377\241]\231\243B*\024\300\346l\002\033"
 128      75FFA15D 
 128      99A3422A 
 128      14C0E66C 
 128      021B
 129 05c2 AB0B3A55 		.ascii	"\253\013:UP}\224\315\201\332j.\215\200\316\301\323\004"
 129      507D94CD 
 129      81DA6A2E 
 129      8D80CEC1 
 129      D304
 130 05d4 60569320 		.ascii	"`V\223 \255 R\307\030\351R\207\000+uRpr\323(\3026\345"
 130      AD2052C7 
 130      18E95287 
 130      002B7552 
 130      7072D328 
 131 05eb A5D7A8FE 		.ascii	"\245\327\250\3768\024\006y77\203M\345\201\350FQ\367"
 131      38140679 
 131      3737834D 
 131      E581E846 
 131      51F7
 132 05fd 6559A3A8 		.ascii	"eY\243\250\313\246\245\030\001\315\206\035i2\354\256"
 132      CBA6A518 
 132      01CD861D 
 132      6932ECAE 
 133 060d FE17C2EE 		.ascii	"\376\027\302\356\260o\330]\015K\322I\"\216\277`\202"
 133      B06FD85D 
 133      0D4BD249 
 133      228EBF60 
 133      82
 134 061e 5C091184 		.ascii	"\\\011\021\204`6}\207}\321\233\326B.\233\356\243I\336"
 134      60367D87 
 134      7DD19BD6 
 134      422E9BEE 
 134      A349DE
 135 0631 209D7683 		.ascii	" \235v\203\254\264\025$CV{\340h\260Z\227\272\272`\030"
 135      ACB41524 
 135      43567BE0 
 135      68B05A97 
 135      BABA6018 
 136 0645 18031044 		.ascii	"\030\003\020D\312\3078XX\255(\250[=V\013\207\350\\J"
 136      CAC73858 
 136      58AD28A8 
 136      5B3D560B 
 136      87E85C4A 
 137 0659 F1B9092A 		.ascii	"\361\271\011*\021\256\027\354\321C%\206\025C\250-+\357"
 137      11AE17EC 
 137      D1432586 
 137      1543A82D 
 137      2BEF
 138 066b A49962F5 		.ascii	"\244\231b\365`k\357\342]Q-\236\231>$a\316Pkt\003\373"
 138      606BEFE2 
 138      5D512D9E 
 138      993E2461 
ARM GAS  /tmp/ccCXs8VA.s 			page 11


 138      CE506B74 
 139 0681 83234E0C 		.ascii	"\203#N\014vP\253G]\010Ymj\230\027\\]\255Gs\034\263b"
 139      7650AB47 
 139      5D08596D 
 139      6A98175C 
 139      5DAD4773 
 140 0698 9413DF28 		.ascii	"\224\023\337(\217\227D\271\002>\346(\217\027Dy0\271"
 140      8F9744B9 
 140      023EE628 
 140      8F174479 
 140      30B9
 141 06aa 3852C5FF 		.ascii	"8R\305\377\311\352\007\265\007\0234\374\024\307P\361"
 141      C9EA07B5 
 141      071334FC 
 141      14C750F1 
 142 06ba 1E3F56AA 		.ascii	"\036?V\252\371\206\020v^\346\321\243\025Rl\363\363\305"
 142      F9861076 
 142      5EE6D1A3 
 142      15526CF3 
 142      F3C5
 143 06cc 215A5D6A 		.ascii	"!Z]jE\016\275\311K\204\362)pns\260\312\202K\332@]\241"
 143      450EBDC9 
 143      4B84F229 
 143      706E73B0 
 143      CA824BDA 
 144 06e3 E4834807 		.ascii	"\344\203H\007\033\325\332\262\202`\315\265\263\367\270"
 144      1BD5DAB2 
 144      8260CDB5 
 144      B3F7B8
 145 06f2 B6F11ED7 		.ascii	"\266\361\036\327'L\213\217c<\021\215m\274\357\330v\346"
 145      274C8B8F 
 145      633C118D 
 145      6DBCEFD8 
 145      76E6
 146 0704 63FBED6A 		.ascii	"c\373\355j\207\326H\"\263\212\3066I2\266\016\3601\217"
 146      87D64822 
 146      B38AC636 
 146      4932B60E 
 146      F0318F
 147 0717 6D92606C 		.ascii	"m\222`l\333\220\367\234\210\351\204\201)Y\032+3\314"
 147      DB90F79C 
 147      88E98481 
 147      29591A2B 
 147      33CC
 148 0729 987E851F 		.ascii	"\230~\205\037\035\250\024O2\307\263k\215\216\247\033"
 148      1DA8144F 
 148      32C7B36B 
 148      8D8EA71B 
 149 0739 B3229E06 		.ascii	"\263\"\236\006\355\217.\362\001\326C\002\314\011\316"
 149      ED8F2EF2 
 149      01D64302 
 149      CC09CE
 150 0748 66603D04 		.ascii	"f`=\004\300\332\222m\264\271\015\331\357U#\271\311U"
 150      C0DA926D 
 150      B4B90DD9 
 150      EF5523B9 
 150      C955
ARM GAS  /tmp/ccCXs8VA.s 			page 12


 151 075a 43DD912F 		.ascii	"C\335\221/\312w\344\"v\266jvG\366Z)\222\305+E5)\254"
 151      CA77E422 
 151      76B66A76 
 151      47F65A29 
 151      92C52B45 
 152 0771 3D6D4C53 		.ascii	"=mLS/}\220b]|{\346\323\364\210h\232\3344N8?\275\032"
 152      2F7D9062 
 152      5D7C7BE6 
 152      D3F48868 
 152      9ADC344E 
 153 0789 EF7DF777 		.ascii	"\357}\367wq\375\227\037\213kQ\035\265hq\305\310;lD^"
 153      71FD971F 
 153      8B6B511D 
 153      B56871C5 
 153      C83B6C44 
 154 079e 1F86B7C9 		.ascii	"\037\206\267\311\310K\225D\036:\233#/U\020yad 2\352"
 154      C84B9544 
 154      1E3A9B23 
 154      2F551079 
 154      61642032 
 155 07b3 A2315569 		.ascii	"\2421Ui\201\254\022\3152*\215\343\2523p\365g\326&qe"
 155      81AC12CD 
 155      322A8DE3 
 155      AA3370F5 
 155      67D62671 
 156 07c8 48700583 		.ascii	"Hp\005\203\263\031W\206"
 156      B3195786 
 157 07d0 00573869 		.ascii	"\000W8ig+\241\376\335\004\241\376m\031\241.\033\263"
 157      672BA1FE 
 157      DD04A1FE 
 157      6D19A12E 
 157      1BB3
 158 07e2 94E94DA8 		.ascii	"\224\351M\2500\357Y\372m \204\312\264\227P\365\376\020"
 158      30EF59FA 
 158      6D2084CA 
 158      B49750F5 
 158      FE10
 159 07f4 EABAA584 		.ascii	"\352\272\245\204\372\326\010\274\301\014o\223\2017D"
 159      FAD608BC 
 159      C10C6F93 
 159      813744
 160 0803 127821E0 		.ascii	"\022x!\340l\016\274!\202\300\213 N[\003\257A\036x+o"
 160      6C0EBC21 
 160      82C08B20 
 160      4E5B03AF 
 160      411E782B 
 161 0818 FB71B76A 		.ascii	"\373q\267j>\360\232\274Ee\323\375\315b\341\267\250\277"
 161      3EF09ABC 
 161      4565D3FD 
 161      CD62E1B7 
 161      A8BF
 162 082a 575A7B8B 		.ascii	"WZ{\213\332f\276E\035\273\023\370-*\233\226\261!4nC"
 162      DA66BE45 
 162      1DBB13F8 
 162      2D2A9B96 
 162      B121346E 
 163 083f 45B7F5F9 		.ascii	"E\267\365\371\035\006\215\210\3162#$q\022\012N\3468"
ARM GAS  /tmp/ccCXs8VA.s 			page 13


 163      1D068D88 
 163      CE322324 
 163      71120A4E 
 163      E638
 164 0851 19218893 		.ascii	"\031!\210\223v\304a\353=a\265\322<\363|\002\306\202"
 164      76C461EB 
 164      3D61B5D2 
 164      3CF37C02 
 164      C682
 165 0863 CB502469 		.ascii	"\313P$i|\252\271\277\030\377h+F;Y\276Q\221\262\374d"
 165      7CAAB9BF 
 165      18FF682B 
 165      463B59BE 
 165      5191B2FC 
 166 0878 EB62F905 		.ascii	"\353b\371\0051\313\267\036RY\356\220\263\334\213\346"
 166      31CBB71E 
 166      5259EE90 
 166      B3DC8BE6 
 167 0888 5E2CDF2E 		.ascii	"^,\337.\310\225\210X\036\257\303\330\315\032\323X\356"
 167      C8958858 
 167      1EAFC3D8 
 167      CD1AD358 
 167      EE
 168 0899 683E5792 		.ascii	"h>W\222M\377\206\330\302\375\313\225\334\326s%c\240"
 168      4DFF86D8 
 168      C2FDCB95 
 168      DCD67325 
 168      63A0
 169 08ab 73A25CC9 		.ascii	"s\242\\\3118\311\352\320\006\234\314\253\3038\301\352"
 169      38C9EAD0 
 169      069CCCAB 
 169      C338C1EA 
 170 08bb 10653373 		.ascii	"\020e3s\336\366\2039'-^\035\332\023b+\306}\266b\264"
 170      DEF68339 
 170      272D5E1D 
 170      DA13622B 
 170      C67DB662 
 171 08d0 73752893 		.ascii	"su(\223\257\016+\353-Y\035\030!\037\325\342uR?\222\352"
 171      AF0E2BEB 
 171      2D591D18 
 171      211FD5E2 
 171      75523F92 
 172 08e5 A6C13A2D 		.ascii	"\246\301:-;\352\341\016\234\344\375VO\244\263\250\366"
 172      3BEAE10E 
 172      9CE4FD56 
 172      4FA4B3A8 
 172      F6
 173 08f6 AEDFBB82 		.ascii	"\256\337\273\202\311\201T\340\320+(\250\326\017rSX/"
 173      C98154E0 
 173      D02B28A8 
 173      D60F7253 
 173      582F
 174 0908 583D3EAC 		.ascii	"X=>\254\233*a][x\336\314\272\251\002\326E\333\034\221"
 174      9B2A615D 
 174      5B78DECC 
 174      BAA902D6 
 174      45DB1C91 
ARM GAS  /tmp/ccCXs8VA.s 			page 14


 175 091c 27FCD9AF 		.ascii	"'\374\331\257\352\255e]\214\315\030\317\331\212\021"
 175      EAAD655D 
 175      8CCD18CF 
 175      D98A11
 176 092b F293FF6D 		.ascii	"\362\223\377m2?\331\201\255\254\354\302\273\351\216"
 176      323FD981 
 176      ADACECC2 
 176      BBE98E
 177 093a 1E4CD3F4 		.ascii	"\036L\323\364\300\211w\261\343;\374\361\233\324\377"
 177      C08977B1 
 177      E33BFCF1 
 177      9BD4FF
 178 0949 F86C330B 		.ascii	"\370l3\013\311\357Y\324j/V\364\235G\317\220%\010\263"
 178      C9EF59D4 
 178      6A2F56F4 
 178      9D47CF90 
 178      2508B3
 179 095c 8FD3F835 		.ascii	"\217\323\3705\344\306\213z\244f1\253\350T\371\260$\202"
 179      E4C68B7A 
 179      A46631AB 
 179      E854F9B0 
 179      2482
 180 096e C3C0C71C 		.ascii	"\303\300\307\034\301\017\013\"8\226\241cT\253*i\250"
 180      C10F0B22 
 180      3896A163 
 180      54AB2A69 
 180      A8
 181 097f 55B4E77E 		.ascii	"U\264\347~\252v\0319xUG\3753V\000\255;\265}Zo\274\223"
 181      AA761939 
 181      785547FD 
 181      335600AD 
 181      3BB57D5A 
 182 0996 8B1D4EE1 		.ascii	"\213\035N\341\217=\344\346\031\276\025\005u/\216\326"
 182      8F3DE4E6 
 182      19BE1505 
 182      752F8ED6 
 183 09a6 5CA7E752 		.ascii	"\\\247\347RE\236\315\234\256\365%N\337\303\264\"\245"
 183      459ECD9C 
 183      AEF5254E 
 183      DFC3B422 
 183      A5
 184 09b7 712E53E1 		.ascii	"q.S\341\2112\355\357\022Q\370t\305@.sz\354\305\020\250"
 184      8932EDEF 
 184      1251F874 
 184      C5402E73 
 184      7AECC510 
 185 09cc A9239B6A 		.ascii	"\251#\233j\270\376\336ui\2163\364\336&\272\3301S\037"
 185      B8FEDE75 
 185      698E33F4 
 185      DE26BAD8 
 185      31531F
 186 09df AA7084C1 		.ascii	"\252p\204\301\216\007]\222\3101E}\031\224\244\315\226"
 186      8E075D92 
 186      C831457D 
 186      1994A4CD 
 186      96
 187 09f0 9B766D34 		.ascii	"\233vm4\2043\004C\310\016\022j\376v\327z\035\361/\265"
ARM GAS  /tmp/ccCXs8VA.s 			page 15


 187      84330443 
 187      C80E126A 
 187      FE76D77A 
 187      1DF12FB5 
 188 0a04 AEEAF9EB 		.ascii	"\256\352\371\353\035z\035\217\260b5\177\035\257\231"
 188      1D7A1D8F 
 188      B062357F 
 188      1DAF99
 189 0a13 66FA9993 		.ascii	"f\372\231\223d\316~\344Xg\362\010\332\273^\237\274G"
 189      64CE7EE4 
 189      5867F208 
 189      DABB5E9F 
 189      BC47
 190 0a25 99551441 		.ascii	"\231U\024A\217I\"(\002|\314\021\364\230\000~\002\216"
 190      8F492228 
 190      027CCC11 
 190      F498007E 
 190      028E
 191 0a37 F5B2DAD5 		.ascii	"\365\262\332\325\205z\252\341q)A\036\271\027\2024\202"
 191      857AAAE1 
 191      7129411E 
 191      B9178234 
 191      82
 192 0a48 F7388777 		.ascii	"\3678\207w\310\200\367\004\263\212\340eK\340\265\003"
 192      C880F704 
 192      B38AE065 
 192      4BE0B503 
 193 0a58 1F33BC6C 		.ascii	"\0373\274l\001\274N8\273K\376\361\305\233\372c\263\002"
 193      01BC4E38 
 193      BB4BFEF1 
 193      C59BFA63 
 193      B302
 194 0a6a D98EB458 		.ascii	"\331\216\264X\365\336\317\\-\336\317\236d\275`\365\370"
 194      F5DECF5C 
 194      2DDECF9E 
 194      64BD60F5 
 194      F8
 195 0a7b 807D4A02 		.ascii	"\200}J\0026\022\2367\203}J\000\2663\007\273\342-\375"
 195      36129E37 
 195      837D4A00 
 195      B63307BB 
 195      E22DFD
 196 0a8e B1DC9682 		.ascii	"\261\334\226\202\235}o\273\277\027X7\353\005\253\307"
 196      9D7D6FBB 
 196      BF175837 
 196      EB05ABC7 
 197 0a9e 07ECD312 		.ascii	"\007\354\323\022\260Q\360\274\031\354\323\002\260\211"
 197      B051F0BC 
 197      19ECD302 
 197      B089
 198 0aac 3C70371A 		.ascii	"<p7\032\201\233\327\262\300\305\254\2468h\363x\320~"
 198      819BD7B2 
 198      C0C5ACA6 
 198      3868F378 
 198      D07E
 199 0abe 6F04EDB3 		.ascii	"o\004\355\263\314\332dri\256\004c{p6c\234+\300\330\305"
 199      CCDA6472 
ARM GAS  /tmp/ccCXs8VA.s 			page 16


 199      69AE0463 
 199      7B703663 
 199      9C2BC0D8 
 200 0ad3 B479DFDF 		.ascii	"\264y\337\337\203\345\367\362\203eU\265bUVs\2331c\371"
 200      83E5F7F2 
 200      836555B5 
 200      62555673 
 200      9B3163F9 
 201 0ae7 FA1825BB 		.ascii	"\372\030%\273`D\210\344\315\237`\306\334\264\233p\252"
 201      604488E4 
 201      CD9F60C6 
 201      DCB49B70 
 201      AA
 202 0af8 F2EDCD70 		.ascii	"\362\355\315p\026:\232?\357T\235W,:\357`\020\226\376"
 202      163A9A3F 
 202      EF549D57 
 202      2C3AEF60 
 202      1096FE
 203 0b0b 510FC205 		.ascii	"Q\017\302\005\014o\223A\370\234$\010\243\301\331\034"
 203      0C6F9341 
 203      F89C2408 
 203      A3C1D91C 
 204 0b1b 84CF0982 		.ascii	"\204\317\011\2020\311\346 \\\343\220\347>.d\266\246"
 204      30C9E620 
 204      5CE390E7 
 204      3E2E64B6 
 204      A6
 205 0b2c DCC7C727 		.ascii	"\334\307\307'\254\315p\356\020\344>J\023Z\234\341\254"
 205      ACCD70EE 
 205      10E43E4A 
 205      135A9CE1 
 205      AC
 206 0b3d BAA09F0D 		.ascii	"\272\240\237\015_\200FD9\214\205\2228\211\001's\234"
 206      5F804644 
 206      398C8592 
 206      38890127 
 206      739C
 207 0b4f 2C14C449 		.ascii	",\024\304IW\233o\032\257\373\301<\237\200\261\3406\225"
 207      579B6F1A 
 207      AFFBC13C 
 207      9F80B1E0 
 207      3695
 208 0b61 6C33C62D 		.ascii	"l3\306-\266b\264\223\345o\313Y\276\262\246U\261\374"
 208      B662B493 
 208      E56FCB59 
 208      BEB2A655 
 208      B1FC
 209 0b73 9698E5F7 		.ascii	"\226\230\345\367\234\341,5\263\274p\247\200\345\315"
 209      9CE12C35 
 209      B3BC70A7 
 209      80E5CD
 210 0b82 6438B319 		.ascii	"d8\263\031\223}\336c\324\350,_\004\215\210\016\324\213"
 210      937DDE63 
 210      D4E82C5F 
 210      048D880E 
 210      D48B
 211 0b94 A984E61D 		.ascii	"\251\204\346\035\300\313L\363\305T\300\363n6s\340\240"
ARM GAS  /tmp/ccCXs8VA.s 			page 17


 211      C0CB4CF3 
 211      C554C0F3 
 211      6E3673E0 
 211      A0
 212 0ba5 1F1CF009 		.ascii	"\037\034\360\011\031\013x\336\335f\214\025\266b\264"
 212      190B78DE 
 212      DD668C15 
 212      B662B4
 213 0bb4 93E7279A 		.ascii	"\223\347'\232\330\315\255\341\271\367m\245\220\2664"
 213      D8CDADE1 
 213      B9F76DA5 
 213      90B634
 214 0bc3 59B92CA0 		.ascii	"Y\271,\240\032\204\267\273\345\024:\002U\371\220\257"
 214      1A84B7BB 
 214      E5143A02 
 214      55F990AF 
 215 0bd3 4846BE58 		.ascii	"HF\276X\3641\263\257H\304\276\0366G\346E\177v \213\331"
 215      F431B3AF 
 215      48C4BE1E 
 215      3647E645 
 215      7F76208B 
 216 0be8 976233C6 		.ascii	"\227b3\306Z[1\332\311\276/\344\354+\372\330\262\013"
 216      5A5B31DA 
 216      C9BE2FE4 
 216      EC2BFAD8 
 216      B20B
 217 0bfa DD61E342 		.ascii	"\335a\343B\267\306\010r?~\3705^\372;\2255\224_v\336"
 217      B7C60872 
 217      3F7EF835 
 217      5EFA3B95 
 217      35945F76 
 218 0c0f 2CD679F5 		.ascii	",\326y\365\"\005\273h_{IF\2558t3S\353%\021\265z\362"
 218      2205BB68 
 218      5F7B4946 
 218      AD387433 
 218      53EB2511 
 219 0c26 B4639501 		.ascii	"\264c\225\001\347\345\200\340L\220\302yY\203Sj\300Y"
 219      E7E580E0 
 219      4C90C279 
 219      5983536A 
 219      C059
 220 0c38 4FC12E82 		.ascii	"O\301.\202S,\203\323\021\335\314p\212Epzq8'\0158%\001"
 220      532C83D3 
 220      11DDCC70 
 220      8A45707A 
 220      7138270D 
 221 0c4f C1992885 		.ascii	"\301\231(\205S\242\301\331k\300y\225\202]\004g\203\014"
 221      53A2C1D9 
 221      6BC07995 
 221      825D0467 
 221      830C
 222 0c61 4E3CBA99 		.ascii	"N<\272\231\341l\020\301\351\315\341\2346\340l\014\010"
 222      E16C10C1 
 222      E9CDE19C 
 222      36E06C0C 
 222      08
 223 0c72 CE24299C 		.ascii	"\316$)\234\215\032\234C\006\2347(\330Ep6\311\340$\240"
ARM GAS  /tmp/ccCXs8VA.s 			page 18


 223      8D1A9C43 
 223      069C3728 
 223      D8457036 
 223      C9E024A0 
 224 0c86 9B19CE26 		.ascii	"\233\031\316&\021\234>\034N\265\001gs@p&K\341l6\375"
 224      119C3E1C 
 224      4EB50167 
 224      73407026 
 224      4BE16C36 
 225 0c9b 8B81FBBB 		.ascii	"\213\201\373\273|\376\237\037\313g\3215KS u\306Dm\241"
 225      7CFE9F1F 
 225      CB67D135 
 225      4B532075 
 225      C6446DA1 
 226 0caf 80583451 		.ascii	"\200X4Qo\311&\252\023\272\231'\352-\321D\365\345I\325"
 226      6FC926AA 
 226      13BA9927 
 226      EA2DD144 
 226      F5E549D5 
 227 0cc3 F7F7EBCF 		.ascii	"\367\367\353\317mm\361)c[\313O\031\333)t\004\252\362"
 227      6D6DF129 
 227      635BCB4F 
 227      19DB2974 
 227      04AAF2
 228 0cd6 015D2A03 		.ascii	"\001]*\003\335\031}\314\240KE\240Sa\344\311%rQ{?\323"
 228      DD197DCC 
 228      A04B45A0 
 228      5361E4C9 
 228      2572517B 
 229 0cec B7ECF26C 		.ascii	"\267\354\362l(\350gs2h\265S~M\274~\305a\325\016\366"
 229      28E86773 
 229      3268B553 
 229      7E4DBC7E 
 229      C561D50E 
 230 0d01 CF633A0B 		.ascii	"\317c:\013wRiN\362\327~\347$\033\275\024\334i3#_q\372"
 230      7752694E 
 230      F2D77EE7 
 230      241BBD14 
 230      DC693323 
 231 0d18 719DB8B1 		.ascii	"q\235\270\261$\310JJ6\024\3531\270\233\002d\021%\367"
 231      24C84A4A 
 231      3614EB31 
 231      B89B0264 
 231      1125F7
 232 0d2b C8A23311 		.ascii	"\310\2423\021\335\314\321\271G\024\235i*%\253J\016\376"
 232      DDCCD1B9 
 232      47149D69 
 232      2A25AB4A 
 232      0EFE
 233 0d3d 4BBFF3EE 		.ascii	"K\277\363\356\245\302\327\236\373(\0245\373\342s\037"
 233      A5C2D79E 
 233      FB281435 
 233      FBE2731F 
 234 0d4d 35DE7CDE 		.ascii	"5\336|\336(\326\337\003\356g\336\016\354\237\360\325"
 234      28D6DF03 
 234      EE67DE0E 
 234      EC9FF0D5 
ARM GAS  /tmp/ccCXs8VA.s 			page 19


 235 0d5d E77EAAF5 		.ascii	"\347~\252\365\250?\0331\337w\237\216\306\357>\325z\274"
 235      A83F1B31 
 235      DF779F8E 
 235      C6EF3ED5 
 235      7ABC
 236 0d6f DF7D3A72 		.ascii	"\337}:r\351E%\225B=i\352\213\317t\276)|\225\243y\035"
 236      E9452595 
 236      423D69EA 
 236      8BCF74BE 
 236      297C95A3 
 237 0d85 3006CCF7 		.ascii	"0\006\314\367\315g\227\300\336|\036\020\215c\206\315"
 237      CD6797C0 
 237      DE7C1E10 
 237      8D6386CD 
 238 0d95 64DE2227 		.ascii	"d\336\"'\363\311\333\255*\347s\341\244\265\231\335\267"
 238      F3C9DBAD 
 238      2AE773E1 
 238      A4B599DD 
 238      B7
 239 0da6 0599DD83 		.ascii	"\005\231\335\203\026dvo\353\361\177\220B+\242\324n\231"
 239      1664766F 
 239      EBF17F90 
 239      422BA2D4 
 239      6E99
 240 0db8 8C7349E8 		.ascii	"\214sI\350f\346\\\231(V\006\330|'\333\343\307\022\346"
 240      66E65C99 
 240      285606D8 
 240      7C27DBE3 
 240      C712E6
 241 0dcb 133416DC 		.ascii	"\0234\026\334;\007\332\235\331\262\025\243\235L\257"
 241      3B07DA9D 
 241      D9B215A3 
 241      9D4CAF
 242 0dda 6862DBAE 		.ascii	"hb\333\256oUL\277$f\372=gw\377*\310\356\036\262 \273"
 242      6F554CBF 
 242      2466FA3D 
 242      6777FF2A 
 242      C8EE1EB2 
 243 0df0 5BAF33BD 		.ascii	"[\2573\275\234B+\242\335\265B\306\364\256\350ffz\205"
 243      9C422BA2 
 243      DDB542C6 
 243      F4AEE866 
 243      667A85
 244 0e03 88E99936 		.ascii	"\210\351\2316\263\340\003\177\016+\365\3262}\220\335"
 244      B3E0037F 
 244      0E2BF5D6 
 244      327D90DD 
 245 0e13 59345B31 		.ascii	"Y4[1\302ue\333!}\226\217\265\370\272r\274\345\327\225"
 245      C27565DB 
 245      217D968F 
 245      B5F8BA72 
 245      BCE5D795 
 246 0e27 4A0A1D81 		.ascii	"J\012\035\201\252|B\266J\026\262\311\350c\016\331*Q"
 246      AA7C42B6 
 246      4A16B2C9 
 246      E8630ED9 
 246      2A51
ARM GAS  /tmp/ccCXs8VA.s 			page 20


 247 0e39 C80EB6F9 		.ascii	"\310\016\266\371 S'_\336\252\276\265,\255\366\235\221"
 247      2053275F 
 247      DEAABEB5 
 247      2CADF69D 
 247      91
 248 0e4a 1A38E593 		.ascii	"\0328\345\223\032h\356\237\177\311S\003\247\264LG\335"
 248      1A68EE9F 
 248      7FC95303 
 248      A7B44C47 
 248      DD
 249 0e5b 2BFACC9C 		.ascii	"+\372\314\234\246`\027\255'\325\262\311\351\206n\346"
 249      A66017AD 
 249      27D5B2C9 
 249      E9866EE6 
 250 0e6b C9A9164D 		.ascii	"\311\251\026M\316\003\374P{\307\200s6 8\362\304\315"
 250      CE03FC50 
 250      7BC78073 
 250      362038F2 
 250      C4CD
 251 0e7d 590DCE0D 		.ascii	"Y\015\316\015\003\3169\012v\021\234\36328\335\321\315"
 251      03CE390A 
 251      76119CF3 
 251      3238DDD1 
 251      CD
 252 0e8e 0CE7BC08 		.ascii	"\014\347\274\010\316\020\016\347\007\003\316\207\001"
 252      CE100EE7 
 252      0703CE87 
 252      01
 253 0e9b C191A7D5 		.ascii	"\301\221\247\325>\324\340|k\300\271@\301.\202sI\006"
 253      3ED4E07C 
 253      6BC0B940 
 253      C12E8273 
 253      4906
 254 0ead A707BA99 		.ascii	"\247\007\272\231\341\\\022\301\031\252\375\326\322\200"
 254      E15C12C1 
 254      19AAFDD6 
 254      D280
 255 0ebb 73392038 		.ascii	"s9 8\362\244\347e\015N\203\001\247\206\202]\004\347"
 255      F2A4E765 
 255      0D4E8301 
 255      A786825D 
 255      04E7
 256 0ecd 23199C14 		.ascii	"#\031\234\024t3\303\371H\004g\030\207\263b\271\016\247"
 256      7433C3F9 
 256      48046718 
 256      87B362B9 
 256      0EA7
 257 0edf 362038F2 		.ascii	"6 8\362\224t\255\315\227\370\037\374\3303\252\336sX"
 257      9474ADCD 
 257      97F81FFC 
 257      D833AADE 
 257      7358
 258 0ef1 79872F7D 		.ascii	"y\207/}]\237\250+\024\020\213&\352S\331D\365D7\363D"
 258      5D9FA82B 
 258      14108B26 
 258      EA53D944 
 258      F54437F3 
ARM GAS  /tmp/ccCXs8VA.s 			page 21


 259 0f06 7D2A9AA8 		.ascii	"}*\232\250\341\332\0173\257\350\317}\326\342}\352\363"
 259      E1DA0F33 
 259      AFE8CF7D 
 259      D6E27DEA 
 259      F3
 260 0f17 96EF5375 		.ascii	"\226\357Su\024:\002U\371\200\376R\006\272\027\372\230"
 260      143A0255 
 260      F980FE52 
 260      06BA17FA 
 260      98
 261 0f28 417F2902 		.ascii	"A\177)\002=\202\247\325j\264\264\332\360S\2670\2556"
 261      3D82A7D5 
 261      6AB4B4DA 
 261      F053B730 
 261      AD36
 262 0f3a D2E60D6C 		.ascii	"\322\346\015lU\220\374&~\374\023\313\322jk*u\026^\273"
 262      5590FC26 
 262      7EFC13CB 
 262      D26A6B2A 
 262      75165EBB 
 263 0f4e 0F69B56B 		.ascii	"\017i\265k63\2628\310\217\373Ze\201\245i\265O^\327c"
 263      3633B238 
 263      C88FFB5A 
 263      6581A569 
 263      B54F5ED7 
 264 0f63 F03A05C8 		.ascii	"\360:\005\310\"J\336\224Egot3G\347MQt\216\342i\265\003"
 264      224ADE94 
 264      45676F74 
 264      3347E74D 
 264      51748EE2 
 265 0f7a 9F1B69B5 		.ascii	"\237\033i\265[\342\264\332\327\024\212\232M\253}\355"
 265      5BE2B4DA 
 265      D7148A9A 
 265      4DAB7DED 
 266 0f8a 9556DBFB 		.ascii	"\225V\333\373\272\236V\373\206y;\345i\265o\364\264\332"
 266      BA9E56FB 
 266      86793BE5 
 266      69B56FF4 
 266      B4DA
 267 0f9c 68535ACD 		.ascii	"hSZ\315"
 268 0fa0 D938ADE6 		.ascii	"\3318\255\3464\245\325\234l\273PFP\250g\224\232V\033"
 268      34A5D59C 
 268      6CBB5046 
 268      50A86794 
 268      9A561B
 269 0fb3 C337850D 		.ascii	"\3037\205\015\271\232W\275,\255\326'\260\264Z\275h\034"
 269      B99A57BD 
 269      2CADD627 
 269      B0B45ABD 
 269      681C
 270 0fc5 C7DA4CE6 		.ascii	"\307\332L\3467\345d^yfPk\272l\277{\306\332\264\332N"
 270      37E5645E 
 270      7966506B 
 270      BA6CBF7B 
 270      C6DAB4DA 
 271 0fda C165BBAE 		.ascii	"\301e\273\256\345i\265\2423z\240\177\007\251laZ\355"
 271      E569B5A2 
ARM GAS  /tmp/ccCXs8VA.s 			page 22


 271      337AA07F 
 271      07A96C61 
 271      5AED
 272 0fec 8E8C737D 		.ascii	"\216\214s}\321\315\314\271;\242X\031g\363E\364\035?"
 272      D1CDCCB9 
 272      3BA25819 
 272      67F345F4 
 272      1D3F
 273 0ffe 9630     		.ascii	"\2260"
 274 1000 9FA0B1E0 		.ascii	"\237\240\261\340\262=\336f\214\357\332\212\321N\246"
 274      B23DDE66 
 274      8CEFDA8A 
 274      D14EA6
 275 100f 1F6962DB 		.ascii	"\037ib\333n]L?$f\372=\247\325v\231\231\376\027\021\323"
 275      6E5D4C3F 
 275      2466FA3D 
 275      A7D57699 
 275      99FE1711 
 276 1024 034CAB55 		.ascii	"\003L\253U\031L\277K\241\025\321\356\352Q$LOE73\323"
 276      194CBF4B 
 276      A115D1EE 
 276      EA51244C 
 276      4F453733 
 277 1039 3D8A80E9 		.ascii	"=\212\200\351\023lfA\265?\207\025\213\231>\321f\214"
 277      136C6641 
 277      B53F8715 
 277      8B993ED1 
 277      668C
 278 104b 176CC588 		.ascii	"\027l\305\210\277\002\250\323g\271@i\351uei@5\010\257"
 278      BF02A8D3 
 278      67B94069 
 278      E9756569 
 278      403508AF 
 279 105f 2B850A74 		.ascii	"+\205\012t\004\252\362\011\331\345\262\220\355\207>"
 279      04AAF209 
 279      D9E5B290 
 279      ED873E
 280 106e E6905D2E 		.ascii	"\346\220].\012\331IxnZZ[\272<\304t\312\353\356\202\177"
 280      0AD94978 
 280      6E5A5A5B 
 280      BA3CC474 
 280      CAEBEE82 
 281 1083 D0CF2DA1 		.ascii	"\320\317-\241>Dt\303\217\024m\375\225[\023\007\240\232"
 281      3E4474C3 
 281      8F146DFD 
 281      955B1307 
 281      A09A
 282 1095 56B52CDE 		.ascii	"V\265,\336\262\370\000\264[p\000\272n\301\001\250F\017"
 282      B2F800B4 
 282      5B7000BA 
 282      6EC101A8 
 282      460F
 283 10a7 B03F28D0 		.ascii	"\260?(\320\212\350\000\264J\026ci\350f\216\261U\242"
 283      8AE800B4 
 283      4A166369 
 283      E8668EB1 
 283      55A2
ARM GAS  /tmp/ccCXs8VA.s 			page 23


 284 10b9 189B6CF3 		.ascii	"\030\233l\363\222Q\357\317\341\240\306\332eq\212\315"
 284      9251EFCF 
 284      E1A0C6DA 
 284      65718ACD 
 285 10c9 18EFDA8A 		.ascii	"\030\357\332\212\321N\246/\013n\342\327\344\255\212"
 285      D14EA62F 
 285      0B6EE2D7 
 285      E4AD8A
 286 10d8 E9FFB1F8 		.ascii	"\351\377\261\370\000\364\216\340\000$bz\240\007 \203"
 286      00F48EE0 
 286      0024627A 
 286      A0072083 
 287 10e8 E96B1568 		.ascii	"\351k\025hEt\000Z'cz\177t33}\235\210\351?\262\231\005"
 287      4574005A 
 287      27637A7F 
 287      7433337D 
 287      9D88E93F 
 288 10ff EB83FD38 		.ascii	"\353\203\3758\034X\314\364\251v\377\0338[1\332\372["
 288      1C58CCF4 
 288      A976FF1B 
 288      385B31DA 
 288      FA5B
 289 1111 2139D357 		.ascii	"!9\323W\376\323\022\246{\237\304\212\003:\211i\230\274"
 289      FED312A6 
 289      7B9FC48A 
 289      033A8969 
 289      98BC
 290 1123 6B78A5E5 		.ascii	"kx\245\345g\271\022\005:\002U\371\260\3575\031\373\322"
 290      67B91205 
 290      3A0255F9 
 290      B0EF3519 
 290      FBD2
 291 1135 D1C7CCBE 		.ascii	"\321\307\314\276\327D\354{\320\356\337\357\370\021\231"
 291      D744EC7B 
 291      D0EEDFEF 
 291      F81199
 292 1144 3E136901 		.ascii	">\023i\001\373~l\367\357wl\305h\353\357w\232\330g\255"
 292      FB7E6CF7 
 292      EF776CC5 
 292      68EBEF77 
 292      9AD867AD 
 293 1158 67DF1B2D 		.ascii	"g\337\033-f\337\237\356\361.\346\305\276M\012t\004\252"
 293      66DF9FEE 
 293      F12EE6C5 
 293      BE4D0A74 
 293      04AA
 294 116a F261DF66 		.ascii	"\362a\337f\031\3732\320\307\314\276\315\"\366=d\367"
 294      19FB32D0 
 294      C7CCBECD 
 294      22F63D64 
 294      F7
 295 117b 6F6AFCD9 		.ascii	"oj\374\331\027,f\3374\273\177Sc+\306\323\244\342\252"
 295      172C66DF 
 295      34BB7F53 
 295      632BC6D3 
 295      A4E2AA
 296 118e FE9E02DE 		.ascii	"\376\236\002\336\210\014&{=+\230\203\266\224\317\240"
ARM GAS  /tmp/ccCXs8VA.s 			page 24


 296      880C267B 
 296      3D2B9883 
 296      B694CFA0 
 297 119e 59F07FB3 		.ascii	"Y\360\177\263\001\317}\361\233\246\037\374\011<x\226"
 297      01CF7DF1 
 297      9BA61FFC 
 297      093C7896 
 298 11ae 2C0E3550 		.ascii	",\0165P\377\202Q\351f\0124\232\222\261 \177^F\376<W"
 298      FF8251E9 
 298      660A349A 
 298      92B1207F 
 298      5E46FE3C 
 299 11c3 866BB67B 		.ascii	"\206k\266{\226{N~\306\374\234\374\371\031\363\346\343"
 299      967B4E7E 
 299      C6FC9CFC 
 299      F919F3E6 
 299      E3
 300 11d4 67DEAC39 		.ascii	"g\336\2549\317\247\273Hp^~nf\372\000'\373\030\010\""
 300      CFA7BB48 
 300      705E7E6E 
 300      66FA0027 
 300      FB180822 
 301 11e8 93BA079A 		.ascii	"\223\272\007\232\374\330\177\314k\356\234y\363\3633"
 301      FCD87FCC 
 301      6BEE9C79 
 301      F3F333
 302 11f7 C6FF3C6B 		.ascii	"\306\377<kb\326\363\254\3105g^\316\023\277\033\232\227"
 302      62D6F3AC 
 302      C835675E 
 302      CE13BF1B 
 302      9A97
 303 1209 3E9B04FD 		.ascii	">\233\004\375.\373\231\0059\203E~9\317\317\317\230\230"
 303      2EFB9905 
 303      3983457E 
 303      39CFCFCF 
 303      9898
 304 121b 35FDC1E9 		.ascii	"5\375\301\351\031\356g]\317,x2'\003\375\\yS\026<\353"
 304      19EE675D 
 304      CF2C7832 
 304      2703FD5C 
 304      7953163C 
 305 1230 62AEBD25 		.ascii	"b\256\275%\215\351O\317\316\177!\237=\027\2255\375\347"
 305      8DE94FCF 
 305      CE7F219F 
 305      3D179535 
 305      FDE7
 306 1242 C9B3B2F3 		.ascii	"\311\263\262\363s\346\316s\247%\367\034@\224y$$/'o\316"
 306      73E6CE73 
 306      A725F71C 
 306      40947924 
 306      242F276F 
 307 1257 BC178823 		.ascii	"\274\027\210#o\326\334\324f\353\001\3009\371\3765\231"
 307      6FD6DCD4 
 307      66EB01C0 
 307      39F9FE35 
 307      99
 308 1268 03A894FC 		.ascii	"\003\250\224\374\271\301\343'L\2344\231\374?PHRB"
ARM GAS  /tmp/ccCXs8VA.s 			page 25


 308      B9C1E327 
 308      4C9C3499 
 308      FC3F5048 
 308      5242
 309              		.text
 310              		.section	.gnu.lto_mbox1_setup.f151c395481d8388,"",%progbits
 311 0000 789C6362 		.ascii	"x\234cb`b@\007\222@|\031\210\325\200\230\221\231\201"
 311      60624007 
 311      92407C19 
 311      88D58098 
 311      919981
 312 0013 9169C239 		.ascii	"\221i\3029\006\206F\016&FF\020\203\201\221\241\236\211"
 312      0686460E 
 312      26464610 
 312      838191A1 
 312      9E89
 313 0025 B13E9211 		.ascii	"\261>\222\021\254v=\323\201\007\377\377\257\233wl\376"
 313      AC763DD3 
 313      8107FFFF 
 313      AF9B776C 
 313      FE
 314 0036 1AC6994C 		.ascii	"\032\306\231L\314@\021V\206\226\206\206\011\012\014"
 314      CC401156 
 314      86968686 
 314      090A0C
 315 0045 0CC96015 		.ascii	"\014\311`\025!@\022\244-\224\221\011D3\237gh{0s1W\""
 315      214012A4 
 315      2D949109 
 315      44339F67 
 315      687B3073 
 316 005c E3424656 		.ascii	"\343BFV\240t5\303\257\206\216\006\201LF\240r\210\211"
 316      A07435C3 
 316      AF868E06 
 316      814C46A0 
 316      728889
 317 006f 20118E4C 		.ascii	" \021\216LF\306\\F\006\250\"\210\232\206\311\214\231"
 317      46C65C46 
 317      06A82288 
 317      9A86C98C 
 317      99
 318 0080 8C4CDA0C 		.ascii	"\214L\332\014\253\032\200`#\220\315\014e\317\006\262"
 318      AB1A8060 
 318      2390CD0C 
 318      65CF06B2 
 319 0090 59721919 		.ascii	"Yr\031\031\223 \372\031\222\240\006AuG\000\245YY\031"
 319      9320FA19 
 319      92A00641 
 319      754700A5 
 319      595919
 320 00a3 3219D918 		.ascii	"2\031\331\030\030.24>\230\245\014\263\033\002B\200\312"
 320      182E3234 
 320      3E98A50C 
 320      B31B0242 
 320      80CA
 321 00b5 810E0305 		.ascii	"\201\016\003\005\203\212~iq\221~qQ\262~rFfRf~\261~I"
 321      838A7E69 
 321      71917E71 
ARM GAS  /tmp/ccCXs8VA.s 			page 26


 321      51B27E72 
 321      46665266 
 322 00cd 6A71897E 		.ascii	"jq\211~Q\011\230\316M\312\257\320Kf\000\000bYC>"
 322      510998CE 
 322      4DCAAFD0 
 322      4B660000 
 322      6259433E 
 323              		.text
 324              		.section	.gnu.lto_.symbol_nodes.f151c395481d8388,"",%progbits
 325 0000 789C4D90 		.ascii	"x\234M\220\277J\003A\020\306gvs\321$\376{\003+_\302"
 325      BF4A0341 
 325      10C66776 
 325      73D124FE 
 325      7B032B5F 
 326 0015 B7D1D246 		.ascii	"\267\321\322FPPPp\002\013\202Z(6\202\212\205\013\012"
 326      50505070 
 326      020B825A 
 326      2836828A 
 326      850B0A
 327 0028 11141414 		.ascii	"\021\024\024\024\024\264\330>\026\202\255!\2079M\242"
 327      14B4D83E 
 327      1682AD21 
 327      87394DA2 
 328 0038 D14492CA 		.ascii	"\321D\222\312\350\355\014\270^q\037\277\231\357\233"
 328      E8ED0CB8 
 328      5E711FBF 
 328      99EF9B
 329 0047 59468182 		.ascii	"YF\201\202\212\002\371T\202\004\260U\006 \332_\233\212"
 329      8A02F954 
 329      8204B055 
 329      0620DA5F 
 329      9B8A
 330 0059 9E1132A4 		.ascii	"\236\0212\244U\015\011\377U\277\020\201 zE\025\245\362"
 330      550D09FF 
 330      55BF1081 
 330      207A4515 
 330      A5F2
 331 006b 823A15AC 		.ascii	"\202:\025\254#)\361\024\213\210\035$\035\350\023)\023"
 331      2329F114 
 331      8B881D24 
 331      1DE81329 
 331      13
 332 007c E803290A 		.ascii	"\350\003)\012\324F\312\006zG\032\010\364\2064\030\250"
 332      D446CA06 
 332      7A471A08 
 332      F4863418 
 332      A8
 333 008d 85940BD4 		.ascii	"\205\224\013\324@\312\007j\"\025\002u\221\206\376HC"
 333      40CA076A 
 333      22150275 
 333      9186FE48 
 333      43
 334 009e 16CC6A73 		.ascii	"\026\314js\\\303\010\330\365\247I\346\015\257\243\340"
 334      5CC308D8 
 334      F5A749E6 
 334      0DAFA3E0 
 335 00ae CA49D6B3 		.ascii	"\312I\326\263\275\367:\002\361\3467\373\335\266\327"
ARM GAS  /tmp/ccCXs8VA.s 			page 27


 335      BDF73A02 
 335      F1E637FB 
 335      DDB6D7
 336 00bd 21700F13 		.ascii	"!p\017\023\036\343\307\011\357\266;\303\034\336M\245"
 336      1EE3C709 
 336      EFB63BC3 
 336      1CDE4DA5 
 337 00cd 00668FAD 		.ascii	"\000f\217\255\366\200%\236f\230a\303\254\206a\210\347"
 337      F680259E 
 337      669861C3 
 337      AC866188 
 337      E7
 338 00de 78D2BC86 		.ascii	"x\322\274\206\034\270\005\015\203\020/\362\216%\256"
 338      1CB8050D 
 338      83102FF2 
 338      8E25AE
 339 00ed 2F7B8F59 		.ascii	"/{\217Y\341,\377\315\241\314\263\310i+\0179J%\017\356"
 339      E12CFFCD 
 339      A1CCB3C8 
 339      692B0F39 
 339      4A250FEE 
 340 0101 589694C4 		.ascii	"X\226\224\304r&t)\226\033y\352\235\364\252LqUz1\223"
 340      72267429 
 340      961B79EA 
 340      9DF4AA4C 
 340      71557A31 
 341 0116 A949A0C6 		.ascii	"\251I\240\306d\023\271I]ru\3515\244\330\342}\246-\303"
 341      6413B949 
 341      5D7275E9 
 341      35A4D8E2 
 341      7DA62DC3 
 342 012a 3AE85F6F 		.ascii	":\350_o\273\350\237\357zb\351\313h\2538w\254\3741\342"
 342      BBE89FEF 
 342      7A62E9CB 
 342      68AB3877 
 342      ACFC31E2 
 343 013e 12933B61 		.ascii	"\022\223;a2\247\322;e\262gL\346\234\311\2353\331\013"
 343      32A7D23B 
 343      65B2674C 
 343      E69CC99D 
 343      33D90B
 344 0151 C95D48EF 		.ascii	"\311]H\357J\212\327\312o\26772\354V\361\355\356\024"
 344      4A8AD7CA 
 344      6FB73732 
 344      EC56F1ED 
 344      EE14
 345 0163 1FAF2A96 		.ascii	"\037\257*\226DF\277K\256\223\312\000\270\216\024{b\371"
 345      4446BF4B 
 345      AE93CA00 
 345      B88E147B 
 345      62F9
 346 0175 91DE9196 		.ascii	"\221\336\221\226\233i\255\306\300T\372\010\277 \366"
 346      9B69ADC6 
 346      C054FA08 
 346      BF20F6
 347 0184 B80D     		.ascii	"\270\015"
 348              		.text
ARM GAS  /tmp/ccCXs8VA.s 			page 28


 349              		.section	.gnu.lto_.refs.f151c395481d8388,"",%progbits
 350 0000 789C6362 		.ascii	"x\234cb`b\230\314\000\001\346\014\014\214LH\220\001"
 350      606298CC 
 350      0001E60C 
 350      0C8C4C48 
 350      9001
 351 0012 0A3179A8 		.ascii	"\0121y\25020\021b\304\031\220 \007#\0233\024\302\324"
 351      32301162 
 351      C4199020 
 351      07231333 
 351      14C2D4
 352 0025 33013133 		.ascii	"3\00113#\013\023+\0202110\000\000\247\272\001\204"
 352      230B132B 
 352      10323131 
 352      300000A7 
 352      BA0184
 353              		.text
 354              		.section	.gnu.lto_.decls.f151c395481d8388,"",%progbits
 355 0000 789CBD5B 		.ascii	"x\234\275[{t\024U\232\277\267\272;\335\235\204\247\217"
 355      7B741455 
 355      9ABFB7BA 
 355      3BDD9D84 
 355      A78F
 356 0012 C175666C 		.ascii	"\301ufl=\316\014\303\250\201\221u\230\335APfU\316Yv"
 356      3DCE0CC3 
 356      A8819175 
 356      98DD4150 
 356      6655CE59 
 357 0027 3C8AE7EC 		.ascii	"<\212\347\3549\273\347\264E\247 =\366k\272+\206\354"
 357      39BBE7B4 
 357      45A7203D 
 357      F66BBA2B 
 357      86EC
 358 0039 FC612584 		.ascii	"\374a%\204\207\010\230\007D\010\011IF\036\006f\206\200"
 358      87089807 
 358      44080949 
 358      461E0666 
 358      8680
 359 004b 90C84B1A 		.ascii	"\220\310K\0324\030\210 \004d\001Q\"\003\010\347\214"
 359      34188820 
 359      04640151 
 359      220308E7 
 359      8C
 360 005c 8E8C22E2 		.ascii	"\216\214\"\342\010\275\337\275\267\252\273\252\272\252"
 360      08BDDFBD 
 360      B7AABBAA 
 360      BAAA
 361 006a BB2ACC6C 		.ascii	"\273*\314l\037\356\243\252\356\367\373\036\367\273\257"
 361      1FEEA3AA 
 361      EEF7FB1E 
 361      F7BBAF
 362 0079 EF060E71 		.ascii	"\357\006\016q\250\230C(\005\277\271\023\021\332W\200"
 362      A8984328 
 362      05BFB913 
 362      11DA5780 
 363 0089 900321F4 		.ascii	"\220\003!\3640\244\"H.H\355\220fb\204fAZ\017\365 \224"
 363      30A42248 
ARM GAS  /tmp/ccCXs8VA.s 			page 29


 363      2E48ED90 
 363      66628466 
 363      415A0FF5 
 364 009f 6E284350 		.ascii	"n(CP\206!\315\206\344\207\0040\250\006\312\377\2014"
 364      8621CD86 
 364      E4870430 
 364      A806CAFF 
 364      8134
 365 00b1 04EA8BA1 		.ascii	"\004\352\213\241\254\203\264\024R3\2446Hk\011\006\244"
 365      AC83B414 
 365      5233A436 
 365      486B0906 
 365      A4
 366 00c2 8D90B640 		.ascii	"\215\220\266@\352\202\264\023\322^HoCr\002\335\001("
 366      EA82B413 
 366      D25E486F 
 366      437202DD 
 366      0128
 367 00d4 0F43FA14 		.ascii	"\017C\372\024\222\203\200\252~\004\363^(AL4\024R1b2"
 367      928380AA 
 367      7E04F35E 
 367      28414C34 
 367      14523162 
 368 00e9 11391BE1 		.ascii	"\0219\033\341[\007\224n(O\220\357@;\214c\362\217\200"
 368      5B07946E 
 368      284F90EF 
 368      403B8C63 
 368      F28F80
 369 00fc 72076272 		.ascii	"r\007br\216\204\3722(o\341\230\036\2730\323\351Vx\356"
 369      8E84FA32 
 369      286FE198 
 369      1EBB30D3 
 369      E95678EE 
 370 0110 84F277F0 		.ascii	"\204\362w\360\3566\250wC\375v(\327A\371\035.c\203vH"
 370      EE36A877 
 370      43FD7628 
 370      D741F91D 
 370      2E638376 
 371 0125 A3E07903 		.ascii	"\243\340y\003\224w@\331\202\031\377R(\267C\371\006\244"
 371      947740D9 
 371      8219FF52 
 371      28B743F9 
 371      06A4
 372 0137 2E48AF41 		.ascii	".H\257A\032)\313\374O\320\356{\220|\220~\3141\233\214"
 372      1A29CBFC 
 372      4FD0EE7B 
 372      907C907E 
 372      CC319B8C 
 373 014b 85F2412E 		.ascii	"\205\362A.\243\377\026\331.\017q\314.ke\233\255\227"
 373      A3FF16D9 
 373      2E0F71CC 
 373      2E6B659B 
 373      AD97
 374 015d EDA7D8E6 		.ascii	"\355\247\330\346_\340\373\277B\372\205\3166ur\277L\224"
 374      5FE0FBBF 
 374      42FA85CE 
 374      367572BF 
ARM GAS  /tmp/ccCXs8VA.s 			page 30


 374      4C94
 375 016f 75D6F74F 		.ascii	"u\326\367O\217\256\2178\231\346m\271\256\330]\375+B"
 375      8FAE8F38 
 375      99E66DB9 
 375      AED85DFD 
 375      2B42
 376 0181 0B25A95A 		.ascii	"\013%\251Zj\233'=\321;t$\252\223\340\347\353\005\313"
 376      6A9B273D 
 376      D13B7424 
 376      AA93E0E7 
 376      EB05CB
 377 0194 FF27E6F1 		.ascii	"\377'\346\361P/Jr\264V\354E\243\241\365\017\320jI\252"
 377      502F4A72 
 377      B456EC45 
 377      A3A1F50F 
 377      D06A49AA 
 378 01a8 1D387F76 		.ascii	"\0358\177v\224\344\344\361\357\360H\300\275\037\243"
 378      94E4E4F1 
 378      EFF048C0 
 378      BD1FA3
 379 01b7 31A803C8 		.ascii	"1\250\003\310j%\351\354\235(\373\227\027\025!\036\257"
 379      6A25E9EC 
 379      9D28FB97 
 379      1715211E 
 379      AF
 380 01c8 052C1EAF 		.ascii	"\005,\036\257\301c\030\017)yY\360\261\267H~o\360\273"
 380      C163180F 
 380      297959F0 
 380      B1B7487E 
 380      6FF0BB
 381 01db 1BB581F0 		.ascii	"\033\265\201\360\311/.\355\307R}\261F\025/Z@\230\262"
 381      C92F2EED 
 381      C7527DB1 
 381      46152F5A 
 381      4098B2
 382 01ee 87345F9F 		.ascii	"\2074_\237\302\326\231Q\346\372\225E\023%\311\303\343"
 382      C2D69951 
 382      E6FA9545 
 382      1325C9C3 
 382      E3
 383 01ff F5D80BEA 		.ascii	"\365\330\013\352\374\026k\370Y\307i8\320\372\023\212"
 383      FC166BF8 
 383      59C76938 
 383      D0FA138A 
 384 020f F3078AB3 		.ascii	"\363\007\212\263\032\017\026h[\337\356\011\024\250\223"
 384      1A0F1668 
 384      5BDFEE09 
 384      14A893
 385 021e 029DD201 		.ascii	"\002\235\322\001\361\270\300\2536\002}V\032\0204x$\234"
 385      F1B8C0AB 
 385      36027D56 
 385      1A103478 
 385      249C
 386 0230 BE26431E 		.ascii	"\276&C\036\277 \277!\017n\364\377Ng\244&\201\350\300"
 386      BF20BF21 
 386      0F6EF4FF 
 386      4E67A426 
ARM GAS  /tmp/ccCXs8VA.s 			page 31


 386      81E8C0
 387 0243 450A1E87 		.ascii	"E\012\036\207\316Q\015I_\0335\227\253\354'7\320\364"
 387      CE510D49 
 387      5F1B3597 
 387      ABEC2737 
 387      D0F4
 388 0255 FFC0F955 		.ascii	"\377\300\371U-wHm{1\203\345\320g\266\361|\032\177\372"
 388      2D77486D 
 388      7B3183E5 
 388      D067B6F1 
 388      7C1A7FFA 
 389 0269 46E81DAB 		.ascii	"F\350\035\253`]\261\202\3451\225-\371\255\012\353\206"
 389      605DB182 
 389      E531952D 
 389      F9AD0AEB 
 389      86
 390 027a 6D2CB55C 		.ascii	"m,\265\\R2u\336\013nn0\234\236U\210\2133^\324Z\277\323"
 390      523275DE 
 390      0B6E6E30 
 390      9C9E5588 
 390      8B335ED4 
 391 0291 41BD6807 		.ascii	"A\275h\007\035\245\0339\255\027\345C\341\320\016J\361"
 391      1DA51B39 
 391      AD17E543 
 391      E1D00E4A 
 391      F1
 392 02a2 A67E5C9E 		.ascii	"\246~\\\236l\307>\366:\337\300\224\222\037\230\011<"
 392      6CC73EF6 
 392      3ADFC094 
 392      921F9809 
 392      3C
 393 02b3 59ADAD2C 		.ascii	"Y\255\255,\360\246\306cu\270F\222\340\303^*\362\025"
 393      F0A6C663 
 393      75B84692 
 393      E0C35E2A 
 393      F215
 394 02c5 6391DB26 		.ascii	"c\221\333&\233\001qh\256\203\220\364\350d\036\370\360"
 394      9B017168 
 394      AE8390F4 
 394      E8641EF8 
 394      F0
 395 02d6 D4D56A5C 		.ascii	"\324\325j\\E\241{,\315(\227_b\036\225ovls*\374\177\231"
 395      45A17B2C 
 395      CD28975F 
 395      621E956F 
 395      766C732A 
 396 02ed 51A4F3F8 		.ascii	"Q\244\363\370$2;\036\240J\354v\344\265\273\026\204C"
 396      24323B1E 
 396      A04AEC76 
 396      E4B5BB16 
 396      8443
 397 02ff BD94E460 		.ascii	"\275\224\344`\226\022M=sd%\016ZR\342\225%\312\260\330"
 397      96124D3D 
 397      7364250E 
 397      5A52E295 
 397      25CAB0D8 
 398 0313 4FDDAF3F 		.ascii	"O\335\257?\215;\250a\226l:T\\\313+`'m\203i\307X\353"
ARM GAS  /tmp/ccCXs8VA.s 			page 32


 398      8D3BA861 
 398      966C3A54 
 398      5CCB2B60 
 398      276D8369 
 399 032a A1662A1C 		.ascii	"\241f*\034\235\026\253-\315\323\227\345y\372}:-\016"
 399      9D16AB2D 
 399      CDD397E5 
 399      79FA7D3A 
 399      2D0E
 400 033c 380CE657 		.ascii	"8\014\346WK@\015\013W\337G\201NP\240\213\203\006\332"
 400      4B400D0B 
 400      57DF4781 
 400      4E50A08B 
 400      8306DA
 401 034f D6F7761D 		.ascii	"\326\367v\035\236C{\344\003\012u\331\241\237\252\335"
 401      9E437BE4 
 401      030A75D9 
 401      A19FAADD 
 402 035f BAA9DAAD 		.ascii	"\272\251\332\255\235:\351g\271Bf\314a\350\037\334\234"
 402      9D3AE967 
 402      B94266CC 
 402      61E81FDC 
 402      9C
 403 0370 43DF5AE9 		.ascii	"C\337Z\3518\323\011M\0328\335\364\256c\205\224\254q"
 403      38D3094D 
 403      1A38DDF4 
 403      AE638594 
 403      AC71
 404 0382 28C3B1C0 		.ascii	"(\303\261\300\314J\034\232\343$\274\006\364\236\334"
 404      CC4A1C9A 
 404      E324BC06 
 404      F49EDC
 405 0391 7DB6F7C7 		.ascii	"}\266\367\307\313%i8\373\224\337\221\267\036x\305\332"
 405      CB256938 
 405      FB94DF91 
 405      B71E78C5 
 405      DA
 406 03a2 684CEF2A 		.ascii	"hL\357*\356\245\354\267Q\366\347\365\354W^\030x\230"
 406      EEA5ECB7 
 406      51F6E7F5 
 406      EC575E18 
 406      7898
 407 03b4 B13F6F89 		.ascii	"\261?o\211}k\377\322l\366<~\370\266\\\276\321}\366\342"
 407      7D6BFFD2 
 407      6CF63C7E 
 407      F8B65CBE 
 407      D17DF6E2 
 408 03c8 775B2993 		.ascii	"w[)\223Kt\274\\u\352]cR\221\232\027}V5\340\220\344R"
 408      4B74BC5C 
 408      75EA5D63 
 408      52919A17 
 408      7D5635E0 
 409 03df A41FDCAA 		.ascii	"\244\037\334\252\270\362Brj\307fIz\261@\221a\216mD\237"
 409      B8F24272 
 409      6AC76649 
 409      7AB14091 
 409      618E6D44 
ARM GAS  /tmp/ccCXs8VA.s 			page 33


 410 03f4 C6109BFB 		.ascii	"\306\020\233\373\351\004\300\300\346Y\001\313\2610n"
 410      E904C0C0 
 410      E65901CB 
 410      B1306E
 411 0403 5183BD68 		.ascii	"Q\203\275h\033L+Y\227\032l\221\025\260\341\346\222\275"
 411      1B4C2B59 
 411      971A6C91 
 411      15B0E1E6 
 411      92BD
 412 0415 A1067BD9 		.ascii	"\241\006{\3316\230V\262\355j\260z+`\243\314%\333\251"
 412      369856B2 
 412      ED6AB07A 
 412      2B60A3CC 
 412      25DBA9
 413 0428 066BB40D 		.ascii	"\006k\264\015\246\225\354M5X\223\0250\237\201d\351\237"
 413      A695EC4D 
 413      35589315 
 413      309F8164 
 413      E99F
 414 043a D94EEF9C 		.ascii	"\331N\357\234z\247\327\342R&\004\233>\2152\030\355."
 414      7AA7D7E2 
 414      5226049B 
 414      3E8D3218 
 414      ED2E
 415 044c BB139846 		.ascii	"\273\023\230FoXG\017\276\212\033\346Hd_\306\326\262"
 415      6F58470F 
 415      BE8A1BE6 
 415      48645FC6 
 415      D6B2
 416 045e 75561073 		.ascii	"uV\020s8L\227za\334h\033L\333-\307\010X\366Q\246Z\032"
 416      384C977A 
 416      61DC681B 
 416      4CDB2DC7 
 416      0858F651 
 417 0475 58931CB5 		.ascii	"X\223\034\265<3\331y\024,r\240c3\033\034\300\270tci"
 417      3C33D979 
 417      142C72A0 
 417      63331B1C 
 417      C0B87463 
 418 048a D428E3B6 		.ascii	"\324(\343\266<\236\307\375\000\362\371\2347-\005\253"
 418      3C9EC7FD 
 418      00F2F99C 
 418      372D05AB 
 419 049a 2BB5143D 		.ascii	"+\265\024=/v\273tGE\345\227\217\324\314\023j8\225'\354"
 419      2F76BB74 
 419      4745E597 
 419      8FD4CC13 
 419      6A389527 
 420 04af B462A61C 		.ascii	"\264b\246\034C\341o\207\232\277#\015$\261J\337\234\306"
 420      43E16F87 
 420      9ABF230D 
 420      24B14ADF 
 420      9CC6
 421 04c1 81FDC379 		.ascii	"\201\375\303yy\377\360\022G\326\352\267\\\206\313\276"
 421      79FFF012 
 421      47D6EAB7 
 421      5C86CBBE 
ARM GAS  /tmp/ccCXs8VA.s 			page 34


 422 04d1 05A08685 		.ascii	"\005\240\206\205\215\354\240\267\204\002\275;h\240m"
 422      8DECA0B7 
 422      8402BD3B 
 422      68A06D
 423 04e0 7DABD841 		.ascii	"}\253\330A\257\216\002\035s\351\227\010\254\333=`\355"
 423      AF8E021D 
 423      73E99708 
 423      ACDB3D60 
 423      ED
 424 04f1 FA8EBD99 		.ascii	"\372\216\275\231JJ\333Y\177\327\266\034\372H\337[\032"
 424      4A4ADB59 
 424      7FD7B61C 
 424      FA48DF5B 
 424      1A
 425 0502 75F2CE35 		.ascii	"u\362\3165\260\001?\327\200\277\250\226\226\217\265"
 425      B0013FD7 
 425      80BFA896 
 425      968FB5
 426 0511 D15F1FCB 		.ascii	"\321_\037\313\375\325H\255s!\313:K8{\346\201\203\241"
 426      FDD548AD 
 426      7321CB3A 
 426      4B387BE6 
 426      8183A1
 427 0524 6D35466B 		.ascii	"m5Fk\325h\372\304\276\032\227d5VR5\276\372;\250q\303"
 427      D568FAC4 
 427      BE1A9764 
 427      35565235 
 427      BEFA3BA8 
 428 053a B61A6355 		.ascii	"\266\032cUj\220\343\320\227K\331\014x\013\252\317\275"
 428      6A90E3D0 
 428      974BD90C 
 428      780BAACF 
 428      BD
 429 054b 8723F2B4 		.ascii	"\207#\362\264q\267h\217\200W\336#G@\362:\377\021\260"
 429      71B7688F 
 429      8057DE23 
 429      4740F23A 
 429      FF11B0
 430 055e A1BF593E 		.ascii	"\241\277Y>\204\260\360\312\334\002,C\016fW#%;\331\252"
 430      84B0F0CA 
 430      DC022C43 
 430      0E665723 
 430      253BD9AA 
 431 0572 C5C016DD 		.ascii	"\305\300\026\335\024Xurw\275rB\232D\246\356e7\011w\272"
 431      14587572 
 431      77BD7242 
 431      9A44A6EE 
 431      65370977 
 432 0587 5F3F75EB 		.ascii	"_?u\353\266\214\007L\246\273\364\011x\337\036\\M\317"
 432      B68C074C 
 432      A6BBF409 
 432      78DF1E5C 
 432      4DCF
 433 0599 13EB3922 		.ascii	"\023\3539\"Ps\201\336Y\366c\335\256\221\274P51\353\303"
 433      507381DE 
 433      59F663DD 
 433      AE91BC50 
ARM GAS  /tmp/ccCXs8VA.s 			page 35


 433      3531EBC3 
 434 05ad 0EF5DCBB 		.ascii	"\016\365\334\273\361\346\364\204apf5\363\037\235~o\232"
 434      F1E6F484 
 434      61706635 
 434      F31F9D7E 
 434      6F9A
 435 05bf E84724D8 		.ascii	"\350G$\330\250\226`\353MZz\325Q\275\245\015\216\003"
 435      A89660EB 
 435      4D5A7AD5 
 435      51BDA50D 
 435      8E03
 436 05d1 12562FB7 		.ascii	"\022V/\267\260\344P\246\257s\372\343\300W\275\363\345"
 436      B0E450A6 
 436      AF73FAE3 
 436      C057BDF3 
 436      E5
 437 05e2 7335F996 		.ascii	"s5\371\226\337\245\257\320\250\206\022\245\3704\215"
 437      DFA5AFD0 
 437      A88612A5 
 437      F8348D
 438 05f1 2AB3D584 		.ascii	"*\263\325\204$\362\253r\215\005/\225\355\303\025=\234"
 438      24F2AB72 
 438      8D052F95 
 438      EDC3153D 
 438      9C
 439 0602 CD6D3589 		.ascii	"\315m5\2117\3313\014s\276\344\311\363dP\357\344\210"
 439      37D9330C 
 439      73BEE4C9 
 439      F36450EF 
 439      E488
 440 0614 4ED7B3FC 		.ascii	"N\327\263\374\216YF\345w\0313\362x+\335OtqwC\376\006"
 440      8E5946E5 
 440      771933F2 
 440      782BDD4F 
 440      74717743 
 441 062a CDB7439E 		.ascii	"\315\267C\236\376\231y\304\016\265G\314u\333\325\333"
 441      FE9979C4 
 441      0EB547CC 
 441      75DBD5DB 
 442 063a A7EB1D33 		.ascii	"\247\353\03536\233\325l\026\271o\316\365O\237\372\213"
 442      369BD56C 
 442      16B96FCE 
 442      F54F9FFA 
 442      8B
 443 064b 939E7E6D 		.ascii	"\223\236~m\304-\256\313\013\300^\272\0004\270\365\266"
 443      C42DAECB 
 443      0BC05EBA 
 443      0034B8F5 
 443      B6
 444 065c 3DA15FE6 		.ascii	"=\241_\346\255\034\343[\007\253H\372\307\241\265n\013"
 444      AD1CE35B 
 444      07AB48FA 
 444      C7A1B56E 
 444      0B
 445 066d 7B309F99 		.ascii	"{0\237\2311HD\352\252\274\216\344\215\005(3\334\361"
 445      314844EA 
 445      AABC8EE4 
ARM GAS  /tmp/ccCXs8VA.s 			page 36


 445      8D052833 
 445      DCF1
 446 067f 77ABE418 		.ascii	"w\253\344\030_/\365\264\365:kX\010*l\243$}\372a\374"
 446      5F2FF5B4 
 446      F53A6B58 
 446      082A6CA3 
 446      247DFA61 
 447 0694 61D3974A 		.ascii	"a\323\227J\214\257\317\3020\256N\036}I\035\036\343\361"
 447      8CAFCFC2 
 447      30AE4E1E 
 447      7D491D1E 
 447      E3F1
 448 06a6 11CCC9B8 		.ascii	"\021\314\311\270\203\265\250\246\023\373T\003\344 \035"
 448      83B5A8A6 
 448      13FB5403 
 448      E4201D
 449 06b5 2087D483 		.ascii	" \207\324\203\202C\373m[\337\247\266~\362\332\321f\314"
 449      8243FB6D 
 449      5BDFA7B6 
 449      7EF2DAD1 
 449      66CC
 450 06c7 E46713D1 		.ascii	"\344g\023\321Q=\236\321D4\332\2647\223\265\307U+\353"
 450      513D9ED1 
 450      4434DAB4 
 450      3793B5C7 
 450      552BEB
 451 06da 4756841B 		.ascii	"GV\204\033k\006V\235lf`\314\345\317\331\006\363i\300"
 451      6B06569D 
 451      6C6660CC 
 451      E5CFD906 
 451      F369C0
 452 06ed 76342A3D 		.ascii	"v4*=\265\231.\213\177\261\2027\301\\\270\243\307\225"
 452      B5992E8B 
 452      7FB18237 
 452      C15CB8A3 
 452      C795
 453 06ff 3D090B25 		.ascii	"=\011\013%^\263\215\247\225\357r\243f\033Q\343\261\000"
 453      5EB38DA7 
 453      95EF72A3 
 453      661B51E3 
 453      B100
 454 0711 37D9B223 		.ascii	"7\331\262#e\002\301<~\017\023G:\214\311\034\333O\363"
 454      6502C13C 
 454      7E0F1347 
 454      3A8CC91C 
 454      DB4FF3
 455 0724 63343F43 		.ascii	"c4?C\363\024\315\253\350\014<\207\346\013i\276\214\346"
 455      F314CDAB 
 455      E80C3C87 
 455      E60B69BE 
 455      8CE6
 456 0736 4D346FA5 		.ascii	"M4o\245\371;4?L\363~\232\037\243\371q\232\237\240\371"
 456      F93B343F 
 456      4CF37E9A 
 456      1FA3F971 
 456      9A9FA0F9 
 457 074a 292B73B8 		.ascii	")+s\270n\373\241\214\242\236A\007\231\377\332\227>K"
ARM GAS  /tmp/ccCXs8VA.s 			page 37


 457      6EFBA18C 
 457      A29E4107 
 457      99FFDA97 
 457      3E4B
 458 075c F3F8A86D 		.ascii	"\363\370\250m0_.K\366\250,\371\016\265d/\265\330i\355"
 458      305F2E4B 
 458      F6A82CF9 
 458      0EB5642F 
 458      B5D869ED 
 459 0770 C05CE451 		.ascii	"\300\\\344Q.>\006\263\242K\003\255\375\335?\317\254"
 459      2E3E06B3 
 459      A24B03AD 
 459      FDDD3FCF 
 459      AC
 460 0781 11D6EE20 		.ascii	"\021\326\356 \327,fk\304\031:`\226z\364k\304\037\364"
 460      D72C666B 
 460      C4193A60 
 460      967AF46B 
 460      C41FF4
 461 0794 6B848D3B 		.ascii	"k\204\215;8\0165\3515\262\272\2510\266\343\233*;&\251"
 461      380E35E9 
 461      35B2BAA9 
 461      30B6E39B 
 461      2A3B26A9 
 462 07a8 1DF7503B 		.ascii	"\035\367P;~\244\265c\233Gw\335\365\254\302\2528\303"
 462      7EA4B563 
 462      9B4777DD 
 462      F5ACC2AA 
 462      38C3
 463 07ba D534AC02 		.ascii	"\3254\254\002g\253\263\275\216*bG\345\016k\203\025@"
 463      67ABB3BD 
 463      8E2A6247 
 463      E50E6B83 
 463      1540
 464 07cc A353A8B1 		.ascii	"\243S\250\261"
 465 07d0 1A6B556A 		.ascii	"\032kUj\254\243j\274F\325\330B\363.\232\277A\363\355"
 465      ACA36ABC 
 465      46D5D842 
 465      F32E9ABF 
 465      41F3ED
 466 07e3 343F6765 		.ascii	"4?ge@\264g6\350\232m\330\010TK\267a\313\207\262@\211"
 466      40B46736 
 466      E89A6DD8 
 466      08544BB7 
 466      61CB87B2 
 467 07f9 4C3F56A1 		.ascii	"L?V\241/\220\351?\341F\320\232\306wh\0133\216\027U\301"
 467      2F90E93F 
 467      E146D09A 
 467      C677680B 
 467      338E1755 
 468 080e 98626FA6 		.ascii	"\230bo\246\342\312#\351\205\314\276\310\372ff\323\361"
 468      E2CA23E9 
 468      85CCBEC8 
 468      FA6666D3 
 468      F1
 469 081f AD63A8A3 		.ascii	"\255c\250\243^\242\216\332\235\345\250\203\330\314\030"
 469      5EA28EDA 
ARM GAS  /tmp/ccCXs8VA.s 			page 38


 469      9DE5A883 
 469      D8CC18
 470 082e DA69C19F 		.ascii	"\332i\301\237\224\320Nr\236\264\000Wm\372nZ.\315p\224"
 470      94D04E72 
 470      9EB40057 
 470      6DFA6E5A 
 470      2ECD7094 
 471 0842 E5EA3A7B 		.ascii	"\345\352:{\361{T\256\317\250\\{tr\331\201jX\270\216"
 471      F17B54AE 
 471      CFA85C7B 
 471      7472D981 
 471      6A58B88E 
 472 0856 5D0F5D66 		.ascii	"]\017]f\341\235\233\200\332\326\367\241rA\364%\005{"
 472      E19D9B80 
 472      DAD6F7A1 
 472      7241F425 
 472      057B
 473 0868 3FCB5E5E 		.ascii	"?\313^^\235\271\274Zsy\275\231JJ\371\351\3037\377@\032"
 473      9DB9BC5A 
 473      7379BD99 
 473      4A4AF9E9 
 473      C337FF40 
 474 087d 59B9E4AD 		.ascii	"Y\271\344\255\212v\275\234\014\360\251mG\275j\342\250"
 474      8A76BD9C 
 474      0CF0A96D 
 474      47BD6AE2 
 474      A8
 475 088e A3F338EA 		.ascii	"\243\3638\352\2373\216\252\034f\300;2\262\315T\010."
 475      9F338EAA 
 475      1C66C03B 
 475      32B2CD54 
 475      082E
 476 08a0 16CB145F 		.ascii	"\026\313\024_\3537\207u\353>\036\305\372\341kKG\274"
 476      EB378775 
 476      EB3E1EC5 
 476      FAE16B4B 
 476      47BC
 477 08b2 95FB0AA5 		.ascii	"\225\373\012\245\263I\314\264\344P\225\027\313\250\306"
 477      B349CCB4 
 477      E4509517 
 477      CBA8C6
 478 08c1 F6C8BB26 		.ascii	"\366\310\273&$\233\037\253\235W\254\300\325X\203\223"
 478      249B1FAB 
 478      9D57ACC0 
 478      D5588393 
 479 08d1 4D6D88B7 		.ascii	"Mm\210\267J\2157\337\032^\255\313\034\257S\215\267\320"
 479      4A8D37DF 
 479      1A5EADCB 
 479      1CAF538D 
 479      B7D0
 480 08e3 1ADE09B7 		.ascii	"\032\336\011\2679\336f5\336bkxm\205\006x\372\236\331"
 480      39DE6635 
 480      DE626B78 
 480      6D850678 
 480      FA9ED9
 481 08f6 C280BFA6 		.ascii	"\302\200\277\246\247\207Z\000\226CX\271\\\002\016]T"
 481      A7875A00 
ARM GAS  /tmp/ccCXs8VA.s 			page 39


 481      964358B9 
 481      5C020E5D 
 481      54
 482 0907 82790E5D 		.ascii	"\202y\016] \353\225}\016\037{\235\303%x\\\343\270[a"
 482      20EB957D 
 482      0E1F7B9D 
 482      C325785C 
 482      E3B85B61 
 483 091b DFBD6F31 		.ascii	"\337\275o1&ag\365t\276$3\235\033\370\342B\207\335q\362"
 483      266167F5 
 483      74BE2433 
 483      9D1BF8E2 
 483      4287DD71 
 484 0930 92C3789C 		.ascii	"\222\303x\234|R,K\004KkZ\037c\306VN+\266)\357B\253\244"
 484      7C522C4B 
 484      044B6B5A 
 484      1F63C656 
 484      4E2BB629 
 485 0948 E4E703AD 		.ascii	"\344\347\003\255\033>\276\243\205\334+J7R/\340\333\321"
 485      1B3EBEA3 
 485      85DC2B4A 
 485      37522FE0 
 485      DBD1
 486 095a 32592D09 		.ascii	"2Y-\011\213\246\227\2424\316\351\270]\256=\343P\364"
 486      8BA697A2 
 486      34CEE9B8 
 486      5DAE3DE3 
 486      50F4
 487 096c 78D78B75 		.ascii	"x\327\213u\206\377!ZC\360\244\327$\007E#\355\027;\356"
 487      86FF215A 
 487      43F0A4D7 
 487      24074523 
 487      ED173BEE 
 488 0980 D276C8CB 		.ascii	"\322v\310\313\332\277\032d\202%W\355+\256\255\032H\245"
 488      DABF1A64 
 488      822557ED 
 488      2BAEAD1A 
 488      48A5
 489 0992 EE62BC38 		.ascii	"\356b\2748t\312\022z\235\036\275>\033}\240\026\246\220"
 489      74CA127A 
 489      9D1EBD3E 
 489      1B7DA016 
 489      A690
 490 09a4 23772EDF 		.ascii	"#w.\337,\325\030\250\355A\363i0x\256T\205\177\223\266"
 490      2CD518A8 
 490      ED41F369 
 490      3078AE54 
 490      857F93B6 
 491 09b8 9AC9050D 		.ascii	"\232\311\005\015\217\033\035\036\022\317\366\232^\257"
 491      8F1B1D1E 
 491      12CFF69A 
 491      5EAF
 492 09c6 90068AF9 		.ascii	"\220\006\212\371Y]\251\345\270]Y&\233\327A\377\324\017"
 492      595DA9E5 
 492      B85D5926 
 492      9BD741FF 
 492      D40F
ARM GAS  /tmp/ccCXs8VA.s 			page 40


 493 09d8 5EB8BC99 		.ascii	"^\270\274\231\272\214\2301=\265\376\237\263\354\303"
 493      BA8C9831 
 493      3DB5FE9F 
 493      B3ECC3
 494 09e7 1AAD3434 		.ascii	"\032\25544\300\271\253\275xA\275\364m*\345@\326{\275"
 494      C0B9ABBD 
 494      7841BDF4 
 494      6D2AE540 
 494      D67BBD
 495 09fa 452F563B 		.ascii	"E/V;\335\331k\344\270f\"G\253\241\034\265\353N\336\271"
 495      DDD96BE4 
 495      B8662247 
 495      ABA11CB5 
 495      EB4EDEB9 
 496 0a0e 42DA5B23 		.ascii	"B\332[#\245R/\350\005!z\232\356\314\314\015\244\013"
 496      A5522FE8 
 496      05217A9A 
 496      EECCCC0D 
 496      A40B
 497 0a20 63AAF667 		.ascii	"c\252\366gY(\253\035E\032\0315\212\314)4Vd\215\221\""
 497      5928AB1D 
 497      451A1935 
 497      8ACC2934 
 497      56648D91 
 498 0a35 C9CFF72D 		.ascii	"\311\317\367-\2220\363X\353\366\\\247\327\202\010\253"
 498      9230F358 
 498      EBF65CA7 
 498      D78208AB 
 499 0a45 13638589 		.ascii	"\023c\205\211\030\035\206\366\\s\243\027\233\331\223"
 499      181D86F6 
 499      5C73A317 
 499      9BD993
 500 0a54 0403CC24 		.ascii	"\004\003\314$\331`\324\263\351\007\371\017\374t\222"
 500      D960D4B3 
 500      E907F90F 
 500      FC7492
 501 0a63 759848F6 		.ascii	"u\230H\366GC\003\235~\307\314@\271\344\352\314)\327"
 501      4743039D 
 501      7EC7CC40 
 501      B9E4EACC 
 501      29D7
 502 0a75 7AB63FD5 		.ascii	"z\266?\325\311\265\305D\256\327\015\345:\236\221\213"
 502      C9B5C544 
 502      AED70DE5 
 502      3A9E918B 
 503 0a85 B1E3D05B 		.ascii	"\261\343\320[&\000[\015\001>\032\224b\335V\014\236~"
 503      26005B0D 
 503      013E1A94 
 503      62DD560C 
 503      9E7E
 504 0a97 BEC41929 		.ascii	"\276\304\031)z\320D\316\035\206r\366\017J\316]V: \217"
 504      7AD044CE 
 504      1D8672F6 
 504      0F4ACE5D 
 504      563A208F 
 505 0aab 9CFF6B22 		.ascii	"\234\377k\"\347\036C9O\250;d\027\355\220\001\023\200"
 505      E71E4339 
ARM GAS  /tmp/ccCXs8VA.s 			page 41


 505      4FA83B64 
 505      17ED9001 
 505      1380
 506 0abd B70C0176 		.ascii	"\267\014\001v\315_t\207\324^\235L\245&\331\230\333z"
 506      CD5F7487 
 506      D45E9D4C 
 506      A526D998 
 506      DB7A
 507 0acf 6C75C819 		.ascii	"lu\310\031CE?3\221s\277V\316{P\273\224<<\260j\303\307"
 507      43453F33 
 507      9173BF56 
 507      CE7B50BB 
 507      943C3CB0 
 508 0ae6 6E722496 		.ascii	"nr$\226\3104\214\261\362'\330\327\323 \312\242\236\365"
 508      C8348CB1 
 508      F227D8D7 
 508      D320CAA2 
 508      9EF5
 509 0af8 F7D57D32 		.ascii	"\367\325}2\336x\364\272\264 \371,\243d'\336\337\242"
 509      DE78F4BA 
 509      B420F92C 
 509      A36427DE 
 509      DFA2
 510 0b0a 6FC87187 		.ascii	"o\310q\207l\263\177\202\306\260M\033\255\220M\026aL"
 510      6CB37F82 
 510      C6B04D1B 
 510      AD904D16 
 510      614C
 511 0b1c 57BF3DF7 		.ascii	"W\277=\367\357\250\226j6\201eR85\211m>`g\\\244\347\234"
 511      EFA8966A 
 511      36816552 
 511      3835896D 
 511      3E60675C 
 512 0b33 BD033A92 		.ascii	"\275\003:\222Q\205\355\245\344\3527\252\3634;u\377\022"
 512      5185EDA5 
 512      E4EA37AA 
 512      F3343B75 
 512      FF12
 513 0b45 BD252D90 		.ascii	"\275%-\220\310\016c>Q\216X0\247p<>\354\270\307\034T"
 513      C80E633E 
 513      518E5830 
 513      A7703C3E 
 513      ECB8C71C 
 514 0b5a 16E456F6 		.ascii	"\026\344V\366\245+\237\252y\320X0\340\346\020H \201"
 514      A52B9FAA 
 514      79D05830 
 514      E0E61048 
 514      2081
 515 0b6c F5808F05 		.ascii	"\365\200\217\0055X\350$\375j/}\325\253\360\321\255K"
 515      3558E824 
 515      FD6A2F7D 
 515      D5ABF0D1 
 515      AD4B
 516 0b7e 7B735CAF 		.ascii	"{s\\\257\235\311\254KT\034\322\226V\030\227\003T.\302"
 516      9DC9AC4B 
 516      541CD296 
 516      56189703 
ARM GAS  /tmp/ccCXs8VA.s 			page 42


 516      542EC2
 517 0b91 5E6EBF07 		.ascii	"^n\277\007\253\345\"\0210Y3\002d\033\001\261\340\217"
 517      ABE52211 
 517      30593302 
 517      641B01B1 
 517      E08F
 518 0ba3 1C77A2CF 		.ascii	"\034w\242\317$ZbC\325|\214\323\301\227A\213n\202\240"
 518      245A6243 
 518      D57C8CD3 
 518      C197418B 
 518      6E82A0
 519 0bb6 15DDA50C 		.ascii	"\025\335\245\014\266\316dr\353{k\261\324V-\301\206/"
 519      B6CE6472 
 519      EB7B6BB1 
 519      D4562DC1 
 519      862F
 520 0bc8 A56CF8C9 		.ascii	"\245l\370\311\037\037\247{%\231\271^\203\303\001\316"
 520      1F1FA77B 
 520      2599B95E 
 520      83C301CE 
 521 0bd8 71F5380F 		.ascii	"q\3658\017\206I\336\2138\036_v\220x\347_\035Y\247\327"
 521      8649DE8B 
 521      381E5F76 
 521      9078E75F 
 521      1D59A7D7 
 522 0bec 93CA0D25 		.ascii	"\223\312\015%\371\226\377j\343\332\365^v\247XC\343\345"
 522      F996FF6A 
 522      E3DAF55E 
 522      76A75843 
 522      E3E5
 523 0bfe 2FD3414A 		.ascii	"/\323AJHs\204\3772C&\373om.\365f\375\377\012\266\307"
 523      487384FF 
 523      324326FB 
 523      6F6D2EF5 
 523      66FDFF0A 
 524 0c14 363DEA3B 		.ascii	"6=\352;TwnKm\263\367i\330\263?\241'\220\034j\262\202"
 524      54776E4B 
 524      6DB3F769 
 524      D8B33FA1 
 524      27901C6A 
 525 0c2a 95E37AF4 		.ascii	"\225\343z\364\206\012\353U\333X>\235\271\225~\340\361"
 525      860AEB55 
 525      DB583E9D 
 525      B9957EE0 
 525      F1
 526 0c3b 970E1221 		.ascii	"\227\016\022!\374\212\346\327h\3767\207\312\307\214"
 526      FC8AE6D7 
 526      68FE3787 
 526      CAC78C
 527 0c4a EDA433E8 		.ascii	"\355\2443\350\347&\222\020\374\353\232m\247\012r\262"
 527      E7269210 
 527      FCEB9A6D 
 527      A70A72B2 
 528 0c5a 5650959B 		.ascii	"VP\225\2332\"\343f<\276a\373X\23229\226\252\2171\231"
 528      3222E366 
 528      3CBE61FB 
 528      589A3239 
ARM GAS  /tmp/ccCXs8VA.s 			page 43


 528      96AA8F31 
 529 0c6f 56245CAB 		.ascii	"V$\\\253_\033\262\204\220\234\352E\011&\205\317@\252"
 529      5F1BB284 
 529      909CEA45 
 529      092685CF 
 529      40AA
 530 0c81 74BF9151 		.ascii	"t\277\221Q\275\234\256\006\023\035L\03120??\234\274"
 530      BD9CAE06 
 530      131D4C19 
 530      32303F3F 
 530      9CBC
 531 0c93 BEA42533 		.ascii	"\276\244%30\231\3358\324\255\347\246\035\\t\355\001"
 531      3099DD38 
 531      D4ADE7A6 
 531      1D5C74ED 
 531      01
 532 0ca4 76DF477B 		.ascii	"v\337G{\212Z$\217\212\355d\206\300\372\220\361L\246"
 532      8A5A248F 
 532      8AED6486 
 532      C0FA90F1 
 532      4CA6
 533 0cb6 0E612BD1 		.ascii	"\016a+\321[)\275\314\372d\026/:\355\232u\241\323\330"
 533      5B29BDCC 
 533      FA64162F 
 533      3AED9A75 
 533      A1D3D8
 534 0cc9 ACCAA1D4 		.ascii	"\254\312\241\324\214n\2013\355\021\337GGA\247\345\223"
 534      8C6E8133 
 534      ED11DF47 
 534      4741A7E5 
 534      93
 535 0cda 33EC992B 		.ascii	"3\354\231+\022e\026H\311\332a\314\343\323G]\346\242"
 535      12651648 
 535      C9DA61CC 
 535      E3D3475D 
 535      E6A2
 536 0cec 048F8D53 		.ascii	"\004\217\215S\346\254r\353\245\351\326\352c\267,\005"
 536      E6AC72EB 
 536      A5E9D6EA 
 536      63B72C05 
 537 0cfc 33A9E28C 		.ascii	"3\251\342\214ig\323\231e\270\"\253\022+\\\222\026+\355"
 537      6967D399 
 537      65B822AB 
 537      122B5C92 
 537      162BED
 538 0d0f 1E26169D 		.ascii	"\036&\026\235\240\220\272e\202\227m\033\264\326\304"
 538      A090BA65 
 538      82976D1B 
 538      B4D6C4
 539 0d1e A005B22A 		.ascii	"\240\005\262*\272Q\267#\307\242Z\3474\016\346\263\323"
 539      BA51B723 
 539      C7A25AE7 
 539      340EE6B3 
 539      D3
 540 0d2f B61955BD 		.ascii	"\266\031U\275)\325\256\034T\015\246T\2359\250\226\232"
 540      29D5AE1C 
 540      540DA654 
ARM GAS  /tmp/ccCXs8VA.s 			page 44


 540      9D39A896 
 540      9A
 541 0d40 5275E7A0 		.ascii	"Ru\347\240ZfJ\265.\007U\243)U{\016\252WL\2516\344\240"
 541      5A664AB5 
 541      2E0755A3 
 541      29557B0E 
 541      AA574CA9 
 542 0d57 5A6E4AD5 		.ascii	"ZnJ\325\222\203jE\206J\016V\235\334}\344\277~\257\004"
 542      92836A45 
 542      864A0E56 
 542      9DDC7DE4 
 542      BF7EAF04 
 543 0d6b ABAA6AB0 		.ascii	"\253\252j\260\022\032j.\266\022\032jr\352BC+\235\006"
 543      121A6A2E 
 543      B6121A6A 
 543      72EA4243 
 543      2B9D06
 544 0d7e 81A781A6 		.ascii	"\201\247\201\246\013\003Qr\341GN\320w+\034\326Z\342"
 544      0B035172 
 544      E1474ED0 
 544      772B1CD6 
 544      5AE2
 545 0d90 D0A2E7B0 		.ascii	"\320\242\347\260\312\220\303\221?\355Y\204\3536\316"
 545      CA90C391 
 545      3FED5984 
 545      EB36CE
 546 0d9f 93C821E7 		.ascii	"\223\310!\347\205\326d\255\323\372)\245\335\251;\245"
 546      85D664AD 
 546      D3FA29A5 
 546      DDA93BA5 
 547 0daf 9CC05911 		.ascii	"\234\300Y\021\203\363\032aiK\016}Q,O\355\367\242W%\251"
 547      83F31A61 
 547      694B0E7D 
 547      512C4FED 
 547      F7A25725 
 548 0dc4 5E3AB2AF 		.ascii	"^:\262\257\270\026+\377k\246j\010\375\373\023\020\337"
 548      B8162BFF 
 548      6BA66A08 
 548      FDFB1310 
 548      DF
 549 0dd5 886FFA1E 		.ascii	"\210o\372\036H\326\371\213\252'G\245un\323\353\374\252"
 549      48D6F98B 
 549      AA2747A5 
 549      756ED3EB 
 549      FCAA
 550 0de7 A1CE3D1B 		.ascii	"\241\316=\033/q\212U\333\207\353\364=\223#D\263^\257"
 550      2F718A55 
 550      DB87EBF4 
 550      3D932344 
 550      B35EAF
 551 0dfa B041C869 		.ascii	"\260A\310i\376\020m\357\310*\276/<\301\232sh\005m\321"
 551      FE106DEF 
 551      C82ABE2F 
 551      3CC19A73 
 551      68056DD1 
 552 0e0e 61AAA07C 		.ascii	"a\252\240|\321'+\370\301\271'\237P\216x\346T\262\200"
 552      D1272BF8 
ARM GAS  /tmp/ccCXs8VA.s 			page 45


 552      C1B9279F 
 552      508E78E6 
 552      54B280
 553 0e21 BF37D4F7 		.ascii	"\2777\324\367\344\356\313\377m\344\252-C\2548R\247\336"
 553      E4EECBFF 
 553      6DE4AA2D 
 553      43AC3852 
 553      A7DE
 554 0e33 A89B4C5C 		.ascii	"\250\233L\\\365pe\226\253vX\342\360\272\236\303\026"
 554      F5706596 
 554      AB7658E2 
 554      F0BA9EC3 
 554      16
 555 0e44 430E6BB6 		.ascii	"C\016k\266\253\273\215\365\006\207\266\346\2617\217"
 555      ABBB8DF5 
 555      0687B6E6 
 555      B1378F
 556 0e53 FFE8247B 		.ascii	"\377\350${\337\256A\331\333\214J\026\264[+\350\217\320"
 556      DFAE41D9 
 556      DB8C4A16 
 556      B45B2BE8 
 556      8FD0
 557 0e65 5A7A4DBF 		.ascii	"ZzM\277\341\332\304\2729\325X3\315\253[H\233\333\206"
 557      E1DAC4BA 
 557      39D55833 
 557      CDAB5B48 
 557      9BDB86
 558 0e78 DBFDA89B 		.ascii	"\333\375\250\233\254zrLV\273T\264cJ\312\023\361\222"
 558      AC7A724C 
 558      56BB54B4 
 558      634ACA13 
 558      F192
 559 0e8a 443C5012 		.ascii	"D<P\022(\013\316\010F\023%\360/.\226\004#\201Py\251"
 559      280BCE08 
 559      461325F0 
 559      2F2E9604 
 559      23815079 
 560 0e9f 006FC333 		.ascii	"\000o\3033\242\263\205\304\003e\310\033\346\203!x\360"
 560      A2B385C4 
 560      0365C81B 
 560      E6832178 
 560      F0
 561 0eb0 8B058FFF 		.ascii	"\213\005\217\377\3073\276)\350\027&\264\261h\\L\224"
 561      C733BE29 
 561      E81726B4 
 561      B1685C4C 
 561      94
 562 0ec1 3CF2D4B4 		.ascii	"<\362\324\264)\323f\227\004\242\341X0$\304\023%\217"
 562      29D36697 
 562      04A2E158 
 562      3024C413 
 562      258F
 563 0ed3 4F99020D 		.ascii	"O\231\002\015\305\312\030Es\205\023\263\374\342=\024"
 563      C5CA1845 
 563      738513B3 
 563      FCE23D14 
 564 0ee3 42611611 		.ascii	"Ba\026\021*B\301\031%\211\312D\211?!\226\006#\"4tC\361"
ARM GAS  /tmp/ccCXs8VA.s 			page 46


 564      2A42C119 
 564      2589CA44 
 564      893F2196 
 564      06232234 
 565 0efa E04FFDE2 		.ascii	"\340O\375\342\375FM\303<\260\216\010%\376Ra&_\036\022"
 565      FD464DC3 
 565      3CB08E08 
 565      25FE5261 
 565      265F1E12 
 566 0f0e FD0ABCD7 		.ascii	"\375\012\274\327\357\227\351\274\341\031\376\031\345"
 566      EF97E9BC 
 566      E119FE19 
 566      E5
 567 0f1b 33670AF1 		.ascii	"3g\012\361\002\250\211\321\230\007\212\212xL\214\223"
 567      02A889D1 
 567      98078A8A 
 567      784C8C93 
 568 0f2b 4ABC142A 		.ascii	"J\274\024*?\312k\204\204\020\006\320\"(\370XY4.\370"
 568      3FCA6B84 
 568      841006D0 
 568      2228F858 
 568      59342EF8 
 569 0f3f C5E24099 		.ascii	"\305\342@\231?\375x_~\200\312\204\"\3320\261,.\360\245"
 569      3FFD785F 
 569      7E80CA84 
 569      22DA30B1 
 569      2C2EF0A5 
 570 0f53 09FF6FCA 		.ascii	"\011\377o\312\205r@\032\016H\232W\243\363\243\005\312"
 570      8572401A 
 570      0E489A57 
 570      A3F3A305 
 570      CA
 571 0f64 4A01C9C3 		.ascii	"J\001\311\303\310@\3074DA\314\037\021f\213P\304\342"
 571      C840C734 
 571      4441CC1F 
 571      11668B50 
 571      C4E2
 572 0f76 C2F36E31 		.ascii	"\302\363n1\026\017F\375\242\247\\6F\241\337\257Ti\223"
 572      160F46FD 
 572      A2A75C36 
 572      46A1DFAF 
 572      546993
 573 0f89 60D41D88 		.ascii	"`\324\035\210FD\240\270\337Rg\226\005@[b\011\362\232"
 573      4644A0B8 
 573      DF526796 
 573      05405B62 
 573      09F29A
 574 0f9c 583820CE 		.ascii	"X8 \316"
 575 0fa0 1E679DD2 		.ascii	"\036g\235\322\377\374\317\210\035=qa\026\037\017\373"
 575      FFFCCF88 
 575      1D3D7161 
 575      161F0FFB 
 576 0fb0 452E3E9E 		.ascii	"E.>\236\213\3773\027\177\210\213\377\214\213O\340\342"
 576      8BFF3317 
 576      7F888BFF 
 576      8C8B4FE0 
 576      E2
ARM GAS  /tmp/ccCXs8VA.s 			page 47


 577 0fc1 3F77C4C7 		.ascii	"?w\304\307\215\2054\216\013\305\241x\320\025\363\003"
 577      8D85348E 
 577      0BC5A178 
 577      D015F303 
 578 0fd1 073751AA 		.ascii	"\0077Q\252B\210C\031\015\225\012qg\240\214\217\023M"
 578      42884319 
 578      0D950A71 
 578      67A08C8F 
 578      134D
 579 0fe3 F9B0E011 		.ascii	"\371\260\340\021\023\"/\202\031\335D\261\011`\013\246"
 579      13222F82 
 579      19DD44B1 
 579      09600BA6 
 580 0ff3 22D4A039 		.ascii	"\"\324\2409\375\346\026\303\321R\201>\317"
 580      FDE616C3 
 580      D152813E 
 580      CF
 581 1000 0CF1B312 		.ascii	"\014\361\263\022n1.\314LP\013\220JA\274\264\022\234"
 581      6E312ECC 
 581      4C500B90 
 581      4A41BCB4 
 581      129C
 582 1012 D123CC0E 		.ascii	"\321#\314\016\212\001hXP!Fg\374:6R6.4\021\342B$\000"
 582      8A016858 
 582      50214667 
 582      FC3A3652 
 582      362E3411 
 583 102a 00AE0A51 		.ascii	"\000\256\012Q\214\307\340;t|\314\0036\017\227\203\351"
 583      8CC7E03B 
 583      747CCC03 
 583      360F9783 
 583      E9
 584 103b F27B4F58 		.ascii	"\362{OX\234M\0349\314\272\027\312hE\004\264\241\324"
 584      9C4D1C39 
 584      CCBA17CA 
 584      684504B4 
 584      A1D4
 585 104d 20469875 		.ascii	" F\230uY\205\010\355bE\302\363BD\014\363\211\347\340"
 585      598508ED 
 585      6245C2F3 
 585      42440CF3 
 585      89E7E0
 586 1060 8B50412A 		.ascii	"\213PA*\216\230\277|\250\342!\241`\002\274|\230\312"
 586      8E98BF7C 
 586      A8E221A1 
 586      6002BC7C 
 586      98CA
 587 1072 67C81B6F 		.ascii	"g\310\033o\314_\301\007\305`dVa\314\017\312PF.Z\205"
 587      CC5FC107 
 587      C5606456 
 587      61CC0FCA 
 587      50462E5A 
 588 1087 17424C88 		.ascii	"\027BL\210\300h\232\005\255\200\005i_HT\347C\324\001"
 588      C0689A05 
 588      AD800569 
 588      5F4854E7 
 588      43D401
ARM GAS  /tmp/ccCXs8VA.s 			page 48


 589 109a E0652C1A 		.ascii	"\340e,\032\015\271e\357s\005\"\300\300\225\360CY\010"
 589      0DB965EF 
 589      730522C0 
 589      C095F043 
 589      5908
 590 10ac 23646679 		.ascii	"#dfy(\004\372\026A\025\264\026+\241\356%\336\034\014"
 590      2804FA16 
 590      4115B416 
 590      2BA1EE25 
 590      DE1C0C
 591 10bf 83450A13 		.ascii	"\203E\012\023\342s|(8+\"\373\330C\343\323>F\252\276"
 591      E2737C28 
 591      382B22FB 
 591      D843E3D3 
 591      3E46AABE 
 592 10d3 2CD38842 		.ascii	",\323\210BB$\306!%\330\204\233>\226\233>\216\233\376"
 592      4224C621 
 592      25D8849B 
 592      3E969B3E 
 592      8E9BFE
 593 10e6 536EFA83 		.ascii	"Sn\372\203\334\364\361\\\005_L\276\310\0036Q\300\312"
 593      DCF4F15C 
 593      055F4CBE 
 593      C8033651 
 593      C0CA
 594 10f8 7B73C290 		.ascii	"{s\302\220\011\352\201\000\032B\312q~a\266\020\000\273"
 594      09EA8100 
 594      1A42CA71 
 594      7E61B610 
 594      00BB
 595 110a 16B1A784 		.ascii	"\026\261\247\204 \226\307\\\376GA\277b?E\346\023\011"
 595      2096C75C 
 595      FE4741BF 
 595      623F45E6 
 595      1309
 596 111c 214E06CC 		.ascii	"!N\006\314\264G\237\022\340\363m\352\327\320\036l\000"
 596      B4479F12 
 596      E0F36DEA 
 596      D7D01E6C 
 596      00
 597 112d 7D3D8CBE 		.ascii	"}=\214\276\024\302A0E\3649!RH\332?&\210\201\262\251"
 597      14C24130 
 597      45F43921 
 597      5248DA3F 
 597      268881B2 
 598 1142 4349F5C9 		.ascii	"CI\365\311hB|\244\014\314?\325\253<\262\032m\343Q\336"
 598      68427CA4 
 598      0CCC3FD5 
 598      AB3CB21A 
 598      6DE351DE 
 599 1156 0DD1B4A5 		.ascii	"\015\321\264\245\224\277\232\361k! N\215\004EGx\306"
 599      94BF9AF1 
 599      6B21204E 
 599      8D044547 
 599      78C6
 600 1168 3827E1E3 		.ascii	"8'\341\343!Y\200O\010N\342\320.*3\274\343\343\245\340"
 600      2159804F 
ARM GAS  /tmp/ccCXs8VA.s 			page 49


 600      084EE2D0 
 600      2E2A33BC 
 600      E3E3A5E0 
 601 117c 276E45A1 		.ascii	"'nE\241\030/\212B<B\364\362*j\217\033\361@<Z\312\213"
 601      182F8A42 
 601      3C42F4F2 
 601      2A6A8F1B 
 601      F1403C5A 
 602 1192 FC03E937 		.ascii	"\374\003\3517\276il\226\026\022\367\371H\177B\267\373"
 602      BE696C96 
 602      1612F7F9 
 602      487F42B7 
 602      FB
 603 11a3 F848A98F 		.ascii	"\370H\251\217\364W\264\\L \013\223]%\235A\003eOW&\376"
 603      F457B45C 
 603      4C200B93 
 603      5D259D41 
 603      03654F57 
 604 11b9 3D1A78CE 		.ascii	"=\032x\316K\007{\010j\343\215h\301wK\246L{z\352\323"
 604      4B077B08 
 604      6AE38D68 
 604      C1774BA6 
 604      4C7B7AEA 
 605 11ce 190832D4 		.ascii	"\031\0102\324\003\341\307\312#\001\000\032\342'\335"
 605      03E1C7CA 
 605      2301001A 
 605      E227DD
 606 11dd E07FF491 		.ascii	"\340\177\364\221\247\377\355\311\247\246\016\341C\025"
 606      A7FFEDC9 
 606      A7A60EE1 
 606      4315
 607 11eb 7C6502E6 		.ascii	"|e\002\346\216\020L\334\256\347\371P\2710\202\030\346"
 607      8E104CDC 
 607      AEE7F950 
 607      B9308218 
 607      E6
 608 11fc 71417C2C 		.ascii	"qA|,.\010S\242\345\021q*\330&VD\005x&B\030\263\371\246"
 608      2E0853A2 
 608      E511712A 
 608      D8265644 
 608      05782642 
 609 1214 9CD695D6 		.ascii	"\234\326\225\326\317$\204R\326\372\377\000g\244\366"
 609      CF248452 
 609      D6FAFF00 
 609      67A4F6
 610 1223 61       		.ascii	"a"
 611              		.text
 612              		.section	.gnu.lto_.symtab.f151c395481d8388,"",%progbits
 613 0000 70617474 		.ascii	"patternmbox\000\000\000\000\000\000\000\000\000\000"
 613      65726E6D 
 613      626F7800 
 613      00000000 
 613      00000000 
 614 0015 0000ED01 		.ascii	"\000\000\355\001\000\000testmbox1\000\000\000\000\000"
 614      00007465 
 614      73746D62 
 614      6F783100 
ARM GAS  /tmp/ccCXs8VA.s 			page 50


 614      00000000 
 615 0029 00000000 		.ascii	"\000\000\000\000\000\000\000\003\002\000\000test\000"
 615      00000003 
 615      02000074 
 615      65737400 
 616 0039 00020000 		.ascii	"\000\002\000\000\000\000\000\000\000\000\000\320\001"
 616      00000000 
 616      000000D0 
 616      01
 617 0046 00005F74 		.ascii	"\000\000_test_assert\000\000\002\000\000\000\000\000"
 617      6573745F 
 617      61737365 
 617      72740000 
 617      02000000 
 618 005c 00000000 		.ascii	"\000\000\000\000\224\001\000\000chMBReset\000\000\002"
 618      94010000 
 618      63684D42 
 618      52657365 
 618      74000002 
 619 0070 00000000 		.ascii	"\000\000\000\000\000\000\000\000\000\234\001\000\000"
 619      00000000 
 619      009C0100 
 619      00
 620 007d 5F746573 		.ascii	"_test_assert_sequence\000\000\002\000\000\000\000\000"
 620      745F6173 
 620      73657274 
 620      5F736571 
 620      75656E63 
 621 009a 00000000 		.ascii	"\000\000\000\000\240\001\000\000test_emit_token\000"
 621      A0010000 
 621      74657374 
 621      5F656D69 
 621      745F746F 
 622 00b2 00020000 		.ascii	"\000\002\000\000\000\000\000\000\000\000\000\246\001"
 622      00000000 
 622      000000A6 
 622      01
 623 00bf 00006368 		.ascii	"\000\000chMBFetchI\000\000\002\000\000\000\000\000\000"
 623      4D424665 
 623      74636849 
 623      00000200 
 623      00000000 
 624 00d4 000000AA 		.ascii	"\000\000\000\252\001\000\000chMBPostAheadI\000\000\002"
 624      01000063 
 624      684D4250 
 624      6F737441 
 624      68656164 
 625 00ec 00000000 		.ascii	"\000\000\000\000\000\000\000\000\000\257\001\000\000"
 625      00000000 
 625      00AF0100 
 625      00
 626 00f9 63684D42 		.ascii	"chMBPostI\000\000\002\000\000\000\000\000\000\000\000"
 626      506F7374 
 626      49000002 
 626      00000000 
 626      00000000 
 627 010d 00B40100 		.ascii	"\000\264\001\000\000chMBFetch\000\000\002\000\000\000"
ARM GAS  /tmp/ccCXs8VA.s 			page 51


 627      0063684D 
 627      42466574 
 627      63680000 
 627      02000000 
 628 0121 00000000 		.ascii	"\000\000\000\000\000\000\266\001\000\000chMBPost\000"
 628      0000B601 
 628      00006368 
 628      4D42506F 
 628      737400
 629 0134 00020000 		.ascii	"\000\002\000\000\000\000\000\000\000\000\000\274\001"
 629      00000000 
 629      000000BC 
 629      01
 630 0141 00006368 		.ascii	"\000\000chMBPostAhead\000\000\002\000\000\000\000\000"
 630      4D42506F 
 630      73744168 
 630      65616400 
 630      00020000 
 631 0158 00000000 		.ascii	"\000\000\000\000\302\001\000\000chMBObjectInit\000\000"
 631      C2010000 
 631      63684D42 
 631      4F626A65 
 631      6374496E 
 632 0170 02000000 		.ascii	"\002\000\000\000\000\000\000\000\000\000\304\001\000"
 632      00000000 
 632      0000C401 
 632      00
 633 017d 00       		.ascii	"\000"
 634              		.text
 635              		.section	.gnu.lto_.opts,"",%progbits
 636 0000 272D6D63 		.ascii	"'-mcpu=cortex-m4' '-mno-thumb-interwork' '-mthumb' "
 636      70753D63 
 636      6F727465 
 636      782D6D34 
 636      2720272D 
 637 0033 272D6767 		.ascii	"'-ggdb' '-O2' '-fomit-frame-pointer' '-falign-funct"
 637      64622720 
 637      272D4F32 
 637      2720272D 
 637      666F6D69 
 638 0066 696F6E73 		.ascii	"ions=16' '-ffunction-sections' '-fdata-sections' '-"
 638      3D313627 
 638      20272D66 
 638      66756E63 
 638      74696F6E 
 639 0099 666E6F2D 		.ascii	"fno-common' '-flto'\000"
 639      636F6D6D 
 639      6F6E2720 
 639      272D666C 
 639      746F2700 
 640              		.text
 641              		.cfi_sections	.debug_frame
 642              		.section	.text.mbox1_execute,"ax",%progbits
 643              		.align	2
 644              		.p2align 4,,15
 645              		.thumb
 646              		.thumb_func
ARM GAS  /tmp/ccCXs8VA.s 			page 52


 647              		.type	mbox1_execute, %function
 648              	mbox1_execute:
 649              	.LFB230:
 650              		.file 1 "/usr/src/chibios/test/rt/testmbox.c"
 651              		.loc 1 76 0
 652              		.cfi_startproc
 653              		@ args = 0, pretend = 0, frame = 8
 654              		@ frame_needed = 0, uses_anonymous_args = 0
 655              	.LVL0:
 656 0000 2DE9F041 		push	{r4, r5, r6, r7, r8, lr}
 657              		.cfi_def_cfa_offset 24
 658              		.cfi_offset 4, -24
 659              		.cfi_offset 5, -20
 660              		.cfi_offset 6, -16
 661              		.cfi_offset 7, -12
 662              		.cfi_offset 8, -8
 663              		.cfi_offset 14, -4
 664              	.LBB335:
 665              	.LBB336:
 666              	.LBB337:
 667              	.LBB338:
 668              		.file 2 "/usr/src/chibios/os/ext/CMSIS/include/core_cmFunc.h"
 669              		.loc 2 546 0
 670 0004 2023     		movs	r3, #32
 671              	.LBE338:
 672              	.LBE337:
 673              	.LBE336:
 674              	.LBE335:
 675              		.loc 1 76 0
 676 0006 82B0     		sub	sp, sp, #8
 677              		.cfi_def_cfa_offset 32
 678              	.LBB342:
 679              	.LBB341:
 680              	.LBB340:
 681              	.LBB339:
 682              		.loc 2 546 0
 683              	@ 546 "/usr/src/chibios/os/ext/CMSIS/include/core_cmFunc.h" 1
 684 0008 83F31188 		MSR basepri, r3
 685              	@ 0 "" 2
 686              	.LVL1:
 687              		.thumb
 688              	.LBE339:
 689              	.LBE340:
 690              	.LBE341:
 691              	.LBE342:
 692              		.file 3 "/usr/src/chibios/os/rt/include/chmboxes.h"
 693              		.loc 3 162 0
 694 000c 9B4E     		ldr	r6, .L36
 695              		.loc 1 83 0
 696 000e 716A     		ldr	r1, [r6, #36]
 697 0010 B1F1050E 		subs	lr, r1, #5
 698 0014 DEF10001 		rsbs	r1, lr, #0
 699 0018 51EB0E01 		adcs	r1, r1, lr
 700 001c 0120     		movs	r0, #1
 701 001e FFF7FEFF 		bl	_test_assert
 702              	.LVL2:
 703 0022 0028     		cmp	r0, #0
ARM GAS  /tmp/ccCXs8VA.s 			page 53


 704 0024 40F02381 		bne	.L31
 705              	.LVL3:
 706              	.LBB343:
 707              	.LBB344:
 708              	.LBB345:
 709              	.LBB346:
 710              	.LBB347:
 711              		.loc 2 546 0
 712              	@ 546 "/usr/src/chibios/os/ext/CMSIS/include/core_cmFunc.h" 1
 713 0028 80F31188 		MSR basepri, r0
 714              	@ 0 "" 2
 715              	.LVL4:
 716              		.thumb
 717 002c 4224     		movs	r4, #66
 718              	.LVL5:
 719              	.L6:
 720              	.LBE347:
 721              	.LBE346:
 722              	.LBE345:
 723              	.LBE344:
 724              	.LBE343:
 725              		.loc 1 89 0
 726 002e 934D     		ldr	r5, .L36
 727 0030 2146     		mov	r1, r4
 728 0032 2846     		mov	r0, r5
 729 0034 4FF0FF32 		mov	r2, #-1
 730 0038 FFF7FEFF 		bl	chMBPost
 731              	.LVL6:
 732              		.loc 1 90 0
 733 003c D0F10101 		rsbs	r1, r0, #1
 734 0040 38BF     		it	cc
 735 0042 0021     		movcc	r1, #0
 736 0044 0220     		movs	r0, #2
 737              	.LVL7:
 738 0046 0134     		adds	r4, r4, #1
 739              	.LVL8:
 740 0048 FFF7FEFF 		bl	_test_assert
 741              	.LVL9:
 742 004c 88B9     		cbnz	r0, .L1
 743              		.loc 1 88 0
 744 004e 462C     		cmp	r4, #70
 745 0050 EDD1     		bne	.L6
 746              		.loc 1 92 0
 747 0052 4121     		movs	r1, #65
 748 0054 2846     		mov	r0, r5
 749 0056 4FF0FF32 		mov	r2, #-1
 750 005a FFF7FEFF 		bl	chMBPostAhead
 751              	.LVL10:
 752              		.loc 1 93 0
 753 005e D0F10101 		rsbs	r1, r0, #1
 754 0062 38BF     		it	cc
 755 0064 0021     		movcc	r1, #0
 756 0066 0320     		movs	r0, #3
 757              	.LVL11:
 758 0068 FFF7FEFF 		bl	_test_assert
 759              	.LVL12:
 760 006c 0028     		cmp	r0, #0
ARM GAS  /tmp/ccCXs8VA.s 			page 54


 761 006e 00F00981 		beq	.L33
 762              	.LVL13:
 763              	.L1:
 764              		.loc 1 220 0
 765 0072 02B0     		add	sp, sp, #8
 766              		@ sp needed
 767 0074 BDE8F081 		pop	{r4, r5, r6, r7, r8, pc}
 768              	.LVL14:
 769              	.L17:
 770              	.LBB348:
 771              	.LBB349:
 772              	.LBB350:
 773              	.LBB351:
 774              	.LBB352:
 775              		.loc 2 546 0
 776              	@ 546 "/usr/src/chibios/os/ext/CMSIS/include/core_cmFunc.h" 1
 777 0078 85F31188 		MSR basepri, r5
 778              	@ 0 "" 2
 779              	.LVL15:
 780              		.thumb
 781              	.LBE352:
 782              	.LBE351:
 783              	.LBE350:
 784              	.LBE349:
 785              	.LBE348:
 786              	.LBB353:
 787              	.LBB354:
 788              	.LBB355:
 789              	.LBB356:
 790              	@ 546 "/usr/src/chibios/os/ext/CMSIS/include/core_cmFunc.h" 1
 791 007c 86F31188 		MSR basepri, r6
 792              	@ 0 "" 2
 793              	.LVL16:
 794              		.thumb
 795              	.LBE356:
 796              	.LBE355:
 797              	.LBE354:
 798              	.LBE353:
 799              		.loc 1 180 0
 800 0080 A169     		ldr	r1, [r4, #24]
 801 0082 D1F10101 		rsbs	r1, r1, #1
 802 0086 38BF     		it	cc
 803 0088 0021     		movcc	r1, #0
 804 008a 1F20     		movs	r0, #31
 805 008c FFF7FEFF 		bl	_test_assert
 806              	.LVL17:
 807 0090 0028     		cmp	r0, #0
 808 0092 40F0B682 		bne	.L30
 809              	.LVL18:
 810              	.LBB357:
 811              	.LBB358:
 812              	.LBB359:
 813              	.LBB360:
 814              	.LBB361:
 815              		.loc 2 546 0
 816              	@ 546 "/usr/src/chibios/os/ext/CMSIS/include/core_cmFunc.h" 1
 817 0096 85F31188 		MSR basepri, r5
ARM GAS  /tmp/ccCXs8VA.s 			page 55


 818              	@ 0 "" 2
 819              		.thumb
 820              	.LBE361:
 821              	.LBE360:
 822              	.LBE359:
 823              	.LBE358:
 824              	.LBE357:
 825              		.loc 1 181 0
 826 009a E168     		ldr	r1, [r4, #12]
 827 009c A368     		ldr	r3, [r4, #8]
 828 009e CA1A     		subs	r2, r1, r3
 829 00a0 5142     		rsbs	r1, r2, #0
 830 00a2 5141     		adcs	r1, r1, r2
 831 00a4 3046     		mov	r0, r6
 832 00a6 FFF7FEFF 		bl	_test_assert
 833              	.LVL19:
 834 00aa 0028     		cmp	r0, #0
 835 00ac E1D1     		bne	.L1
 836              	.LVL20:
 837              	.LBB362:
 838              	.LBB363:
 839              	.LBB364:
 840              	.LBB365:
 841              		.loc 2 546 0
 842              	@ 546 "/usr/src/chibios/os/ext/CMSIS/include/core_cmFunc.h" 1
 843 00ae 86F31188 		MSR basepri, r6
 844              	@ 0 "" 2
 845              		.thumb
 846              	.LBE365:
 847              	.LBE364:
 848              	.LBE363:
 849              	.LBE362:
 850              		.loc 1 184 0
 851 00b2 4521     		movs	r1, #69
 852 00b4 2046     		mov	r0, r4
 853 00b6 FFF7FEFF 		bl	chMBPostAheadI
 854              	.LVL21:
 855              		.loc 1 185 0
 856 00ba D0F10101 		rsbs	r1, r0, #1
 857 00be 38BF     		it	cc
 858 00c0 0021     		movcc	r1, #0
 859 00c2 2120     		movs	r0, #33
 860              	.LVL22:
 861 00c4 FFF7FEFF 		bl	_test_assert
 862              	.LVL23:
 863 00c8 0028     		cmp	r0, #0
 864 00ca D2D1     		bne	.L1
 865              		.loc 1 186 0
 866 00cc 4421     		movs	r1, #68
 867 00ce 2046     		mov	r0, r4
 868 00d0 FFF7FEFF 		bl	chMBPostAheadI
 869              	.LVL24:
 870              		.loc 1 187 0
 871 00d4 D0F10101 		rsbs	r1, r0, #1
 872 00d8 38BF     		it	cc
 873 00da 0021     		movcc	r1, #0
 874 00dc 2220     		movs	r0, #34
ARM GAS  /tmp/ccCXs8VA.s 			page 56


 875              	.LVL25:
 876 00de FFF7FEFF 		bl	_test_assert
 877              	.LVL26:
 878 00e2 0028     		cmp	r0, #0
 879 00e4 C5D1     		bne	.L1
 880              		.loc 1 188 0
 881 00e6 4321     		movs	r1, #67
 882 00e8 2046     		mov	r0, r4
 883 00ea FFF7FEFF 		bl	chMBPostAheadI
 884              	.LVL27:
 885              		.loc 1 189 0
 886 00ee D0F10101 		rsbs	r1, r0, #1
 887 00f2 38BF     		it	cc
 888 00f4 0021     		movcc	r1, #0
 889 00f6 2320     		movs	r0, #35
 890              	.LVL28:
 891 00f8 FFF7FEFF 		bl	_test_assert
 892              	.LVL29:
 893 00fc 0028     		cmp	r0, #0
 894 00fe B8D1     		bne	.L1
 895              		.loc 1 190 0
 896 0100 4221     		movs	r1, #66
 897 0102 2046     		mov	r0, r4
 898 0104 FFF7FEFF 		bl	chMBPostAheadI
 899              	.LVL30:
 900              		.loc 1 191 0
 901 0108 D0F10101 		rsbs	r1, r0, #1
 902 010c 38BF     		it	cc
 903 010e 0021     		movcc	r1, #0
 904 0110 2420     		movs	r0, #36
 905              	.LVL31:
 906 0112 FFF7FEFF 		bl	_test_assert
 907              	.LVL32:
 908 0116 0028     		cmp	r0, #0
 909 0118 ABD1     		bne	.L1
 910              		.loc 1 192 0
 911 011a 584C     		ldr	r4, .L36
 912 011c 4121     		movs	r1, #65
 913 011e 2046     		mov	r0, r4
 914 0120 FFF7FEFF 		bl	chMBPostAheadI
 915              	.LVL33:
 916              	.LBB366:
 917              	.LBB367:
 918              	.LBB368:
 919              	.LBB369:
 920              	.LBB370:
 921              		.loc 2 546 0
 922 0124 0023     		movs	r3, #0
 923              	.LBE370:
 924              	.LBE369:
 925              	.LBE368:
 926              	.LBE367:
 927              	.LBE366:
 928              		.loc 1 192 0
 929 0126 0146     		mov	r1, r0
 930              	.LVL34:
 931              	.LBB375:
ARM GAS  /tmp/ccCXs8VA.s 			page 57


 932              	.LBB374:
 933              	.LBB373:
 934              	.LBB372:
 935              	.LBB371:
 936              		.loc 2 546 0
 937              	@ 546 "/usr/src/chibios/os/ext/CMSIS/include/core_cmFunc.h" 1
 938 0128 83F31188 		MSR basepri, r3
 939              	@ 0 "" 2
 940              		.thumb
 941              	.LBE371:
 942              	.LBE372:
 943              	.LBE373:
 944              	.LBE374:
 945              	.LBE375:
 946              		.loc 1 194 0
 947 012c CB1A     		subs	r3, r1, r3
 948 012e 5942     		rsbs	r1, r3, #0
 949 0130 5941     		adcs	r1, r1, r3
 950 0132 2520     		movs	r0, #37
 951              	.LVL35:
 952 0134 FFF7FEFF 		bl	_test_assert
 953              	.LVL36:
 954 0138 0028     		cmp	r0, #0
 955 013a 9AD1     		bne	.L1
 956              		.loc 1 195 0
 957 013c E168     		ldr	r1, [r4, #12]
 958 013e A368     		ldr	r3, [r4, #8]
 959 0140 B1EB0308 		subs	r8, r1, r3
 960 0144 D8F10001 		rsbs	r1, r8, #0
 961 0148 51EB0801 		adcs	r1, r1, r8
 962 014c 2620     		movs	r0, #38
 963 014e FFF7FEFF 		bl	_test_assert
 964              	.LVL37:
 965 0152 0028     		cmp	r0, #0
 966 0154 8DD1     		bne	.L1
 967              	.LBB376:
 968              	.LBB377:
 969              	.LBB378:
 970              	.LBB379:
 971              	.LBB380:
 972              		.loc 2 546 0
 973 0156 8046     		mov	r8, r0
 974              	.LBE380:
 975              	.LBE379:
 976              	.LBE378:
 977              	.LBE377:
 978              	.LBE376:
 979              		.loc 1 195 0
 980 0158 0524     		movs	r4, #5
 981              	.LBB385:
 982              	.LBB386:
 983              	.LBB387:
 984              	.LBB388:
 985              		.loc 2 546 0
 986 015a 2027     		movs	r7, #32
 987              	.LVL38:
 988              	.L20:
ARM GAS  /tmp/ccCXs8VA.s 			page 58


 989 015c 2026     		movs	r6, #32
 990              	@ 546 "/usr/src/chibios/os/ext/CMSIS/include/core_cmFunc.h" 1
 991 015e 87F31188 		MSR basepri, r7
 992              	@ 0 "" 2
 993              		.thumb
 994              	.LBE388:
 995              	.LBE387:
 996              	.LBE386:
 997              	.LBE385:
 998              		.loc 1 198 0
 999 0162 464D     		ldr	r5, .L36
 1000 0164 01A9     		add	r1, sp, #4
 1001 0166 2846     		mov	r0, r5
 1002 0168 FFF7FEFF 		bl	chMBFetchI
 1003              	.LVL39:
 1004 016c 0146     		mov	r1, r0
 1005              	.LVL40:
 1006              	.LBB389:
 1007              	.LBB384:
 1008              	.LBB383:
 1009              	.LBB382:
 1010              	.LBB381:
 1011              		.loc 2 546 0
 1012              	@ 546 "/usr/src/chibios/os/ext/CMSIS/include/core_cmFunc.h" 1
 1013 016e 88F31188 		MSR basepri, r8
 1014              	@ 0 "" 2
 1015              		.thumb
 1016              	.LBE381:
 1017              	.LBE382:
 1018              	.LBE383:
 1019              	.LBE384:
 1020              	.LBE389:
 1021              		.loc 1 200 0
 1022 0172 D1F10101 		rsbs	r1, r1, #1
 1023 0176 38BF     		it	cc
 1024 0178 0021     		movcc	r1, #0
 1025 017a 2720     		movs	r0, #39
 1026              	.LVL41:
 1027 017c FFF7FEFF 		bl	_test_assert
 1028              	.LVL42:
 1029 0180 0028     		cmp	r0, #0
 1030 0182 7FF476AF 		bne	.L1
 1031              		.loc 1 201 0
 1032 0186 9DF80400 		ldrb	r0, [sp, #4]	@ zero_extendqisi2
 1033 018a FFF7FEFF 		bl	test_emit_token
 1034              	.LVL43:
 1035              		.loc 1 196 0
 1036 018e 013C     		subs	r4, r4, #1
 1037              	.LVL44:
 1038 0190 E4D1     		bne	.L20
 1039              		.loc 1 203 0
 1040 0192 2820     		movs	r0, #40
 1041 0194 3A49     		ldr	r1, .L36+4
 1042 0196 FFF7FEFF 		bl	_test_assert_sequence
 1043              	.LVL45:
 1044 019a 0028     		cmp	r0, #0
 1045 019c 7FF469AF 		bne	.L1
ARM GAS  /tmp/ccCXs8VA.s 			page 59


 1046              	.LVL46:
 1047              	.LBB390:
 1048              	.LBB391:
 1049              	.LBB392:
 1050              	.LBB393:
 1051              		.loc 2 546 0
 1052              	@ 546 "/usr/src/chibios/os/ext/CMSIS/include/core_cmFunc.h" 1
 1053 01a0 86F31188 		MSR basepri, r6
 1054              	@ 0 "" 2
 1055              	.LVL47:
 1056              		.thumb
 1057              	.LBE393:
 1058              	.LBE392:
 1059              	.LBE391:
 1060              	.LBE390:
 1061              		.loc 1 204 0
 1062 01a4 696A     		ldr	r1, [r5, #36]
 1063 01a6 B1F1050C 		subs	ip, r1, #5
 1064 01aa DCF10001 		rsbs	r1, ip, #0
 1065 01ae 51EB0C01 		adcs	r1, r1, ip
 1066 01b2 2920     		movs	r0, #41
 1067 01b4 FFF7FEFF 		bl	_test_assert
 1068              	.LVL48:
 1069 01b8 0028     		cmp	r0, #0
 1070 01ba 40F0CB80 		bne	.L29
 1071              	.LVL49:
 1072              	.LBB394:
 1073              	.LBB395:
 1074              	.LBB396:
 1075              	.LBB397:
 1076              	.LBB398:
 1077              		.loc 2 546 0
 1078              	@ 546 "/usr/src/chibios/os/ext/CMSIS/include/core_cmFunc.h" 1
 1079 01be 84F31188 		MSR basepri, r4
 1080              	@ 0 "" 2
 1081              	.LVL50:
 1082              		.thumb
 1083              	.LBE398:
 1084              	.LBE397:
 1085              	.LBE396:
 1086              	.LBE395:
 1087              	.LBE394:
 1088              	.LBB399:
 1089              	.LBB400:
 1090              	.LBB401:
 1091              	.LBB402:
 1092              	@ 546 "/usr/src/chibios/os/ext/CMSIS/include/core_cmFunc.h" 1
 1093 01c2 86F31188 		MSR basepri, r6
 1094              	@ 0 "" 2
 1095              	.LVL51:
 1096              		.thumb
 1097              	.LBE402:
 1098              	.LBE401:
 1099              	.LBE400:
 1100              	.LBE399:
 1101              		.loc 1 205 0
 1102 01c6 A969     		ldr	r1, [r5, #24]
ARM GAS  /tmp/ccCXs8VA.s 			page 60


 1103 01c8 D1F10101 		rsbs	r1, r1, #1
 1104 01cc 38BF     		it	cc
 1105 01ce 0021     		movcc	r1, #0
 1106 01d0 2A20     		movs	r0, #42
 1107 01d2 FFF7FEFF 		bl	_test_assert
 1108              	.LVL52:
 1109 01d6 0028     		cmp	r0, #0
 1110 01d8 40F0BC80 		bne	.L29
 1111              	.LVL53:
 1112              	.LBB403:
 1113              	.LBB404:
 1114              	.LBB405:
 1115              	.LBB406:
 1116              	.LBB407:
 1117              		.loc 2 546 0
 1118              	@ 546 "/usr/src/chibios/os/ext/CMSIS/include/core_cmFunc.h" 1
 1119 01dc 84F31188 		MSR basepri, r4
 1120              	@ 0 "" 2
 1121              		.thumb
 1122              	.LBE407:
 1123              	.LBE406:
 1124              	.LBE405:
 1125              	.LBE404:
 1126              	.LBE403:
 1127              		.loc 1 206 0
 1128 01e0 E968     		ldr	r1, [r5, #12]
 1129 01e2 AB68     		ldr	r3, [r5, #8]
 1130 01e4 B1EB030E 		subs	lr, r1, r3
 1131 01e8 DEF10001 		rsbs	r1, lr, #0
 1132 01ec 51EB0E01 		adcs	r1, r1, lr
 1133 01f0 2B20     		movs	r0, #43
 1134 01f2 FFF7FEFF 		bl	_test_assert
 1135              	.LVL54:
 1136 01f6 0028     		cmp	r0, #0
 1137 01f8 7FF43BAF 		bne	.L1
 1138              		.loc 1 211 0
 1139 01fc 2846     		mov	r0, r5
 1140 01fe FFF7FEFF 		bl	chMBReset
 1141              	.LVL55:
 1142              	.LBB408:
 1143              	.LBB409:
 1144              	.LBB410:
 1145              	.LBB411:
 1146              		.loc 2 546 0
 1147              	@ 546 "/usr/src/chibios/os/ext/CMSIS/include/core_cmFunc.h" 1
 1148 0202 86F31188 		MSR basepri, r6
 1149              	@ 0 "" 2
 1150              	.LVL56:
 1151              		.thumb
 1152              	.LBE411:
 1153              	.LBE410:
 1154              	.LBE409:
 1155              	.LBE408:
 1156              		.loc 1 216 0
 1157 0206 696A     		ldr	r1, [r5, #36]
 1158 0208 4F1F     		subs	r7, r1, #5
 1159 020a 7942     		rsbs	r1, r7, #0
ARM GAS  /tmp/ccCXs8VA.s 			page 61


 1160 020c 7941     		adcs	r1, r1, r7
 1161 020e 2C20     		movs	r0, #44
 1162 0210 FFF7FEFF 		bl	_test_assert
 1163              	.LVL57:
 1164 0214 0028     		cmp	r0, #0
 1165 0216 40F09D80 		bne	.L29
 1166              	.LVL58:
 1167              	.LBB412:
 1168              	.LBB413:
 1169              	.LBB414:
 1170              	.LBB415:
 1171              	.LBB416:
 1172              		.loc 2 546 0
 1173              	@ 546 "/usr/src/chibios/os/ext/CMSIS/include/core_cmFunc.h" 1
 1174 021a 84F31188 		MSR basepri, r4
 1175              	@ 0 "" 2
 1176              	.LVL59:
 1177              		.thumb
 1178              	.LBE416:
 1179              	.LBE415:
 1180              	.LBE414:
 1181              	.LBE413:
 1182              	.LBE412:
 1183              	.LBB417:
 1184              	.LBB418:
 1185              	.LBB419:
 1186              	.LBB420:
 1187              	@ 546 "/usr/src/chibios/os/ext/CMSIS/include/core_cmFunc.h" 1
 1188 021e 86F31188 		MSR basepri, r6
 1189              	@ 0 "" 2
 1190              	.LVL60:
 1191              		.thumb
 1192              	.LBE420:
 1193              	.LBE419:
 1194              	.LBE418:
 1195              	.LBE417:
 1196              		.loc 1 217 0
 1197 0222 A969     		ldr	r1, [r5, #24]
 1198 0224 D1F10101 		rsbs	r1, r1, #1
 1199 0228 38BF     		it	cc
 1200 022a 0021     		movcc	r1, #0
 1201 022c 2D20     		movs	r0, #45
 1202 022e FFF7FEFF 		bl	_test_assert
 1203              	.LVL61:
 1204 0232 0028     		cmp	r0, #0
 1205 0234 40F08E80 		bne	.L29
 1206              	.LVL62:
 1207              	.LBB421:
 1208              	.LBB422:
 1209              	.LBB423:
 1210              	.LBB424:
 1211              	.LBB425:
 1212              		.loc 2 546 0
 1213              	@ 546 "/usr/src/chibios/os/ext/CMSIS/include/core_cmFunc.h" 1
 1214 0238 84F31188 		MSR basepri, r4
 1215              	@ 0 "" 2
 1216              	.LVL63:
ARM GAS  /tmp/ccCXs8VA.s 			page 62


 1217              		.thumb
 1218              	.LBE425:
 1219              	.LBE424:
 1220              	.LBE423:
 1221              	.LBE422:
 1222              	.LBE421:
 1223              	.LBB426:
 1224              	.LBB427:
 1225              	.LBB428:
 1226              	.LBB429:
 1227              	@ 546 "/usr/src/chibios/os/ext/CMSIS/include/core_cmFunc.h" 1
 1228 023c 86F31188 		MSR basepri, r6
 1229              	@ 0 "" 2
 1230              		.thumb
 1231              	.LBE429:
 1232              	.LBE428:
 1233              	.LBE427:
 1234              	.LBE426:
 1235              		.loc 1 218 0
 1236 0240 2968     		ldr	r1, [r5]
 1237 0242 AB68     		ldr	r3, [r5, #8]
 1238 0244 CA1A     		subs	r2, r1, r3
 1239 0246 5142     		rsbs	r1, r2, #0
 1240 0248 5141     		adcs	r1, r1, r2
 1241 024a 2E20     		movs	r0, #46
 1242 024c FFF7FEFF 		bl	_test_assert
 1243              	.LVL64:
 1244 0250 0028     		cmp	r0, #0
 1245 0252 7FD1     		bne	.L29
 1246              	.LVL65:
 1247              	.LBB430:
 1248              	.LBB431:
 1249              	.LBB432:
 1250              	.LBB433:
 1251              	.LBB434:
 1252              		.loc 2 546 0
 1253              	@ 546 "/usr/src/chibios/os/ext/CMSIS/include/core_cmFunc.h" 1
 1254 0254 84F31188 		MSR basepri, r4
 1255              	@ 0 "" 2
 1256              	.LVL66:
 1257              		.thumb
 1258              	.LBE434:
 1259              	.LBE433:
 1260              	.LBE432:
 1261              	.LBE431:
 1262              	.LBE430:
 1263              	.LBB435:
 1264              	.LBB436:
 1265              	.LBB437:
 1266              	.LBB438:
 1267              	@ 546 "/usr/src/chibios/os/ext/CMSIS/include/core_cmFunc.h" 1
 1268 0258 86F31188 		MSR basepri, r6
 1269              	@ 0 "" 2
 1270              		.thumb
 1271              	.LBE438:
 1272              	.LBE437:
 1273              	.LBE436:
ARM GAS  /tmp/ccCXs8VA.s 			page 63


 1274              	.LBE435:
 1275              		.loc 1 219 0
 1276 025c 2968     		ldr	r1, [r5]
 1277 025e EB68     		ldr	r3, [r5, #12]
 1278 0260 CB1A     		subs	r3, r1, r3
 1279 0262 5942     		rsbs	r1, r3, #0
 1280 0264 4FF02F00 		mov	r0, #47
 1281 0268 5941     		adcs	r1, r1, r3
 1282 026a FFF7FEFF 		bl	_test_assert
 1283              	.LVL67:
 1284              	.L31:
 1285              	.LBB439:
 1286              	.LBB440:
 1287              	.LBB441:
 1288              	.LBB442:
 1289              	.LBB443:
 1290              		.loc 2 546 0
 1291 026e 0023     		movs	r3, #0
 1292              	.L26:
 1293              	.LVL68:
 1294              	.LBE443:
 1295              	.LBE442:
 1296              	.LBE441:
 1297              	.LBE440:
 1298              	.LBE439:
 1299              	.LBB444:
 1300              	.LBB445:
 1301              	.LBB446:
 1302              	.LBB447:
 1303              	.LBB448:
 1304              	@ 546 "/usr/src/chibios/os/ext/CMSIS/include/core_cmFunc.h" 1
 1305 0270 83F31188 		MSR basepri, r3
 1306              	@ 0 "" 2
 1307              		.thumb
 1308              	.LBE448:
 1309              	.LBE447:
 1310              	.LBE446:
 1311              	.LBE445:
 1312              	.LBE444:
 1313              		.loc 1 220 0
 1314 0274 02B0     		add	sp, sp, #8
 1315              		@ sp needed
 1316 0276 BDE8F081 		pop	{r4, r5, r6, r7, r8, pc}
 1317              	.L37:
 1318 027a 00BF     		.align	2
 1319              	.L36:
 1320 027c 00000000 		.word	.LANCHOR0
 1321 0280 00000000 		.word	.LC0
 1322              	.LVL69:
 1323              	.L33:
 1324              		.loc 1 98 0
 1325 0284 5821     		movs	r1, #88
 1326 0286 0122     		movs	r2, #1
 1327 0288 2846     		mov	r0, r5
 1328 028a FFF7FEFF 		bl	chMBPost
 1329              	.LVL70:
 1330              		.loc 1 99 0
ARM GAS  /tmp/ccCXs8VA.s 			page 64


 1331 028e B0F1FF37 		subs	r7, r0, #-1
 1332 0292 7942     		rsbs	r1, r7, #0
 1333 0294 7941     		adcs	r1, r1, r7
 1334 0296 0420     		movs	r0, #4
 1335              	.LVL71:
 1336 0298 FFF7FEFF 		bl	_test_assert
 1337              	.LVL72:
 1338 029c 0446     		mov	r4, r0
 1339 029e 0028     		cmp	r0, #0
 1340 02a0 7FF4E7AE 		bne	.L1
 1341              	.LVL73:
 1342              	.LBB449:
 1343              	.LBB450:
 1344              	.LBB451:
 1345              	.LBB452:
 1346              		.loc 2 546 0
 1347 02a4 2027     		movs	r7, #32
 1348              	.LVL74:
 1349              	@ 546 "/usr/src/chibios/os/ext/CMSIS/include/core_cmFunc.h" 1
 1350 02a6 87F31188 		MSR basepri, r7
 1351              	@ 0 "" 2
 1352              		.thumb
 1353              	.LBE452:
 1354              	.LBE451:
 1355              	.LBE450:
 1356              	.LBE449:
 1357              		.loc 1 101 0
 1358 02aa 5821     		movs	r1, #88
 1359 02ac 2846     		mov	r0, r5
 1360 02ae FFF7FEFF 		bl	chMBPostI
 1361              	.LVL75:
 1362 02b2 0146     		mov	r1, r0
 1363              	.LVL76:
 1364              	.LBB453:
 1365              	.LBB454:
 1366              	.LBB455:
 1367              	.LBB456:
 1368              	.LBB457:
 1369              		.loc 2 546 0
 1370              	@ 546 "/usr/src/chibios/os/ext/CMSIS/include/core_cmFunc.h" 1
 1371 02b4 84F31188 		MSR basepri, r4
 1372              	@ 0 "" 2
 1373              		.thumb
 1374              	.LBE457:
 1375              	.LBE456:
 1376              	.LBE455:
 1377              	.LBE454:
 1378              	.LBE453:
 1379              		.loc 1 103 0
 1380 02b8 B1F1FF34 		subs	r4, r1, #-1
 1381 02bc 6142     		rsbs	r1, r4, #0
 1382 02be 6141     		adcs	r1, r1, r4
 1383 02c0 0520     		movs	r0, #5
 1384              	.LVL77:
 1385 02c2 FFF7FEFF 		bl	_test_assert
 1386              	.LVL78:
 1387 02c6 0028     		cmp	r0, #0
ARM GAS  /tmp/ccCXs8VA.s 			page 65


 1388 02c8 7FF4D3AE 		bne	.L1
 1389              		.loc 1 104 0
 1390 02cc 5821     		movs	r1, #88
 1391 02ce 0122     		movs	r2, #1
 1392 02d0 2846     		mov	r0, r5
 1393 02d2 FFF7FEFF 		bl	chMBPostAhead
 1394              	.LVL79:
 1395              		.loc 1 105 0
 1396 02d6 B0F1FF32 		subs	r2, r0, #-1
 1397 02da 5142     		rsbs	r1, r2, #0
 1398 02dc 5141     		adcs	r1, r1, r2
 1399 02de 0620     		movs	r0, #6
 1400              	.LVL80:
 1401 02e0 FFF7FEFF 		bl	_test_assert
 1402              	.LVL81:
 1403 02e4 0446     		mov	r4, r0
 1404 02e6 0028     		cmp	r0, #0
 1405 02e8 7FF4C3AE 		bne	.L1
 1406              	.LVL82:
 1407              	.LBB458:
 1408              	.LBB459:
 1409              	.LBB460:
 1410              	.LBB461:
 1411              		.loc 2 546 0
 1412              	@ 546 "/usr/src/chibios/os/ext/CMSIS/include/core_cmFunc.h" 1
 1413 02ec 87F31188 		MSR basepri, r7
 1414              	@ 0 "" 2
 1415              		.thumb
 1416              	.LBE461:
 1417              	.LBE460:
 1418              	.LBE459:
 1419              	.LBE458:
 1420              		.loc 1 107 0
 1421 02f0 5821     		movs	r1, #88
 1422 02f2 2846     		mov	r0, r5
 1423 02f4 FFF7FEFF 		bl	chMBPostAheadI
 1424              	.LVL83:
 1425 02f8 0146     		mov	r1, r0
 1426              	.LVL84:
 1427              	.LBB462:
 1428              	.LBB463:
 1429              	.LBB464:
 1430              	.LBB465:
 1431              	.LBB466:
 1432              		.loc 2 546 0
 1433              	@ 546 "/usr/src/chibios/os/ext/CMSIS/include/core_cmFunc.h" 1
 1434 02fa 84F31188 		MSR basepri, r4
 1435              	@ 0 "" 2
 1436              		.thumb
 1437              	.LBE466:
 1438              	.LBE465:
 1439              	.LBE464:
 1440              	.LBE463:
 1441              	.LBE462:
 1442              		.loc 1 109 0
 1443 02fe B1F1FF33 		subs	r3, r1, #-1
 1444 0302 5942     		rsbs	r1, r3, #0
ARM GAS  /tmp/ccCXs8VA.s 			page 66


 1445 0304 4FF00700 		mov	r0, #7
 1446              	.LVL85:
 1447 0308 5941     		adcs	r1, r1, r3
 1448 030a FFF7FEFF 		bl	_test_assert
 1449              	.LVL86:
 1450 030e 8046     		mov	r8, r0
 1451 0310 0028     		cmp	r0, #0
 1452 0312 7FF4AEAE 		bne	.L1
 1453              	.LVL87:
 1454              	.LBB467:
 1455              	.LBB468:
 1456              	.LBB469:
 1457              	.LBB470:
 1458              		.loc 2 546 0
 1459              	@ 546 "/usr/src/chibios/os/ext/CMSIS/include/core_cmFunc.h" 1
 1460 0316 87F31188 		MSR basepri, r7
 1461              	@ 0 "" 2
 1462              	.LVL88:
 1463              		.thumb
 1464              	.LBE470:
 1465              	.LBE469:
 1466              	.LBE468:
 1467              	.LBE467:
 1468              		.loc 1 114 0
 1469 031a 696A     		ldr	r1, [r5, #36]
 1470 031c D1F10101 		rsbs	r1, r1, #1
 1471 0320 4FF00800 		mov	r0, #8
 1472 0324 38BF     		it	cc
 1473 0326 0021     		movcc	r1, #0
 1474 0328 FFF7FEFF 		bl	_test_assert
 1475              	.LVL89:
 1476 032c 0446     		mov	r4, r0
 1477 032e 10B1     		cbz	r0, .L7
 1478              	.LVL90:
 1479              	.LBB471:
 1480              	.LBB472:
 1481              	.LBB473:
 1482              	.LBB474:
 1483              	.LBB475:
 1484              		.loc 2 546 0
 1485              	@ 546 "/usr/src/chibios/os/ext/CMSIS/include/core_cmFunc.h" 1
 1486 0330 88F31188 		MSR basepri, r8
 1487              	@ 0 "" 2
 1488              		.thumb
 1489 0334 9DE6     		b	.L1
 1490              	.LVL91:
 1491              	.L7:
 1492              	.LBE475:
 1493              	.LBE474:
 1494              	.LBE473:
 1495              	.LBE472:
 1496              	.LBE471:
 1497              	.LBB476:
 1498              	.LBB477:
 1499              	.LBB478:
 1500              	.LBB479:
 1501              	.LBB480:
ARM GAS  /tmp/ccCXs8VA.s 			page 67


 1502              	@ 546 "/usr/src/chibios/os/ext/CMSIS/include/core_cmFunc.h" 1
 1503 0336 80F31188 		MSR basepri, r0
 1504              	@ 0 "" 2
 1505              	.LVL92:
 1506              		.thumb
 1507              	.LBE480:
 1508              	.LBE479:
 1509              	.LBE478:
 1510              	.LBE477:
 1511              	.LBE476:
 1512              	.LBB481:
 1513              	.LBB482:
 1514              	.LBB483:
 1515              	.LBB484:
 1516              	@ 546 "/usr/src/chibios/os/ext/CMSIS/include/core_cmFunc.h" 1
 1517 033a 87F31188 		MSR basepri, r7
 1518              	@ 0 "" 2
 1519              	.LVL93:
 1520              		.thumb
 1521              	.LBE484:
 1522              	.LBE483:
 1523              	.LBE482:
 1524              	.LBE481:
 1525              		.loc 1 115 0
 1526 033e A969     		ldr	r1, [r5, #24]
 1527 0340 B1F10508 		subs	r8, r1, #5
 1528 0344 D8F10001 		rsbs	r1, r8, #0
 1529 0348 51EB0801 		adcs	r1, r1, r8
 1530 034c 0920     		movs	r0, #9
 1531 034e FFF7FEFF 		bl	_test_assert
 1532              	.LVL94:
 1533 0352 10B1     		cbz	r0, .L8
 1534              	.LVL95:
 1535              	.L29:
 1536              	.LBB485:
 1537              	.LBB486:
 1538              	.LBB487:
 1539              	.LBB488:
 1540              	.LBB489:
 1541              		.loc 2 546 0
 1542              	@ 546 "/usr/src/chibios/os/ext/CMSIS/include/core_cmFunc.h" 1
 1543 0354 84F31188 		MSR basepri, r4
 1544              	@ 0 "" 2
 1545              		.thumb
 1546 0358 8BE6     		b	.L1
 1547              	.LVL96:
 1548              	.L8:
 1549              	.LBE489:
 1550              	.LBE488:
 1551              	.LBE487:
 1552              	.LBE486:
 1553              	.LBE485:
 1554              	.LBB490:
 1555              	.LBB491:
 1556              	.LBB492:
 1557              	.LBB493:
 1558              	.LBB494:
ARM GAS  /tmp/ccCXs8VA.s 			page 68


 1559              	@ 546 "/usr/src/chibios/os/ext/CMSIS/include/core_cmFunc.h" 1
 1560 035a 80F31188 		MSR basepri, r0
 1561              	@ 0 "" 2
 1562              	.LVL97:
 1563              		.thumb
 1564              	.LBE494:
 1565              	.LBE493:
 1566              	.LBE492:
 1567              	.LBE491:
 1568              	.LBE490:
 1569              	.LBB495:
 1570              	.LBB496:
 1571              	.LBB497:
 1572              	.LBB498:
 1573              	@ 546 "/usr/src/chibios/os/ext/CMSIS/include/core_cmFunc.h" 1
 1574 035e 87F31188 		MSR basepri, r7
 1575              	@ 0 "" 2
 1576              		.thumb
 1577              	.LBE498:
 1578              	.LBE497:
 1579              	.LBE496:
 1580              	.LBE495:
 1581              		.loc 1 116 0
 1582 0362 E968     		ldr	r1, [r5, #12]
 1583 0364 AB68     		ldr	r3, [r5, #8]
 1584 0366 B1EB030C 		subs	ip, r1, r3
 1585 036a DCF10001 		rsbs	r1, ip, #0
 1586 036e 4FF00A00 		mov	r0, #10
 1587 0372 51EB0C01 		adcs	r1, r1, ip
 1588 0376 FFF7FEFF 		bl	_test_assert
 1589              	.LVL98:
 1590              	.LBB499:
 1591              	.LBB500:
 1592              	.LBB501:
 1593              	.LBB502:
 1594              	.LBB503:
 1595              		.loc 2 546 0
 1596 037a 0023     		movs	r3, #0
 1597              	.LBE503:
 1598              	.LBE502:
 1599              	.LBE501:
 1600              	.LBE500:
 1601              	.LBE499:
 1602              		.loc 1 116 0
 1603 037c 0028     		cmp	r0, #0
 1604 037e 7FF477AF 		bne	.L26
 1605              	.LVL99:
 1606              	.LBB504:
 1607              	.LBB505:
 1608              	.LBB506:
 1609              	.LBB507:
 1610              	.LBB508:
 1611              		.loc 2 546 0
 1612              	@ 546 "/usr/src/chibios/os/ext/CMSIS/include/core_cmFunc.h" 1
 1613 0382 83F31188 		MSR basepri, r3
 1614              	@ 0 "" 2
 1615              	.LVL100:
ARM GAS  /tmp/ccCXs8VA.s 			page 69


 1616              		.thumb
 1617 0386 0525     		movs	r5, #5
 1618 0388 05E0     		b	.L11
 1619              	.LVL101:
 1620              	.L35:
 1621              	.LBE508:
 1622              	.LBE507:
 1623              	.LBE506:
 1624              	.LBE505:
 1625              	.LBE504:
 1626              		.loc 1 124 0
 1627 038a 9DF80400 		ldrb	r0, [sp, #4]	@ zero_extendqisi2
 1628 038e FFF7FEFF 		bl	test_emit_token
 1629              	.LVL102:
 1630              		.loc 1 121 0
 1631 0392 013D     		subs	r5, r5, #1
 1632              	.LVL103:
 1633 0394 10D0     		beq	.L34
 1634              	.LVL104:
 1635              	.L11:
 1636              		.loc 1 122 0
 1637 0396 9C4C     		ldr	r4, .L38
 1638 0398 01A9     		add	r1, sp, #4
 1639 039a 2046     		mov	r0, r4
 1640 039c 4FF0FF32 		mov	r2, #-1
 1641 03a0 FFF7FEFF 		bl	chMBFetch
 1642              	.LVL105:
 1643              		.loc 1 123 0
 1644 03a4 D0F10101 		rsbs	r1, r0, #1
 1645 03a8 38BF     		it	cc
 1646 03aa 0021     		movcc	r1, #0
 1647 03ac 0B20     		movs	r0, #11
 1648              	.LVL106:
 1649 03ae FFF7FEFF 		bl	_test_assert
 1650              	.LVL107:
 1651 03b2 0028     		cmp	r0, #0
 1652 03b4 E9D0     		beq	.L35
 1653 03b6 5CE6     		b	.L1
 1654              	.L34:
 1655              		.loc 1 126 0
 1656 03b8 0C20     		movs	r0, #12
 1657 03ba 9449     		ldr	r1, .L38+4
 1658 03bc FFF7FEFF 		bl	_test_assert_sequence
 1659              	.LVL108:
 1660 03c0 0028     		cmp	r0, #0
 1661 03c2 7FF456AE 		bne	.L1
 1662              		.loc 1 131 0
 1663 03c6 4721     		movs	r1, #71
 1664 03c8 2046     		mov	r0, r4
 1665 03ca 4FF0FF32 		mov	r2, #-1
 1666 03ce FFF7FEFF 		bl	chMBPost
 1667              	.LVL109:
 1668              		.loc 1 132 0
 1669 03d2 D0F10101 		rsbs	r1, r0, #1
 1670 03d6 38BF     		it	cc
 1671 03d8 0021     		movcc	r1, #0
 1672 03da 0D20     		movs	r0, #13
ARM GAS  /tmp/ccCXs8VA.s 			page 70


 1673              	.LVL110:
 1674 03dc FFF7FEFF 		bl	_test_assert
 1675              	.LVL111:
 1676 03e0 0028     		cmp	r0, #0
 1677 03e2 7FF446AE 		bne	.L1
 1678              		.loc 1 133 0
 1679 03e6 01A9     		add	r1, sp, #4
 1680 03e8 2046     		mov	r0, r4
 1681 03ea 4FF0FF32 		mov	r2, #-1
 1682 03ee FFF7FEFF 		bl	chMBFetch
 1683              	.LVL112:
 1684              		.loc 1 134 0
 1685 03f2 D0F10101 		rsbs	r1, r0, #1
 1686 03f6 38BF     		it	cc
 1687 03f8 0021     		movcc	r1, #0
 1688 03fa 0E20     		movs	r0, #14
 1689              	.LVL113:
 1690 03fc FFF7FEFF 		bl	_test_assert
 1691              	.LVL114:
 1692 0400 0028     		cmp	r0, #0
 1693 0402 7FF436AE 		bne	.L1
 1694              		.loc 1 135 0
 1695 0406 2168     		ldr	r1, [r4]
 1696 0408 A368     		ldr	r3, [r4, #8]
 1697 040a B1EB030E 		subs	lr, r1, r3
 1698 040e DEF10001 		rsbs	r1, lr, #0
 1699 0412 51EB0E01 		adcs	r1, r1, lr
 1700 0416 0F20     		movs	r0, #15
 1701 0418 FFF7FEFF 		bl	_test_assert
 1702              	.LVL115:
 1703 041c 0028     		cmp	r0, #0
 1704 041e 7FF428AE 		bne	.L1
 1705              		.loc 1 136 0
 1706 0422 2168     		ldr	r1, [r4]
 1707 0424 E368     		ldr	r3, [r4, #12]
 1708 0426 CF1A     		subs	r7, r1, r3
 1709 0428 7942     		rsbs	r1, r7, #0
 1710 042a 7941     		adcs	r1, r1, r7
 1711 042c 1020     		movs	r0, #16
 1712 042e FFF7FEFF 		bl	_test_assert
 1713              	.LVL116:
 1714 0432 0028     		cmp	r0, #0
 1715 0434 7FF41DAE 		bne	.L1
 1716              		.loc 1 141 0
 1717 0438 01A9     		add	r1, sp, #4
 1718 043a 2046     		mov	r0, r4
 1719 043c 0122     		movs	r2, #1
 1720 043e FFF7FEFF 		bl	chMBFetch
 1721              	.LVL117:
 1722              		.loc 1 142 0
 1723 0442 B0F1FF30 		subs	r0, r0, #-1
 1724              	.LVL118:
 1725 0446 4142     		rsbs	r1, r0, #0
 1726 0448 4141     		adcs	r1, r1, r0
 1727 044a 1120     		movs	r0, #17
 1728              	.LVL119:
 1729 044c FFF7FEFF 		bl	_test_assert
ARM GAS  /tmp/ccCXs8VA.s 			page 71


 1730              	.LVL120:
 1731 0450 0028     		cmp	r0, #0
 1732 0452 7FF40EAE 		bne	.L1
 1733              	.LVL121:
 1734              	.LBB509:
 1735              	.LBB510:
 1736              	.LBB511:
 1737              	.LBB512:
 1738              		.loc 2 546 0
 1739 0456 2027     		movs	r7, #32
 1740              	@ 546 "/usr/src/chibios/os/ext/CMSIS/include/core_cmFunc.h" 1
 1741 0458 87F31188 		MSR basepri, r7
 1742              	@ 0 "" 2
 1743              		.thumb
 1744              	.LBE512:
 1745              	.LBE511:
 1746              	.LBE510:
 1747              	.LBE509:
 1748              		.loc 1 144 0
 1749 045c 01A9     		add	r1, sp, #4
 1750 045e 2046     		mov	r0, r4
 1751 0460 FFF7FEFF 		bl	chMBFetchI
 1752              	.LVL122:
 1753 0464 0146     		mov	r1, r0
 1754              	.LVL123:
 1755              	.LBB513:
 1756              	.LBB514:
 1757              	.LBB515:
 1758              	.LBB516:
 1759              	.LBB517:
 1760              		.loc 2 546 0
 1761              	@ 546 "/usr/src/chibios/os/ext/CMSIS/include/core_cmFunc.h" 1
 1762 0466 85F31188 		MSR basepri, r5
 1763              	@ 0 "" 2
 1764              		.thumb
 1765              	.LBE517:
 1766              	.LBE516:
 1767              	.LBE515:
 1768              	.LBE514:
 1769              	.LBE513:
 1770              		.loc 1 146 0
 1771 046a B1F1FF32 		subs	r2, r1, #-1
 1772 046e 5142     		rsbs	r1, r2, #0
 1773 0470 5141     		adcs	r1, r1, r2
 1774 0472 1220     		movs	r0, #18
 1775              	.LVL124:
 1776 0474 FFF7FEFF 		bl	_test_assert
 1777              	.LVL125:
 1778 0478 0028     		cmp	r0, #0
 1779 047a 7FF4FAAD 		bne	.L1
 1780              	.LVL126:
 1781              	.LBB518:
 1782              	.LBB519:
 1783              	.LBB520:
 1784              	.LBB521:
 1785              		.loc 2 546 0
 1786              	@ 546 "/usr/src/chibios/os/ext/CMSIS/include/core_cmFunc.h" 1
ARM GAS  /tmp/ccCXs8VA.s 			page 72


 1787 047e 87F31188 		MSR basepri, r7
 1788              	@ 0 "" 2
 1789              	.LVL127:
 1790              		.thumb
 1791              	.LBE521:
 1792              	.LBE520:
 1793              	.LBE519:
 1794              	.LBE518:
 1795              		.loc 1 151 0
 1796 0482 616A     		ldr	r1, [r4, #36]
 1797 0484 4B1F     		subs	r3, r1, #5
 1798 0486 5942     		rsbs	r1, r3, #0
 1799 0488 5941     		adcs	r1, r1, r3
 1800 048a 1320     		movs	r0, #19
 1801 048c FFF7FEFF 		bl	_test_assert
 1802              	.LVL128:
 1803 0490 0028     		cmp	r0, #0
 1804 0492 7FF4ECAE 		bne	.L31
 1805              	.LVL129:
 1806              	.LBB522:
 1807              	.LBB523:
 1808              	.LBB524:
 1809              	.LBB525:
 1810              	.LBB526:
 1811              		.loc 2 546 0
 1812 0496 0027     		movs	r7, #0
 1813              	@ 546 "/usr/src/chibios/os/ext/CMSIS/include/core_cmFunc.h" 1
 1814 0498 87F31188 		MSR basepri, r7
 1815              	@ 0 "" 2
 1816              	.LVL130:
 1817              		.thumb
 1818              	.LBE526:
 1819              	.LBE525:
 1820              	.LBE524:
 1821              	.LBE523:
 1822              	.LBE522:
 1823              	.LBB527:
 1824              	.LBB528:
 1825              	.LBB529:
 1826              	.LBB530:
 1827 049c 2025     		movs	r5, #32
 1828              	.LVL131:
 1829              	@ 546 "/usr/src/chibios/os/ext/CMSIS/include/core_cmFunc.h" 1
 1830 049e 85F31188 		MSR basepri, r5
 1831              	@ 0 "" 2
 1832              	.LVL132:
 1833              		.thumb
 1834              	.LBE530:
 1835              	.LBE529:
 1836              	.LBE528:
 1837              	.LBE527:
 1838              		.loc 1 152 0
 1839 04a2 B169     		ldr	r1, [r6, #24]
 1840              		.loc 3 181 0
 1841 04a4 584C     		ldr	r4, .L38
 1842              		.loc 1 152 0
 1843 04a6 B1EB0708 		subs	r8, r1, r7
ARM GAS  /tmp/ccCXs8VA.s 			page 73


 1844 04aa D8F10001 		rsbs	r1, r8, #0
 1845 04ae 51EB0801 		adcs	r1, r1, r8
 1846 04b2 1420     		movs	r0, #20
 1847 04b4 FFF7FEFF 		bl	_test_assert
 1848              	.LVL133:
 1849 04b8 0646     		mov	r6, r0
 1850 04ba 10B1     		cbz	r0, .L13
 1851              	.LVL134:
 1852              	.LBB531:
 1853              	.LBB532:
 1854              	.LBB533:
 1855              	.LBB534:
 1856              	.LBB535:
 1857              		.loc 2 546 0
 1858              	@ 546 "/usr/src/chibios/os/ext/CMSIS/include/core_cmFunc.h" 1
 1859 04bc 87F31188 		MSR basepri, r7
 1860              	@ 0 "" 2
 1861              		.thumb
 1862 04c0 D7E5     		b	.L1
 1863              	.LVL135:
 1864              	.L13:
 1865              	.LBE535:
 1866              	.LBE534:
 1867              	.LBE533:
 1868              	.LBE532:
 1869              	.LBE531:
 1870              	.LBB536:
 1871              	.LBB537:
 1872              	.LBB538:
 1873              	.LBB539:
 1874              	.LBB540:
 1875              	@ 546 "/usr/src/chibios/os/ext/CMSIS/include/core_cmFunc.h" 1
 1876 04c2 80F31188 		MSR basepri, r0
 1877              	@ 0 "" 2
 1878              	.LVL136:
 1879              		.thumb
 1880              	.LBE540:
 1881              	.LBE539:
 1882              	.LBE538:
 1883              	.LBE537:
 1884              	.LBE536:
 1885              	.LBB541:
 1886              	.LBB542:
 1887              	.LBB543:
 1888              	.LBB544:
 1889              	@ 546 "/usr/src/chibios/os/ext/CMSIS/include/core_cmFunc.h" 1
 1890 04c6 85F31188 		MSR basepri, r5
 1891              	@ 0 "" 2
 1892              		.thumb
 1893              	.LBE544:
 1894              	.LBE543:
 1895              	.LBE542:
 1896              	.LBE541:
 1897              		.loc 1 153 0
 1898 04ca E168     		ldr	r1, [r4, #12]
 1899 04cc A368     		ldr	r3, [r4, #8]
 1900 04ce B1EB030C 		subs	ip, r1, r3
ARM GAS  /tmp/ccCXs8VA.s 			page 74


 1901 04d2 DCF10001 		rsbs	r1, ip, #0
 1902 04d6 51EB0C01 		adcs	r1, r1, ip
 1903 04da 1520     		movs	r0, #21
 1904 04dc FFF7FEFF 		bl	_test_assert
 1905              	.LVL137:
 1906 04e0 10B1     		cbz	r0, .L14
 1907              	.LVL138:
 1908              	.LBB545:
 1909              	.LBB546:
 1910              	.LBB547:
 1911              	.LBB548:
 1912              	.LBB549:
 1913              		.loc 2 546 0
 1914              	@ 546 "/usr/src/chibios/os/ext/CMSIS/include/core_cmFunc.h" 1
 1915 04e2 86F31188 		MSR basepri, r6
 1916              	@ 0 "" 2
 1917              		.thumb
 1918 04e6 C4E5     		b	.L1
 1919              	.LVL139:
 1920              	.L14:
 1921              	.LBE549:
 1922              	.LBE548:
 1923              	.LBE547:
 1924              	.LBE546:
 1925              	.LBE545:
 1926              	.LBB550:
 1927              	.LBB551:
 1928              	.LBB552:
 1929              	.LBB553:
 1930              	.LBB554:
 1931              	@ 546 "/usr/src/chibios/os/ext/CMSIS/include/core_cmFunc.h" 1
 1932 04e8 80F31188 		MSR basepri, r0
 1933              	@ 0 "" 2
 1934              	.LVL140:
 1935              		.thumb
 1936              	.LBE554:
 1937              	.LBE553:
 1938              	.LBE552:
 1939              	.LBE551:
 1940              	.LBE550:
 1941              	.LBB555:
 1942              	.LBB556:
 1943              	.LBB557:
 1944              	.LBB558:
 1945              	@ 546 "/usr/src/chibios/os/ext/CMSIS/include/core_cmFunc.h" 1
 1946 04ec 85F31188 		MSR basepri, r5
 1947              	@ 0 "" 2
 1948              		.thumb
 1949              	.LBE558:
 1950              	.LBE557:
 1951              	.LBE556:
 1952              	.LBE555:
 1953              		.loc 1 159 0
 1954 04f0 4121     		movs	r1, #65
 1955 04f2 2046     		mov	r0, r4
 1956 04f4 FFF7FEFF 		bl	chMBPostI
 1957              	.LVL141:
ARM GAS  /tmp/ccCXs8VA.s 			page 75


 1958              		.loc 1 160 0
 1959 04f8 D0F10101 		rsbs	r1, r0, #1
 1960 04fc 38BF     		it	cc
 1961 04fe 0021     		movcc	r1, #0
 1962 0500 1620     		movs	r0, #22
 1963              	.LVL142:
 1964 0502 FFF7FEFF 		bl	_test_assert
 1965              	.LVL143:
 1966 0506 0028     		cmp	r0, #0
 1967 0508 7FF4B3AD 		bne	.L1
 1968              		.loc 1 161 0
 1969 050c 4221     		movs	r1, #66
 1970 050e 2046     		mov	r0, r4
 1971 0510 FFF7FEFF 		bl	chMBPostI
 1972              	.LVL144:
 1973              		.loc 1 162 0
 1974 0514 D0F10101 		rsbs	r1, r0, #1
 1975 0518 38BF     		it	cc
 1976 051a 0021     		movcc	r1, #0
 1977 051c 1720     		movs	r0, #23
 1978              	.LVL145:
 1979 051e FFF7FEFF 		bl	_test_assert
 1980              	.LVL146:
 1981 0522 0028     		cmp	r0, #0
 1982 0524 7FF4A5AD 		bne	.L1
 1983              		.loc 1 163 0
 1984 0528 4321     		movs	r1, #67
 1985 052a 2046     		mov	r0, r4
 1986 052c FFF7FEFF 		bl	chMBPostI
 1987              	.LVL147:
 1988              		.loc 1 164 0
 1989 0530 D0F10101 		rsbs	r1, r0, #1
 1990 0534 38BF     		it	cc
 1991 0536 0021     		movcc	r1, #0
 1992 0538 1820     		movs	r0, #24
 1993              	.LVL148:
 1994 053a FFF7FEFF 		bl	_test_assert
 1995              	.LVL149:
 1996 053e 0028     		cmp	r0, #0
 1997 0540 7FF497AD 		bne	.L1
 1998              		.loc 1 165 0
 1999 0544 4421     		movs	r1, #68
 2000 0546 2046     		mov	r0, r4
 2001 0548 FFF7FEFF 		bl	chMBPostI
 2002              	.LVL150:
 2003              		.loc 1 166 0
 2004 054c D0F10101 		rsbs	r1, r0, #1
 2005 0550 38BF     		it	cc
 2006 0552 0021     		movcc	r1, #0
 2007 0554 1920     		movs	r0, #25
 2008              	.LVL151:
 2009 0556 FFF7FEFF 		bl	_test_assert
 2010              	.LVL152:
 2011 055a 0646     		mov	r6, r0
 2012 055c 0028     		cmp	r0, #0
 2013 055e 7FF488AD 		bne	.L1
 2014              		.loc 1 167 0
ARM GAS  /tmp/ccCXs8VA.s 			page 76


 2015 0562 2046     		mov	r0, r4
 2016 0564 4521     		movs	r1, #69
 2017 0566 FFF7FEFF 		bl	chMBPostI
 2018              	.LVL153:
 2019 056a 0146     		mov	r1, r0
 2020              	.LVL154:
 2021              	.LBB559:
 2022              	.LBB560:
 2023              	.LBB561:
 2024              	.LBB562:
 2025              	.LBB563:
 2026              		.loc 2 546 0
 2027              	@ 546 "/usr/src/chibios/os/ext/CMSIS/include/core_cmFunc.h" 1
 2028 056c 86F31188 		MSR basepri, r6
 2029              	@ 0 "" 2
 2030              		.thumb
 2031              	.LBE563:
 2032              	.LBE562:
 2033              	.LBE561:
 2034              	.LBE560:
 2035              	.LBE559:
 2036              		.loc 1 169 0
 2037 0570 D1F10101 		rsbs	r1, r1, #1
 2038 0574 38BF     		it	cc
 2039 0576 0021     		movcc	r1, #0
 2040 0578 1A20     		movs	r0, #26
 2041              	.LVL155:
 2042 057a FFF7FEFF 		bl	_test_assert
 2043              	.LVL156:
 2044 057e 0028     		cmp	r0, #0
 2045 0580 7FF477AD 		bne	.L1
 2046              		.loc 1 170 0
 2047 0584 E168     		ldr	r1, [r4, #12]
 2048 0586 A368     		ldr	r3, [r4, #8]
 2049 0588 B1EB030E 		subs	lr, r1, r3
 2050 058c DEF10001 		rsbs	r1, lr, #0
 2051 0590 51EB0E01 		adcs	r1, r1, lr
 2052 0594 1B20     		movs	r0, #27
 2053 0596 FFF7FEFF 		bl	_test_assert
 2054              	.LVL157:
 2055 059a 0028     		cmp	r0, #0
 2056 059c 7FF469AD 		bne	.L1
 2057              	.LBB564:
 2058              	.LBB565:
 2059              	.LBB566:
 2060              	.LBB567:
 2061              		.loc 2 546 0
 2062 05a0 A846     		mov	r8, r5
 2063              	.LBE567:
 2064              	.LBE566:
 2065              	.LBE565:
 2066              	.LBE564:
 2067              	.LBB571:
 2068              	.LBB572:
 2069              	.LBB573:
 2070              	.LBB574:
 2071              	.LBB575:
ARM GAS  /tmp/ccCXs8VA.s 			page 77


 2072 05a2 0746     		mov	r7, r0
 2073              	.LBE575:
 2074              	.LBE574:
 2075              	.LBE573:
 2076              	.LBE572:
 2077              	.LBE571:
 2078              		.loc 1 170 0
 2079 05a4 0525     		movs	r5, #5
 2080              	.L16:
 2081              	.LVL158:
 2082              	.LBB580:
 2083              	.LBB570:
 2084              	.LBB569:
 2085              	.LBB568:
 2086              		.loc 2 546 0
 2087 05a6 2026     		movs	r6, #32
 2088              	@ 546 "/usr/src/chibios/os/ext/CMSIS/include/core_cmFunc.h" 1
 2089 05a8 88F31188 		MSR basepri, r8
 2090              	@ 0 "" 2
 2091              		.thumb
 2092              	.LBE568:
 2093              	.LBE569:
 2094              	.LBE570:
 2095              	.LBE580:
 2096              		.loc 1 173 0
 2097 05ac 164C     		ldr	r4, .L38
 2098 05ae 01A9     		add	r1, sp, #4
 2099 05b0 2046     		mov	r0, r4
 2100 05b2 FFF7FEFF 		bl	chMBFetchI
 2101              	.LVL159:
 2102 05b6 0146     		mov	r1, r0
 2103              	.LVL160:
 2104              	.LBB581:
 2105              	.LBB579:
 2106              	.LBB578:
 2107              	.LBB577:
 2108              	.LBB576:
 2109              		.loc 2 546 0
 2110              	@ 546 "/usr/src/chibios/os/ext/CMSIS/include/core_cmFunc.h" 1
 2111 05b8 87F31188 		MSR basepri, r7
 2112              	@ 0 "" 2
 2113              		.thumb
 2114              	.LBE576:
 2115              	.LBE577:
 2116              	.LBE578:
 2117              	.LBE579:
 2118              	.LBE581:
 2119              		.loc 1 175 0
 2120 05bc D1F10101 		rsbs	r1, r1, #1
 2121 05c0 38BF     		it	cc
 2122 05c2 0021     		movcc	r1, #0
 2123 05c4 1C20     		movs	r0, #28
 2124              	.LVL161:
 2125 05c6 FFF7FEFF 		bl	_test_assert
 2126              	.LVL162:
 2127 05ca 0028     		cmp	r0, #0
 2128 05cc 7FF451AD 		bne	.L1
ARM GAS  /tmp/ccCXs8VA.s 			page 78


 2129              		.loc 1 176 0
 2130 05d0 9DF80400 		ldrb	r0, [sp, #4]	@ zero_extendqisi2
 2131 05d4 FFF7FEFF 		bl	test_emit_token
 2132              	.LVL163:
 2133              		.loc 1 171 0
 2134 05d8 013D     		subs	r5, r5, #1
 2135              	.LVL164:
 2136 05da E4D1     		bne	.L16
 2137              		.loc 1 178 0
 2138 05dc 1D20     		movs	r0, #29
 2139 05de 0B49     		ldr	r1, .L38+4
 2140 05e0 FFF7FEFF 		bl	_test_assert_sequence
 2141              	.LVL165:
 2142 05e4 0028     		cmp	r0, #0
 2143 05e6 7FF444AD 		bne	.L1
 2144              	.LVL166:
 2145              	.LBB582:
 2146              	.LBB583:
 2147              	.LBB584:
 2148              	.LBB585:
 2149              		.loc 2 546 0
 2150              	@ 546 "/usr/src/chibios/os/ext/CMSIS/include/core_cmFunc.h" 1
 2151 05ea 86F31188 		MSR basepri, r6
 2152              	@ 0 "" 2
 2153              	.LVL167:
 2154              		.thumb
 2155              	.LBE585:
 2156              	.LBE584:
 2157              	.LBE583:
 2158              	.LBE582:
 2159              		.loc 1 179 0
 2160 05ee 616A     		ldr	r1, [r4, #36]
 2161 05f0 4F1F     		subs	r7, r1, #5
 2162 05f2 7942     		rsbs	r1, r7, #0
 2163 05f4 7941     		adcs	r1, r1, r7
 2164 05f6 1E20     		movs	r0, #30
 2165 05f8 FFF7FEFF 		bl	_test_assert
 2166              	.LVL168:
 2167 05fc 0028     		cmp	r0, #0
 2168 05fe 3FF43BAD 		beq	.L17
 2169              	.LVL169:
 2170              	.L30:
 2171              	.LBB586:
 2172              	.LBB587:
 2173              	.LBB588:
 2174              	.LBB589:
 2175              	.LBB590:
 2176              		.loc 2 546 0
 2177              	@ 546 "/usr/src/chibios/os/ext/CMSIS/include/core_cmFunc.h" 1
 2178 0602 85F31188 		MSR basepri, r5
 2179              	@ 0 "" 2
 2180              		.thumb
 2181 0606 34E5     		b	.L1
 2182              	.L39:
 2183              		.align	2
 2184              	.L38:
 2185 0608 00000000 		.word	.LANCHOR0
ARM GAS  /tmp/ccCXs8VA.s 			page 79


 2186 060c 00000000 		.word	.LC0
 2187              	.LBE590:
 2188              	.LBE589:
 2189              	.LBE588:
 2190              	.LBE587:
 2191              	.LBE586:
 2192              		.cfi_endproc
 2193              	.LFE230:
 2194              		.size	mbox1_execute, .-mbox1_execute
 2195              		.section	.text.mbox1_setup,"ax",%progbits
 2196              		.align	2
 2197              		.p2align 4,,15
 2198              		.thumb
 2199              		.thumb_func
 2200              		.type	mbox1_setup, %function
 2201              	mbox1_setup:
 2202              	.LFB229:
 2203              		.loc 1 71 0
 2204              		.cfi_startproc
 2205              		@ args = 0, pretend = 0, frame = 0
 2206              		@ frame_needed = 0, uses_anonymous_args = 0
 2207              		@ link register save eliminated.
 2208              		.loc 1 73 0
 2209 0000 0248     		ldr	r0, .L41
 2210 0002 0349     		ldr	r1, .L41+4
 2211 0004 0522     		movs	r2, #5
 2212 0006 FFF7FEBF 		b	chMBObjectInit
 2213              	.LVL170:
 2214              	.L42:
 2215 000a 00BF     		.align	2
 2216              	.L41:
 2217 000c 00000000 		.word	.LANCHOR0
 2218 0010 00000000 		.word	test
 2219              		.cfi_endproc
 2220              	.LFE229:
 2221              		.size	mbox1_setup, .-mbox1_setup
 2222              		.global	patternmbox
 2223              		.global	testmbox1
 2224              		.section	.data.mb1,"aw",%progbits
 2225              		.align	2
 2226              		.set	.LANCHOR0,. + 0
 2227              		.type	mb1, %object
 2228              		.size	mb1, 40
 2229              	mb1:
 2230 0000 00000000 		.word	test
 2231 0004 14000000 		.word	test+20
 2232 0008 00000000 		.word	test
 2233 000c 00000000 		.word	test
 2234 0010 10000000 		.word	mb1+16
 2235 0014 10000000 		.word	mb1+16
 2236 0018 00000000 		.word	0
 2237 001c 1C000000 		.word	mb1+28
 2238 0020 1C000000 		.word	mb1+28
 2239 0024 05000000 		.word	5
 2240              		.section	.rodata.patternmbox,"a",%progbits
 2241              		.align	2
 2242              		.type	patternmbox, %object
ARM GAS  /tmp/ccCXs8VA.s 			page 80


 2243              		.size	patternmbox, 8
 2244              	patternmbox:
 2245 0000 00000000 		.word	testmbox1
 2246 0004 00000000 		.word	0
 2247              		.section	.rodata.str1.4,"aMS",%progbits,1
 2248              		.align	2
 2249              	.LC0:
 2250 0000 41424344 		.ascii	"ABCDE\000"
 2250      4500
 2251 0006 0000     		.space	2
 2252              	.LC1:
 2253 0008 4D61696C 		.ascii	"Mailboxes, queuing and timeouts\000"
 2253      626F7865 
 2253      732C2071 
 2253      75657569 
 2253      6E672061 
 2254              		.section	.rodata.testmbox1,"a",%progbits
 2255              		.align	2
 2256              		.type	testmbox1, %object
 2257              		.size	testmbox1, 16
 2258              	testmbox1:
 2259 0000 08000000 		.word	.LC1
 2260 0004 00000000 		.word	mbox1_setup
 2261 0008 00000000 		.word	0
 2262 000c 00000000 		.word	mbox1_execute
 2263              		.text
 2264              	.Letext0:
 2265              		.file 4 "/usr/lib/gcc/arm-none-eabi/4.8/include/stddef.h"
 2266              		.file 5 "/usr/include/newlib/machine/_default_types.h"
 2267              		.file 6 "/usr/include/newlib/sys/_stdint.h"
 2268              		.file 7 "/usr/src/chibios/os/rt/ports/ARMCMx/compilers/GCC/chtypes.h"
 2269              		.file 8 "/usr/src/chibios/os/rt/include/chsystypes.h"
 2270              		.file 9 "/usr/src/chibios/os/rt/include/chschd.h"
 2271              		.file 10 "/usr/src/chibios/os/rt/ports/ARMCMx/chcore.h"
 2272              		.file 11 "/usr/src/chibios/os/rt/ports/ARMCMx/chcore_v7m.h"
 2273              		.file 12 "/usr/src/chibios/os/rt/include/chtm.h"
 2274              		.file 13 "/usr/src/chibios/os/rt/include/chsem.h"
 2275              		.file 14 "/usr/src/chibios/os/rt/include/chmtx.h"
 2276              		.file 15 "/usr/src/chibios/test/rt/test.h"
 2277              		.file 16 "/usr/src/chibios/os/rt/include/chsys.h"
 2278              		.file 17 "/usr/src/chibios/os/ext/CMSIS/include/core_cm4.h"