ARM GAS  /tmp/cc4bdlHR.s 			page 1


   1              		.syntax unified
   2              		.cpu cortex-m4
   3              		.fpu softvfp
   4              		.eabi_attribute 20, 1
   5              		.eabi_attribute 21, 1
   6              		.eabi_attribute 23, 3
   7              		.eabi_attribute 24, 1
   8              		.eabi_attribute 25, 1
   9              		.eabi_attribute 26, 1
  10              		.eabi_attribute 30, 2
  11              		.eabi_attribute 34, 1
  12              		.eabi_attribute 18, 4
  13              		.thumb
  14              		.file	"testheap.c"
  15              		.text
  16              	.Ltext0:
  17              		.section	.gnu.lto_.jmpfuncs.51398333c97b1c4c,"",%progbits
  18 0000 789C6362 		.ascii	"x\234cb`b\300\006f2Ch\240,\023S\004c&#\003\017\230\013"
  18      6062C006 
  18      66324368 
  18      A02C1353 
  18      04632623 
  19 0018 617343D8 		.ascii	"asC\330\325\014\277\032:\032\0042\031\031s\031\241\372"
  19      D50CBF1A 
  19      3A1A0432 
  19      19197319 
  19      A1FA
  20 002a 18E16AB8 		.ascii	"\030\341j\270p\252!E\020l\024'>\353\030\261J\20152)"
  20      70AA2145 
  20      106C1427 
  20      3EEB18B1 
  20      4A813532 
  21 003f C08DE0C0 		.ascii	"\300\215\340\300\357b\034\372\005\010\311\201\315f'"
  21      EF621CFA 
  21      0508C981 
  21      CD6627
  22 004e E83CB032 		.ascii	"\350<\26026\212\003\004\335bV\252{J\020n6\013\001OQ"
  22      368A0304 
  22      DD6256AA 
  22      7B4A106E 
  22      360B014F 
  23 0063 146C047D 		.ascii	"\024l\004}\306<P\266\343N\204L\0106#L\017C\303\277\377"
  23      C63C50B6 
  23      E34E844C 
  23      0836234C 
  23      0F43C3BF 
  24 0078 FFF99123 		.ascii	"\377\371\221#\231\021\213*\204\277\240F210cq\004\\\204"
  24      99118B2A 
  24      84BFA046 
  24      32313063 
  24      71045C84 
  25 008c 599B6155 		.ascii	"Y\233aUC\003\210\305\222\313\310\230\004s\007\334\322"
  25      430388C5 
  25      92CBC898 
  25      047307DC 
  25      D2
  26 009d 17A0AC08 		.ascii	"\027\240\254\010\000\207\223\212\230"
ARM GAS  /tmp/cc4bdlHR.s 			page 2


  26      0087938A 
  26      98
  27              		.text
  28              		.section	.gnu.lto_.inline.51398333c97b1c4c,"",%progbits
  29 0000 789C6362 		.ascii	"x\234cb`b\300\006\3662Bh&\006\216\347\214g\031\030\031"
  29      6062C006 
  29      F6324268 
  29      26068EE7 
  29      8C671918 
  30 0015 98429A9C 		.ascii	"\230B\232\234\030\330\026\310\203\225\263\360\202d&"
  30      18D816C8 
  30      8395B3F0 
  30      826426
  31 0024 F8A1D20C 		.ascii	"\370\241\322\014L\334\014\014\214\030\2420.3\017\012"
  31      4CDC0C0C 
  31      8C18A230 
  31      2E330F0A 
  32 0034 17550F8A 		.ascii	"\027U\017\212V\034jP$\2111\007\273\026\312M\307\243"
  32      561C6A50 
  32      24893107 
  32      BB16CA4D 
  32      C7A3
  33 0046 837C8D78 		.ascii	"\203|\215x\203\007M\024\252\226\221\013\034C\354\374"
  33      83074D14 
  33      AA96910B 
  33      1C43ECFC 
  34 0056 8CE05844 		.ascii	"\214\340XD\216\035f\020\003\000\363\332 \205"
  34      8E1D6610 
  34      0300F3DA 
  34      2085
  35              		.text
  36              		.section	.gnu.lto_.pureconst.51398333c97b1c4c,"",%progbits
  37 0000 789C6362 		.ascii	"x\234cb`b`e\200\000&\006\011&\011\000\001\000\000>"
  37      60626065 
  37      80002606 
  37      09260900 
  37      0100003E 
  38              		.text
  39              		.section	.gnu.lto_heap1_execute.51398333c97b1c4c,"",%progbits
  40 0000 789CAD58 		.ascii	"x\234\255X]lTE\024>s\357\376uw\333\335n\2734}\341\257"
  40      5D6C5445 
  40      143E73EF 
  40      FE7577DB 
  40      DD6EBB34 
  41 0017 D6FA005D 		.ascii	"\326\372\000]k\015?i\260\210\021\3224M \260\021\220"
  41      6B0D3F69 
  41      B08811D2 
  41      344D20B0 
  41      1190
  42 0029 9096B5D2 		.ascii	"\220\226\265\322\265\264nhy\201\007.\355b\220\330HH"
  42      B5B46E68 
  42      7981072E 
  42      ED6290D8 
  42      4848
  43 003b 4C08D158 		.ascii	"L\010\321X\202\177\244\022B|\300\004\320F\215\266Dh"
  43      827FA412 
  43      427CC004 
ARM GAS  /tmp/cc4bdlHR.s 			page 3


  43      D0468DB6 
  43      4468
  44 004d 4C4804E3 		.ascii	"LH\004\343\317\306\0271\022\344\301D#\312z\316\314\354"
  44      CFC61731 
  44      12E4C144 
  44      23CA7ACE 
  44      CCEC
  45 005f EC6EEF8F 		.ascii	"\354n\357\217K\270\3730s\317\231s\316\314\371\276\357"
  45      4BB8FB30 
  45      73CF9973 
  45      CECCF9BE 
  45      EF
  46 0070 DEBDBB1A 		.ascii	"\336\275\273\032h0\377\023`\000\177\326\003<\213\327"
  46      6830FF13 
  46      60007FD6 
  46      033C8BD7 
  47 0080 2C0E4C3B 		.ascii	",\016L;v\015\340P@\323b\227V\202\021\324\257/\000#\254"
  47      760DE050 
  47      40D36297 
  47      568211D4 
  47      AF2F0023 
  48 0095 4BCBC32D 		.ascii	"K\313\303-\217\264\274\334\362J\313\307-\237\264\374"
  48      8FB4BCDC 
  48      F24ACBC7 
  48      2D9FB4FC 
  49 00a5 DCF26BC1 		.ascii	"\334\362k\301\211G\321\012\214?\206V@\253\277\033G+"
  49      8947D10A 
  49      8C3F8656 
  49      40ABBF1B 
  49      472B
  50 00b7 38B90AAD 		.ascii	"8\271\012\255z\026\244\255XPf\204xFHZan\205\245U\315"
  50      7A16A4AD 
  50      58506684 
  50      7846485A 
  50      616E85A5 
  51 00cd AD6A69D5 		.ascii	"\255ji\325p\253FZ\021nE\244\025\345VT\213]O\240U{i!"
  51      70AB465A 
  51      116E45A4 
  51      15E55654 
  51      8B5D4FA0 
  52 00e5 5AB5AC4E 		.ascii	"Z\265\254N4\025+\\\3241F\027\300\340\240\246{\274>\177"
  52      34152B5C 
  52      D4314617 
  52      C0E0A0A6 
  52      7BBC3E7F 
  53 00f9 A03E180A 		.ascii	"\240>\030\012W\327D\242\265\261:vp\033\343\310,\205"
  53      57D744A2 
  53      B5B13A76 
  53      701BE3C8 
  53      2C85
  54 010b 5386712C 		.ascii	"S\206q,w\370\336\211\306\243\223c\307\214\373\371<K"
  54      77F8DE89 
  54      C6A39363 
  54      C78CFBF9 
  54      3C4B
  55 011d 33C4B085 		.ascii	"3\304\260\205A\212\301V4\330b>i\236rPy\346\361\351\267"
  55      418AC156 
ARM GAS  /tmp/cc4bdlHR.s 			page 4


  55      34D8623E 
  55      699E7250 
  55      79E6F1E9 
  56 0132 AEBC519A 		.ascii	"\256\274Q\232\251k\220\2500\363\302\225\331S\3148n\034"
  56      A96B90A8 
  56      30F3C295 
  56      D953CC38 
  56      6E1C
  57 0144 BA9BCF47 		.ascii	"\272\233\317Gxf{\245{~\371Z\243Q\334\323\243\301\252"
  57      78667BA5 
  57      7B7EF95A 
  57      A351DCD3 
  57      A3C1AA
  58 0157 CA328DCB 		.ascii	"\3122\215\313/\314\030\331\351|\276\223guT\230\365m"
  58      2FCC18D9 
  58      E97CBE93 
  58      67755498 
  58      F56D
  59 0169 59D65395 		.ascii	"Y\326S\225dM\037\237~\373\225\211\322Sz5x\272\262L\343"
  59      644D1F9F 
  59      7EFB9589 
  59      D2537A35 
  59      78BAB24C 
  60 017e 62713FCC 		.ascii	"bq?\314z\346\377\262\316i\323\271|\376\373\363\357\374"
  60      7AE6FFB2 
  60      CE69D3B9 
  60      7CFEFBF3 
  60      EFFC
  61 0190 FC268BED 		.ascii	"\374&\213\355c\320\307N\261\245P\205\363\3738\007!\315"
  61      63D0C74E 
  61      B1A55085 
  61      F3FB3807 
  61      21CD
  62 01a2 7C611A22 		.ascii	"|a\032\"\322\023%#FC\\z\032p>\203s#\316S8/\304E}\021"
  62      D2132523 
  62      46435C7A 
  62      1A703E83 
  62      7323CE53 
  63 01bc 452CA1A1 		.ascii	"E,\241\241I\2065\313\260\026\031\266\214\302\226SD\202"
  63      498635CB 
  63      B01619B6 
  63      8CC29653 
  63      4482
  64 01ce 863619D6 		.ascii	"\2066\031\326.\303V\320\362JZYMC\207\\^C\356N\032\326"
  64      2EC356D0 
  64      F24A5A59 
  64      4D43875C 
  64      5E43EE4E 
  65 01e4 927B1D0D 		.ascii	"\222{\035\015\353\311\334@W]4t\313\320\036Yi#-o\242"
  65      EBC9DC40 
  65      575D3474 
  65      CBD01E59 
  65      69232D6F 
  66 01f9 95CD3424 		.ascii	"\225\3154$\345\3626ro'\317\016\032v\242\3734\272{\345"
  66      E5F23672 
  66      6F27CF0E 
  66      1A76A2FB 
ARM GAS  /tmp/cc4bdlHR.s 			page 5


  66      34BA7BE5 
  67 020d F22E5A4E 		.ascii	"\362.ZN\321J?\015\003d\246\351j\220\206=2z\010\347w"
  67      D14A3F0D 
  67      0364A6E9 
  67      6A90863D 
  67      327A08E7 
  68 0222 711E2667 		.ascii	"q\036&g\206\006\204\324\013Y\274-\026\213:\342\014\242"
  68      860684D4 
  68      0B59BC2D 
  68      168B3AE2 
  68      0CA2
  69 0234 E53E7696 		.ascii	"\345>v\226\217\347p\004\342\005?[p\244[-\3114\232\365"
  69      8FE77004 
  69      E2053F5B 
  69      70A45B2D 
  69      C9349AF5 
  70 0248 3918CF9D 		.ascii	"9\030\317\235L\365\261\363\314\213\253\007\340o\343"
  70      4CF5B1F3 
  70      CC8BAB07 
  70      E06FE3
  71 0257 88114D33 		.ascii	"\210\021M3\177\212\361p\334\"\0000\007\207'?\320MAU"
  71      7F8AF170 
  71      DC220030 
  71      0787273F 
  71      D04D4155 
  72 026b 29269E5F 		.ascii	")&\236_DtP,\340\347\3714\013\211MeF\232\205y\215\334"
  72      4474502C 
  72      E0E7F934 
  72      0B894D65 
  72      469A8579 
  73 0281 99CF9970 		.ascii	"\231\317\231p\355fU\252Ju\212\351\245Uh\362\022\355"
  73      ED6655AA 
  73      4A758AE9 
  73      A55568F2 
  73      12ED
  74 0293 3500B3A0 		.ascii	"5\000\263\240\211\004\321\034\246\001\\\205\361\033"
  74      8904D11C 
  74      A6015C85 
  74      F11B
  75 02a1 E353137A 		.ascii	"\343S\023z\241R\020\275\224\303\2056\007\336\202?\254"
  75      A15210BD 
  75      94C38536 
  75      07DE823F 
  75      AC
  76 02b2 7688A4C4 		.ascii	"v\210\244\304\"/\2553\312I\263(\300\014do\253\003\205"
  76      222FAD33 
  76      CA49B328 
  76      C00C646F 
  76      AB0385
  77 02c5 69D1572A 		.ascii	"i\321W*\325$\236\353\372\002D(\233\233:\3557u_\233\342"
  77      D5249EEB 
  77      FA024428 
  77      9B9B3AED 
  77      37755F9B 
  78 02da 36D0A9D2 		.ascii	"6\320\251\322,&:\374\260\330a\304\261C\235\356\264\210"
  78      2C263AFC 
  78      B0D861C4 
ARM GAS  /tmp/cc4bdlHR.s 			page 6


  78      B1439DEE 
  78      B488
  79 02ec 4D9711DE 		.ascii	"M\227\021\336\345\334\370\205b\227Q\364Zu\031\263\351"
  79      E5DCF885 
  79      629751F4 
  79      5A7519B3 
  79      E9
  80 02fd 52A31C73 		.ascii	"R\243\034s\2271\213.=0\353\323\211\342\217\035(\026"
  80      97318B2E 
  80      3D30EBD3 
  80      89E28F1D 
  80      2816
  81 030f 1EE23638 		.ascii	"\036\34268\304\012\304\036\200\375\266\\_,\"\0217#!"
  81      C40AC41E 
  81      80FDB65C 
  81      5F2C2211 
  81      372321
  82 0322 CB3D5756 		.ascii	"\313=WV\256\234\371\261i_9*q!\304K\012\223\206\207\255"
  82      AE9CF9B1 
  82      695F392A 
  82      7121C44B 
  82      0A938687 
  83 0337 7B86D76D 		.ascii	"{\206\327m\020u/\253\272\215\017[w\212\327m\244\272"
  83      10752FAB 
  83      BA8D0F5B 
  83      778AD76D 
  83      A4BA
  84 0349 D9DC27CE 		.ascii	"\331\334'\316\332\211K\355d'?5\303_\022\327\240\342"
  84      DA894BED 
  84      64273F35 
  84      C35F12D7 
  84      A0E2
  85 035b 661CE31A 		.ascii	"f\034\343\032\225\026gS\205\206\026Z\363\031\260$\363"
  85      95166753 
  85      8586165A 
  85      F319B024 
  85      F3
  86 036c EC3C3249 		.ascii	"\354<2I\211\012\232EX\214\267\315\312e\270\304F\206"
  86      890A9A45 
  86      588CB7CD 
  86      CA65B8C4 
  86      4686
  87 037e 3AE59865 		.ascii	":\345\230e\270\304B\206^\370\203\221\014s_\027\225\323"
  87      B8C44286 
  87      5EF88391 
  87      0C735F17 
  87      95D3
  88 0390 E48E729A 		.ascii	"\344\216r\232\004\303WU\033\315\356(\247Y\324\275\246"
  88      04C35755 
  88      1BCDEE28 
  88      A759D4BD 
  88      A6
  89 03a1 EAB6B8A3 		.ascii	"\352\266\270\243\234\026\241\2349g\345\264(E\334pTD"
  89      9C16A19C 
  89      3967E5B4 
  89      2845DC70 
  89      5444
ARM GAS  /tmp/cc4bdlHR.s 			page 7


  90 03b3 B38ABBE9 		.ascii	"\263\212\273\351\030\327\244\224\363\235R\3162\327\224"
  90      18D7A494 
  90      F39D52CE 
  90      32D794
  91 03c2 B31C8B59 		.ascii	"\263\034\213Y)'a\243\034\017\345\230\225\223\260P\216"
  91      292761A3 
  91      1C0FE598 
  91      9593B050 
  91      8E
  92 03d3 0FBE02AE 		.ascii	"\017\276\002\256\234\037\212\312i{\020&jm\225\323&\030"
  92      9C1F8ACA 
  92      697B1026 
  92      6A6D95D3 
  92      2618
  93 03e5 FE51B5D1 		.ascii	"\376Q\265\321\356\216r\332\005\303?93\334\246\030\271"
  93      EE8E72DA 
  93      05C33F39 
  93      33DCA618 
  93      B9
  94 03f6 A51859E1 		.ascii	"\245\030Y\341\032#+\261\330V\361\262W\306\310j\033F"
  94      1A232BB1 
  94      D856F1B2 
  94      57C6C86A 
  94      1B46
  95 0408 788E9991 		.ascii	"x\216\231\221\325\026\214\370!\316\011\371\265HH\207"
  95      D5168CF8 
  95      21CE09F9 
  95      B5484887 
  96 0418 3BB77287 		.ascii	";\267r\207\300\343\266\302c\315\303\3401\003_\374\242"
  96      C0E3B6C2 
  96      63CDC3E0 
  96      31035FFC 
  96      A2
  97 0429 4EB846C9 		.ascii	"N\270F\311\263\330H\000Bz\0114\235\256m\326\251\220"
  97      B3D84800 
  97      427A0934 
  97      9DAE6DD6 
  97      A990
  98 043b 2F7CB6B0 		.ascii	"/|\266\260z\320Y\022_\020\342\372U\030\273\243xZ\273"
  98      7AD05912 
  98      5F10E2FA 
  98      5518BBA3 
  98      785ABB
  99 044e 9BDEC54A 		.ascii	"\233\336\305JN\261\316\206 \037\005\233\011Z7\217\240"
  99      4EB1CE86 
  99      201F059B 
  99      095A378F 
  99      A0
 100 045f 9BC0C883 		.ascii	"\233\300\310\203?\266\352y\036\272\002 =~\336u\010|"
 100      3FB6EA79 
 100      1EBA0220 
 100      3D7EDE75 
 100      087C
 101 0471 FCB5E78E 		.ascii	"\374\265\347\216\263<\333\325\203\345w\307\007K\207"
 101      B33CDBD5 
 101      83E577C7 
 101      074B87
ARM GAS  /tmp/cc4bdlHR.s 			page 8


 102 0480 92F15F8A 		.ascii	"\222\361_\212\266\365\256\311x\003\026\263z\260t\331"
 102      B6F5AEC9 
 102      780316B3 
 102      7AB074D9 
 103 0490 A0E4A71C 		.ascii	"\240\344\247\0343J]\0262\016\203\306e|\257(\343nwd\334"
 103      334A5D16 
 103      320E83C6 
 103      657CAF28 
 103      E36E7764 
 104 04a5 2D9E2BFF 		.ascii	"-\236+\377\250.z\334y\256\364\210\347\312\277\316\304"
 104      A82E7ADC 
 104      79AEF488 
 104      E7CABFCE 
 104      C4
 105 04b6 752B42EE 		.ascii	"u+B\356+B6\272F\310&,f\365\\\331lCH\200r\314\204l\266"
 105      2B4236BA 
 105      46C8262C 
 105      66F55CD9 
 105      6C434880 
 106 04cf 20A41AC4 		.ascii	" \244\032\304+B\276HH\362A\200[lKHR\000w\344]G\340\222"
 106      2B42BE48 
 106      48F24180 
 106      5B6C4B48 
 106      520077E4 
 107 04e7 4AF1AF7A 		.ascii	"J\361\257z\235\342z\024\300G\373\013\007\335\346\032"
 107      9DE27A14 
 107      C047FB0B 
 107      07DDE61A 
 108 04f7 C0DBB198 		.ascii	"\300\333\261\230\225\342w\330\000\\E9f\200wX\000\214"
 108      95E277D8 
 108      005C4539 
 108      66807758 
 108      008C
 109 0509 E0F09F02 		.ascii	"\340\360\237\002\023\346\366*\373)`>\370\330\354\215"
 109      13E6F62A 
 109      FB29603E 
 109      F8D8EC8D 
 110 0519 D337B5C2 		.ascii	"\3237\265\302\246;E\010\007\247\300\301n\326[!\211\230"
 110      A63B4508 
 110      07A7C0C1 
 110      6ED65B21 
 110      8998
 111 052b 6F4760AF 		.ascii	"oG`\257\300\373u\205\367.\327\360Na1\2167\224\343\335"
 111      C0FB7585 
 111      F72ED7F0 
 111      4E61318E 
 111      3794E3DD 
 112 053f 6F837790 		.ascii	"o\203w\220r\314x\367[\340\035\341xgs'\234u\327\253\364"
 112      72CC78F7 
 112      5BE01DE1 
 112      78677327 
 112      9C75D7AB 
 113 0554 7452F537 		.ascii	"tR\3657\340Z\177i,f\245\247A\233\376B\224c\356o\320"
 113      E05A7F69 
 113      2C66A5A7 
 113      419BFE42 
 113      9463EE6F 
ARM GAS  /tmp/cc4bdlHR.s 			page 9


 114 0569 A23F8CA1 		.ascii	"\242?\214\241/\263\331[\357\251\260=\005\005\240\277"
 114      2FB3D95B 
 114      EFA9B03D 
 114      0505A0BF 
 115 0579 ABE01C2A 		.ascii	"\253\340\034*\374KQv\260a\214\306\265\262Cel\016\025"
 115      FC4B5176 
 115      B0618CC6 
 115      B5B24365 
 115      6C0E15
 116 058c A678F3A1 		.ascii	"\246x\363\2412\026\207\252\345\207\372\3547\365\253"
 116      321687AA 
 116      E587FAEC 
 116      37F5AB
 117 059b 9BCEF324 		.ascii	"\233\316\363$|d\034\221$\227-\236\233\267(j\304\370"
 117      7C641C91 
 117      24972D9E 
 117      9BB7286A 
 117      C4F8
 118 05ad BF271438 		.ascii	"\277'\0248\363\222C\231A\347*u\274\3127p(P<\337\026"
 118      F3924399 
 118      41E72A75 
 118      BCCA3770 
 118      28503CDF 
 119 05c2 FCB6472F 		.ascii	"\374\266G/1\372Hb\337\310\336\304\310\336T\"5\220\336"
 119      31FA4862 
 119      DFC8DEC4 
 119      C8DE5422 
 119      3590DE
 120 05d5 957E7924 		.ascii	"\225~y$1\332?2\232\330;\312\347\201\376\276Lk\012\374"
 120      31DA3F32 
 120      9AD83BCA 
 120      E781FEBE 
 120      4C6B0AFC 
 121 05e9 E9174787 		.ascii	"\351\027G\2072\255\217\353\303\255m\236\221\375\255"
 121      32AD8FEB 
 121      C3AD6D9E 
 121      91FDAD
 122 05f8 4F689936 		.ascii	"Oh\2316-\203c;\033\326F\366\377\007z\276\302%"
 122      2D83633B 
 122      1BD646F6 
 122      FF077ABE 
 122      C225
 123              		.text
 124              		.section	.gnu.lto_heap1_setup.51398333c97b1c4c,"",%progbits
 125 0000 789C6362 		.ascii	"x\234cb`b@\007\222@|\000\210\325\200\230\221\231\201"
 125      60624007 
 125      92407C00 
 125      88D58098 
 125      919981
 126 0013 9169C239 		.ascii	"\221i\3029\006\206F\016&FF\020\203\201\221\241\236\211"
 126      0686460E 
 126      26464610 
 126      838191A1 
 126      9E89
 127 0025 B13E9211 		.ascii	"\261>\222\021\254v=\323\201\007\377\377\257\233pl\376"
 127      AC763DD3 
 127      8107FFFF 
ARM GAS  /tmp/cc4bdlHR.s 			page 10


 127      AF9B706C 
 127      FE
 128 0036 1EC6194C 		.ascii	"\036\306\031L\314@\021V\206\226\206\206\011\012\014"
 128      CC401156 
 128      86968686 
 128      090A0C
 129 0045 0CC96015 		.ascii	"\014\311`\025!@\022\244-\224\221\011D3\237gh{\320\365"
 129      214012A4 
 129      2D949109 
 129      44339F67 
 129      687BD0F5 
 130 0059 982B9171 		.ascii	"\230+\221q!#+P\272\232\341WCG\203@&#P9\304D\220\010"
 130      21232B50 
 130      BA9AE157 
 130      43478340 
 130      26235039 
 131 0071 47262363 		.ascii	"G&#c.#\003T\021DM\303D\306LF&m\206U\015@0\023\310f\316"
 131      2E230354 
 131      11444DC3 
 131      44C64C46 
 131      266D8655 
 132 008c 65644C82 		.ascii	"edL\202\350\201\251\214\000\012\263\274\340a\310\004"
 132      E881A98C 
 132      000AB3BC 
 132      E061C804 
 133 009c 712E3234 		.ascii	"q.24>\350V\206Y\004\001!@K\200\256\000\371YE\277\264"
 133      3EE85686 
 133      59040121 
 133      404B80AE 
 133      00F95945 
 134 00b2 B848BFB8 		.ascii	"\270H\277\270(Y?9#3)3\277X\277$\265\270D\277\250\004"
 134      28593F39 
 134      23332933 
 134      BF58BF24 
 134      B5B844BF 
 135 00c8 4C67A426 		.ascii	"Lg\244&\026\350%3\000\000\300\345?\306"
 135      16E82533 
 135      0000C0E5 
 135      3FC6
 136              		.text
 137              		.section	.gnu.lto_.symbol_nodes.51398333c97b1c4c,"",%progbits
 138 0000 789C4D90 		.ascii	"x\234M\220\313J\003A\020E\253\272g2QW\356C\262\363\247"
 138      CB4A0341 
 138      1045ABBA 
 138      67325157 
 138      EE43B2F3 
 139 0015 5C990103 		.ascii	"\\\231\001\003\011D\360\007*\320\240\250\020\305\354"
 139      0944F007 
 139      2AD0A0A8 
 139      10C5EC
 140 0024 44DCF4CA 		.ascii	"D\334\364\312\357\350\275\313d\2534\361\375\372\002"
 140      EFE8BDCB 
 140      64AB34F1 
 140      FDFA02
 141 0033 B1EBF6E0 		.ascii	"\261\353\366\3408\213>}\353q\253z\014\031\3326\224?"
 141      388B3E7D 
 141      EB71AB7A 
ARM GAS  /tmp/cc4bdlHR.s 			page 11


 141      0C19DA36 
 141      943F
 142 0045 F3C44274 		.ascii	"\363\304BtqG$r}\262W\256\231\012\261\346\221\205\377"
 142      71472472 
 142      7DB257AE 
 142      990AB1E6 
 142      9185FF
 143 0058 45BF9949 		.ascii	"E\277\231I\250|aS&<\263M\340\017\026\223kf3\3467\026"
 143      A87C6153 
 143      263CB34D 
 143      E00F1693 
 143      6B6633E6 
 144 006e DBAA4F96 		.ascii	"\333\252O\226\242U\357,e\253^Y:\255\372b\251\376\224"
 144      A255EF2C 
 144      65AB5E59 
 144      3AADFA62 
 144      A9FE94
 145 0081 A54D72F7 		.ascii	"\245Mr\367?\211\025yp\203\002\330!\377\240\354R\274"
 145      3F891579 
 145      708302D8 
 145      21FFA0EC 
 145      52BC
 146 0093 DDD1B03B 		.ascii	"\335\321\260;Z\027\032\216`*?^\346\362\206\356\264\321"
 146      5A171A8E 
 146      602A3F5E 
 146      E6F286EE 
 146      B4D1
 147 00a5 6097DC59 		.ascii	"`\227\334Y\246o\030\300\212\"\230\354\347\271>\316{"
 147      A66F18C0 
 147      8A2298EC 
 147      E7B93ECE 
 147      7B
 148 00b6 0A7F0E44 		.ascii	"\012\177\016DEj\272\004BFTT\344\026=m\014\013T\272\245"
 148      456ABA04 
 148      42465454 
 148      E4163D6D 
 148      0C0B54BA 
 149 00cb C538459A 		.ascii	"\3058E\232\266\262XJ\221v\\!\347\257\362\304\014\277"
 149      B6B2584A 
 149      91765C21 
 149      E7AFF2C4 
 149      0CBF
 150 00dd AB297793 		.ascii	"\253)w\223\267\351\303\270\017\337\001l\007p\035\302"
 150      B7E9C3B8 
 150      0FDF016C 
 150      07701DC2 
 151 00ed 7408CF1A 		.ascii	"t\010\317\032m5\034k\030\356\243\013\247\033!;B6\337"
 151      6D351C6B 
 151      18EEA30B 
 151      A71B213B 
 151      4236DF
 152 0100 C778C118 		.ascii	"\307x\301\030\367\011\342\023<f\252\2210\305\370\003"
 152      F709E213 
 152      3C66AA91 
 152      30C5F803 
 153 0110 BCFDD09A 		.ascii	"\274\375\320\232-\374x\372\005\014\366\200\233"
 153      2DFC78FA 
ARM GAS  /tmp/cc4bdlHR.s 			page 12


 153      050CF680 
 153      9B
 154              		.text
 155              		.section	.gnu.lto_.refs.51398333c97b1c4c,"",%progbits
 156 0000 789C6362 		.ascii	"x\234cb`bpe\200\000I\006&F\222!\023\02033\2620\261\002"
 156      60627065 
 156      80004906 
 156      26469221 
 156      13103333 
 157 0018 21131303 		.ascii	"!\023\023\003\003\000*\354\000\323"
 157      03002AEC 
 157      00D3
 158              		.text
 159              		.section	.gnu.lto_.decls.51398333c97b1c4c,"",%progbits
 160 0000 789CBD5A 		.ascii	"x\234\275Z{t\024\325\031\237;\223\354#Y\021\265\265"
 160      7B7414D5 
 160      199F3B93 
 160      EC235911 
 160      B5B5
 161 0012 607B70F5 		.ascii	"`{p\365h\245\"\004\224*\236\343\021,=>N\253=\247\305"
 161      68A52204 
 161      942A9EE3 
 161      112C3D3E 
 161      4EAB3DA7 
 162 0027 73FC6F3B 		.ascii	"s\374o;l&\311j\262\273\316Nx\264\247\307a\211!\240\255"
 162      6C26C96A 
 162      B2BBCE4E 
 162      78B4A7C7 
 162      618921A0 
 163 003c 111F0448 		.ascii	"\021\037\004HH\302C@*\020^\022\036f@\015\0214\002\211"
 163      48C24340 
 163      2A105E12 
 163      1E66400D 
 163      11340289 
 164 0050 402AC600 		.ascii	"@*\306\000\307\360\324\002\021\033j!\375\356\2753\273"
 164      C7F0D402 
 164      111B6A21 
 164      FDEEBD33 
 164      BB
 165 0061 33B333BB 		.ascii	"3\2633\273\263\241vN\356\235\2733\367\376\276\367w\037"
 165      B3A1764E 
 165      EE9DBB33 
 165      F7FEBEF7 
 165      771F
 166 0073 19966199 		.ascii	"\031\226a\231I\210a\006\340\312\033\3170\005.\206\341"
 166      49886106 
 166      E0CA1BCF 
 166      30052E86 
 166      E1
 167 0084 18867918 		.ascii	"\030\206y\030J\256Z\032\241\274\003e6\364\253\200\002"
 167      4AAE5A1A 
 167      A1BC0365 
 167      36F4AB80 
 167      02
 168 0095 7F4C2554 		.ascii	"\177L%T\036\270/\206{=\224\245P\336\206\262\036\312"
 168      1EB82F86 
 168      7B3D94A5 
ARM GAS  /tmp/cc4bdlHR.s 			page 13


 168      50DE86B2 
 168      1ECA
 169 00a7 2628CD50 		.ascii	"&(\315Pv@\311\201>\273\341\376\001\224V(G\361`\335\205"
 169      7640C981 
 169      3EBBE1FE 
 169      01945628 
 169      47F160DD 
 170 00bc C7DFC4D0 		.ascii	"\307\337\304\320~C\240\370T\232\023U\232\313\341\375"
 170      7E43A0F8 
 170      549A1355 
 170      9ACBE1FD 
 171 00cc 4928DBA0 		.ascii	"I(\333\240\234B\224\227\265p_\003\3454\224\315P\316"
 171      9C429497 
 171      B5705F03 
 171      E53494CD 
 171      50CE
 172 00de 405906E5 		.ascii	"@Y\006\345,\224&\025\337\245b7\253|mRy\\\257\362\277"
 172      2C942615 
 172      DFA56237 
 172      AB7C6D52 
 172      795CAFF2 
 173 00f3 DBC40796 		.ascii	"\333\304\007\226\001\2179\247\322\320d\305\274\354\324"
 173      018F39A7 
 173      D2D064C5 
 173      BCECD4
 174 0102 C9CCAA7D 		.ascii	"\311\314\252}w\250mM6\375\225\317\314\223\345\270\334"
 174      77A86D4D 
 174      36FD95CF 
 174      CC93E5B8 
 174      DC
 175 0113 50293FDE 		.ascii	"P)?\3366\344F\346U\031.\177\325\011\350\365\014\342"
 175      36E446E6 
 175      55192E7F 
 175      D509E8F5 
 175      0CE2
 176 0125 D1102F23 		.ascii	"\321\020/#\263\244\345\3632~\350~'\263\\\226\253{^\254"
 176      B3A4E5F3 
 176      327EE87E 
 176      27B35C96 
 176      AB7B5EAC 
 177 0139 1F21E7F0 		.ascii	"\037!\347\360h)\272\021\200G!\346nf5\214\253\226\345"
 177      6829BA11 
 177      804721E6 
 177      6E66358C 
 177      AB96E5
 178 014c A52398D4 		.ascii	"\245#\230\324+3,\261+\217\336\002<\036\255@wS:\262\322"
 178      2B332CB1 
 178      2B8FDE02 
 178      3C1EAD40 
 178      77533AB2 
 179 0161 52E9C374 		.ascii	"R\351\303t\360sF}cq\335\3064\200\014\312\201\326\332"
 179      F073467D 
 179      6371DDC6 
 179      34800CCA 
 179      81D6DA
 180 0174 E172C36E 		.ascii	"\341r\303nd\020\351f\346\015L\033~\310H\342\321\304"
 180      6410E966 
ARM GAS  /tmp/cc4bdlHR.s 			page 14


 180      E60D4C1B 
 180      7EC848E2 
 180      D1C4
 181 0186 7C8D01BF 		.ascii	"|\215\001\277F?\207`\360h\015\272\231\2648\242+\306"
 181      463F8760 
 181      F0680DBA 
 181      99B438A2 
 181      2BC6
 182 0198 CB542551 		.ascii	"\313T%Q\030\313Q\2522\232+\017\365\2418\340\363\350"
 182      18CB51AA 
 182      329A2B0F 
 182      F5A138E0 
 182      F3E8
 183 01aa 1DE485D1 		.ascii	"\035\344\205\321\177A\006^y\224\353\325\263K~k\0350"
 183      7F41065E 
 183      7994EBD5 
 183      B34B7E6B 
 183      1D30
 184 01bc 1C79AD36 		.ascii	"\034y\2556\260o_\217\373<\315%\006\244\241\275p\336"
 184      B06F5F8F 
 184      FB3CCD25 
 184      06A4A1BD 
 184      70DE
 185 01ce BBBF9065 		.ascii	"\273\277\220e\017\217\336\006\261Y\360\030#i\203*\250"
 185      0F8FDE06 
 185      B159F018 
 185      2369832A 
 185      A8
 186 01df 8876E26F 		.ascii	"\210v\342o\000\000k\015\247\274c\301\3134sY\301\251"
 186      00006B0D 
 186      A7BC63C1 
 186      CB347359 
 186      C1A9
 187 01f1 4D03F37A 		.ascii	"M\003\363zS\311=\037\236i\343\026\311J\315\330\233\230"
 187      53C93D1F 
 187      9E69E316 
 187      C94ACDD8 
 187      9B98
 188 0203 F9D83C8A 		.ascii	"\371\330<\212K\357\033\2234\004\017!\326F\210mF7\031"
 188      4BEF1B93 
 188      34040F21 
 188      D646886D 
 188      463719
 189 0216 7DE3B556 		.ascii	"}\343\265V\316O\037gv\2157*_\271Enxy\230jT\245R\256"
 189      CE4F1F67 
 189      768D372A 
 189      5FB9456E 
 189      7879986A 
 190 022e 42B39A7E 		.ascii	"B\263\232~fMQUmW\3737\215\252Y\233\211Y\343\254Q\271"
 190      664D5155 
 190      6D57FB37 
 190      8DAA599B 
 190      8959E3AC 
 191 0244 D9806D9F 		.ascii	"\331\200m\237\277\362\036b\247\035\004j\3755@\365u|"
 191      BFF21E62 
 191      A71D046A 
 191      FD3540F5 
ARM GAS  /tmp/cc4bdlHR.s 			page 15


 191      757C
 192 0256 F12A9A4D 		.ascii	"\361*\232M\370j!`'Y\263\277yM\376\3465\372\233\327\233"
 192      F86A2160 
 192      2759B3BF 
 192      794DFEE6 
 192      35FA9BD7 
 193 026b 6C0C6897 		.ascii	"l\014h\2271/\374\240cX\346\"\253\231\324J\320\314\376"
 193      312FFCA0 
 193      6358E622 
 193      AB99D44A 
 193      D0CCFE
 194 027e B3A27715 		.ascii	"\263\242w\025\302\241\256f\226\206I\272\0205@a\256>"
 194      C2A1AE66 
 194      968649BA 
 194      10354061 
 194      AE3E
 195 0290 30679505 		.ascii	"0g\225\005\255\310O\037g\362\034Y\251o\335\207\344\371"
 195      ADC84F1F 
 195      67F21C59 
 195      A96FDD87 
 195      E4F9
 196 02a2 3ED54F1B 		.ascii	">\325O\033\\v\271\000#\3551\273\350\302V\326O\037gv"
 196      5C76B900 
 196      23ED31BB 
 196      E8C256D6 
 196      4F1F6776 
 197 02b6 D1C59575 		.ascii	"\321\305\225u\251\331\313\240\243\024z{\241\263z\261"
 197      A9D9CBA0 
 197      A3147A7B 
 197      A1B37AB1 
 198 02c6 4C3F51E9 		.ascii	"L?Q\351\036\233\356\231T\032Wj[}\325<\217\032I\036\271"
 198      1E9BEE99 
 198      541A576A 
 198      5B7DD53C 
 198      8F1A491E 
 199 02db 3258B0C4 		.ascii	"2X\260\304\005\341\302!U\371\203c\250IM\347ZV\255\310"
 199      05E1C221 
 199      55F98363 
 199      A8494DE7 
 199      5A56ADC8 
 200 02ef 1ACF9FC2 		.ascii	"\032\317\237\302\323\\n\220~\247\303x\2113\345>+\014"
 200      D35C6E90 
 200      7EA7C378 
 200      8933E53E 
 200      2B0C
 201 0301 8F9D5CB2 		.ascii	"\217\235\\\262r\344\321j^\233\021u\336$#m\354P&\021"
 201      72E4D16A 
 201      5E9B1175 
 201      DE24236D 
 201      EC502611 
 202 0315 EB9D8BEE 		.ascii	"\353\235\213\356\307\363_'\231g\267q\3068\317\010\302"
 202      C7F35F27 
 202      9967B771 
 202      C638CF08 
 202      C2
 203 0326 32BBC990 		.ascii	"2\273\311\220\303\346\000\350\343\375\364if\377\277"
 203      C3E600E8 
ARM GAS  /tmp/cc4bdlHR.s 			page 16


 203      E3FDF469 
 203      66FFBF
 204 0335 F49517DC 		.ascii	"\364\225\027\334\337\202\224UjzwI\347\253\250\202\244"
 204      DF829455 
 204      6A7A7749 
 204      E7ABA882 
 204      A4
 205 0346 A6CF09CB 		.ascii	"\246\317\011\313\375\326,\333\307+\313T\345\340!\335"
 205      FDD62CDB 
 205      C72BCB54 
 205      E5E021DD 
 206 0356 26967BFA 		.ascii	"&\226{\372\216\367\217\251\221\345\241\364U\346p\272"
 206      8EF78FA9 
 206      91E5A1F4 
 206      55E670BA 
 207 0366 F0924538 		.ascii	"\360\222E8Y\210\321\220\243\221\377uR\216-\335\023\261"
 207      5988D190 
 207      A391FF75 
 207      528E2DDD 
 207      13B1
 208 0378 DA4F1019 		.ascii	"\332O\020\031v\347dT\273\021\204e\366\221!\275\2512"
 208      76E76454 
 208      BB118465 
 208      F69121BD 
 208      A932
 209 038a EC9F4065 		.ascii	"\354\237@e\350u$\303\202\277\325\251\021p\234D\345g"
 209      E87524C3 
 209      82BFD5A9 
 209      11709C44 
 209      E567
 210 039c 09D8C145 		.ascii	"\011\330\301E\324\242v\022\342\024\354h\326`~\003X}"
 210      D4A27612 
 210      E214EC68 
 210      D6607E03 
 210      587D
 211 03ae 3B0D4FE7 		.ascii	";\015O\347\353\244\005'{\206\357$\342\177C\002\272!"
 211      EBA40527 
 211      7B86EF24 
 211      E27F4302 
 211      BA21
 212 03c0 D7721274 		.ascii	"\327r\022t\200\264}\376r:\233^ @\253\006\015\324\327"
 212      80B47DFE 
 212      723A9B5E 
 212      2040AB06 
 212      0DD4D7
 213 03d3 F1813697 		.ascii	"\361\2016\227~K\240\232r\315s\251\3334\227\272\215s"
 213      7E4BA09A 
 213      72CD73A9 
 213      DB3497BA 
 213      8D73
 214 03e5 9CDB9B6C 		.ascii	"\234\333\233l\250k\267\037\266;\313\354\310u`9\373\004"
 214      A86BB71F 
 214      B63BCBEC 
 214      C8756039 
 214      FB04
 215 03f7 D473F1B8 		.ascii	"\324s\361\270\362\340BY\251\340\264h\264\235\324X\346"
 215      F2E04259 
ARM GAS  /tmp/cc4bdlHR.s 			page 17


 215      A9E0B468 
 215      B49DD458 
 215      E6
 216 0408 7D42EBB2 		.ascii	"}B\353\262\331\223\273\332?\216\243YDo\227\035\271\362"
 216      D993BBDA 
 216      3F8EA359 
 216      446F971D 
 216      B9F2
 217 041a E6BD0B9C 		.ascii	"\346\275\013\234\205cb[p\007\241\277\217\320\277j\246"
 217      8563625B 
 217      7007A1BF 
 217      8FD0BF6A 
 217      A6
 218 042b FFE5373D 		.ascii	"\377\3457=\017\323H\272\352\210|\375\301\327\255&\327"
 218      0FD348BA 
 218      EA887CFD 
 218      C1D7AD26 
 218      D7
 219 043c 877F9CCE 		.ascii	"\207\177\234\3169\272\332{/\250B\306Y\0342s]f\347\230"
 219      39BADA7B 
 219      2FA842C6 
 219      591C3273 
 219      5D66E798 
 220 0450 98AF2746 		.ascii	"\230\257'F~\033\326\311\363]\032\373\203\212X\220Sy"
 220      7E1BD6C9 
 220      F35D1AFB 
 220      838A5890 
 220      5379
 221 0462 62F50659 		.ascii	"b\365\006Y\236\353\322xx#kD\277A\023\033\016\222\034"
 221      9EEBD278 
 221      78236B44 
 221      BF41131B 
 221      0E921C
 222 0475 40C16A9C 		.ascii	"@\301j\234\200\331zR\\\331\244\007[\2345\230\221\263"
 222      80D97A52 
 222      5CD9A407 
 222      5B9C3598 
 222      91B3
 223 0487 2D7AB025 		.ascii	"-z\260%N\300\206\332s\266U\017\326\2305\230\221\263"
 223      4EC086DA 
 223      73B6550F 
 223      D6983598 
 223      91B3
 224 0499 6D7AB0E5 		.ascii	"mz\260\345N\300\206\331s\266C\017\266*k0#g\357\351\301"
 224      4EC086D9 
 224      73B6430F 
 224      B62A6B30 
 224      2367EFE9 
 225 04ae FEEE04CC 		.ascii	"\376\356\004\314o\301Y\342\262[h^\321/4\327\271\264"
 225      6FC159E2 
 225      B25B685E 
 225      D12F34D7 
 225      B9B4
 226 04c0 9430F8B5 		.ascii	"\2240\370\265\341FW\266)\314 7\236I\037\334\246\306"
 226      E14657B6 
 226      29CC2037 
 226      9E491FDC 
ARM GAS  /tmp/cc4bdlHR.s 			page 18


 226      A6C6
 227 04d2 059DCE9A 		.ascii	"\005\235\316\232\235 \246q\230-\372\271qW\326`F\263"
 227      9D20A671 
 227      982DFAB9 
 227      7157D660 
 227      46B3
 228 04e4 74623043 		.ascii	"tb0C\256Q\247\244\236\025\312\260\232d\266\363hXx#E"
 228      AE51A7A4 
 228      9E15CAB0 
 228      9A64B6F3 
 228      68587823 
 229 04f9 535BB52C 		.ascii	"S[\265,\263\211\316\362\260a\326}yT\317\336\011u\003"
 229      B389CEF2 
 229      B061D67D 
 229      7954CFDE 
 229      097503
 230 050c EB4D7041 		.ascii	"\353MpA\333Z\213\356\263>r\231\216{\264+\323P;O\250"
 230      DB5A8BEE 
 230      B33E7299 
 230      8E7BB42B 
 230      D3503B4F 
 231 0521 63759ED0 		.ascii	"cu\236\320\356DMiB\341\373\366\332\237\310=\012\322"
 231      EE444D69 
 231      42E1FBF6 
 231      DA9FC83D 
 231      0AD2
 232 0533 C99B5639 		.ascii	"\311\233V9x\011\321\246.!\226\263x\272\376\314e9\363"
 232      7809D1A6 
 232      2E2196B3 
 232      78BAFECC 
 232      6539F3
 233 0546 3B40DA3E 		.ascii	";@\332>\377\315Qd\011\261\222\000u\017\032\250\257c"
 233      FFCD5164 
 233      09B19200 
 233      750F1AA8 
 233      AF63
 234 0558 C9047A02 		.ascii	"\311\004z\002C\200zS\346\010dZ@ \343\024\217\274\311"
 234      43807A53 
 234      E608645A 
 234      4020E314 
 234      8FBCC9
 235 056b 46CA86FA 		.ascii	"F\312\206\372\177\330\227e\316\233\315e\020'c\262\201"
 235      7FD89765 
 235      CE9BCD65 
 235      102763B2 
 235      81
 236 057c A06B7BA8 		.ascii	"\240k{\250y\255,\317vec0E5\330:\242\236\376\024\365"
 236      79AD2CCF 
 236      76656330 
 236      4535D83A 
 236      A29EFE14 
 237 0591 AC64B3D3 		.ascii	"\254d\263\323\017\313\310\356l\345\030i\222\343\374"
 237      0FCBC8EE 
 237      6CE51869 
 237      92E3FC
 238 05a0 20E4D8AF 		.ascii	" \344\330\257\312\261\211\310Q\345\276v9\252\263\226"
 238      CAB189C8 
ARM GAS  /tmp/cc4bdlHR.s 			page 19


 238      51E5BE76 
 238      39AAB396 
 239 05b0 63AC4E0E 		.ascii	"c\254N\016\274\235h{\252\231$AG\247\023\315\254\351"
 239      BC9D687B 
 239      AA992441 
 239      47A713CD 
 239      ACE9
 240 05c2 74E2D2A7 		.ascii	"t\342\322\247\370\030\004?\316\274\015|\355\240n\265"
 240      F818043F 
 240      CEBC0D7C 
 240      EDA06EB5 
 241 05d2 2F3B5BED 		.ascii	"/;[\355\237R5\266\203hl\201\333\"\302\034!m?XOC\265"
 241      9F5235B6 
 241      83686C81 
 241      DB22C21C 
 241      216D3F58 
 242 05e9 8500D50D 		.ascii	"\205\000\325\015\032\250\257\243\205\206\352n\002\264"
 242      1AA8AFA3 
 242      8586EA6E 
 242      02B4
 243 05f7 22C5862E 		.ascii	"\"\305\206.\223\011]F\023\302OL\251\237\034c\275\240"
 243      93095D46 
 243      13C24F4C 
 243      A99F1C63 
 243      BDA0
 244 0609 3EC13FDC 		.ascii	">\301?\334\314\377}\034\314\303\204}l\276\301\254-\261"
 244      CCFF7D1C 
 244      CCC3847D 
 244      6CBEC1AC 
 244      2DB1
 245 061b FB284F34 		.ascii	"\373(O4\253s(5\321\226kB\214+-\363\265\375\352D<\213"
 245      AB732835 
 245      D1966B42 
 245      8C2B2DF3 
 245      B5FDEA44 
 246 0631 B65C23DC 		.ascii	"\266\\#\334\321\203\346Y\324\264|?a3\363$N#Zw\251\007"
 246      D183E659 
 246      D4B47C3F 
 246      6133F324 
 246      4E235A77 
 247 0647 B81F9305 		.ascii	"\270\037\223\005Rk\212\301\217#\323\002\376\270\361"
 247      526B8AC1 
 247      8F23D302 
 247      FEB8F1
 248 0656 A4DB2E96 		.ascii	"\244\333.\226\366\351\247\301\256k\223\023\347\243\337"
 248      F6E9A7C1 
 248      AE6B9313 
 248      E7A3DF
 249 0665 D0C54CA6 		.ascii	"\320\305L\246\335\321\03754\037!\374%!|\2205m\216\232"
 249      DDD11F35 
 249      341F21FC 
 249      25217C90 
 249      356D8E9A 
 250 0679 077A2A55 		.ascii	"\007z*U\271\361\273\314\301\37599\343\321\316l^\367"
 250      B9F1BBCC 
 250      C1FD3939 
 250      E3D1CE6C 
ARM GAS  /tmp/cc4bdlHR.s 			page 20


 250      5EF7
 251 068b 68A82AD5 		.ascii	"h\250*\325I\372\005YF\277R\272\205\266\261\331\244\211"
 251      49FA0559 
 251      46BF52BA 
 251      85B6B1D9 
 251      A489
 252 069d B65B689A 		.ascii	"\266[h\2328B|\260\326c\266Q\2139\261f\025%K\315\322"
 252      38427CB0 
 252      D663B651 
 252      8B39B166 
 252      15254BCD 
 253 06b2 38DDE224 		.ascii	"8\335\342$.;\0378\240\367\201U\236k\365\201\376\337"
 253      2E3B1F38 
 253      A0F78155 
 253      9E6BF581 
 253      FEDF
 254 06c4 5AF8003D 		.ascii	"Z\370\000=\245\263\343\240[\317\301\272k\343@i\351\310"
 254      A5B3E3A0 
 254      5BCFC1BA 
 254      6BE34069 
 254      E9C8
 255 06d6 FE3CA75F 		.ascii	"\376<\247_\315\360\307h\372H1\335\005\363\332\307\311"
 255      CDF0C768 
 255      FA4831DD 
 255      05F3DAC7 
 255      C9
 256 06e7 F1C6EEC1 		.ascii	"\361\306\356\301\012\222\270`\335\353q\2602\365\333"
 256      0A92B860 
 256      DDEB71B0 
 256      32F5DB
 257 06f6 FA300E49 		.ascii	"\3720\016Iuj\315xF\242%\233\356\217g\251G\237'Y\034"
 257      756ACD78 
 257      46A2259B 
 257      EE8F67A9 
 257      479F2759 
 258 070b 469F98B4 		.ascii	"F\237\230\264\341\340\260\345(\031r\306\034\317\220"
 258      E1E0B0E5 
 258      281972C6 
 258      1CCF90
 259 071a A8D5A3CF 		.ascii	"\250\325\243\3173\016\3029\256t\274\244?6\204Q\210U"
 259      330EC239 
 259      AE74BCA4 
 259      3F368451 
 259      8855
 260 072c 6107AB50 		.ascii	"a\007\253P\203\015\223\374\361\350\034\331\205|\315"
 260      830D93FC 
 260      F1E81CD9 
 260      857CCD
 261 073b DEA657FE 		.ascii	"\336\246W\376\271\254\225\357\327+_\271\334Q\213(\377"
 261      B9AC95EF 
 261      D72B5FB9 
 261      DC518B28 
 261      FF
 262 074c 34217D67 		.ascii	"4!}g\306\263JH#m\215\251T\037\"[;:\307\315\362:`n\254"
 262      C6B34A48 
 262      236D8DA9 
 262      541F225B 
ARM GAS  /tmp/cc4bdlHR.s 			page 21


 262      3B3AC7CD 
 263 0765 1D585CA9 		.ascii	"\035X\\\251\245`\324\343\347d\015\3467\200m\177S\263"
 263      A560D4E3 
 263      E7640DE6 
 263      37806D7F 
 263      53B3
 264 0777 543799A0 		.ascii	"T7\231\240\346;\301\233`\317\\\307!\355_&\364\204\265"
 264      E63BC19B 
 264      60CF5CC7 
 264      21ED5F26 
 264      F484B5
 265 078a 366B3C23 		.ascii	"6k<#\177\027\3364L\350+\235\300Mr\354H\311\363q\036"
 265      7F17DE34 
 265      4CE82B9D 
 265      C04D72EC 
 265      48C9F371 
 266 079f 9D42D891 		.ascii	"\235B\330\221N\243\333\240>K\352\257I\335O\352\032\026"
 266      4EA3DBA0 
 266      3E4BEAAF 
 266      49DD4FEA 
 266      1A16
 267 07b1 D78B485D 		.ascii	"\327\213H]K\352e\244^K\352\215\244\336J\352^R\377\223"
 267      4BEA65A4 
 267      5E4BEA8D 
 267      A4DE4AEA 
 267      5E52FF93 
 268 07c5 D41748DD 		.ascii	"\324\027H\335G\352K\244\376\027\251"
 268      47EA4BA4 
 268      FE17A9
 269 07d0 2FEBDDD5 		.ascii	"/\353\335\325.\267\232\026\002Z\024u\017\372\360\375"
 269      2EB79A16 
 269      025A1475 
 269      0FFAF0FD 
 270 07e0 E2BEC401 		.ascii	"\342\276\304\001\003\304M\326`\376t\232\354\326i\262"
 270      03C44DD6 
 270      60FE749A 
 270      ECD669B2 
 271 07f0 8768F218 		.ascii	"\207h\362\030\321\333\367\306\300\\\347\325\376\033"
 271      D1DBF7C6 
 271      C05CE7D5 
 271      FE1B
 272 07fe 3498993D 		.ascii	"4\230\231=\336\323\271\350=\303\377#\3365\3439\235["
 272      DED3B9E8 
 272      3DC3FF23 
 272      DE35E339 
 272      9D5B
 273 0810 5595FC07 		.ascii	"U\225\374\007V\012\246\351\2563\315t's\272\351\256%"
 273      560AA6E9 
 273      AE33CD74 
 273      2773BAE9 
 273      AE25
 274 0822 6BDA6935 		.ascii	"k\332i5xX\247\301.\242\301\177\020\015^!\0363`\324c"
 274      7858A7C1 
 274      2EA2C17F 
 274      100D5E21 
 274      1E3360D4 
 275 0837 ABD7F41F 		.ascii	"\253\327\364\037@\343\277\335tMg\201\360\226\216\370"
ARM GAS  /tmp/cc4bdlHR.s 			page 22


 275      40E3BFDD 
 275      744D6781 
 275      F0968EF8 
 276 0847 2A427C35 		.ascii	"*B|5!\276\211\324\035\310\201\2736&\027\262\006\215"
 276      21BE89D4 
 276      1DC881BB 
 276      362617B2 
 276      068D
 277 0859 DEC05493 		.ascii	"\336\300T\223Ed\315\020\272CU\307+E\032\300)\237\212"
 277      4564CD10 
 277      BA4355C7 
 277      2B451AC0 
 277      299F8A
 278 086c 50C1DD40 		.ascii	"P\301\335@Z\206\245\033\351bG\363E.y\202\344\363&\033"
 278      5A86A51B 
 278      E96247F3 
 278      452E7982 
 278      E4F3261B 
 279 0880 277D1998 		.ascii	"'}\031\230\235\2354\244:\3376\257\355\032\2768\216\267"
 279      9D9D34A4 
 279      3ADF36AF 
 279      ED1ABE38 
 279      8EB7
 280 0892 E4941196 		.ascii	"\344\224\021\226\371\032t\254nk\015\337\015\2318g\231"
 280      F91A74AC 
 280      6E6B0DDF 
 280      0D993867 
 280      99
 281 08a3 6F8931AA 		.ascii	"o\2111\2528\323\346v\001\371:\004?\316\274\376\335\334"
 281      38D3E676 
 281      01F93A04 
 281      3FCEBCFE 
 281      DDDC
 282 08b5 9A271F57 		.ascii	"\232'\037W\220\325gJ\026\212z\2313\3757u!\371\234\000"
 282      90D5674A 
 282      168A7A99 
 282      33FD3775 
 282      21F99C00 
 283 08c9 3FCE4C6A 		.ascii	"?\316Lj1%\245\231\005H\321\257K4r?\322\310\265\261*"
 283      3125A599 
 283      0548D1AF 
 283      4B34723F 
 283      D2C8B5B1 
 284 08de B957B2B6 		.ascii	"\271W\262\266K\265\215]\324S\020<\011\346!U\020k\272"
 284      4BB58D5D 
 284      D453103C 
 284      09E62155 
 284      106BBA
 285 08f1 9917F9B5 		.ascii	"\231\027\371\265\217VW\372(s,S\341\014N\025\311\022"
 285      8F5657FA 
 285      28732C53 
 285      E10C4E15 
 285      C912
 286 0903 6F891E6F 		.ascii	"o\211\036o\2163\274\352\\{\274\365z\274y\316\360\216"
 286      8E33BCEA 
 286      5C7BBCF5 
 286      7ABC79CE 
ARM GAS  /tmp/cc4bdlHR.s 			page 23


 286      F08E
 287 0915 B8EDF136 		.ascii	"\270\355\3616\350\361\376\352\014\257!\317\002/q\261"
 287      E8F1FEEA 
 287      0CAF21CF 
 287      022F71B1 
 288 0925 4C759EE6 		.ascii	"Lu\236\346\271\326\316\226\306\012<\252\344R\263\202"
 288      B9D6CE96 
 288      C60A3CAA 
 288      E452B382 
 289 0935 F3F1B732 		.ascii	"\363\361\2672Kd\345|\317\341\015\247\207\325\341e\256"
 289      4B64E57C 
 289      CFE10DA7 
 289      87D5E165 
 289      AE
 290 0946 7C75E005 		.ascii	"|u\340\005d\372T\316\346\237c\230x-w\263\332\322\276"
 290      64FA54CE 
 290      E69F6398 
 290      782D77B3 
 290      DAD2BE
 291 0959 526399AD 		.ascii	"Rc\231\255y\310\344\375?gV`<y\225\314\0214\334\1771"
 291      79C8E4FD 
 291      3F675660 
 291      3C7995CC 
 291      1134DC7F 
 292 096e 77AB5E09 		.ascii	"w\253^\011<\252\343X\375\003\312\230R\335\352\253\236"
 292      3CAAE358 
 292      FD03CA98 
 292      52DDEAAB 
 292      9E
 293 097f D5333070 		.ascii	"\32530p+\245\005)\327\021z\275\031\275!\025\275\247"
 293      2BA50529 
 293      D7117ABD 
 293      19BD2115 
 293      BDA7
 294 0991 1AB2CD81 		.ascii	"\032\262\315\201\237\326l\220+,\304\3660s\310\211\340"
 294      9FD66C90 
 294      2B2CC4F6 
 294      3073C889 
 294      E0
 295 09a2 8BF22CF4 		.ascii	"\213\362,\364|Bk6\347\364<Z\316y\200\271\203y\266\247"
 295      7C426B36 
 295      E7F43C5A 
 295      CE7980B9 
 295      8379B6A7 
 296 09b6 ECB883A6 		.ascii	"\354\270\203\246~\332\326Zi\016\331\227q\206/\021\311"
 296      7EDAD65A 
 296      690ED997 
 296      71862F11 
 296      C9
 297 09c7 778189B6 		.ascii	"w\201\211\266\212h\370@\220e\216\244\350\207vZm\251"
 297      8A68F840 
 297      90658EA4 
 297      E887765A 
 297      6DA9
 298 09d9 8015DFED 		.ascii	"\200\025\337\355G\013\345\335\025\362\300\300\013\214"
 298      470BE5DD 
 298      15F2C0C0 
ARM GAS  /tmp/cc4bdlHR.s 			page 24


 298      0B8C
 299 09e7 C9ECEF20 		.ascii	"\311\354\357 \373\314\262\306\314\030\236v\324\037\246"
 299      FBCCB2C6 
 299      CC189E76 
 299      D41FA6
 300 09f6 893C1DCC 		.ascii	"\211<\035\314Z.\337\300\244A\222\257l$Yg%\211\3224\347"
 300      5A2EDFC0 
 300      A44192AF 
 300      6C245967 
 300      2589D234 
 301 0a0b E5E17263 		.ascii	"\345\341rc\\\031\030\230h\026$\215\3776\231\345 \377"
 301      5C191898 
 301      6816248D 
 301      FF3699E5 
 301      20FF
 302 0a1d B735B071 		.ascii	"\2675\260q\321\206\215\215\226l\324\357\261e#\315\027"
 302      D1868D8D 
 302      966CD4EF 
 302      B16523CD 
 302      17
 303 0a2e A79BD3A8 		.ascii	"\247\233\323\250\223j0U=Wl\370\332ji\350\205\363z\033"
 303      936A3055 
 303      3D576CF8 
 303      DA6A69E8 
 303      85F37A1B 
 304 0a42 D1ABB31B 		.ascii	"\321\253\263\033\332\344\363xw\235\205\251\267Y\204"
 304      DAE4F378 
 304      779D85A9 
 304      B75984
 305 0a51 F8DC7C6B 		.ascii	"\370\334|k\332\333-i\177\330\247\330:Y\032\333\354L"
 305      DADB2D69 
 305      7FD8A7D8 
 305      3A591ADB 
 305      EC4C
 306 0a63 AB14FA0F 		.ascii	"\253\024\372\017\367\014:Zd\303\347.#\237\2673\215\262"
 306      F70C3A5A 
 306      64C3E72E 
 306      239FB733 
 306      8DB2
 307 0a75 B21F9260 		.ascii	"\262\037\222`W/\202\205F\325l|\210\204\0068\355\273"
 307      572F8285 
 307      46D56C7C 
 307      88840638 
 307      EDBB
 308 0a87 E6350918 		.ascii	"\3465\011\030m\231g\370f\031#\276\237D\304h$\267\354"
 308      6D9967F8 
 308      661923BE 
 308      9F44C468 
 308      24B7EC
 309 0a9a 1ABD3D2E 		.ascii	"\032\275=.W4\201\264\0006\221&x\226\331l\006\263XY|"
 309      573481B4 
 309      00369126 
 309      7896D96C 
 309      06B35859 
 310 0aaf 68445BAF 		.ascii	"hD[\257\000o\007F}\022\307\011\232\262\246\256\033\360"
 310      006F0746 
 310      7D12C709 
ARM GAS  /tmp/cc4bdlHR.s 			page 25


 310      9AB2A6AE 
 310      1BF0
 311 0ac1 F7538978 		.ascii	"\367S\211xS\222g\2050U\2414_\203m\003\0362~4\306\243"
 311      53926785 
 311      3055A134 
 311      5F836D03 
 311      1E327E34 
 312 0ad7 BD1CDE9C 		.ascii	"\275\034\336\234\354\343\314\307\212k\273\346\250\237"
 312      ECE3CCC7 
 312      8A6BBBE6 
 312      A89F
 313 0ae5 43EC73B0 		.ascii	"C\354s\260\326\211+\227\257\264!r\256XG6\267\357\023"
 313      D6892B97 
 313      AFB42172 
 313      AE584736 
 313      B7EF13
 314 0af8 0DECE306 		.ascii	"\015\354\343\006\273\201\372\3764\2013\345\031<=\330"
 314      BB81FAFE 
 314      348133E5 
 314      193C3DD8 
 315 0b08 B9D27EFD 		.ascii	"\271\322~\375\206\241-k\362~\003y\274Y\241\220,\323"
 315      86A12D6B 
 315      F27E0379 
 315      BC59A190 
 315      2CD3
 316 0b1a EE042BCD 		.ascii	"\356\004+\315\306\347\252\016\353p\326X~\223\2725;\360"
 316      C6E7AA0E 
 316      EB70D658 
 316      7E93BA35 
 316      3BF0
 317 0b2c E8130E6F 		.ascii	"\350\023\016o\030>%\365ARwZ,\023Lz2)\364#\033N0\376"
 317      183E25F5 
 317      4152775A 
 317      2C134C7A 
 317      3229F423 
 318 0b44 2143E2D6 		.ascii	"!C\342\326AN22\252sS:\310\272\033l\273\262^\334\036"
 318      414E3232 
 318      AA73533A 
 318      C8BA1B6C 
 318      BBB25EDC 
 319 0b59 B159DCEA 		.ascii	"\261Y\334\352g\340d/|Hn\016\274\024&\272\324\260\033"
 319      67E0642F 
 319      7C486E0E 
 319      BC1426BA 
 319      D4B01B
 320 0b6c CF6C94AB 		.ascii	"\317l\224\253\024X\312\357\001\256\022v\3733\363o\271"
 320      1458CAEF 
 320      01AE1276 
 320      FB33F36F 
 320      B9
 321 0b7d 4686483C 		.ascii	"F\206H<6\212\243\302\340\330<\277_\3319\257\016\311"
 321      368AA3C2 
 321      E0D83CBF 
 321      5FD939AF 
 321      0EC9
 322 0b8f 0D109C57 		.ascii	"\015\020\234W\007\006\020\325\033\313\234M\311\031\206"
 322      070610D5 
ARM GAS  /tmp/cc4bdlHR.s 			page 26


 322      1BCB9C4D 
 322      C91986
 323 0b9e E0C2E4BE 		.ascii	"\340\302\344\276\000r#\230K\371u\262GGv\022E\2406\244"
 323      00722398 
 323      4BF975B2 
 323      47477612 
 323      45A036A4 
 324 0bb2 349596BD 		.ascii	"4\225\226\275\310v3\327\240\333\314%\322\322H\225\304"
 324      C87633D7 
 324      A0DBCC25 
 324      D2D24895 
 324      C4
 325 0bc3 F1ACD57A 		.ascii	"\361\254\325z\302F\255w\245u\035\036\035Kz\304\010f"
 325      C246AD77 
 325      A5751D1E 
 325      1D4B7AC4 
 325      0866
 326 0bd5 8EAF4EAE 		.ascii	"\216\257N\256\231\224$O]\021\013S\005\2116\217z|b\225"
 326      9994244F 
 326      5D110B53 
 326      0589368F 
 326      7A7C6295 
 327 0be9 465D14E3 		.ascii	"F]\024\343\3218\245\316\252\366\356L\364\326\257\030"
 327      D138A5CE 
 327      AAF6EE4C 
 327      F4D6AF18 
 328 0bf9 552EA84A 		.ascii	"U.\250J5g4\371\357\2664\011\341$g\275K\246+\033\273"
 328      356734F9 
 328      EFB63409 
 328      E12467BD 
 328      4BA62B1B 
 329 0c0e 51A76C47 		.ascii	"Q\247lGmN3\352\264\355\250eiF\235\261\035\325\224f\324"
 329      6D4E33EA 
 329      B4EDA865 
 329      69469DB1 
 329      1DD59466 
 330 0c23 59CE7058 		.ascii	"Y\316pXe\032\2713\315\310s\272\210\036YP\036\023\013"
 330      651AB933 
 330      CDC873BA 
 330      881E5950 
 330      1E130B
 331 0c36 6262B020 		.ascii	"bb\260 X\022\232\032\212\304\012\340O\224\012B\341`"
 331      58129A1A 
 331      8AC40AE0 
 331      4F940A42 
 331      E160
 332 0c48 6979A100 		.ascii	"iy\241\000OK\004>:\246\204\271\256L(\213\2103\003\370"
 332      4F4B043E 
 332      3AA684B9 
 332      AE4C288B 
 332      883303F8 
 333 0c5c 6740723D 		.ascii	"g@r=\366\324\323\376\311L\276\356\341X\202T\032\232"
 333      F6D4D3FE 
 333      C94CBEEE 
 333      E1588254 
 333      1A9A
 334 0c6e 5A501C0C 		.ascii	"ZP\034\014\026\360b\331\350p$,\214\026\370\251\241\202"
ARM GAS  /tmp/cc4bdlHR.s 			page 27


 334      16F062D9 
 334      E870242C 
 334      8C16F8A9 
 334      A182
 335 0c80 F1632624 		.ascii	"\361c&$\020cRa\241P\004\210\256X\350OB@\032\225\221"
 335      10635261 
 335      A1500488 
 335      AE58E84F 
 335      42401A95 
 336 0c95 0320128C 		.ascii	"\003 \022\214\210\002\014\361A\263X\220\212\312\303"
 336      88020CF1 
 336      41B35890 
 336      8ACAC3
 337 0ca4 C1809457 		.ascii	"\301\200\224W\022\210\212\221i\241BA\314'\\A\005\355"
 337      12888A91 
 337      69A14241 
 337      CC275C41 
 337      05ED
 338 0cb6 D13678D1 		.ascii	"\3216x\321\210(\305\012\036\371\375\223\223\237\234"
 338      8828C50A 
 338      1EF9FD93 
 338      939F9C
 339 0cc5 01AF54C4 		.ascii	"\001\257T\304\274\230\364\034_\032*\016\007\244\333"
 339      BC98F41C 
 339      5F1A2A0E 
 339      07A4DB
 340 0cd4 C9408D6C 		.ascii	"\311@\215lX\230\216e\211\315\214\025\004\200\345PX\202"
 340      58988E65 
 340      89CD8C15 
 340      0480E550 
 340      5882
 341 0ce6 DE9E72B8 		.ascii	"\336\236r\270\337?> \215\266\352[\306\003\305\260P\020"
 341      DF3F3E20 
 341      8DB6EA5B 
 341      C603C5B0 
 341      5010
 342 0cf8 00F9F8F2 		.ascii	"\000\371\370\362R) \315\214\0121L$\020\320\006\346\022"
 342      522920CD 
 342      8C0A314C 
 342      2410D006 
 342      E612
 343 0d0a 62396161 		.ascii	"b9aa\206\224\203\231F\3459X\015\250\304U\022(\022\005"
 343      86948399 
 343      46E53958 
 343      0DA8C455 
 343      12281205 
 344 0d1e E1AECCDA 		.ascii	"\341\256\314\332\220f\000\244\273\254\\\022f\004$O\260"
 344      906600A4 
 344      BBAC5C12 
 344      6604244F 
 344      B0
 345 0d2f 24409AF7 		.ascii	"$@\232\367d\034\010\242h\014]/\225\210\240\254X\340"
 345      641C08A2 
 345      680C5D2F 
 345      9588A0AC 
 345      58E0
 346 0d41 F972A11C 		.ascii	"\371r\241\034l0\024P\014\2172\273E,XR\2105B\207\005"
ARM GAS  /tmp/cc4bdlHR.s 			page 28


 346      6C301450 
 346      0C8F32BB 
 346      452C5852 
 346      88354287 
 347 0d56 246F02C2 		.ascii	"$o\002\302\025\015`\361\340\026\025\205i\01792G\244"
 347      150D60F1 
 347      E0161585 
 347      690F3932 
 347      47A4
 348 0d68 2C1A2A15 		.ascii	",\032*\025\304X\301c\223'CG\215O\267\024\025C\021\220"
 348      C458C163 
 348      93274347 
 348      8D4FB714 
 348      15431190 
 349 0d7c 12ABEFBE 		.ascii	"\022\253\357\276{\301\346T\223\270I\360C\021w0\022\006"
 349      7BC1E654 
 349      93B849F0 
 349      43117730 
 349      1206
 350 0d8e F1A57C0C 		.ascii	"\361\245|\014\030\200wAi\3068\347.\020\230\366@\031"
 350      18807741 
 350      69C638E7 
 350      2E1098F6 
 350      4019
 351 0da0 1643148A 		.ascii	"\026C\024\212\301e\003\022+\216g\305_\262\342\375\254"
 351      C1650312 
 351      2B8E67C5 
 351      5FB2E2FD 
 351      AC
 352 0db1 F8002B4E 		.ascii	"\370\000+N`\305\0079q\334X(\343\330R\021n\367\345F\003"
 352      60C50739 
 352      71DC5828 
 352      E3D85211 
 352      6EF7E546 
 353 0dc6 40C18D65 		.ascii	"@\301\215e\234.\210p\217\224\202\323\345\004Kx\021\013"
 353      9C2E8870 
 353      8F9482D3 
 353      E5044B78 
 353      110B
 354 0dd8 CE97091E 		.ascii	"\316\227\011\036)&\361\022h\325\215Y\235\000\252\241"
 354      2926F112 
 354      68D58D59 
 354      9D00AAA1 
 355 0de8 4C430BBA 		.ascii	"LC\013\272\223wn\251,R(\220\337E\245|q\314-\211BQ\214"
 355      93776EA9 
 355      2C522890 
 355      DF45A57C 
 355      71CC2D89 
 356 0dff C8841BB9 		.ascii	"\310\204\033\271e\261bx\251\012\012\3035\221\305\302"
 356      65B16278 
 356      A90A0AC3 
 356      3591C5C2 
 357 0e0f 99F0CA23 		.ascii	"\231\360\312#\314\010IA\000pM\227\"S\237\215\336\250"
 357      CC084941 
 357      00704D97 
 357      22539F8D 
 357      DEA8
ARM GAS  /tmp/cc4bdlHR.s 			page 29


 358 0e21 DA00860A 		.ascii	"\332\000\206\012\242\020\016\002p\356tI\022\243>\260"
 358      A2100E02 
 358      70EE7449 
 358      12A33EB0 
 359 0e31 494C28E3 		.ascii	"IL(\343\243% if\317\202\256X\347\252\013\344\006\303"
 359      A3252069 
 359      66CF82AE 
 359      58E7AA0B 
 359      E406C3
 360 0e44 E0C1B9B1 		.ascii	"\340\301\271\261\000\334\201\020\274\214\302\015\274"
 360      00DC8110 
 360      BC8CC20D 
 360      BC
 361 0e51 2F9A2F4C 		.ascii	"/\232/L\023\302R\031\037{\016X\022\246\343\006\027\015"
 361      13C25219 
 361      1F7B0E58 
 361      12A6E306 
 361      170D
 362 0e63 940FD13C 		.ascii	"\224\017\321<\2504\024\203\221\327\353|\012?\361F\003"
 362      A8341483 
 362      91D7EB7C 
 362      0A3FF146 
 362      03
 363 0e74 D3F99014 		.ascii	"\323\371\220\024\012\027\347E\003 \005%B\232\360@\210"
 363      0A17E745 
 363      03200525 
 363      429AF040 
 363      88
 364 0e85 0A6108B2 		.ascii	"\012a\010\262b\350\005$p\377<\254\013\276\224\330\030"
 364      62E80524 
 364      70FF3CAC 
 364      0BBE94D8 
 364      18
 365 0e96 1E462391 		.ascii	"\036F#\221Rw\031e\015\356\221\351aAt\225\021O\313-\301"
 365      52771965 
 365      0DEE91E9 
 365      61417495 
 365      114FCB2D 
 366 0eab 63FC29F2 		.ascii	"c\374)\362IBL\302\022\342;\3167S\313\213@A>\3743@\333"
 366      49424CC2 
 366      12E23BCE 
 366      3753CB8B 
 366      40413EFC 
 367 0ec2 3176CA58 		.ascii	"1v\312Xv\3128v\312\275\354\224\373\330)\343\331\351"
 367      76CA3876 
 367      CABDEC94 
 367      FBD829E3 
 367      D9E9
 368 0ed4 FC1D6961 		.ascii	"\374\035iaH2\0142\327\341\373\270\2000C\010B\354\345"
 368      48320C32 
 368      D7E1FBB8 
 368      80304308 
 368      42ECE5
 369 0ee7 D35F3141 		.ascii	"\323_1A*\217\346\006~\005\214\372\002\204\010\037\213"
 369      2A8FE606 
 369      7E058CFA 
 369      0284081F 
ARM GAS  /tmp/cc4bdlHR.s 			page 30


 369      8B
 370 0ef8 09A20456 		.ascii	"\011\242\004Vx\034:\374\001\014_\036\313\243?\036\205"
 370      781C3AFC 
 370      010C5F1E 
 370      CBA33F1E 
 370      85
 371 0f09 50CFA7CD 		.ascii	"P\317\247\315GJK#A\010\300\311`\243\307\004\211v{f("
 371      474A4B23 
 371      4108C0C9 
 371      60A3C704 
 371      89767B66 
 372 0f1e 7DF9BBA9 		.ascii	"}\371\273\251\317\012A\351\211pH\362\022DL)\007\267"
 372      CF0A41E9 
 372      897048F2 
 372      12444C29 
 372      07B7
 373 0f30 3CB80AF2 		.ascii	"<\270\012\3621!\007\273\\.\241\015\317x\261\0204\343"
 373      312107BB 
 373      5C2EA10D 
 373      CF78B110 
 373      34E3
 374 0f42 D6188BF2 		.ascii	"\326\030\213\362\222$\210a<\312\253\261?\356\2061b\244"
 374      92248861 
 374      3CCAABB1 
 374      3FEE8631 
 374      62A4
 375 0f54 9097F831 		.ascii	"\220\227\3701\211'#1\251{\374<\346\204\227B\221\260"
 375      89272331 
 375      A97BFC3C 
 375      E6849742 
 375      91B0
 376 0f66 9F0F17FA 		.ascii	"\237\017\027\372\213D\276\270\014\014M\237\340\316\314"
 376      8B44BEB8 
 376      0C0C4D9F 
 376      E0CECC
 377 0f75 7F016C2F 		.ascii	"\177\001l/\346\230"
 377      E698
 378              		.text
 379              		.section	.gnu.lto_.symtab.51398333c97b1c4c,"",%progbits
 380 0000 70617474 		.ascii	"patternheap\000\000\000\000\000\000\000\000\000\000"
 380      65726E68 
 380      65617000 
 380      00000000 
 380      00000000 
 381 0015 0000C601 		.ascii	"\000\000\306\001\000\000testheap1\000\000\000\000\000"
 381      00007465 
 381      73746865 
 381      61703100 
 381      00000000 
 382 0029 00000000 		.ascii	"\000\000\000\000\000\000\000\334\001\000\000test\000"
 382      000000DC 
 382      01000074 
 382      65737400 
 383 0039 00020000 		.ascii	"\000\002\000\000\000\000\000\000\000\000\000\304\001"
 383      00000000 
 383      000000C4 
 383      01
ARM GAS  /tmp/cc4bdlHR.s 			page 31


 384 0046 00005F74 		.ascii	"\000\000_test_assert\000\000\002\000\000\000\000\000"
 384      6573745F 
 384      61737365 
 384      72740000 
 384      02000000 
 385 005c 00000000 		.ascii	"\000\000\000\000\242\001\000\000chHeapStatus\000\000"
 385      A2010000 
 385      63684865 
 385      61705374 
 385      61747573 
 386 0072 02000000 		.ascii	"\002\000\000\000\000\000\000\000\000\000\252\001\000"
 386      00000000 
 386      0000AA01 
 386      00
 387 007f 00636848 		.ascii	"\000chHeapFree\000\000\002\000\000\000\000\000\000\000"
 387      65617046 
 387      72656500 
 387      00020000 
 387      00000000 
 388 0094 0000B001 		.ascii	"\000\000\260\001\000\000chHeapAlloc\000\000\002\000"
 388      00006368 
 388      48656170 
 388      416C6C6F 
 388      63000002 
 389 00a9 00000000 		.ascii	"\000\000\000\000\000\000\000\000\264\001\000\000chC"
 389      00000000 
 389      B4010000 
 389      636843
 390 00b8 6F726547 		.ascii	"oreGetStatusX\000\000\002\000\000\000\000\000\000\000"
 390      65745374 
 390      61747573 
 390      58000002 
 390      00000000 
 391 00cf 0000B901 		.ascii	"\000\000\271\001\000\000chHeapObjectInit\000\000\002"
 391      00006368 
 391      48656170 
 391      4F626A65 
 391      6374496E 
 392 00e8 00000000 		.ascii	"\000\000\000\000\000\000\000\000\000\274\001\000\000"
 392      00000000 
 392      00BC0100 
 392      00
 393              		.text
 394              		.section	.gnu.lto_.opts,"",%progbits
 395 0000 272D6D63 		.ascii	"'-mcpu=cortex-m4' '-mno-thumb-interwork' '-mthumb' "
 395      70753D63 
 395      6F727465 
 395      782D6D34 
 395      2720272D 
 396 0033 272D6767 		.ascii	"'-ggdb' '-O2' '-fomit-frame-pointer' '-falign-funct"
 396      64622720 
 396      272D4F32 
 396      2720272D 
 396      666F6D69 
 397 0066 696F6E73 		.ascii	"ions=16' '-ffunction-sections' '-fdata-sections' '-"
 397      3D313627 
 397      20272D66 
ARM GAS  /tmp/cc4bdlHR.s 			page 32


 397      66756E63 
 397      74696F6E 
 398 0099 666E6F2D 		.ascii	"fno-common' '-flto'\000"
 398      636F6D6D 
 398      6F6E2720 
 398      272D666C 
 398      746F2700 
 399              		.text
 400              		.cfi_sections	.debug_frame
 401              		.section	.text.heap1_execute,"ax",%progbits
 402              		.align	2
 403              		.p2align 4,,15
 404              		.thumb
 405              		.thumb_func
 406              		.type	heap1_execute, %function
 407              	heap1_execute:
 408              	.LFB230:
 409              		.file 1 "/usr/src/chibios/test/rt/testheap.c"
 410              		.loc 1 69 0
 411              		.cfi_startproc
 412              		@ args = 0, pretend = 0, frame = 8
 413              		@ frame_needed = 0, uses_anonymous_args = 0
 414 0000 70B5     		push	{r4, r5, r6, lr}
 415              		.cfi_def_cfa_offset 16
 416              		.cfi_offset 4, -16
 417              		.cfi_offset 5, -12
 418              		.cfi_offset 6, -8
 419              		.cfi_offset 14, -4
 420 0002 82B0     		sub	sp, sp, #8
 421              		.cfi_def_cfa_offset 24
 422              		.loc 1 74 0
 423 0004 FFF7FEFF 		bl	chCoreGetStatusX
 424              	.LVL0:
 425              		.loc 1 80 0
 426 0008 01A9     		add	r1, sp, #4
 427 000a 0020     		movs	r0, #0
 428 000c FFF7FEFF 		bl	chHeapStatus
 429              	.LVL1:
 430              		.loc 1 81 0
 431 0010 1021     		movs	r1, #16
 432 0012 0020     		movs	r0, #0
 433 0014 FFF7FEFF 		bl	chHeapAlloc
 434              	.LVL2:
 435              		.loc 1 82 0
 436 0018 011C     		adds	r1, r0, #0
 437 001a 0446     		mov	r4, r0
 438 001c 18BF     		it	ne
 439 001e 0121     		movne	r1, #1
 440 0020 0120     		movs	r0, #1
 441              	.LVL3:
 442 0022 FFF7FEFF 		bl	_test_assert
 443              	.LVL4:
 444 0026 0546     		mov	r5, r0
 445 0028 08B1     		cbz	r0, .L7
 446              	.LVL5:
 447              	.L1:
 448              		.loc 1 140 0
ARM GAS  /tmp/cc4bdlHR.s 			page 33


 449 002a 02B0     		add	sp, sp, #8
 450              		@ sp needed
 451 002c 70BD     		pop	{r4, r5, r6, pc}
 452              	.LVL6:
 453              	.L7:
 454              		.loc 1 83 0
 455 002e 2046     		mov	r0, r4
 456 0030 FFF7FEFF 		bl	chHeapFree
 457              	.LVL7:
 458              		.loc 1 84 0
 459 0034 6FF0FF01 		mvn	r1, #255
 460 0038 2846     		mov	r0, r5
 461 003a FFF7FEFF 		bl	chHeapAlloc
 462              	.LVL8:
 463              		.loc 1 85 0
 464 003e D0F10101 		rsbs	r1, r0, #1
 465 0042 38BF     		it	cc
 466 0044 0021     		movcc	r1, #0
 467 0046 0220     		movs	r0, #2
 468              	.LVL9:
 469 0048 FFF7FEFF 		bl	_test_assert
 470              	.LVL10:
 471 004c 0028     		cmp	r0, #0
 472 004e ECD1     		bne	.L1
 473              		.loc 1 88 0
 474 0050 01A9     		add	r1, sp, #4
 475 0052 7B48     		ldr	r0, .L8
 476 0054 FFF7FEFF 		bl	chHeapStatus
 477              	.LVL11:
 478              		.loc 1 91 0
 479 0058 1021     		movs	r1, #16
 480 005a 7948     		ldr	r0, .L8
 481 005c FFF7FEFF 		bl	chHeapAlloc
 482              	.LVL12:
 483              		.loc 1 92 0
 484 0060 1021     		movs	r1, #16
 485              		.loc 1 91 0
 486 0062 0546     		mov	r5, r0
 487              	.LVL13:
 488              		.loc 1 92 0
 489 0064 7648     		ldr	r0, .L8
 490              	.LVL14:
 491 0066 FFF7FEFF 		bl	chHeapAlloc
 492              	.LVL15:
 493              		.loc 1 93 0
 494 006a 1021     		movs	r1, #16
 495              		.loc 1 92 0
 496 006c 0446     		mov	r4, r0
 497              	.LVL16:
 498              		.loc 1 93 0
 499 006e 7448     		ldr	r0, .L8
 500              	.LVL17:
 501 0070 FFF7FEFF 		bl	chHeapAlloc
 502              	.LVL18:
 503 0074 0646     		mov	r6, r0
 504              	.LVL19:
 505              		.loc 1 94 0
ARM GAS  /tmp/cc4bdlHR.s 			page 34


 506 0076 2846     		mov	r0, r5
 507              	.LVL20:
 508 0078 FFF7FEFF 		bl	chHeapFree
 509              	.LVL21:
 510              		.loc 1 95 0
 511 007c 2046     		mov	r0, r4
 512 007e FFF7FEFF 		bl	chHeapFree
 513              	.LVL22:
 514              		.loc 1 96 0
 515 0082 3046     		mov	r0, r6
 516 0084 FFF7FEFF 		bl	chHeapFree
 517              	.LVL23:
 518              		.loc 1 97 0
 519 0088 6946     		mov	r1, sp
 520 008a 6D48     		ldr	r0, .L8
 521 008c FFF7FEFF 		bl	chHeapStatus
 522              	.LVL24:
 523 0090 421E     		subs	r2, r0, #1
 524 0092 5142     		rsbs	r1, r2, #0
 525 0094 5141     		adcs	r1, r1, r2
 526 0096 0320     		movs	r0, #3
 527 0098 FFF7FEFF 		bl	_test_assert
 528              	.LVL25:
 529 009c 0028     		cmp	r0, #0
 530 009e C4D1     		bne	.L1
 531              		.loc 1 100 0
 532 00a0 1021     		movs	r1, #16
 533 00a2 6748     		ldr	r0, .L8
 534 00a4 FFF7FEFF 		bl	chHeapAlloc
 535              	.LVL26:
 536              		.loc 1 101 0
 537 00a8 1021     		movs	r1, #16
 538              		.loc 1 100 0
 539 00aa 0446     		mov	r4, r0
 540              	.LVL27:
 541              		.loc 1 101 0
 542 00ac 6448     		ldr	r0, .L8
 543              	.LVL28:
 544 00ae FFF7FEFF 		bl	chHeapAlloc
 545              	.LVL29:
 546              		.loc 1 102 0
 547 00b2 1021     		movs	r1, #16
 548              		.loc 1 101 0
 549 00b4 0546     		mov	r5, r0
 550              	.LVL30:
 551              		.loc 1 102 0
 552 00b6 6248     		ldr	r0, .L8
 553              	.LVL31:
 554 00b8 FFF7FEFF 		bl	chHeapAlloc
 555              	.LVL32:
 556              		.loc 1 103 0
 557 00bc FFF7FEFF 		bl	chHeapFree
 558              	.LVL33:
 559              		.loc 1 104 0
 560 00c0 2846     		mov	r0, r5
 561 00c2 FFF7FEFF 		bl	chHeapFree
 562              	.LVL34:
ARM GAS  /tmp/cc4bdlHR.s 			page 35


 563              		.loc 1 105 0
 564 00c6 2046     		mov	r0, r4
 565 00c8 FFF7FEFF 		bl	chHeapFree
 566              	.LVL35:
 567              		.loc 1 106 0
 568 00cc 6946     		mov	r1, sp
 569 00ce 5C48     		ldr	r0, .L8
 570 00d0 FFF7FEFF 		bl	chHeapStatus
 571              	.LVL36:
 572 00d4 431E     		subs	r3, r0, #1
 573 00d6 5942     		rsbs	r1, r3, #0
 574 00d8 5941     		adcs	r1, r1, r3
 575 00da 0420     		movs	r0, #4
 576 00dc FFF7FEFF 		bl	_test_assert
 577              	.LVL37:
 578 00e0 0028     		cmp	r0, #0
 579 00e2 A2D1     		bne	.L1
 580              		.loc 1 109 0
 581 00e4 1121     		movs	r1, #17
 582 00e6 5648     		ldr	r0, .L8
 583 00e8 FFF7FEFF 		bl	chHeapAlloc
 584              	.LVL38:
 585              		.loc 1 110 0
 586 00ec 1021     		movs	r1, #16
 587              		.loc 1 109 0
 588 00ee 0446     		mov	r4, r0
 589              	.LVL39:
 590              		.loc 1 110 0
 591 00f0 5348     		ldr	r0, .L8
 592              	.LVL40:
 593 00f2 FFF7FEFF 		bl	chHeapAlloc
 594              	.LVL41:
 595 00f6 0546     		mov	r5, r0
 596              	.LVL42:
 597              		.loc 1 111 0
 598 00f8 2046     		mov	r0, r4
 599              	.LVL43:
 600 00fa FFF7FEFF 		bl	chHeapFree
 601              	.LVL44:
 602              		.loc 1 112 0
 603 00fe 6946     		mov	r1, sp
 604 0100 4F48     		ldr	r0, .L8
 605 0102 FFF7FEFF 		bl	chHeapStatus
 606              	.LVL45:
 607 0106 B0F1020C 		subs	ip, r0, #2
 608 010a DCF10001 		rsbs	r1, ip, #0
 609 010e 51EB0C01 		adcs	r1, r1, ip
 610 0112 0520     		movs	r0, #5
 611 0114 FFF7FEFF 		bl	_test_assert
 612              	.LVL46:
 613 0118 0028     		cmp	r0, #0
 614 011a 86D1     		bne	.L1
 615              		.loc 1 113 0
 616 011c 1021     		movs	r1, #16
 617 011e 4848     		ldr	r0, .L8
 618 0120 FFF7FEFF 		bl	chHeapAlloc
 619              	.LVL47:
ARM GAS  /tmp/cc4bdlHR.s 			page 36


 620              		.loc 1 116 0
 621 0124 6946     		mov	r1, sp
 622              		.loc 1 113 0
 623 0126 0446     		mov	r4, r0
 624              	.LVL48:
 625              		.loc 1 116 0
 626 0128 4548     		ldr	r0, .L8
 627              	.LVL49:
 628 012a FFF7FEFF 		bl	chHeapStatus
 629              	.LVL50:
 630 012e 0128     		cmp	r0, #1
 631 0130 00F08380 		beq	.L5
 632              		.loc 1 116 0 is_stmt 0 discriminator 2
 633 0134 6946     		mov	r1, sp
 634 0136 4248     		ldr	r0, .L8
 635 0138 FFF7FEFF 		bl	chHeapStatus
 636              	.LVL51:
 637 013c B0F1020E 		subs	lr, r0, #2
 638 0140 DEF10001 		rsbs	r1, lr, #0
 639 0144 51EB0E01 		adcs	r1, r1, lr
 640              	.L3:
 641              		.loc 1 116 0 discriminator 4
 642 0148 0620     		movs	r0, #6
 643 014a FFF7FEFF 		bl	_test_assert
 644              	.LVL52:
 645 014e 0028     		cmp	r0, #0
 646 0150 7FF46BAF 		bne	.L1
 647              		.loc 1 118 0 is_stmt 1
 648 0154 2846     		mov	r0, r5
 649 0156 FFF7FEFF 		bl	chHeapFree
 650              	.LVL53:
 651              		.loc 1 119 0
 652 015a 2046     		mov	r0, r4
 653 015c FFF7FEFF 		bl	chHeapFree
 654              	.LVL54:
 655              		.loc 1 120 0
 656 0160 6946     		mov	r1, sp
 657 0162 3748     		ldr	r0, .L8
 658 0164 FFF7FEFF 		bl	chHeapStatus
 659              	.LVL55:
 660 0168 461E     		subs	r6, r0, #1
 661 016a 7142     		rsbs	r1, r6, #0
 662 016c 7141     		adcs	r1, r1, r6
 663 016e 0720     		movs	r0, #7
 664 0170 FFF7FEFF 		bl	_test_assert
 665              	.LVL56:
 666 0174 0028     		cmp	r0, #0
 667 0176 7FF458AF 		bne	.L1
 668              		.loc 1 123 0
 669 017a 1021     		movs	r1, #16
 670 017c 3048     		ldr	r0, .L8
 671 017e FFF7FEFF 		bl	chHeapAlloc
 672              	.LVL57:
 673              		.loc 1 124 0
 674 0182 1021     		movs	r1, #16
 675              		.loc 1 123 0
 676 0184 0546     		mov	r5, r0
ARM GAS  /tmp/cc4bdlHR.s 			page 37


 677              	.LVL58:
 678              		.loc 1 124 0
 679 0186 2E48     		ldr	r0, .L8
 680              	.LVL59:
 681 0188 FFF7FEFF 		bl	chHeapAlloc
 682              	.LVL60:
 683 018c 0446     		mov	r4, r0
 684              	.LVL61:
 685              		.loc 1 125 0
 686 018e 2846     		mov	r0, r5
 687              	.LVL62:
 688 0190 FFF7FEFF 		bl	chHeapFree
 689              	.LVL63:
 690              		.loc 1 126 0
 691 0194 6946     		mov	r1, sp
 692 0196 2A48     		ldr	r0, .L8
 693 0198 FFF7FEFF 		bl	chHeapStatus
 694              	.LVL64:
 695 019c 851E     		subs	r5, r0, #2
 696              	.LVL65:
 697 019e 6942     		rsbs	r1, r5, #0
 698 01a0 6941     		adcs	r1, r1, r5
 699 01a2 0820     		movs	r0, #8
 700 01a4 FFF7FEFF 		bl	_test_assert
 701              	.LVL66:
 702 01a8 0028     		cmp	r0, #0
 703 01aa 7FF43EAF 		bne	.L1
 704              		.loc 1 127 0
 705 01ae 2021     		movs	r1, #32
 706 01b0 2348     		ldr	r0, .L8
 707 01b2 FFF7FEFF 		bl	chHeapAlloc
 708              	.LVL67:
 709              		.loc 1 128 0
 710 01b6 FFF7FEFF 		bl	chHeapFree
 711              	.LVL68:
 712              		.loc 1 129 0
 713 01ba 2046     		mov	r0, r4
 714 01bc FFF7FEFF 		bl	chHeapFree
 715              	.LVL69:
 716              		.loc 1 130 0
 717 01c0 6946     		mov	r1, sp
 718 01c2 1F48     		ldr	r0, .L8
 719 01c4 FFF7FEFF 		bl	chHeapStatus
 720              	.LVL70:
 721 01c8 0138     		subs	r0, r0, #1
 722 01ca 4142     		rsbs	r1, r0, #0
 723 01cc 4141     		adcs	r1, r1, r0
 724 01ce 0920     		movs	r0, #9
 725 01d0 FFF7FEFF 		bl	_test_assert
 726              	.LVL71:
 727 01d4 0028     		cmp	r0, #0
 728 01d6 7FF428AF 		bne	.L1
 729              		.loc 1 133 0
 730 01da 6946     		mov	r1, sp
 731 01dc 1848     		ldr	r0, .L8
 732 01de FFF7FEFF 		bl	chHeapStatus
 733              	.LVL72:
ARM GAS  /tmp/cc4bdlHR.s 			page 38


 734              		.loc 1 134 0
 735 01e2 0099     		ldr	r1, [sp]
 736 01e4 1648     		ldr	r0, .L8
 737 01e6 FFF7FEFF 		bl	chHeapAlloc
 738              	.LVL73:
 739              		.loc 1 135 0
 740 01ea 6946     		mov	r1, sp
 741              		.loc 1 134 0
 742 01ec 0446     		mov	r4, r0
 743              	.LVL74:
 744              		.loc 1 135 0
 745 01ee 1448     		ldr	r0, .L8
 746              	.LVL75:
 747 01f0 FFF7FEFF 		bl	chHeapStatus
 748              	.LVL76:
 749 01f4 D0F10101 		rsbs	r1, r0, #1
 750 01f8 38BF     		it	cc
 751 01fa 0021     		movcc	r1, #0
 752 01fc 0A20     		movs	r0, #10
 753 01fe FFF7FEFF 		bl	_test_assert
 754              	.LVL77:
 755 0202 0028     		cmp	r0, #0
 756 0204 7FF411AF 		bne	.L1
 757              		.loc 1 136 0
 758 0208 2046     		mov	r0, r4
 759 020a FFF7FEFF 		bl	chHeapFree
 760              	.LVL78:
 761              		.loc 1 138 0
 762 020e 6946     		mov	r1, sp
 763 0210 0B48     		ldr	r0, .L8
 764 0212 FFF7FEFF 		bl	chHeapStatus
 765              	.LVL79:
 766 0216 421E     		subs	r2, r0, #1
 767 0218 5142     		rsbs	r1, r2, #0
 768 021a 5141     		adcs	r1, r1, r2
 769 021c 0B20     		movs	r0, #11
 770 021e FFF7FEFF 		bl	_test_assert
 771              	.LVL80:
 772 0222 0028     		cmp	r0, #0
 773 0224 7FF401AF 		bne	.L1
 774              		.loc 1 139 0
 775 0228 9DE80A00 		ldmia	sp, {r1, r3}
 776 022c CB1A     		subs	r3, r1, r3
 777 022e 5942     		rsbs	r1, r3, #0
 778 0230 5941     		adcs	r1, r1, r3
 779 0232 0C20     		movs	r0, #12
 780 0234 FFF7FEFF 		bl	_test_assert
 781              	.LVL81:
 782 0238 F7E6     		b	.L1
 783              	.LVL82:
 784              	.L5:
 785 023a 0146     		mov	r1, r0
 786 023c 84E7     		b	.L3
 787              	.L9:
 788 023e 00BF     		.align	2
 789              	.L8:
 790 0240 00000000 		.word	.LANCHOR0
ARM GAS  /tmp/cc4bdlHR.s 			page 39


 791              		.cfi_endproc
 792              	.LFE230:
 793              		.size	heap1_execute, .-heap1_execute
 794              		.section	.text.heap1_setup,"ax",%progbits
 795              		.align	2
 796              		.p2align 4,,15
 797              		.thumb
 798              		.thumb_func
 799              		.type	heap1_setup, %function
 800              	heap1_setup:
 801              	.LFB229:
 802              		.loc 1 64 0
 803              		.cfi_startproc
 804              		@ args = 0, pretend = 0, frame = 0
 805              		@ frame_needed = 0, uses_anonymous_args = 0
 806              		@ link register save eliminated.
 807              		.loc 1 66 0
 808 0000 0248     		ldr	r0, .L11
 809 0002 0349     		ldr	r1, .L11+4
 810 0004 4FF4CD62 		mov	r2, #1640
 811 0008 FFF7FEBF 		b	chHeapObjectInit
 812              	.LVL83:
 813              	.L12:
 814              		.align	2
 815              	.L11:
 816 000c 00000000 		.word	.LANCHOR0
 817 0010 00000000 		.word	test
 818              		.cfi_endproc
 819              	.LFE229:
 820              		.size	heap1_setup, .-heap1_setup
 821              		.global	patternheap
 822              		.global	testheap1
 823              		.section	.rodata.patternheap,"a",%progbits
 824              		.align	2
 825              		.type	patternheap, %object
 826              		.size	patternheap, 8
 827              	patternheap:
 828 0000 00000000 		.word	testheap1
 829 0004 00000000 		.word	0
 830              		.section	.rodata.str1.4,"aMS",%progbits,1
 831              		.align	2
 832              	.LC0:
 833 0000 48656170 		.ascii	"Heap, allocation and fragmentation test\000"
 833      2C20616C 
 833      6C6F6361 
 833      74696F6E 
 833      20616E64 
 834              		.section	.rodata.testheap1,"a",%progbits
 835              		.align	2
 836              		.type	testheap1, %object
 837              		.size	testheap1, 16
 838              	testheap1:
 839 0000 00000000 		.word	.LC0
 840 0004 00000000 		.word	heap1_setup
 841 0008 00000000 		.word	0
 842 000c 00000000 		.word	heap1_execute
 843              		.section	.bss.test_heap,"aw",%nobits
ARM GAS  /tmp/cc4bdlHR.s 			page 40


 844              		.align	3
 845              		.set	.LANCHOR0,. + 0
 846              		.type	test_heap, %object
 847              		.size	test_heap, 32
 848              	test_heap:
 849 0000 00000000 		.space	32
 849      00000000 
 849      00000000 
 849      00000000 
 849      00000000 
 850              		.text
 851              	.Letext0:
 852              		.file 2 "/usr/lib/gcc/arm-none-eabi/4.8/include/stddef.h"
 853              		.file 3 "/usr/include/newlib/machine/_default_types.h"
 854              		.file 4 "/usr/include/newlib/sys/_stdint.h"
 855              		.file 5 "/usr/src/chibios/os/rt/ports/ARMCMx/compilers/GCC/chtypes.h"
 856              		.file 6 "/usr/src/chibios/os/rt/include/chsystypes.h"
 857              		.file 7 "/usr/src/chibios/os/rt/include/chschd.h"
 858              		.file 8 "/usr/src/chibios/os/rt/ports/ARMCMx/chcore.h"
 859              		.file 9 "/usr/src/chibios/os/rt/ports/ARMCMx/chcore_v7m.h"
 860              		.file 10 "/usr/src/chibios/os/rt/include/chtm.h"
 861              		.file 11 "/usr/src/chibios/os/rt/include/chsem.h"
 862              		.file 12 "/usr/src/chibios/os/rt/include/chmtx.h"
 863              		.file 13 "/usr/src/chibios/os/rt/include/chmemcore.h"
 864              		.file 14 "/usr/src/chibios/os/rt/include/chheap.h"
 865              		.file 15 "/usr/src/chibios/test/rt/test.h"
 866              		.file 16 "/usr/src/chibios/os/ext/CMSIS/include/core_cm4.h"