ARM GAS  /tmp/ccmn0Ysq.s 			page 1


   1              		.syntax unified
   2              		.cpu cortex-m4
   3              		.fpu softvfp
   4              		.eabi_attribute 20, 1
   5              		.eabi_attribute 21, 1
   6              		.eabi_attribute 23, 3
   7              		.eabi_attribute 24, 1
   8              		.eabi_attribute 25, 1
   9              		.eabi_attribute 26, 1
  10              		.eabi_attribute 30, 2
  11              		.eabi_attribute 34, 1
  12              		.eabi_attribute 18, 4
  13              		.thumb
  14              		.file	"testsys.c"
  15              		.text
  16              	.Ltext0:
  17              		.section	.gnu.lto_.jmpfuncs.1269c51b466bb9f8,"",%progbits
  18 0000 789C6D8E 		.ascii	"x\234m\216;\022\200 \014D7\013:\216\215\036\317\336"
  18      3B128020 
  18      0C44370B 
  18      3A8E8D1E 
  18      CFDE
  19 0012 8A0BD8D8 		.ascii	"\212\013\330\330PzA/ceH\360S@\206yK\262\331\201 Z\347"
  19      507A412F 
  19      636548F0 
  19      53408679 
  19      4BB2D981 
  20 0029 ACEC01D1 		.ascii	"\254\354\001\321\0028\305\240\330\000\2058\350\010\012"
  20      0238C5A0 
  20      D8008538 
  20      E8080A
  21 0038 7987E422 		.ascii	"y\207\344\"\311w \246e\004\242\272Mk\237;\256|\3449"
  21      C97720A6 
  21      6504A2BA 
  21      4D6B9F3B 
  21      AE7CE439 
  22 004c 0957B3F9 		.ascii	"\011W\263\371\250$H\275\261\256b\300\023\030\213\261"
  22      A82448BD 
  22      B1AE62C0 
  22      13188BB1 
  23 005c 7B9FE1CB 		.ascii	"{\237\341\313\267pW\374u\211\306_L\337U\005\020\301"
  23      B77057FC 
  23      7589C65F 
  23      4CDF5505 
  23      10C1
  24              		.text
  25              		.section	.gnu.lto_.inline.1269c51b466bb9f8,"",%progbits
  26 0000 789C6362 		.ascii	"x\234cb`b\300\006\230\030!4\033\003\003\027'#\003\023"
  26      6062C006 
  26      98182134 
  26      1B030317 
  26      27230313 
  27 0014 DF865C06 		.ascii	"\337\206\\\006\266\005\362`\305\214\014\3342@!\216\003"
  27      B605F260 
  27      C58C0CDC 
  27      3240218E 
  27      03
ARM GAS  /tmp/ccmn0Ysq.s 			page 2


  28 0025 76702126 		.ascii	"vp!&n\240\360\004?\020\0054\220\027$\315\332\241\316"
  28      6EA0F004 
  28      3F100534 
  28      901724CD 
  28      DAA1CE
  29 0038 C0DEA10E 		.ascii	"\300\336\241\016\226f\345c``\231\340\007\201P\265\314"
  29      9666E563 
  29      606099E0 
  29      078150B5 
  29      CC
  30 0049 22261F80 		.ascii	"\"&\037\200F1\331\034\330\312\0147\207\205\027\244\037"
  30      4631D91C 
  30      D8CA0C37 
  30      878517A4 
  30      1F
  31 005a AA06A20D 		.ascii	"\252\006\242\015\303x$6\013\003\217,\320\010\266\017"
  31      C3782436 
  31      0B038F2C 
  31      D008B60F 
  32 006a 7A701398 		.ascii	"zp\023\230y@:A$\310\034V\006\015C\240\002\271\025\025"
  32      79403A41 
  32      24C81C56 
  32      060D43A0 
  32      02B91515 
  33 007e 08D77321 		.ascii	"\010\327s!\331\003Q\215\217\307\000\000\217\350\032"
  33      D903518D 
  33      8FC70000 
  33      8FE81A
  34 008d 6B       		.ascii	"k"
  35              		.text
  36              		.section	.gnu.lto_.pureconst.1269c51b466bb9f8,"",%progbits
  37 0000 789C6362 		.ascii	"x\234cb`b\340e\200\0006\006+F+&If+\026+V+\000\011_\001"
  37      6062E065 
  37      80003606 
  37      2B462B26 
  37      49662B16 
  38 001b 62       		.ascii	"b"
  39              		.text
  40              		.section	.gnu.lto_sys2_execute.1269c51b466bb9f8,"",%progbits
  41 0000 789C6362 		.ascii	"x\234cb`b@\007\222@,\302\302\300\360\002H32302M8\307"
  41      60624007 
  41      92402CC2 
  41      C2C0F002 
  41      48333233 
  42 0019 C0D0C8C1 		.ascii	"\300\320\310\301\304\310\010b002\32431\326G2\202\325"
  42      C4C80862 
  42      303032D4 
  42      3331D647 
  42      3282D5
  43 002c AE673AF0 		.ascii	"\256g:\360\340\377\377u\327\332\227\314a\234\317\304"
  43      E0FFFF75 
  43      D7DA97CC 
  43      619CCFC4 
  44 003c 0B146165 		.ascii	"\013\024aehih\230\240\300\300\220\014V\021\002$A\332"
  44      68696898 
  44      A0C0C090 
  44      0C561102 
ARM GAS  /tmp/ccmn0Ysq.s 			page 3


  44      2441DA
  45 004f 42199940 		.ascii	"B\031\231@4\363I\206&\016\006\006%\206\205\015\015\223"
  45      34F34986 
  45      260E0606 
  45      2586850D 
  45      0D93
  46 0061 1ECC7DB8 		.ascii	"\036\314}\270_gf\303\201\226\005\015\177\376\377gd\314"
  46      5F6766C3 
  46      8196050D 
  46      7FFEFF67 
  46      64CC
  47 0073 6404BA26 		.ascii	"d\004\272&\202\021\2443\002\310aT\000SL,\250\316\003"
  47      8211A433 
  47      02C86154 
  47      00534C2C 
  47      A8CE03
  48 0086 893100CD 		.ascii	"\2111\000\315g8\307\320\364q\337\341M=\314p+!\214\003"
  48      6738C7D0 
  48      F471DFE1 
  48      4D3DCC70 
  48      2B218C03 
  49 009a BB6FFD17 		.ascii	"\273o\375\027`Jd\\\304\250\004w\317\201\365S\273\270"
  49      604A645C 
  49      C4A80477 
  49      CF81F553 
  49      BBB8
  50 00ac E5E1BC93 		.ascii	"\345\341\274\223\337\200\316Jd\\\310\310\012\264\014"
  50      DF80CE4A 
  50      645CC8C8 
  50      0AB40C
  51 00bb 64211310 		.ascii	"d!\023\02033\200}\307\310\260\033\310\004\006\0133$"
  51      3333807D 
  51      C7C8B01B 
  51      C804060B 
  51      3324
  52 00cd 6CE418CE 		.ascii	"l\344\030\3160\316m\230\341\220\011Q\000\267\036!\177"
  52      30CE6D98 
  52      E1900951 
  52      00B71E21 
  52      7F
  53 00de 1E2A0F75 		.ascii	"\036*\017u\3509\206\306\217\373\036?\223\302p\326\243"
  53      E83986C6 
  53      8FFB1E3F 
  53      93C270D6 
  53      A3
  54 00ef FF72606B 		.ascii	"\377r`k\227\201\255\205\252fd\270\316\210\327\244\303"
  54      9781AD85 
  54      AA6664B8 
  54      CE88D7A4 
  54      C3
  55 0100 AF314D3A 		.ascii	"\2571M:\364O\200\011\311k/9\021^\353\374\216\3445\020"
  55      F44F8009 
  55      C96B2F39 
  55      115EEBFC 
  55      8EE43510 
  56 0114 66036276 		.ascii	"f\003bv\230]\017p\332E b\022\031\027\203\003\211*1\263"
  56      985D0F70 
ARM GAS  /tmp/ccmn0Ysq.s 			page 4


  56      DA452062 
  56      12191783 
  56      03892A31 
  57 0129 1D4FCC7C 		.ascii	"\035O\314|'\"f\022\031W\002\031\0301\221\310\270\206"
  57      27226612 
  57      19570219 
  57      183191C8 
  57      B886
  58 013b 518EC838 		.ascii	"Q\216\3108\330\205#\016\022\0317\300\314@\016\221\003"
  58      D885230E 
  58      121937C0 
  58      CC400E91 
  58      03
  59 014c 731F3D60 		.ascii	"s\037=`\"3D\030\360\206\310\251Nf\215D\306\203\250!"
  59      22334418 
  59      F086C8A9 
  59      4E668D44 
  59      C683A821 
  60 0160 B28A5B0E 		.ascii	"\262\212[\016\021\241\177\220B\204\003\2109\361\207"
  60      11A17F90 
  60      42840388 
  60      39F187
  61 016f 08038921 		.ascii	"\010\003\211!r\253\223Y\036\244\362\010\341\020\271"
  61      72AB9359 
  61      1EA4F208 
  61      E110B9
  62 017e C8D0F861 		.ascii	"\310\320\370a\322~\026\210c` \004\030M\300\234\015R"
  62      D27E1688 
  62      63602004 
  62      184DC09C 
  62      0D52
  63 0190 ABAC5F5A 		.ascii	"\253\254_Z\\\244_\\\224\254\237\234\221\231\224\231"
  63      5CA45F5C 
  63      94AC9F9C 
  63      91999499 
  64 01a0 5FAC5F92 		.ascii	"_\254_\222Z\\\242_T\002\246\213+\213\365\222\031\014"
  64      5A5CA25F 
  64      5402A68B 
  64      2B8BF592 
  64      190C
  65 01b2 31D40011 		.ascii	"1\324\000\021PEA~QI\261\276c\220\257\263o\005P*9\277"
  65      5045417E 
  65      5149B1BE 
  65      6390AFB3 
  65      6F05502A 
  66 01c8 2835BECC 		.ascii	"(5\276\314<W/\203\201\265,1\2474\325\004\233\276\324"
  66      3C572F83 
  66      81B52C31 
  66      A734D504 
  66      9BBED4
  67 01db 8A127D67 		.ascii	"\212\022}g\337`\317`\375\314\274\344\234\322\224T}\260"
  67      DF60CF60 
  67      FDCCBCE4 
  67      9CD29454 
  67      7DB0
  68 01ed BEE45CB7 		.ascii	"\276\344\\\267\322\274d\240Vu\034\226\301Ug\200\034"
  68      D2BC64A0 
ARM GAS  /tmp/ccmn0Ysq.s 			page 5


  68      56751C96 
  68      C1556780 
  68      1C
  69 01fe 95C120E0 		.ascii	"\225\301 \340\033\034\244\220\224X\234ZP\224\251\243"
  69      1B1CA490 
  69      94589C5A 
  69      5094A9A3 
  70 020e A06AC0C0 		.ascii	"\240j\300\300T\304\300\236\233\232\233_T\311\300\221"
  70      54C4C09E 
  70      9B9A9B5F 
  70      54C9C091 
  71 021e 5C509C99 		.ascii	"\\P\234\231\252\220\011a\244\000\031\000\233\276I\027"
  71      AA900961 
  71      A4001900 
  71      9BBE4917 
  72              		.text
  73              		.section	.gnu.lto_vtcb.1269c51b466bb9f8,"",%progbits
  74 0000 789CBD54 		.ascii	"x\234\275TAh\023A\024\375\177\266I#\022\310\321B\011"
  74      41681341 
  74      14FD7FB6 
  74      492312C8 
  74      D14209
  75 0013 8B453DD8 		.ascii	"\213E=\330v\025\004\257\226\202\340!\227\246\202\202"
  75      761504AF 
  75      9682E021 
  75      97A68282 
  76 0023 20DB7131 		.ascii	" \333q1\013MSv7\245\305C\2471\207JK\010\202\240\210"
  76      0B4D5376 
  76      37A5C543 
  76      A731874A 
  76      4B0882A0 
  77 0038 D0A2DE84 		.ascii	"\320\242\336\204\212 \212\332&XzP\241Z\274\211\310\202"
  77      8A208ADA 
  77      26587A50 
  77      A15ABC89 
  77      C882
  78 004a 2715293D 		.ascii	"'\025)=Z\304\370g7\331\246m\264{\020'\371\231\3713\357"
  78      5AC4F867 
  78      37D9A66D 
  78      B47B1027 
  78      F999F933 
  79 005f CFFBEFFF 		.ascii	"\317\373\357\377!\014\030\354\034\035d\2456\200\017"
  79      210C18EC 
  79      1C1D64A5 
  79      36800F
  80 006e 34A302C8 		.ascii	"4\243\002\310\312\253\000S1\206(\027\2000\311p\362<"
  80      CAAB0053 
  80      31862817 
  80      8030C970 
  80      F23C
  81 0080 4A281E84 		.ascii	"J(\036\204y!\256\273+\267K\035b\256P\026\277j54\221"
  81      7921AEBB 
  81      2BB74B1D 
  81      62AE5016 
  81      BF6A3534 
  82 0095 2E3D8CC0 		.ascii	".=\214\300\021\316\221\203\2527\261\266\355,\013\254"
  82      11CE9183 
ARM GAS  /tmp/ccmn0Ysq.s 			page 6


  82      AA37B1B6 
  82      ED2C0BAC 
  83 00a5 EAD66A1F 		.ascii	"\352\326j\037\277\227>\035\300x\024t\234\247\313hD\240"
  83      BF973E1D 
  83      C0781474 
  83      9CA7CB68 
  83      44A0
  84 00b7 2844596D 		.ascii	"(DYm\370\334\343\031\244_I~\026\231\234\225WP\210\001"
  84      F8DCE319 
  84      A45F497E 
  84      16999C95 
  84      57508801 
  85 00cb D4C91F6F 		.ascii	"\324\311\037o<\351\276%\252\3059\361\223\330\211Jap"
  85      3CE9BE25 
  85      AAC539F1 
  85      93D8894A 
  85      6170
  86 00dd 612F7AB9 		.ascii	"a/z\271\247\250\264X\205\302\306\353\345G\263J\235\270"
  86      A7A8B458 
  86      85C2C6EB 
  86      E547B34A 
  86      9DB8
  87 00ef 9141F5DB 		.ascii	"\221A\365\333\346z\202\351x\317K\303\337\023\353\213"
  87      E67A82E9 
  87      78CF4BC3 
  87      DF13EB8B 
  88 00ff 9DC179E5 		.ascii	"\235\301y\345\306l\274'\360\336,\036\005\022q\027#D"
  88      C66CBC27 
  88      F0DE2C1E 
  88      05127117 
  88      2344
  89 0111 2CC91999 		.ascii	",\311\031\231B\346\361\"}*\344R\261\025\277\342Ix\207"
  89      42E6F122 
  89      7D2AE452 
  89      B115BFE2 
  89      497887
  90 0124 77C4CD53 		.ascii	"w\304\315S\246\017\010\322\331:\177_?\217\370\011o\227"
  90      A60F08D2 
  90      D93A7F5F 
  90      3F8FF809 
  90      6F97
  91 0136 FCE5C50E 		.ascii	"\374\345\305\016\311:\336\367(\367\324\014\177\325\374"
  91      C93ADEF7 
  91      28F7D40C 
  91      7FD5FC
  92 0145 F587D4FC 		.ascii	"\365\207\324\374\260Y\363\363\245d\223\346gq-\360f\226"
  92      B059F3F3 
  92      A56493E6 
  92      67712DF0 
  92      6696
  93 0157 7AB6344B 		.ascii	"z\2664K\213\222\265\267\320\254\343\003Z\004\364\015"
  93      8B92B5B7 
  93      D0ACE303 
  93      5A04F40D 
  94 0167 8D3A2E60 		.ascii	"\215:.`\262\225\272]\015\015\255.LG\237\206\354h%dG"
  94      B295BA5D 
  94      0D0DAD2E 
ARM GAS  /tmp/ccmn0Ysq.s 			page 7


  94      4C479F86 
  94      EC682564 
  95 017c 9BD4A9AD 		.ascii	"\233\324\251\255\325\275\205\253\356\364g\364/\273\214"
  95      D5BD85AB 
  95      EEF467F4 
  95      2FBB8C
  96 018b D12BB029 		.ascii	"\321+\260)\246E\302\304(\307\230\2070\251nT\004\346"
  96      A645C2C4 
  96      28C79887 
  96      30A96E54 
  96      04E6
  97 019d 43FCC74F 		.ascii	"C\374\307O@\031Zt\257-\357\367\367\001\202\310\030\307"
  97      40195A74 
  97      AF2DEFF7 
  97      F70182C8 
  97      18C7
  98 01af 7D5E24A1 		.ascii	"}^$\241L\271\374\237\357\343e\310\367\261\262\026\371"
  98      4CB9FC9F 
  98      EFE365C8 
  98      F7B1B216 
  98      F9
  99 01c0 570F640D 		.ascii	"W\017d\015\246\334\231\256F\031\3741Hm\241\177\003\011"
  99      A6DC99AE 
  99      4619FC31 
  99      486DA17F 
  99      0309
 100 01d2 EDD2F2B6 		.ascii	"\355\322\362\266\245\331\026\327x\306\0342s\266\346"
 100      A5D916D7 
 100      78C61C32 
 100      73B6E6
 101 01e1 18B6A359 		.ascii	"\030\266\243Y\2167\333\023v/\007\205\026\307w\341\350"
 101      8E37DB13 
 101      762F0785 
 101      16C777E1 
 101      E8
 102 01f2 4BA8D19C 		.ascii	"K\250\321\234\345\330Z\337@\252?5NG<g\031\027\307Nf"
 102      E5D85ADF 
 102      40AA3F35 
 102      4E473C67 
 102      1917C74E 
 103 0207 7B331019 		.ascii	"{3\020\031\323\207\363\306\211Vq\306\270\243\365\247"
 103      D387F3C6 
 103      895671C6 
 103      B8A3F5A7 
 104 0217 D267D29A 		.ascii	"\322g\322\2329\302\207\363\227\014\315\213\343\331\323"
 104      39C287F3 
 104      970CCD8B 
 104      E3D9D3
 105 0226 F9114EA1 		.ascii	"\371\021N\241G\376@\026\24032\261\014$R\351\001uH\267"
 105      47FE4016 
 105      A03332B1 
 105      0C2452E9 
 105      017548B7 
 106 023a 8D51CBEC 		.ascii	"\215Q\313\354V\017\035\003fA{\326\310\346\254\011\370"
 106      560F1D03 
 106      66417BD6 
 106      C8E6AC09 
ARM GAS  /tmp/ccmn0Ysq.s 			page 8


 106      F8
 107 024b 0D67CC60 		.ascii	"\015g\314`\375"
 107      FD
 108              		.text
 109              		.section	.gnu.lto_chVTSetI.1269c51b466bb9f8,"",%progbits
 110 0000 789C7D52 		.ascii	"x\234}R=O\033A\024\234\331\335\263-\207\202\226\002"
 110      3D4F1B41 
 110      149CD9DD 
 110      B32D8782 
 110      9602
 111 0012 09B94042 		.ascii	"\011\271@B\0129\211\236\177\001\022\224\307\005\331"
 111      0A39899E 
 111      7F011294 
 111      C705D9
 112 0021 27C524B2 		.ascii	"'\305$\262\015\015\005k\313\010J\213\002\004\246\200"
 112      0D0D056B 
 112      CB084A8B 
 112      0204A680 
 113 0031 44A18912 		.ascii	"D\241\211\022\272\024\004\211\217*\024\011Bi\022\245"
 113      BA140489 
 113      8F2A1409 
 113      426912A5 
 114 0041 B93E4991 		.ascii	"\271>I\221\002\211DQ\314\333;\234`\012Vw\357\355\276"
 114      02894451 
 114      CCDB3B9C 
 114      600A5677 
 114      EFEDBE
 115 0054 9B999DF7 		.ascii	"\233\231\235\367t\012\012w\327\230\274\177\010<\224"
 115      740A0A77 
 115      D798BC7F 
 115      083C94
 116 0063 4C0F54AD 		.ascii	"L\017T\255\217@=\247\224n\217\303\346\315e?l\237\246"
 116      8F403DA7 
 116      946E8FC3 
 116      E6CD653F 
 116      6C9FA6
 117 0076 49CB8674 		.ascii	"I\313\206t\033\020KJ\033.M3\021\331W\307q\247\363f\353"
 117      1B104B4A 
 117      1B2E4D33 
 117      11D957C7 
 117      71A7F366 
 118 008b EBE1367F 		.ascii	"\353\3416\177\250\007\212e\302H\240'Ae$\350\034\242"
 118      A8078A65 
 118      C248A027 
 118      416524E8 
 118      1CA2
 119 009d 04EBA169 		.ascii	"\004\353\241imk\010\010\223\343\204D\2478I\345\262>"
 119      6D6B0808 
 119      93E38444 
 119      A73849E5 
 119      B23E
 120 00af 43230714 		.ascii	"C#\007\024\260k\355\332\361f{}\300\3564Z\366o\247\303"
 120      B06BEDDA 
 120      F1667B7D 
 120      C0EE345A 
 120      F66FA7C3 
 121 00c3 880219A1 		.ascii	"\210\002\031\241\343M\311A\015%I\233\336v\212\002\302"
ARM GAS  /tmp/ccmn0Ysq.s 			page 9


 121      E34DC941 
 121      0D25499B 
 121      DE768A02 
 121      C2
 122 00d4 194E45A4 		.ascii	"\031NE\244L\023\3609\013R\375\200\306\301\362\273\375"
 122      4C13F039 
 122      0B52FD80 
 122      C6C1F2BB 
 122      FD
 123 00e5 92FB9E6B 		.ascii	"\222\373\236kc\253nm\177D#`\247\301\276\224+w\307W\337"
 123      63AB6E6D 
 123      7F442360 
 123      A7C1BE94 
 123      2B77C757 
 124 00fa F2FF1CA6 		.ascii	"\362\377\034\246\033{\364v\260\253\023pWf\0242\261^"
 124      1B7BF476 
 124      B0AB1370 
 124      57661432 
 124      B15E
 125 010c A6275724 		.ascii	"\246'W$\264\377\226?\255\367Z\016\370B\034\011\343\036"
 125      B4FF963F 
 125      ADF75A0E 
 125      F8421C09 
 125      E31E
 126 011e CF2204BC 		.ascii	"\317\"\004\274G\363\373\311\317\015\035\360\245\034"
 126      47F3FBC9 
 126      CF0D1DF0 
 126      A51C
 127 012c C5A643F6 		.ascii	"\305\246C\366\000'\251\321\036\327\347h\306\277^\345"
 127      0027A9D1 
 127      1ED7E768 
 127      C6BF5EE5 
 128 013c 531CB088 		.ascii	"S\034\260\210\337v\325u\343\205T\001\367\222\242\033"
 128      DF76D575 
 128      E3855401 
 128      F792A21B 
 129 014c 43C44C97 		.ascii	"C\304L\227g\222\321\236c%\376\374:\233\366p\213\230"
 129      6792D19E 
 129      6325FEFC 
 129      3A9BF670 
 129      8B98
 130 015e 0D45F886 		.ascii	"\015E\370\206TtC\361\212\314D\224\236.P\217\277\214"
 130      547443F1 
 130      8ACC4494 
 130      9E2E508F 
 130      BF8C
 131 0170 7609E99A 		.ascii	"v\011\351\232\220\346E\315\375H\303\376|\265\342W+\241"
 131      90E645CD 
 131      FD48C3FE 
 131      7CB5E257 
 131      2BA1
 132 0182 1F96A299 		.ascii	"\037\226\242\231\350i\325\227\247R\363\243\271\360\311"
 132      E869D597 
 132      A752F3A3 
 132      B9F0C9
 133 0191 FCE359A9 		.ascii	"\374\343Y\251.\324\036\225\240\027j\317\256\001T3\212"
 133      2ED41E95 
ARM GAS  /tmp/ccmn0Ysq.s 			page 10


 133      A0176ACF 
 133      AE015433 
 133      8A
 134 01a2 2D       		.ascii	"-"
 135              		.text
 136              		.section	.gnu.lto_sys1_execute.1269c51b466bb9f8,"",%progbits
 137 0000 789CCD58 		.ascii	"x\234\315XiLTW\024\276\347\316\366\230\005p+\212\210"
 137      694C5457 
 137      14BEE7CE 
 137      F6980570 
 137      2B8A88
 138 0013 C4A6DA18 		.ascii	"\304\246\332\030\343\324\306\244M\232&mL\232\364\007"
 138      E3D4C6A4 
 138      4D9A266D 
 138      4C9AF407 
 139 0023 7F4493F6 		.ascii	"\177D\223\366\227y\216S\230\224\02123\020m\177\370X"
 139      97798E53 
 139      98941132 
 139      33106D7F 
 139      F858
 140 0035 6A311A8B 		.ascii	"j1\032\213\246\270\200\026\250\013\030\253\246\332\210"
 140      A6B88016 
 140      A80B18AB 
 140      A6DA88
 141 0044 22890314 		.ascii	"\"\211\003\024q)\320V\324\332j\235HLS1\0215\215\021"
 141      7129D056 
 141      D4DA6A9D 
 141      484C5331 
 141      11358D11 
 142 0058 ABF4DC7B 		.ascii	"\253\364\334{\337\354\303\314(:\351\013\363\356\343"
 142      DFECC3CC 
 142      283AE90B 
 142      F3EEE3
 143 0067 9CBB9CE5 		.ascii	"\234\273\234\345\373\316}\367QBI\344\325\204\277\326"
 143      FBCE7DF7 
 143      514249E4 
 143      D584BFD6 
 144 0077 2C42DE01 		.ascii	",B\336\001B \235\000\255\355'\244B\242TS3\217(F-\273"
 144      42209D00 
 144      ADED27A4 
 144      42A25453 
 144      338F2846 
 145 008d 9B35A015 		.ascii	"\2335\240\025b-\325q\261\236\213u\240\027b=5p\261\304"
 145      622DD571 
 145      B19E8B75 
 145      A017623D 
 145      3570B1C4 
 146 00a1 C5069084 		.ascii	"\305\006\220\204X\242i\\l\344\34240\012\261\221\232"
 146      58A2695C 
 146      6CE4E234 
 146      300AB191 
 146      9A
 147 00b2 07AD2836 		.ascii	"\007\255(6u\344\242\330\004\026!6\373\037,\000\354\201"
 147      75E4A2D8 
 147      04162136 
 147      FB1F2C00 
 147      EC81
ARM GAS  /tmp/ccmn0Ysq.s 			page 11


 148 00c4 00594735 		.ascii	"\000YG5Z\235\336 \245\031Mf\013\254\373\030\230\305"
 148      5A9DDE20 
 148      A5194D66 
 148      0BACFB18 
 148      98C5
 149 00d6 FA39A459 		.ascii	"\3729\244YQ\266\372z\206|\260S\361V7)\377\216\215\001"
 149      51B6FA7A 
 149      867CB053 
 149      F1563729 
 149      FF8E8D01 
 150 00ea 3800BD9B 		.ascii	"8\000\275\233\013\304\006\344#\374\007\362xC\265\341"
 150      0BC406E4 
 150      23FC07F2 
 150      7843B5E1 
 151 00fa EEB2B1DE 		.ascii	"\356\262\261\336Zo\343\231:P\232*k\225\2478\324\001"
 151      5A6FE399 
 151      3A509A2A 
 151      6B95A738 
 151      D401
 152 010c 1A4AE607 		.ascii	"\032J\346\007G6\211\226N\215\036\212\313\236z\362CN"
 152      47368996 
 152      4E8D1E8A 
 152      CB9E7AF2 
 152      434E
 153 011e F8B2327C 		.ascii	"\370\2622|\0134\211u\225\255\312QEI\343\0035\377\323"
 153      0B348975 
 153      95ADCA51 
 153      4549E303 
 153      35FFD3
 154 0131 7147A8D7 		.ascii	"qG\250\32776v\270~\375\336\016\330E\337\324\342\240"
 154      373676B8 
 154      7EFDDE0E 
 154      D845DFD4 
 154      E2A0
 155 0143 66984324 		.ascii	"f\230C$\265\235F\034\240\315b\267l\224\354C\311Ll\367"
 155      B59D461C 
 155      A0CD62B7 
 155      6C94EC43 
 155      C94C6CF7 
 156 0157 639B836D 		.ascii	"c\233\203m\013\266\263\260m\3056\027;\351f\263\2368"
 156      0BB6B3B0 
 156      6DC53617 
 156      3BE966B3 
 156      9E38
 157 0169 AB8E542B 		.ascii	"\253\216T+Jm\236\230C\206=x'\314\020\274\226\341\235"
 157      4A6D9E98 
 157      43863D78 
 157      27CC10BC 
 157      96E19D
 158 017c 657B399A 		.ascii	"e{9\232\206\255f\200T\371\352\207@\206\003\240#\205"
 158      86AD6680 
 158      54F9EA87 
 158      408603A0 
 158      2385
 159 018e A0FD9C8C 		.ascii	"\240\375\234\214*5J\246\003\3646\340\003pJ\003!\347"
 159      2A354AA6 
 159      03F436E0 
ARM GAS  /tmp/ccmn0Ysq.s 			page 12


 159      03704A03 
 159      21E7
 160 01a0 08155DC4 		.ascii	"\010\025]\304\234\205l\231\001R\355k\3506\0119!\201"
 160      9C856C99 
 160      0152ED6B 
 160      E8360939 
 160      2181
 161 01b2 91920D04 		.ascii	"\221\222\015\004\356\261\227\003\322\330\340J)\230\317"
 161      EEB19703 
 161      D2D8E04A 
 161      2998CF
 162 01c1 7B6D0BC2 		.ascii	"{m\013\302\362i\244dE\"\0301\2311\017\037\372I\345\275"
 162      F269A464 
 162      45221831 
 162      99310F1F 
 162      FA49E5BD 
 163 01d5 BEEEA39B 		.ascii	"\276\356\243\2334\252\213~_\275\017G\357f\242\211\337"
 163      34AA8B7E 
 163      5FBD0F47 
 163      EF66A289 
 163      DF
 164 01e6 715755D9 		.ascii	"qWU\331p]\207)'\360\337\206\001\364G\030k\003\015\376"
 164      705D8729 
 164      27F0DF86 
 164      01F44718 
 164      6B030DFE 
 165 01fa B4F86386 		.ascii	"\264\370c\206#\360\201t\241\010\255\326\010\312\346"
 165      23F08174 
 165      A108ADD6 
 165      08CAE6
 166 0209 928BB05B 		.ascii	"\222\213\260[\331\361\236\003La\313\007\365\227U\275"
 166      D9F19E03 
 166      4C61CB07 
 166      F59755BD 
 167 0219 5918C8C2 		.ascii	"Y\030\310\302\330\030\014\243\224l\030%\021\306\326"
 167      D8180CA3 
 167      946C1825 
 167      11C6D6
 168 0228 F8619462 		.ascii	"\370a\224b\204\361\357\216\2100\312p(!\334\270#$n\034"
 168      84F1EF8E 
 168      8830CA70 
 168      2821DCB8 
 168      23246E1C 
 169 023c 6F3F6271 		.ascii	"o?bq<\031\036\307aSn\000U\001\361\271\301\220\200\352"
 169      3C191EC7 
 169      61536E00 
 169      5501F1B9 
 169      C19080EA 
 170 0250 09879821 		.ascii	"\011\207\230!FLe8\206\017\201\245\3751\224\3418\344"
 170      464C6538 
 170      860F81A5 
 170      FD3194E1 
 170      38E4
 171 0262 0AB3FA49 		.ascii	"\012\263\372I\305\275\276=\007\003\326\010\037\275W"
 171      C5BDBE3D 
 171      0703D608 
 171      1FBD57
ARM GAS  /tmp/ccmn0Ysq.s 			page 13


 172 0271 6E46541C 		.ascii	"nFT\034\204\312\237\220\010+AW~\275\235\036\302\205"
 172      84CA9F90 
 172      082B4157 
 172      7EBD9D1E 
 172      C285
 173 0283 7DE12EF5 		.ascii	"}\341.\365[\254\321.m\274\274\305\020\364I\022>\245"
 173      5BACD12E 
 173      6DBCBCC5 
 173      10F44912 
 173      3EA5
 174 0295 8946188F 		.ascii	"\211F\030\217.\337\212\200\312\250\012\005\213HV6\357"
 174      2EDF8A80 
 174      CAA80A05 
 174      8B485636 
 174      EF
 175 02a6 87C91AE1 		.ascii	"\207\311\032\341.\311\320\311\363\335\305\363\235-4"
 175      2EC9D0C9 
 175      F3DDC5F3 
 175      9D2D34
 176 02b5 D7077F47 		.ascii	"\327\007\177GE\017W\010\273\204\274\275\347\330c\214"
 176      450F5708 
 176      BB84BCBD 
 176      E7D8638C 
 177 02c5 7E2F2AD4 		.ascii	"~/*\324\030\354l\3306#\244r\006\212\212\024'\002|\231"
 177      18EC6CD8 
 177      3623A472 
 177      068A8A14 
 177      27027C99 
 178 02d9 B3E4C7BF 		.ascii	"\263\344\307\277:w7h\304l(b=\323C\273-G?j\346i\022\260"
 178      3A773768 
 178      C46C2862 
 178      3DD343BB 
 178      2D473F6A 
 179 02f1 33695825 		.ascii	"3iX%C\317\276q\351\251\234>\236\313\"\337\033\227\236"
 179      43CFBE71 
 179      E9A99C3E 
 179      9ECB22DF 
 179      1B979E
 180 0304 21500AA5 		.ascii	"!P\012\245c\010\224\204cZ^\333\222\206\225\014\335\011"
 180      63089484 
 180      635A5EDB 
 180      9286950C 
 180      DD09
 181 0316 7D1C0F56 		.ascii	"}\034\017V\373\223\200\325\205g\200\225\014\347\361"
 181      FB9380D5 
 181      85678095 
 181      0CE7F1
 182 0325 A1106646 		.ascii	"\241\020fF\302h\220\243\345\022\207\321\314P\030]\341"
 182      C26890A3 
 182      E51287D1 
 182      CC50185D 
 182      E1
 183 0336 8AFDD130 		.ascii	"\212\375\3210\272\312\025?\371G0DTX\204\030\0051\360"
 183      BACA153F 
 183      F9473044 
 183      54588418 
 183      0531F0
ARM GAS  /tmp/ccmn0Ysq.s 			page 14


 184 0349 A04B351E 		.ascii	"\240K5\036\256%\304\303\325\027\202\007=\307C*\013\350"
 184      AE25C4C3 
 184      D5178207 
 184      3DC7432A 
 184      0BE8
 185 035b 50120574 		.ascii	"P\022\005t\303\225\027U@S\231\263\341\361\267\330s\327"
 185      C3951755 
 185      405399B3 
 185      E1F1B7D8 
 185      73D7
 186 036d 92D86213 		.ascii	"\222\330b\023\347,%\274m\011w\343\216\345\355\030\333"
 186      E72C25BC 
 186      6D0977E3 
 186      8EE5ED18 
 186      DB
 187 037e C1F5EF43 		.ascii	"\301\365\357Cxk\022\031J\300\333\234\000\013U\336\336"
 187      786B1219 
 187      4AC0DB9C 
 187      000B55DE 
 187      DE
 188 038f E72C7CC0 		.ascii	"\347,|\300Y\230\023\312\333\177\270\242%\224\267_\234"
 188      599813CA 
 188      DB7FB8A2 
 188      2594B75F 
 188      9C
 189 03a0 EA46C5C3 		.ascii	"\352F\305\303`\371\2774N\3717\305-\3779\214\354\325"
 189      60F9BF34 
 189      4EF937C5 
 189      2DFF398C 
 189      ECD5
 190 03b2 773AAF36 		.ascii	"w:\2576\250\263\241(\006\335\015\321t\177\271\244x\234"
 190      A8B3A128 
 190      06DD0DD1 
 190      747FB9A4 
 190      789C
 191 03c4 98144A5B 		.ascii	"\230\024J[\333\353,\230\017'N\012\341\244\224\272\255"
 191      DBEB2C98 
 191      0F274E0A 
 191      E1A494BA 
 191      AD
 192 03d5 A0350948 		.ascii	"\2405\011H]x\016H\315\212\204T\025e\310\251\246s\204"
 192      5D780E48 
 192      CD8A8454 
 192      1565C8A9 
 192      A67384
 193 03e8 3208A9F5 		.ascii	"2\010\251\365\\\321\032\015\251\032\256\030\005u\004"
 193      5CD11A0D 
 193      A91AAE18 
 193      057504
 194 03f7 4307DB0A 		.ascii	"C\007\333\012\230\030\0051\260\221\226jll\244Ic\203"
 194      98180531 
 194      B091966A 
 194      6C6CA449 
 194      6383
 195 0409 59FD42B0 		.ascii	"Y\375B\260a\364o\013#7\333\366\252/\357N\300W\360\317"
 195      61F46F0B 
 195      2337DBF6 
ARM GAS  /tmp/ccmn0Ysq.s 			page 15


 195      AA2FEF4E 
 195      C057F0CF 
 196 041d 1C9021CE 		.ascii	"\034\220!\316M\376\327\362\360\022\373\344\253K\335"
 196      4DFED7F2 
 196      F012FBE4 
 196      AB4BDD
 197 042c B0B54A39 		.ascii	"\260\265J9\253T{1\030\263\261;%\373h\242WS';\012\364"
 197      AB547B31 
 197      18B3B13B 
 197      25FB68A2 
 197      5753273B 
 198 0442 91CA133B 		.ascii	"\221\312\023;\206;iT\261\271\261E'\303\327<\014~|\360"
 198      863B6954 
 198      B1B9B145 
 198      27C3D73C 
 198      0C7E7CF0 
 199 0456 D34503A9 		.ascii	"\323E\003\251\257P\330\211 \223\235\015\370S\206\377"
 199      AF50D889 
 199      20939D0D 
 199      F85386FF 
 200 0466 50C79799 		.ascii	"P\307\227\231d\366?eFZ\352m8\2639\264\200\340\300:\232"
 200      64F63F65 
 200      465AEA6D 
 200      38B339B4 
 200      80E0C03A 
 201 047b 28676219 		.ascii	"(gb\031\357\330zK\3740DN>\231\222\003\011c\300d\223"
 201      EFD87A4B 
 201      FC30444E 
 201      3E999203 
 201      0963C064 
 202 0490 2162A6B0 		.ascii	"!b\246\260\203s&\305cq\242i\3041I\330\250\263\201%)"
 202      837326C5 
 202      6371A269 
 202      C43149D8 
 202      A8B38125 
 203 04a5 03A75072 		.ascii	"\003\247Pr<)\003\247De\374%o\252{\350\270\233\352\243"
 203      3C2903A7 
 203      4465FC25 
 203      6FAA7BE8 
 203      B89BEAA3 
 204 04b9 C64D1931 		.ascii	"\306M\0311\352\310\215f\244u3e\251\371\206\337w\361"
 204      EAC88D66 
 204      A4753365 
 204      A9F986DF 
 204      77F1
 205 04cb 7B7D187E 		.ascii	"{}\030~\322\005G\236\177+\036 _\216<m\031\372\003\311"
 205      D205479E 
 205      7F2B1E20 
 205      5F8E3C6D 
 205      19FA03C9 
 206 04df D14AC38E 		.ascii	"\321J\303\216\247Sm\014\033\007\270PE\214\357\326\335"
 206      A7536D0C 
 206      1B07B850 
 206      458CEFD6 
 206      DD
 207 04f0 9F211232 		.ascii	"\237!\0222j\276Y\017),Uj\234\0350-\265G\333#\211\013"
 207      6ABE590F 
ARM GAS  /tmp/ccmn0Ysq.s 			page 16


 207      292C556A 
 207      9C1D302D 
 207      B547DB23 
 208 0506 0DC67C73 		.ascii	"\015\306|s\006\213C\353\304+\015\036\357G*Oz\242\216"
 208      068B43EB 
 208      C42B0D1E 
 208      EF472A4F 
 208      7AA28E
 209 0519 F7AFD804 		.ascii	"\367\257\330\004[E\200\214\030\207\254\220\357\003*"
 209      5B45808C 
 209      1887AC90 
 209      EF032A
 210 0528 7EEBCF98 		.ascii	"~\353\317\230k+j\224\261\261u\317F\335\272\336\250<"
 210      6B2B6A94 
 210      B1B175CF 
 210      46DDBADE 
 210      A83C
 211 053a B0C9BB24 		.ascii	"\260\311\273$V\2030\227'x\014R\011\360\366x\000\357"
 211      56833097 
 211      27780C52 
 211      09F0F678 
 211      00EF
 212 054c 330552A0 		.ascii	"3\005R\240:\276}\373\246,\305\247\370\211\253\245\244"
 212      3ABE7DFB 
 212      A62CC5A7 
 212      F889ABA5 
 212      A4
 213 055d 3D84B892 		.ascii	"=\204\270\222\260\005H\304\345\257\244\267\026\371]"
 213      B00548C4 
 213      E5AFA4B7 
 213      16F95D
 214 056c F41361D2 		.ascii	"\364\023a\322D\211\200U\273\275\347q\343\371\203\331"
 214      44898055 
 214      BBBDE771 
 214      E3F983D9 
 215 057c EC052B37 		.ascii	"\354\005+7\262&\373z\356O\217\205\374\014\365\373\020"
 215      B226FB7A 
 215      EE4F8F85 
 215      FC0CF5FB 
 215      10
 216 058d DB639EF6 		.ascii	"\333c\236\366>\230/\303i\312\366\030\352d\237\205\302"
 216      3E982FC3 
 216      69CAF618 
 216      EA649F85 
 216      C2
 217 059e 6AD5C56D 		.ascii	"j\325\305m\333\236\271R;\331'\242>R\365[U\333\241\310"
 217      DB9EB952 
 217      3BD927A2 
 217      3E52F55B 
 217      55DBA1C8 
 218 05b2 C82BA70E 		.ascii	"\310+\247\016\343~\322\253\206\3414G\362d6\250\020f"
 218      E37ED2AB 
 218      86E13447 
 218      F26436A8 
 218      1066
 219 05c4 A30721DB 		.ascii	"\243\007!\333\005\025j\031\2744\360\342\2202:\236O\212"
 219      05156A19 
ARM GAS  /tmp/ccmn0Ysq.s 			page 17


 219      BC34F0E2 
 219      90323A9E 
 219      4F8A
 220 05d6 8E03A6A0 		.ascii	"\216\003\246\240\023\023\242#\346\261\243\233\003D|"
 220      1313A223 
 220      E6B1A39B 
 220      03447C
 221 05e5 A99B86D1 		.ascii	"\251\233\206\321`$\325\371\005Y\001\206N\267\211}\200"
 221      6024D5F9 
 221      05590186 
 221      4EB7897D 
 221      80
 222 05f6 CF370358 		.ascii	"\3177\003Xg\207\370\262R}'\360\245/\213)\303|_\216o"
 222      6787F8B2 
 222      527D27F0 
 222      A52F8B29 
 222      C37C5F8E 
 223 060b 751DB99A 		.ascii	"u\035\271\232>\3225\034\370\330\307P\261\230\034Sj\330"
 223      3ED2351C 
 223      F8D8C750 
 223      B1981C53 
 223      6AD8
 224 061d C7EF403F 		.ascii	"\307\357@?3\031\264\262~\237\306\357f\341o)\277\020"
 224      3319B4B2 
 224      7E9FC6EF 
 224      66E16F29 
 224      BF10
 225 062f 0830995F 		.ascii	"\0100\231_\313\020A\250`\016\276j-s\273\254n\227\315"
 225      CB1041A8 
 225      600EBE6A 
 225      2D73BBAC 
 225      6E97CD
 226 0642 6A2B72AC 		.ascii	"j+r\254t\224\270\255\036\273\333cuyx\353^\353^h#\032"
 226      7494B8AD 
 226      1EBBDB63 
 226      757978EB 
 226      5EEB5E68 
 227 0658 7CA0E59E 		.ascii	"|\240\345\236EQ]\361\017;\226\226\270<n\353\373K\363"
 227      45515DF1 
 227      0F3B9696 
 227      B83C6EEB 
 227      FB4BF3
 228 066b 97E4AF41 		.ascii	"\227\344\257A\225\255\304e_Q\376\226sa\021\321\225\313"
 228      95ADC465 
 228      5F51FE96 
 228      736111D1 
 228      95CB
 229 067d C565F6C5 		.ascii	"\305e\366\305\261\306\331\327x\254K\362\013>,\260:V"
 229      B1C6D9D7 
 229      78AC4BF2 
 229      0B3E2CB0 
 229      3A56
 230 068f DB8ACB56 		.ascii	"\333\212\313V\331\255|\234\315\371A\331j\033\016\235"
 230      D9AD7C9C 
 230      CDF941D9 
 230      6A1B0E9D 
 231 069f 37CE6281 		.ascii	"7\316b\201\336E\314\266\"\222\231_\2604o\245\354\266"
ARM GAS  /tmp/ccmn0Ysq.s 			page 18


 231      DE45CCB6 
 231      2292995F 
 231      B0346FA5 
 231      ECB6
 232 06b1 97BA1C0B 		.ascii	"\227\272\034\013\362^{\203P\02718\355\316\022\327Z\242"
 232      F25E7B83 
 232      50173138 
 232      EDCE12D7 
 232      5AA2
 233 06c3 77D9DD65 		.ascii	"w\331\335e\305\236\251\371K\013P\263\300\337m\205S^"
 233      C59EA9F9 
 233      4B0B50B3 
 233      C0DF6D85 
 233      535E
 234 06d5 4334EFBA 		.ascii	"C4\357\272\310\334\204k\224{p\011M\271\247T\267\312"
 234      C8DC846B 
 234      947B7009 
 234      4DB9A754 
 234      B7CA
 235 06e7 5E2CAFD5 		.ascii	"^,\257\325\227{>A\3634\245\262\013V\376\007\230a&'"
 235      977B3E41 
 235      F334A5B2 
 235      0B56FE07 
 235      98612627 
 236              		.text
 237              		.section	.gnu.lto_sys3_execute.part.2.1269c51b466bb9f8,"",%progbits
 238 0000 789C8592 		.ascii	"x\234\205\222\317k\023A\024\307\337\233\335M\266\366"
 238      CF6B1341 
 238      14C7DF9B 
 238      DD4DB6F6 
 239 0010 923F40C2 		.ascii	"\222?@\302\242\250\007KWA\360\252\024\204\036riR\320"
 239      A2A8074B 
 239      5741F0AA 
 239      14841E72 
 239      6952D0
 240 0023 53D98E8B 		.ascii	"S\331\216\213YH\232\262\273)-\036:\2159T\360P\204\242"
 240      59489AB2 
 240      BB292D1E 
 240      3A8D3954 
 240      F05084A2 
 241 0037 3D08167F 		.ascii	"=\010\026\177\\\004\225^<\030!*\036zh\213\010\336\324"
 241      5C04955E 
 241      3C18212A 
 241      1E7A688B 
 241      08DED4
 242 004a 5C3C680F 		.ascii	"\\<h\017\245'\261\010\361\315L\262ij\325\331\037\357"
 242      A527B108 
 242      F1CD4CB2 
 242      696AD5D9 
 242      1FEF
 243 005c ED9B37EF 		.ascii	"\355\2337\357}\347\263\303\200\301\301q\232\236\035"
 243      7DE7B3C3 
 243      80C1C171 
 243      9A9E1D
 244 006b 0A7F228B 		.ascii	"\012\177\"\213\026\240\271\264I\216\211LY\206\206\264"
 244      16A0B9B4 
 244      498E894C 
ARM GAS  /tmp/ccmn0Ysq.s 			page 19


 244      598686B4 
 245 007b 0BB68128 		.ascii	"\013\266\201(\035@\2307\231\201\363WP.\306c\260*\304"
 245      1D409837 
 245      9981F357 
 245      502EC663 
 245      B02AC4
 246 008e EDD6D7C7 		.ascii	"\355\326\327\307\257\361\216h.\334\027\277\332m\304"
 246      AFF18E68 
 246      2EDC17BF 
 246      DA6DC4
 247 009d 00A9D149 		.ascii	"\000\251\321I\004\216p\231>\320V\206a\177\347gL\264"
 247      048E7099 
 247      3ED05686 
 247      617FE767 
 247      4CB4
 248 00af DAED95B5 		.ascii	"\332\355\225\265\001\033\301\303U\252\305 P9\026\324"
 248      011BC1C3 
 248      55AAC520 
 248      503916D4 
 249 00bf 85587274 		.ascii	"\205Xrt\020d\031\032\005zK\011\0054\2455\306\221)\273"
 249      1064191A 
 249      057A4B09 
 249      0534A535 
 249      C69129BB 
 250 00d3 0E351BA0 		.ascii	"\0165\033\240#\344\345\356\213\241\025\321\254'B\014"
 250      23E4E5EE 
 250      8BA115D1 
 250      AC27420C 
 251 00e3 06133D21 		.ascii	"\006\023=!\216\026b\366\013\2211\303!g\023j\273\033"
 251      8E1662F6 
 251      0B9131C3 
 251      2167136A 
 251      BB1B
 252 00f5 6FD76E19 		.ascii	"o\327n\031\035\001]%\315\037{;\031\346\341C%\247\023"
 252      1D015D25 
 252      CD1F7B3B 
 252      19E6E143 
 252      25A713
 253 0108 DB5E6E0C 		.ascii	"\333^n\014\036M\276n~&\206\036> \204\034eCF\217\241"
 253      1E4DBE6E 
 253      7E26861E 
 253      3E20841C 
 253      6543468F 
 254 011d 18D1F586 		.ascii	"\030\321\365\206\\\23274\377,|\300{\342\356\205\000"
 254      5C9A3734 
 254      FF2C7CC0 
 254      7BE2EE85 
 254      00
 255 012e CDBEF6BD 		.ascii	"\315\276\366\275\371\217\235yK\013\334\202z\353\325"
 255      F98F9D79 
 255      4B0BDC82 
 255      7AEBD5
 256 013d BB942E7F 		.ascii	"\273\224.\177\015\361:\354\211E\221\0110\305u\011U#"
 256      0DF13AEC 
 256      89459109 
 256      30C57509 
 256      5523
ARM GAS  /tmp/ccmn0Ysq.s 			page 20


 257 014f 6D133E42 		.ascii	"m\023>B\261\016Lgj~\224/c\373!}k\034\200\344\341#%\370"
 257      B10E4C67 
 257      6A7E942F 
 257      63FB217D 
 257      6B1C80E4 
 258 0167 BF94E09F 		.ascii	"\277\224\340\237\224\276\377\224\224\236\367S\332\036"
 258      94BEFF94 
 258      949EF753 
 258      DA1E
 259 0175 CC267FB4 		.ascii	"\314&\177\264\207\353\313>\\j\227\034S\207\020\363\360"
 259      87EBCB3E 
 259      5C6A971C 
 259      538710F3 
 259      F0
 260 0186 093949EB 		.ascii	"\0119I\353.!\017\237bV\313\332\200Z\343F{\331\350\302"
 260      2E210F9F 
 260      6256CBDA 
 260      805AE346 
 260      7BD9E8C2 
 261 019a 616ABF5B 		.ascii	"aj\277[`\351\000@\002k\200c\272\007\313\224\271\001"
 261      60E90040 
 261      026B8063 
 261      BA07CB94 
 261      B901
 262 01ac 1ED155C6 		.ascii	"\036\321U\306\251\276<L\357\351\250\367\266\\\240R\024"
 262      A9BE3C4C 
 262      EFE9A8F7 
 262      B65CA052 
 262      14
 263 01bd 952D8FBB 		.ascii	"\225-\217\273\325(t\243\220\273\274\030L\006\225\310"
 263      D52874A3 
 263      90BBBC18 
 263      4C0695C8 
 264 01cd 8DFD2876 		.ascii	"\215\375(v\303X\331h.\032\346\220\012\375\250Z\212\317"
 264      C358D968 
 264      2E1AE690 
 264      0AFDA85A 
 264      8ACF
 265 01df FE914A37 		.ascii	"\376\221J7%NW\3028r/\216\345Fr\2634\305+\241?1s\276"
 265      254E57C2 
 265      38722F8E 
 265      E54672B3 
 265      34C52BA1 
 266 01f7 3C5C046B 		.ascii	"<\\\004k\306+U\375s\207\255\363gcw$\227\037\315\273"
 266      C62B55FD 
 266      7387ADF3 
 266      67637724 
 266      971FCDBB 
 267 020b C1142F55 		.ascii	"\301\024/U\257\372\256Z\307\313\227\252S\234\226\236"
 267      AFFAAE5A 
 267      C7CB97AA 
 267      539C969E 
 268 021b FA4BB324 		.ascii	"\372K\263$\273(\265\025!\223\313\2179\223^\344O\207"
 268      BB28B515 
 268      2193CB8F 
 268      39935EE4 
 268      4F87
ARM GAS  /tmp/ccmn0Ysq.s 			page 21


 269 022d C19073E2 		.ascii	"\301\220s\342\014\260\020\322e\277\\\011\347\3407l\273"
 269      0CB010D2 
 269      65BF5C09 
 269      E7E0376C 
 269      BB
 270 023e FA12     		.ascii	"\372\022"
 271              		.text
 272              		.section	.gnu.lto_sys3_execute.1269c51b466bb9f8,"",%progbits
 273 0000 789CBD96 		.ascii	"x\234\275\226OH\024Q\034\307\177\2777\177\334\\EY\304"
 273      4F481451 
 273      1CC77FBF 
 273      377FDC5C 
 273      4559C4
 274 0013 532C5B51 		.ascii	"S,[Q]\304)\010\272\026B\320a\011\374\003u\222q\032\334"
 274      5DC42908 
 274      BA1642D0 
 274      6109FC03 
 274      7592711A 
 275 0028 01D79599 		.ascii	"\001\327\225\231]Q:8\352\036\022:H \325\241P\254.FE"
 275      5D513A38 
 275      EA1E123A 
 275      4820D5A1 
 275      50AC2E46 
 276 003d 17CB3CAC 		.ascii	"\027\313<\254E\240\201n%\331\245@\202\016e \236\"\011"
 276      45A0816E 
 276      25D9A540 
 276      820E6520 
 276      9E2209
 277 0050 B6F76666 		.ascii	"\266\367ffgfuG\367 \276\335yo~\357\375\336\373\375\336"
 277      67667547 
 277      F720BEDD 
 277      796F7EEF 
 277      FDDEFBFD 
 278 0065 F77D6676 		.ascii	"\367}fv\011\020\330Y\256\320\213\017\001|\243-V\001"
 278      0910D859 
 278      AED08B0F 
 278      017CA32D 
 278      5601
 279 0077 92F11580 		.ascii	"\222\361\025\200\341\020!\342\232\004f57\027\005\263"
 279      E11021E2 
 279      9A046635 
 279      371705B3 
 280 0087 86732CDE 		.ascii	"\206s,\336\262x\307\022,K@\221MA\021\221\265\2000D8"
 280      B278C712 
 280      2C4B4091 
 280      4D411191 
 280      B5803044 
 281 009c 5E1071E8 		.ascii	"^\020q\350\032\262\000x\034\246L\363\366\372\217\307"
 281      1AB20078 
 281      1CA64CF3 
 281      F6FA8FC7 
 282 00ac 0B78C7CC 		.ascii	"\013x\307\314\015O\232\377\012\005D\015i2\247\020\024"
 282      0D4F9AFF 
 282      0A05440D 
 282      6932A710 
 282      14
 283 00bd 84ABD4C0 		.ascii	"\204\253\324\300\220\325\020,\315\356\031\311\255\027"
ARM GAS  /tmp/ccmn0Ysq.s 			page 22


 283      90D5102C 
 283      CDEE19C9 
 283      AD17
 284 00cb 0A4F5627 		.ascii	"\012OV'\277/b\344\030\0172N\321\365D\240\263C\254\012"
 284      BF2F62E4 
 284      180F324E 
 284      D1F544A0 
 284      B343AC0A 
 285 00df 3B3DB5CC 		.ascii	";=\265\314\250cU\304\351i`F#\253h\021 k\232\3431{\004"
 285      A86355C4 
 285      E9696046 
 285      23AB6811 
 285      206B9AE3 
 286 00f6 584C5ADA 		.ascii	"XLZ\332i\3152\356@\302Zn\011F\250\016N\266\257\267f"
 286      69CD32EE 
 286      40C25A6E 
 286      0946A80E 
 286      4EB6AFB7 
 287 010b 9BEE99B9 		.ascii	"\233\356\231\271\254\233-G\240\323\3136fg\313\227f\313"
 287      AC9B2D47 
 287      A0D3CB36 
 287      6667CB97 
 287      66CB
 288 011d FAB818BD 		.ascii	"\372\270\030\275Y\201\221\255\345\267/nqN\340b\006\271"
 288      598191AD 
 288      E5B72F6E 
 288      714EE062 
 288      06B9
 289 012f 3FDB9BF5 		.ascii	"?\333\233\365D\306\207V\032N\337\306\304|\370\250k-"
 289      44C68756 
 289      1A4EDFC6 
 289      C47CF8A8 
 289      6B2D
 290 0141 ADD03392 		.ascii	"\255\3203\222q\032\005\032\214\005$\364\342,!\351\347"
 290      711A051A 
 290      8C0524F4 
 290      E22C21E9 
 290      E7
 291 0152 0DBDA5E3 		.ascii	"\015\275\245\343\234}\220QX\305\373\346\335\013\032"
 291      9C7D9051 
 291      58C5FBE6 
 291      DD0B1A
 292 0161 F225E1BD 		.ascii	"\362%\341\275\3615g\\\260\023\314Cv\375\301;\321^\276"
 292      F135675C 
 292      B013CC43 
 292      76FDC13B 
 292      D15EBE
 293 0174 1BF91BB0 		.ascii	"\033\371\033\260m\3364\3535\024\025{\011k\215*\244\262"
 293      6DDE34EB 
 293      3514157B 
 293      096B8D2A 
 293      A4B2
 294 0186 51299680 		.ascii	"Q)\226\200\330\236\266n\335\314\245T\244\237\363;D\222"
 294      D89EB66E 
 294      DDCCA554 
 294      A49FF33B 
 294      4492
ARM GAS  /tmp/ccmn0Ysq.s 			page 23


 295 0198 F19195F0 		.ascii	"\361\221\225\360\276*\301\236*\375\372\313Tz^\252\322"
 295      BE2AC19E 
 295      2AFDFACB 
 295      547A5EAA 
 295      D2
 296 01a9 4638EA9E 		.ascii	"F8\352\236\244'W\336'\227\265K\005\3052\212\3118Co\334"
 296      A42757DE 
 296      2797B54B 
 296      05C5328A 
 296      C938436F 
 297 01be D0458564 		.ascii	"\320E\205d|\212Q;\255e\030\231\037\235\236\340\212\342"
 297      7C8A513B 
 297      AD651899 
 297      1F9D9EE0 
 297      8AE2
 298 01d0 88D67EF3 		.ascii	"\210\326~\363 \024;B\256ZG\024\372\244\370\324\242\316"
 298      20143B42 
 298      AE5A4714 
 298      FAA4F8D4 
 298      A2CE
 299 01e2 1A56032C 		.ascii	"\032V\003,B\3667\272\356l\260d\343\0354\366\\t?\316"
 299      42F637BA 
 299      EE6CB064 
 299      E31D34F6 
 299      5C743FCE 
 300 01f6 2A96B012 		.ascii	"*\226\260\022\320^\005\2036\366\271\002\320|\262\371"
 300      D05E0583 
 300      36F6B902 
 300      D07CB2F9 
 301 0206 C1F2C9C6 		.ascii	"\301\362\311\306\220\232\361\220\012\007 E\002\220\012"
 301      909AF190 
 301      0A072045 
 301      02900A
 302 0215 1F2E520B 		.ascii	"\037.R\013\025 5\266v\240H\315zH\325Z\373\365!U\027"
 302      152035B6 
 302      76A048CD 
 302      7A48D55A 
 302      FBF52155 
 303 022a 801461CE 		.ascii	"\200\024a\316\273\221\252+\203\024\017\233\341CE\352"
 303      BB91AA2B 
 303      83140F9B 
 303      E14345EA 
 304 023a FD1EEFAE 		.ascii	"\375\036\357\256/\007\206\324K\017\251H\000R|\000R\221"
 304      2F0786D4 
 304      4B0FA948 
 304      00527C00 
 304      5291
 305 024c C345EA53 		.ascii	"\303E\352S%o\251\257\007\212\324\206\207T\203\265_\037"
 305      256FA9AF 
 305      078AD486 
 305      875483B5 
 305      5F1F
 306 025e 528D0148 		.ascii	"R\215\001Hq\314y7R\215e\220\022\340\003\317\345a4d;"
 306      71CC7937 
 306      528D6590 
 306      12E003CF 
 306      E5613464 
ARM GAS  /tmp/ccmn0Ysq.s 			page 24


 307 0273 01B84B86 		.ascii	"\001\270K\206\025\2468-\032\326\024\275E\353\307\363"
 307      15A6382D 
 307      1AD614BD 
 307      45EBC7F3 
 308 0283 23FDCFE0 		.ascii	"#\375\317\340\255\321NO\237\366\262\344OH\031C\227\014"
 308      ADD14E4F 
 308      9FF6B2E4 
 308      4F481943 
 308      970C
 309 0295 5D919484 		.ascii	"]\221\224\204\326\245\245\014)\255\032iIO[\2551h4+ "
 309      D6A5A50C 
 309      29AD1A69 
 309      494F5BAD 
 309      3168342B 
 310 02aa EAAA91E9 		.ascii	"\352\252\221\351I\237\335\345J\277\324\261/\245\247"
 310      499FDDE5 
 310      4ABFD4B1 
 310      2FA5A7
 311 02b9 0DE9626B 		.ascii	"\015\351bk\274%>@\207\224\224\256v\366\237O6'@\350\227"
 311      BC253E40 
 311      879494AE 
 311      76F69F4F 
 311      362740E8 
 312 02ce 7B32EAB9 		.ascii	"{2\352\271r\363\324\201\264\324\022o\273\334&i\275J"
 312      72F3D481 
 312      B4D4126F 
 312      BBDC2669 
 312      BD4A
 313 02e0 4FE6BA2A 		.ascii	"O\346\272*Y\363\224\344\245L\257B\247\236\016\010\346"
 313      59F394E4 
 313      A54CAF42 
 313      A79E0E08 
 313      E6
 314 02f1 7A27586E 		.ascii	"z'Xn\011\250\217\267\265\306\272dC\355\323\265\246\330"
 314      09A88FB7 
 314      B5C6BA64 
 314      43EDD3B5 
 314      A6D8
 315 0303 C9334074 		.ascii	"\3113@t\250J\252\311\224>\010\377\001\233E\033\327"
 315      A84AAAC9 
 315      943E08FF 
 315      019B451B 
 315      D7
 316              		.text
 317              		.section	.gnu.lto_.symbol_nodes.1269c51b466bb9f8,"",%progbits
 318 0000 789C4DCB 		.ascii	"x\234M\313MN\002A\020\206\341\357\253\232F\234A\344"
 318      4D4E0241 
 318      1086E1EF 
 318      AB9A469C 
 318      41E4
 319 0012 069EC4C3 		.ascii	"\006\236\304\303p\0156E2\211\321\235\0336\376\254\330"
 319      700D3645 
 319      3289D19D 
 319      1B36FEAC 
 319      D8
 320 0023 7B069349 		.ascii	"{\006\223IXH2[\2660\343\277\250D\335b\234N#Mo\336<U"
 320      5848325B 
ARM GAS  /tmp/ccmn0Ysq.s 			page 25


 320      B630E3BF 
 320      A844DD62 
 320      9C4E234D 
 321 003b D502C180 		.ascii	"\325\002\301\200\010O\236i\304y\011\230]\235\365\345"
 321      084F9E69 
 321      C4790998 
 321      5D9DF5E5 
 322 004b 81861DDE 		.ascii	"\201\206\035\336\320d\303\353\323\276<\322tg;\022K\266"
 322      D064C3EB 
 322      D3BE3CD2 
 322      74673B12 
 322      4BB6
 323 005d 5BCA2BCD 		.ascii	"[\312+\315\305\255[\022\316\340\236H\237\027\212\317"
 323      C5AD5B12 
 323      CEE09E48 
 323      9F178ACF 
 324 006d 1BB5093F 		.ascii	"\033\265\011?h\255p:\034\222\357\264\275\250/Z;\352"
 324      68AD703A 
 324      1C92EFB4 
 324      BDA82F5A 
 324      3BEA
 325 007f 9BB61FB5 		.ascii	"\233\266\037\265\242\245Q\237\264,\352\207\326\331J"
 325      A2A5519F 
 325      B42CEA87 
 325      D6D94A
 326 008e 99A158FC 		.ascii	"\231\241X\3746M\221\237,\217T\016P\254\357\251\322A"
 326      364D919F 
 326      2C8F540E 
 326      50ACEFA9 
 326      D241
 327 00a0 EDE79A21 		.ascii	"\355\347\232!\237\373\246(\346\301\343Ep\330\013\252"
 327      9FFBA628 
 327      E6C1E345 
 327      70D80BAA 
 328 00b0 8BE69F1E 		.ascii	"\213\346\237\036\242\270\364\355\242\256n\327\252I7"
 328      A2B8F4ED 
 328      A2AE6ED7 
 328      AA4937
 329 00bf 1C24BDF0 		.ascii	"\034$\275\360\321\375w3o\\O&-\357\374\316\267\207|:"
 329      D1FD7733 
 329      6F5C4F26 
 329      2DEFFCCE 
 329      B7877C3A 
 330 00d3 13EF71E9 		.ascii	"\023\357q\351\233\240*\217\361\007\230?w\261"
 330      9BA02A8F 
 330      F107983F 
 330      77B1
 331              		.text
 332              		.section	.gnu.lto_.refs.1269c51b466bb9f8,"",%progbits
 333 0000 789C25C1 		.ascii	"x\234%\301\301\021\000 \010\003\301\3442\012\224@\377"
 333      C1110020 
 333      0803C1E4 
 333      320A9440 
 333      FF
 334 0011 8DFA7017 		.ascii	"\215\372p\027\241\325\347\340\\\212f\\\304\215<\034"
 334      A1D5E7E0 
 334      5C8A665C 
ARM GAS  /tmp/ccmn0Ysq.s 			page 26


 334      C48D3C1C 
 335 0021 3D085100 		.ascii	"=\010Q\000u"
 335      75
 336              		.text
 337              		.section	.gnu.lto_.decls.1269c51b466bb9f8,"",%progbits
 338 0000 789CB559 		.ascii	"x\234\265Y}t\024\325\025\177o6\037\273\311\202\021\025"
 338      7D7414D5 
 338      157F6F36 
 338      1FBBC982 
 338      1115
 339 0012 E9D14AB4 		.ascii	"\351\321J\264U{\324\222\212\366\264\177\364(\210\037"
 339      557BD492 
 339      8AF6B47F 
 339      F428881F 
 340 0022 E49CDA5A 		.ascii	"\344\234\332Z\"=\236\366\217\355\260;\220\325\315&\356"
 340      223D9EF6 
 340      8FEDB03B 
 340      90D5CD26 
 340      EE
 341 0033 4EA2A83D 		.ascii	"N\242\250=\274\204o\214\032\002\224@ \206j\"-\036\301"
 341      BC846F8C 
 341      1A029440 
 341      20866A22 
 341      2D1EC1
 342 0046 40098496 		.ascii	"@\011\204\226\256|\306\246\266\004\204\310\001\303\036"
 342      AE7CC6A6 
 342      B60484C8 
 342      01C31E
 343 0055 14B02210 		.ascii	"\024\260\"\020\021A\014\222\3367\363fw\346\355\233\335"
 343      11410C92 
 343      DE37F366 
 343      77E6ED9B 
 343      DD
 344 0066 596C7372 		.ascii	"Ylsrw\336\314\334\317\337\275\357\316\233y\022\222\320"
 344      77DECCDC 
 344      CFDFBDEF 
 344      CE9B7912 
 344      92D0
 345 0078 0B2E8486 		.ascii	"\013.\204\206\340\257\375v\204\226\345\"\224\217\020"
 345      E0AFFD76 
 345      8496E522 
 345      948F10
 346 0087 BA0F2807 		.ascii	"\272\017(\007\010N\321*\2405@\367#\375o\030\320[@\353"
 346      084ED12A 
 346      A03540F7 
 346      23FD6F18 
 346      D05B40EB 
 347 009b 813A810E 		.ascii	"\201:\201\016\001\365\003\035\005:\006\364\031\320\031"
 347      01F5031D 
 347      053A06F4 
 347      19D019
 348 00aa A0CF81BE 		.ascii	"\240\317\201\276\004\372\006\010c\246\017\216\305@w"
 348      04FA0608 
 348      63A60F8E 
 348      C54077
 349 00b9 02FD1823 		.ascii	"\002\375\030#\313\337zf\257\015h8\220\227\372\001<\343"
 349      CBDF7A66 
ARM GAS  /tmp/ccmn0Ysq.s 			page 27


 349      AF0D6838 
 349      9097FA01 
 349      3CE3
 350 00cb 185F01E3 		.ascii	"\030_\001\343y\000\316\037\002\232\010\364+\240\311"
 350      7900CE1F 
 350      029A08F4 
 350      2BA0C9
 351 00da 404F00FD 		.ascii	"@O\000\375\026\310\0074\205\323\213\230\277T\376\023"
 351      16C80734 
 351      85D38B98 
 351      BF54FE13 
 352 00ea 93EE3693 		.ascii	"\223\3566\223~\005\350\024\234O\205\343q\224\264G\345"
 352      7E05E814 
 352      9C4F85E3 
 352      7194B447 
 352      E5
 353 00fb A6C1B527 		.ascii	"\246\301\265'\201*\230\315*\240(P\015\326c=\226jN\303"
 353      812A98CD 
 353      2AA02850 
 353      0DD6633D 
 353      966A4EC3 
 354 010f C5C370EB 		.ascii	"\305\303p\3532\331\354\006\232\016rg\341\370\034\034"
 354      32D9EC06 
 354      9A0E7267 
 354      E1F81C1C 
 355 011f 3731FE1C 		.ascii	"71\376\034&\363<\326q\243\370\345\001\355\005z\037\350"
 355      26F33CD6 
 355      71A3F8E5 
 355      01ED057A 
 355      1FE8
 356 0131 00D00740 		.ascii	"\000\320\007@3\340>\341\342\243\370\337\300\305\266"
 356      33E03EE1 
 356      E2A3F8DF 
 356      C0C5B6
 357 0140 05E802B3 		.ascii	"\005\350\002\263\317\307f\216\273\026\353\371\356b\276"
 357      CFC7668E 
 357      BB16EBF9 
 357      EE62BE
 358 014f CDC47ABE 		.ascii	"\315\304z\276\3577\3717\013\216\227\3418\033\353\371"
 358      EF37F937 
 358      0B8E97E1 
 358      381BEBF9 
 359 015f 39CFEC5E 		.ascii	"9\317\354^\313l\033\030\3141a4\237\341S\017\364\012"
 359      CB6C1B18 
 359      CC316134 
 359      9FE1530F 
 359      F40A
 360 0171 5023D052 		.ascii	"P#\320R\240\345X\307\264\005\353\361\322\332h\203\361"
 360      A0E558C7 
 360      B405EBF1 
 360      D2DA6883 
 360      F1
 361 0182 1AACD70A 		.ascii	"\032\254\327\012\224\"Z\013\343u\2028i\215\025\262\270"
 361      94225A0B 
 361      E3758238 
 361      698D15B2 
 361      B8
ARM GAS  /tmp/ccmn0Ysq.s 			page 28


 362 0193 44397C9B 		.ascii	"D9|\233\371'a\335W\303O7\2235\373\207M>~)\310\037\255"
 362      F92761DD 
 362      57C34F37 
 362      9335FB87 
 362      4D3E7E29 
 363 01aa E56159DA 		.ascii	"\345aY\332\352\200\343\021&\357a:\322\331\354\027\330"
 363      EA80E311 
 363      26EF613A 
 363      D2D9EC17 
 363      D8
 364 01bb F5A07984 		.ascii	"\365\240y\204\324\221\3269db\367pZ\3262\036\356A\305"
 364      D491D639 
 364      6462F770 
 364      5AD6321E 
 364      EE41C5
 365 01ce DAC0EBD1 		.ascii	"\332\300\353\321\312\344V\364:!\015\361c\313\257#92"
 365      CAE456F4 
 365      3A210DF1 
 365      63CBAF23 
 365      3932
 366 01e0 5E853D30 		.ascii	"^\205=0\205K0\272\003\375\211\300uB\376x\323\267\322"
 366      854B30BA 
 366      03FD89C0 
 366      7542FE78 
 366      D3B7D2
 367 01f3 BB70CEEB 		.ascii	"\273p\316\353w\021\342\226q\233\246\331\217\221\214"
 367      7711E296 
 367      719BA6D9 
 367      8F918C
 368 0202 5FC77764 		.ascii	"_\307wd\255g\363\356\035\013\361LB\340\306jM\323rlU"
 368      AD67F3EE 
 368      1D0BF14C 
 368      42E0C66A 
 368      4DD3726C 
 369 0217 25E37C8F 		.ascii	"%\343|\217\331E\355\334`\240\372\264\333l@\373\323U"
 369      D945EDDC 
 369      60A0FAB4 
 369      DB6C40FB 
 369      D355
 370 0229 E8FFCC5E 		.ascii	"\350\377\314^\210\026$\203\033\211\226\000\236\364\204"
 370      88162483 
 370      1B899600 
 370      9EF484
 371 0238 6055C6F7 		.ascii	"`U\306\367]'\014\226*~\023\217\324F.\010R\273p\177!"
 371      5D270C96 
 371      2A7E138F 
 371      D4462E08 
 371      52BB707F 
 372 024d FC4C7625 		.ascii	"\374Lv%l\333\011\256\301\205fDF\243\026\022\033\210"
 372      6CDB09AE 
 372      C1856644 
 372      46A31612 
 372      1B88
 373 025f 37F76CFC 		.ascii	"7\367l\374\3562\022\233E\206\206f0\355\022z\227\003"
 373      EE32129B 
 373      45868666 
 373      30ED127A 
ARM GAS  /tmp/ccmn0Ysq.s 			page 29


 373      9703
 374 0271 EFFBE835 		.ascii	"\357\373\3505B\032\311\347\201\211\2329\011\375Kcx\013"
 374      421AC9E7 
 374      81899A39 
 374      09FD4B63 
 374      780B
 375 0283 8F165AD3 		.ascii	"\217\026Z\323\230\340\3576\324F\203\332B\036\033\245"
 375      98E0EF36 
 375      D44683DA 
 375      421E1BA5 
 376 0293 8584988C 		.ascii	"\205\204\230\214\005\250\265X2_\320\335\212\035\330"
 376      05A8B558 
 376      325FD0DD 
 376      8A1DD8
 377 02a2 ED6DA88D 		.ascii	"\355m\250\215\017\015\215v\016\314\006\006L\022\014"
 377      0F0D8D76 
 377      0ECC0606 
 377      4C120C
 378 02b1 09EDE102 		.ascii	"\011\355\341\002I\370DV\023W\302\247\365\274O\177\021"
 378      49F84456 
 378      1357C2A7 
 378      F5BC4F7F 
 378      11
 379 02c2 F9141F7C 		.ascii	"\371\024\037|\371\370.\3348\223t\223\001H q;wm\2235"
 379      F9F82EDC 
 379      38937493 
 379      01482071 
 379      3B776D93 
 380 02d7 6796CC8F 		.ascii	"g\226\314\217@\013\251\226bS\201\267bC\001mz\254\302"
 380      400BA996 
 380      625381B7 
 380      6243016D 
 380      7AACC2
 381 02ea DBCE76E7 		.ascii	"\333\316v\347h3e\013\036\001jfI\326\3102\252\221\320"
 381      6833650B 
 381      1E016A66 
 381      49D6C832 
 381      AA91D0
 382 02fd 624D642B 		.ascii	"bMd+\210\353\202\232b\022o\336wj6\256\325\246\016\275"
 382      88EB829A 
 382      62126FDE 
 382      776A36AE 
 382      D5A60EBD 
 383 0311 8738C04C 		.ascii	"\2078\300L\1777\243V\360;\266y\351\312\357\220\326m"
 383      7F37A356 
 383      F03BB679 
 383      E9CAEF90 
 383      D66D
 384 0323 C0DF85B5 		.ascii	"\300\337\205\265bH\350\025\305\317\206\226\332\264\352"
 384      6248E815 
 384      C5CF8696 
 384      DAB4EA
 385 0332 EBEAF336 		.ascii	"\353\352\3636\310\206\262\003Y++\266(\373[\337\012\346"
 385      C886B203 
 385      592B2BB6 
 385      28FB5BDF 
 385      0AE6
ARM GAS  /tmp/ccmn0Ysq.s 			page 30


 386 0344 9CDEABFA 		.ascii	"\234\336\253\372\235\350s\333;\267\225:gI\230>I\322"
 386      9DE873DB 
 386      3BB7953A 
 386      6749983E 
 386      49D2
 387 0356 F4A2D967 		.ascii	"\364\242\331gb\222\226\251n-\242\023\022\337\211\350"
 387      629296A9 
 387      6E2DA213 
 387      12DF89E8 
 388 0366 4CB4D41B 		.ascii	"L\264\324\03375%4\220\265\327\026\024 \247\347\332\360"
 388      37352534 
 388      90B5D716 
 388      1420A7E7 
 388      DAF0
 389 0378 2228D51F 		.ascii	"\"(\325\037\261\011\373\225\023\205E\002\030D\177\346"
 389      B109FB95 
 389      13854502 
 389      18447FE6 
 390 0388 2292710C 		.ascii	"\"\222q\014\337\012\277\357\340\233\341w\273\366\273"
 390      DF0ABFEF 
 390      E09BE177 
 390      BBF6BB
 391 0397 53FBDDAD 		.ascii	"S\373\335\255\375\376\023~\023\177v\363\243+\011H\242"
 391      FDFE137E 
 391      137F76F3 
 391      A32B0948 
 391      A2
 392 03a8 ADD1F499 		.ascii	"\255\321\364\231\317\273u\036s\333C\346\311\256\341"
 392      CFBB751E 
 392      73DB43E6 
 392      C9AEE1
 393 03b7 3624891A 		.ascii	"6$\211\032\027\235\271\307\361\222\231d\242Qe\363\\"
 393      179DB9C7 
 393      F1929964 
 393      A25165F3 
 393      5C
 394 03c8 94AFD3B6 		.ascii	"\224\257\323\266\177i\016\261\2567\250L4\212\251>\203"
 394      7F690EB1 
 394      AE37A84C 
 394      348AA93E 
 394      83
 395 03d9 98E6B32E 		.ascii	"\230\346\263.\026kn~\003\012Q2\252\2401\203h\267\311"
 395      166B6E7E 
 395      030A5132 
 395      AAA03183 
 395      68B7C9
 396 03ec E241C5E8 		.ascii	"\342A\305\350\263\3132H\231\373llY\363\310\005\277K"
 396      B3CB3248 
 396      99FB6C6C 
 396      59F3C805 
 396      BF4B
 397 03fe 34B54EBE 		.ascii	"4\265N\276\251\365\012\233Zs\317\256^\274\320hj\254"
 397      A9F50A9B 
 397      5A73CFAE 
 397      5EBCD068 
 397      6AAC
 398 0410 8D4A68A5 		.ascii	"\215Jh\245\313I\343<\304\3338,l\346\033\376Q\357\316"
ARM GAS  /tmp/ccmn0Ysq.s 			page 31


 398      CB49E33C 
 398      C4DB382C 
 398      6CE61BFE 
 398      51EFCE
 399 0423 B69B1F11 		.ascii	"\266\233\037\021t\363?\213\235j\260:\325\317;\025\027"
 399      74F33F8B 
 399      9D6AB03A 
 399      D5CF3B15 
 399      17
 400 0434 39453A08 		.ascii	"9E:\010\361\300Co\210HF\314[\035\305|\224W\377Q\252"
 400      F1C0436F 
 400      884846CC 
 400      5B1DC57C 
 400      9457FF51 
 401 0449 FA7843BC 		.ascii	"\372xC\274\263\345\303Y\200k+\303\325y\340\307\255\317"
 401      B3E5C359 
 401      806B2BC3 
 401      D579E0C7 
 401      ADCF
 402 045b 0AE74BA0 		.ascii	"\012\347K\240\276#\273{\331\022\350\023\255Z\327\345"
 402      BE23BB7B 
 402      D912E813 
 402      AD5AD7E5 
 403 046b F08DA70D 		.ascii	"\360\215\247\015g\275\006\342&\330\346\034\036#]\321"
 403      67BD06E2 
 403      26D8E61C 
 403      1E235DD1 
 404 047b 493108FD 		.ascii	"I1\010\375\207w\330\203@\275\264C\341\224 \375\357\331"
 404      8777D883 
 404      40BDB443 
 404      E19420FD 
 404      EFD9
 405 048d D83E2DB4 		.ascii	"\330>-\264=\370\362\345:\223m\375!,\241\217m\224\014"
 405      3DF8F2E5 
 405      3A936DFD 
 405      212CA18F 
 405      6D940C
 406 04a0 8894C42E 		.ascii	"\210\224\304.\365\324\023\234m\351\236\345Wh]\270\220"
 406      F5D4139C 
 406      6DE99EE5 
 406      57685DB8 
 406      90
 407 04b1 C7F18C8D 		.ascii	"\307\361\214\215\033\347\204\261|ub\317\015\313\310"
 407      1BE784B1 
 407      7C7562CF 
 407      0DCBC8
 408 04c0 367D9166 		.ascii	"6}\221fq\304\215\346\322\362\210\317&\265\370\351Dy"
 408      71C48DE6 
 408      D2F288CF 
 408      26B5F8E9 
 408      4479
 409 04d2 B80D97E8 		.ascii	"\270\015\227\350;\215\376\230\207I\002\205~\001\273"
 409      3B8DFE98 
 409      87490285 
 409      7E01BB
 410 04e1 E9E4CE15 		.ascii	"\351\344\316\025\274\263\352\366)\003\375\243\362\372"
 410      BCB3EAF6 
ARM GAS  /tmp/ccmn0Ysq.s 			page 32


 410      2903FDA3 
 410      F2FA
 411 04ef D81861FB 		.ascii	"\330\030a\373\366}\236\0178\327\223\0343\215\\\374\257"
 411      F67D9E0F 
 411      38D7931C 
 411      338D5CFC 
 411      AF
 412 0500 E58AE3BF 		.ascii	"\345\212\343\277$\214\177\317\311\201;\304\361\247M"
 412      248C7FCF 
 412      C9813BC4 
 412      F1A74D
 413 050f C465DE2F 		.ascii	"\304e\336/\332\2379G\016\3338B$\221#\033\373\373r\354"
 413      DA9F3947 
 413      0EDB3842 
 413      2491231B 
 413      FBFB72EC 
 414 0523 1CA181DA 		.ascii	"\034\241\201\332yR'\245\"\3049r\302\306\221YVGnA\253"
 414      795227A5 
 414      22C43972 
 414      C2C69159 
 414      56476E41 
 415 0538 C8BA58BC 		.ascii	"\310\272X\274\371\305\323{\361b\002m\233\304\206\206"
 415      F9C5D37B 
 415      F162026D 
 415      9BC48686 
 416 0548 F0E8AB51 		.ascii	"\360\350\253Q\003[\376%\326*\261\344\342\022\326\004"
 416      035BFE25 
 416      D62AB1E4 
 416      E212D604 
 417 0558 D8D43D48 		.ascii	"\330\324=HbaX\244\231\276\004\246\005\353G+\233\214"
 417      626158A4 
 417      99BE04A6 
 417      05EB472B 
 417      9B8C
 418 056a E7832732 		.ascii	"\347\203'2^ q\353\307\213'>\230\313\326\217\364^\346"
 418      5E2071EB 
 418      C78B273E 
 418      98CBD68F 
 418      F45EE6
 419 057d F5E3C56F 		.ascii	"\365\343\305o\2721i\364Z\026U\254\315\305\333b\243\232"
 419      BA3169F4 
 419      5A1655AC 
 419      CDC5DB62 
 419      A39A
 420 058f 8667AAE3 		.ascii	"\206g\252\343\0043\0315J\314+\343W$\272*i\220\364\206"
 420      04331935 
 420      4ACC2BE3 
 420      5724BA2A 
 420      6990F486 
 421 05a3 476FE963 		.ascii	"Go\351cc4\204i\344\263\363lgBzQ\273D\277$%V2\022Z\220"
 421      63348469 
 421      E4B3F36C 
 421      67427A51 
 421      BB44BF24 
 422 05bd 87196057 		.ascii	"\207\031`W\2660\036\374O*P\372\303\312\316\374b\263"
 422      B6301EFC 
 422      4F2A50FA 
ARM GAS  /tmp/ccmn0Ysq.s 			page 33


 422      C3CACEFC 
 422      62B3
 423 05cf F957B236 		.ascii	"\371W\2626_l1\177I\241\313G\252RBK\234\350J\263\214"
 423      5F6C317F 
 423      49A1CB47 
 423      AA52424B 
 423      9CE84AB3 
 424 05e4 BE6CD2D5 		.ascii	"\276l\322\325\222\265\256\342\224\354\350\025&\343z"
 424      92B5AEE2 
 424      94ECE815 
 424      26E37A
 425 05f3 892E3217 		.ascii	"\211.2\027i\277\177\320~\233\244\214\013N\016\320y6"
 425      69BF7FD0 
 425      7E9BA48C 
 425      0B4E0ED0 
 425      7936
 426 0605 9E50FDCB 		.ascii	"\236P\375\313\245B\316\266pr \224\234\200\272\220\015"
 426      A542CEB6 
 426      70722094 
 426      9C80BA90 
 426      0D
 427 0616 9B8C9BA5 		.ascii	"\233\214\233\245\253\265\221V\304$\341\204\327\376Y"
 427      ABB59156 
 427      C424E184 
 427      D7FE59
 428 0625 B8C25489 		.ascii	"\270\302T\211^Or\3402y\225\344\002\200\333\363\214V"
 428      5E4F72E0 
 428      327995E4 
 428      0280DBF3 
 428      8C56
 429 0637 62EBC54A 		.ascii	"b\353\305J\326U\356E\353\311\274\3308\031\317\001\267"
 429      D655EE45 
 429      EBC9BCD8 
 429      3819CF01 
 429      B7
 430 0648 12997B1E 		.ascii	"\022\231{\036}M\232\340\315\260\347\364X=\032\332u\006"
 430      7D4D9AE0 
 430      CDB0E7F4 
 430      583D1ADA 
 430      7506
 431 065a F6C49AE7 		.ascii	"\366\304\232\347\256\304\244\265\216\220\313\320st\340"
 431      AEC4A4B5 
 431      8E90CBD0 
 431      7374E0
 432 0669 24F47666 		.ascii	"$\364vfk\253\300\332M\250+o%q[\255\316\323\232\011M"
 432      6BABC0DA 
 432      4DA82B6F 
 432      25715BAD 
 432      CED39A09 
 433 067e A26E32B6 		.ascii	"\242n2\266r7\266d\307\200\265i\270>\367\230\211M\011"
 433      7237B664 
 433      C780B569 
 433      B83EF798 
 433      894D09
 434 0691 13D73313 		.ascii	"\023\3273\023\355Y\303\372\206\015\254#\323\326\016"
 434      ED59C3FA 
 434      860DAC23 
ARM GAS  /tmp/ccmn0Ysq.s 			page 34


 434      D3D60E
 435 06a0 2CA29225 		.ascii	",\242\222%q\023\352\201\230\232\306%\315\353\265H%\364"
 435      7113EA81 
 435      989AC625 
 435      CDEBB548 
 435      25F4
 436 06b2 A9A857A5 		.ascii	"\251\250W\245\371\274\211\005;\217\304:\362\365\313"
 436      F9BC8905 
 436      3B8FC43A 
 436      F2F5CB
 437 06c1 D68534B3 		.ascii	"\326\2054\263\213\015H\376Zh\311\301\005Q\016>\312\234"
 437      8B0D48FE 
 437      5A68C9C1 
 437      05510E3E 
 437      CA9C
 438 06d3 8337F98C 		.ascii	"\2037\371\214\247`\177\321\031\366\361\204\352\033\231"
 438      A7607FD1 
 438      19F6F184 
 438      EA1B99
 439 06e2 EA755963 		.ascii	"\352uYc\377\266\015\3667d\300~\255\031\373\317\030\366"
 439      FFB60DF6 
 439      3764C07E 
 439      AD19FBCF 
 439      18F6
 440 06f4 EBAE04FB 		.ascii	"\353\256\004\373\313\011\354\327\247b/\031\220l\265"
 440      CB09ECD7 
 440      A7622F19 
 440      906CB5
 441 0703 62BFE445 		.ascii	"b\277\344E\001\366\363\3633b\2771#\366K{\034a\337\220"
 441      01F6F3F3 
 441      3362BF31 
 441      23F64B7B 
 441      1C61DF90 
 442 0717 503D82A9 		.ascii	"P=\202\251\356\312\032\373-6\330_\235\001\373\315f\354"
 442      EECA1AFB 
 442      2D36D85F 
 442      9D01FBCD 
 442      66EC
 443 0729 1BF375EC 		.ascii	"\033\363u\354\273\256\004\373\025\205\006\366GS\261"
 443      BBAE04FB 
 443      158506F6 
 443      4753B1
 444 0738 776903A3 		.ascii	"wi\003\243\3572\034Z\307q@\024\031\336I\314\374\326"
 444      EF321C5A 
 444      C7714014 
 444      19DE49CC 
 444      FCD6
 445 074a AC71F8BB 		.ascii	"\254q\370\273\015\016\306\212\300&\005?5\370\362\231"
 445      0D0EC68A 
 445      C026053F 
 445      35F8F299 
 446 075a 9E58D696 		.ascii	"\236X\326\226\337\261\261\234\307,\263W\363\316\226"
 446      DFB1B19C 
 446      C72CB357 
 446      F3CE96
 447 0769 1D3B93DF 		.ascii	"\035;\223\337\033[\335\306{j[\276\223\367\324m\022\367"
 447      1B5BDDC6 
ARM GAS  /tmp/ccmn0Ysq.s 			page 35


 447      7B6A5BBE 
 447      93F7D46D 
 447      12F7
 448 077b 9EBA3D75 		.ascii	"\236\272=uE\013F\336\037\214\3150\276\377\336lX\370"
 448      450B46DE 
 448      1F8CCD30 
 448      BEFFDE6C 
 448      58F8
 449 078d D891859D 		.ascii	"\330\221\205\235\274\205]B\013\373\206b\365x\341\332"
 449      BC855D42 
 449      0BFB8662 
 449      F578E1DA 
 450 079d 3984BE47 		.ascii	"9\204\276G\315x5\326\220\343|\005\377.\277nnK]\301\267"
 450      CD7835D6 
 450      90E37C05 
 450      FF2EBF6E 
 450      6E4B5DC1 
 451 07b2 BBCDCE6A 		.ascii	"\273\315\316j\234\022\332\340fid\237Tzwy\033\260\261"
 451      9C12DAE0 
 451      6669649F 
 451      547A7779 
 451      1BB0B1
 452 07c5 CBB04D93 		.ascii	"\313\260M\223\350\226\354\276\252\260\327"
 452      E896ECBE 
 452      AAB0D7
 453 07d0 6416F317 		.ascii	"d\026\363\027\265\246\317\327\335|\314=\242\230c\035"
 453      B5A6CFD7 
 453      DD7CCC3D 
 453      A298631D 
 454 07e0 07F4CFD7 		.ascii	"\007\364\317\3274Z\003\324\356T?e\374^R\\\004q/on\257"
 454      345A03D4 
 454      EE543F65 
 454      FC5E525C 
 454      04712F6F 
 455 07f6 10E2CEFE 		.ascii	"\020\342\316\3763;D\225\262\337\355$\217\373y#\007l"
 455      333B4495 
 455      B2DFED24 
 455      8FFB7923 
 455      076C
 456 0808 2A65E0F7 		.ascii	"*e\340\367)\225r\324\221\205\017x\013\007m*%\376\233"
 456      299572D4 
 456      91850F78 
 456      0B076D2A 
 456      25FE9B
 457 081b 8B1D84CC 		.ascii	"\213\035\204\314\207\376:\243vV\302\310\231+@\356\020"
 457      87FE3AA3 
 457      7656C2C8 
 457      992B40EE 
 457      10
 458 082c 6FF2B00D 		.ascii	"o\362\260\015r\377\026\316\261o\034\305u\2047\022\267"
 458      72FF16CE 
 458      B16F1CC5 
 458      75843712 
 458      B7
 459 083d 436E5EF2 		.ascii	"Cn^\362\033[\322\310|\217\243\017N\274\221\217\254F"
 459      1B5BD2C8 
 459      7C8FA30F 
ARM GAS  /tmp/ccmn0Ysq.s 			page 36


 459      4EBC918F 
 459      AC46
 460 084f B8D5ECA9 		.ascii	"\270\325\354\2514\257\007\307\222-\234\223:\236F\352"
 460      34AF07C7 
 460      922D9C93 
 460      3A9E46EA 
 461 085f 78528A05 		.ascii	"xR\212\005\264\261eg^J),q\024\315\011>\232Ol \353~>"
 461      B4B16567 
 461      5E4A292C 
 461      7114CD09 
 461      3E9A4F6C 
 462 0877 C542BB23 		.ascii	"\305B\273#\013\237\362\026N\012\247\350W\207\214)Zd"
 462      0B9FF216 
 462      4E0AA7E8 
 462      57878C29 
 462      5A64
 463 0889 E8DFEC48 		.ascii	"\350\337\354H\377)^\377ia\004\033[\372R1\332\356\310"
 463      FF295EFF 
 463      6961041B 
 463      5BFA5231 
 463      DAEEC8
 464 089c C2006FE1 		.ascii	"\302\000o\341s\033\214\342/\244X8\340\310\302\027\274"
 464      731B8CE2 
 464      2FA45838 
 464      E0C8C217 
 464      BC
 465 08ad 8573428C 		.ascii	"\205sB\2146\364\247`t\322\221\376\363\274\376\013ik"
 465      36F4A760 
 465      74D291FE 
 465      F3BCFE0B 
 465      696B
 466 08bf F66C9AEA 		.ascii	"\366l\232\352\273h[\263\233\322H}\235R\263_\277|!\327"
 466      BB685BB3 
 466      9BD2487D 
 466      9D52B35F 
 466      BF7C21D7 
 467 08d3 84D6592D 		.ascii	"\204\326Y-\232\013\\4\306\323B\231h|\265\333\207\351"
 467      9A0B5C34 
 467      C6D34299 
 467      687CB5DB 
 467      87E9
 468 08e5 478F41DB 		.ascii	"G\217A\333g\005\333\272` \0344ou\016\362 \\\262\202"
 468      6705DBBA 
 468      60201C34 
 468      6F750EF2 
 468      205CB282 
 469 08f9 703B6AD7 		.ascii	"p;j\327\366\337z\316\215X\326\340\266\354\202\230\031"
 469      F6DF7ACE 
 469      8D58D6E0 
 469      B6EC8298 
 469      19
 470 090a 48476B91 		.ascii	"HGk\221\340\246\315\362d\224\365\355P\306\265\256l\227"
 470      E0A6CDF2 
 470      6494F5ED 
 470      50C6B5AE 
 470      6C97
 471 091c 27752EF1 		.ascii	"'u.\361\362\304p\236K\003\335\271\260S5\323e\227\274"
ARM GAS  /tmp/ccmn0Ysq.s 			page 37


 471      F2C4709E 
 471      4B03DDB9 
 471      B05335D3 
 471      6597BC
 472 092f CB699237 		.ascii	"\313i\2227\313V\352|\032\251\331.>\345\235-\037\012"
 472      CB56EA7C 
 472      1AA9D92E 
 472      3EE59D2D 
 472      1F0A
 473 0941 9B7B5D81 		.ascii	"\233{]\201\223\032\236\343\342\3227\327%\232#+\372R"
 473      931A9EE3 
 473      E2D237D7 
 473      259A232B 
 473      FA52
 474 0953 E648BD23 		.ascii	"\346H\275#\375\363y\375\013\204\372\233R\373T\223#\375"
 474      FDF379FD 
 474      0B84FA9B 
 474      52FB5493 
 474      23FD
 475 0965 F5BCFE97 		.ascii	"\365\274\376\227D\372\343\373\007\007\202\233\222\017"
 475      44FAE3FB 
 475      0707829B 
 475      920F
 476 0973 5DAC3F41 		.ascii	"]\254?A$\264Vl\244\216t\254&\036\375\343\275\366\235"
 476      24B4566C 
 476      A48E74AC 
 476      261EFDE3 
 476      BDF69D
 477 0986 CD259E19 		.ascii	"\315%\236\031\314f\203\320\346\276\241\356\005\2707"
 477      CC6683D0 
 477      E6BEA1EE 
 477      05B837
 478 0995 CD92B02D 		.ascii	"\315\222\260-\315\326\300\"W\352\326\300\366\002\007"
 478      CDD6C022 
 478      57EAD6C0 
 478      F60207
 479 09a4 2B04C3F5 		.ascii	"+\004\303\3656\346zcz\327\027\013]\357l\371r\227\250"
 479      36E67A63 
 479      7AD7170B 
 479      5DEF6CF9 
 479      7297A8
 480 09b7 A67A1DE5 		.ascii	"\246z\035\345d)\237\223&\201\221=\320\253\366\273Rz"
 480      64299F93 
 480      2681913D 
 480      D0ABF6BB 
 480      527A
 481 09c9 D5A705C2 		.ascii	"\325\247\005\302^u\220\357U\313m\302J\333\253\226\363"
 481      5E7590EF 
 481      55CB6DC2 
 481      4ADBAB96 
 481      F3
 482 09da 8E350B8B 		.ascii	"\2165\013\213\261\321\374@\3207T.\212\335\332\302\273"
 482      B1D1FC40 
 482      D037542E 
 482      8ADDDAC2 
 482      BB
 483 09eb D592DE2D 		.ascii	"\325\222\336-&v\321\330l\205ei\0061\363f\353\222\376"
ARM GAS  /tmp/ccmn0Ysq.s 			page 38


 483      2676D1D8 
 483      6C856569 
 483      0631F366 
 483      EB92FE
 484 09fe F6E466AB 		.ascii	"\366\344f\253\214\3732\210\2327[\373\330f+,J3HY6[\027"
 484      8CFB3288 
 484      9A375BFB 
 484      D8662B2C 
 484      4A334859 
 485 0a15 B598375B 		.ascii	"\265\2307[[x\370^\025\302\2678\331+\262\330<hwe\336"
 485      5B78F85E 
 485      15C2B738 
 485      D92BB2D8 
 485      3C687765 
 486 0a2a 4FAA2D14 		.ascii	"O\252-\024fa\037\237\2056G\305QG\016\036\246\305\241"
 486      66611F9F 
 486      853647C5 
 486      51470E1E 
 486      A6C5A1
 487 0a3d EFDD58A4 		.ascii	"\357\335X\244,\237\331\231\203\253EE\034\333{\300T+"
 487      2C9FD999 
 487      83AB4545 
 487      1CDB7BC0 
 487      542B
 488 0a4f 340609BD 		.ascii	"4\006\011\275$\366r?\357\345\232+\362rMz/\337t\375\017"
 488      24F6723F 
 488      EFE59A2B 
 488      F2724D7A 
 488      2FDF74FD 
 489 0a64 9FBEDC73 		.ascii	"\237\276\334s\211\356\357\330~\353\262}\232\035I\363"
 489      89EEEFD8 
 489      7EEBB27D 
 489      9A1D49F3 
 490 0a74 34EB484A 		.ascii	"4\353HJ\241\273J\252\243\221\222h\304_\342/\017N\011"
 490      A1BB4AAA 
 490      A3919268 
 490      C45FE22F 
 490      0F4E09
 491 0a87 56464BE0 		.ascii	"VFK\340?\242\226\004\303\376Pu@\201\253\321\351Quz\225"
 491      3FA29604 
 491      C3FE5075 
 491      4081ABD1 
 491      E951757A 
 492 0a9c 121D538E 		.ascii	"\022\035S\216<t\034\254P|j\336#\277\230\\<\001\335\242"
 492      3C741CAC 
 492      507C6ADE 
 492      23BF985C 
 492      3C01DDA2 
 493 0ab0 491BBC61 		.ascii	"I\033\274a\345\231PpJ\0110\225\370\242j \030VA\306]"
 493      E5995070 
 493      4A093095 
 493      F8A26A20 
 493      185641C6 
 494 0ac5 0DC77BC6 		.ascii	"\015\307{\306\372\324\037\212x+d0\033VJ|\001e\252\\"
 494      FAD41F8A 
 494      782B6430 
 494      1B564A7C 
ARM GAS  /tmp/ccmn0Ysq.s 			page 39


 494      0165AA5C 
 495 0ad9 1D527D86 		.ascii	"\035R}\206\251\002\237\317\020\374^\212\213\252\022"
 495      A9029FCF 
 495      10FC5E8A 
 495      8BAA12
 496 0ae8 55A993F4 		.ascii	"U\251\223\364\010\326\306\370QN\215\352\237\202\253"
 496      08D6C6F8 
 496      514E8DEA 
 496      9F82AB
 497 0af7 BC7036D6 		.ascii	"\274p6\326\247<\253\370\253U\345\266\214\241\325P\007"
 497      A73CABF8 
 497      AB55E5B6 
 497      8CA1D550 
 497      07
 498 0b08 AFAA0946 		.ascii	"\257\252\011F\324j9\344\243\221E|j\221\277\334g\271"
 498      D46A39E4 
 498      A391457C 
 498      6A91BFDC 
 498      67B9
 499 0b1a F483CC10 		.ascii	"\364\203\314\020\371\313\003\240)\277F\365\205\225g"
 499      F9CB03A0 
 499      29BF46F5 
 499      859567
 500 0b29 557AAC8A 		.ascii	"Uz\254\212(5n8\006\224\220*\303`ju\330\357\323\356\320"
 500      28356E38 
 500      0694902A 
 500      C3606A75 
 500      D8EFD3EE 
 501 0b3e 511EE590 		.ascii	"Q\036\345\220#n\177\371\257\037/S\324RW\215Z\225\013"
 501      236E7FF9 
 501      AF1F2F53 
 501      D452578D 
 501      5A950B
 502 0b51 ACF2F43C 		.ascii	"\254\362\364<\235\325\005wi0w\033\301\\\003'\367\030"
 502      9DD50577 
 502      6930771B 
 502      C15C0327 
 502      F718
 503 0b63 2763E0AE 		.ascii	"'c\340\256:f\254\327|\355v'\211\004'\177f\303WU\031"
 503      3A66ACD7 
 503      7CED7627 
 503      8904277F 
 503      66C35755 
 504 0b78 51A325E3 		.ascii	"Q\243%\343'=:\341\321gK\374\225\025U\301\220\022\211"
 504      273D3AE1 
 504      D1674BFC 
 504      951555C1 
 504      901289
 505 0b8b 963C3261 		.ascii	"\226<2a\0020\032Yq\203\016\200\334\247^\343//\233\036"
 505      02301A59 
 505      71830E80 
 505      DCA75EE3 
 505      2F2F9B1E 
 506 0b9f 9D04F857 		.ascii	"\235\004\370WF\2242UV\253\243O\214\324\256=\242\250"
 506      46943255 
 506      56ABA34F 
 506      8CD4AE3D 
ARM GAS  /tmp/ccmn0Ysq.s 			page 40


 506      A2A8
 507 0bb1 FAF9F870 		.ascii	"\372\371\370p\340\347\225\376\247\236(\240A>XI\303\364"
 507      E0E795FE 
 507      A79E28A0 
 507      413E5849 
 507      C3F4
 508 0bc3 EA431083 		.ascii	"\352C\020\203\223\342\264i\005c\271\276\007*+C^\037"
 508      93E2B469 
 508      0563B9BE 
 508      072A2B43 
 508      5E1F
 509 0bd5 3DF5C9D1 		.ascii	"=\365\311\321\250\022Q\357\314\030\244Z\036Q\344\200"
 509      A81251EF 
 509      CC18A45A 
 509      1E51E480 
 510 0be5 5641FEF2 		.ascii	"VA\376\362\307\313\003e!E\251\272V\363\2544\254*\323"
 510      C7CB0365 
 510      2145A9BA 
 510      56F3AC34 
 510      AC2AD3
 511 0bf8 224175FA 		.ascii	"\"Au\372\204r\305\377T\251\233\352\365\313Q%\307_.G"
 511      8472C5FF 
 511      54A99BEA 
 511      F5CB5125 
 511      C75F2E47 
 512 0c0c 72C27285 		.ascii	"r\302r\205\222\013~UW\301\0159\022\250|&\234\317\240"
 512      920B7E55 
 512      57C10D39 
 512      12A87C26 
 512      9CCFA0
 513 0c1f 2DA89255 		.ascii	"-\250\222UU\211\204!x7+\271\273\213\306D*\003\262*\217"
 513      55898421 
 513      78372BB9 
 513      BB8BC644 
 513      2A03B22A 
 514 0c34 312E5C0F 		.ascii	"1.\\\017\026T\245\342\256b?\230\010\372\345P\361s\225"
 514      1654A5E2 
 514      AE623F98 
 514      08FAE550 
 514      F17395
 515 0c47 61258A0C 		.ascii	"a%\212\014\211\2617\032\014P\326J$R]\245F\213\313\345"
 515      89B1371A 
 515      0C50D64A 
 515      24525DA5 
 515      468BCBE5 
 516 0c5b 7020140C 		.ascii	"p \024\014OKp\3353\302\314\245y\213\274\232\367e\325"
 516      4F4B70DD 
 516      33C2CCA5 
 516      798BBC9A 
 516      F765D5
 517 0c6e D12A251C 		.ascii	"\321*%\034\270\333Q\372\312\375\220\026_\315O*\000\007"
 517      B8DB51FA 
 517      CAFD9016 
 517      5FCD4F2A 
 517      0007
 518 0c80 2FBDE58B 		.ascii	"/\275\345\213\352\342\367\212\304\241dK&<ZVZ\226\304"
 518      EAE2F78A 
ARM GAS  /tmp/ccmn0Ysq.s 			page 41


 518      C4A1644B 
 518      263C5A56 
 518      5A96C4
 519 0c93 918AFB2B 		.ascii	"\221\212\373+\036\206J\004\015\303|>\000\306\367\300"
 519      1E864A04 
 519      0DC37C3E 
 519      00C6F7C0 
 520 0ca3 F8B2871E 		.ascii	"\370\262\207\036\233T:L\016=#O\217\372\202a\360\\\311"
 520      9B543A4C 
 520      0E3D234F 
 520      8FFA8261 
 520      F05CC9
 521 0cb6 AD9143D5 		.ascii	"\255\221C\325\212\327\347S\302\362\224\220\342\013F"
 521      8AD7E753 
 521      C2F29490 
 521      E20B46
 522 0cc5 9ED6FD7D 		.ascii	"\236\326\375}0\030\245\027t\353\001\375\004\024\261"
 522      3018A517 
 522      74EB01FD 
 522      0414B1
 523 0cd4 11E52BD4 		.ascii	"\021\345+\324\370\036\322\344\01256]G\221v\235\326\316"
 523      F81ED2E4 
 523      0A35365D 
 523      4791769D 
 523      D6CE
 524 0ce6 C391CA8A 		.ascii	"\303\221\312\212\322\262I#\264\233!\270\340\233\012"
 524      D2B24923 
 524      B49B21B8 
 524      E09B0A
 525 0cf5 577CC168 		.ascii	"W|\301h\304\223\2704B\343\236\034\016%\371\257\325n"
 525      C493B834 
 525      42E39E1C 
 525      0E25F9AF 
 525      D56E
 526 0d07 56872D12 		.ascii	"V\207-\022\205\246\213ZI\352U\350I\030+4)\032\311\306"
 526      85A68B5A 
 526      49EA55E8 
 526      49182B34 
 526      291AC9C6 
 527 0d1b FECA7000 		.ascii	"\376\312p\000\262Y\031\226C\224\345\032M\3074\300\002"
 527      B2591996 
 527      4394E51A 
 527      4DC734C0 
 527      02
 528 0d2c DC871647 		.ascii	"\334\207\026G\313\034b\232\226\004gT\252\240\256q85"
 528      CB1C629A 
 528      96046754 
 528      AAA0AE71 
 528      3835
 529 0d3e F9CB294F 		.ascii	"\371\313)O*~\2654\034T\363\331\314/\244\307\322\350"
 529      2A7EB534 
 529      1C54F3D9 
 529      CC2FA4C7 
 529      D2E8
 530 0d50 F8488512 		.ascii	"\370H\205\022\360\232\306\245\377\005m\257E\000"
 530      F09AC6A5 
 530      FF056DAF 
ARM GAS  /tmp/ccmn0Ysq.s 			page 42


 530      4500
 531              		.text
 532              		.section	.gnu.lto_.symtab.1269c51b466bb9f8,"",%progbits
 533 0000 70617474 		.ascii	"patternsys\000\000\000\000\000\000\000\000\000\000\000"
 533      65726E73 
 533      79730000 
 533      00000000 
 533      00000000 
 534 0015 00050100 		.ascii	"\000\005\001\000\000testsys1\000\000\000\000\000\000"
 534      00746573 
 534      74737973 
 534      31000000 
 534      000000
 535 0028 00000000 		.ascii	"\000\000\000\000\000\000 \001\000\000testsys2\000\000"
 535      00002001 
 535      00007465 
 535      73747379 
 535      73320000 
 536 003c 00000000 		.ascii	"\000\000\000\000\000\000\000\000\000\000+\001\000\000"
 536      00000000 
 536      00002B01 
 536      0000
 537 004a 74657374 		.ascii	"testsys3\000\000\000\000\000\000\000\000\000\000\000"
 537      73797333 
 537      00000000 
 537      00000000 
 537      000000
 538 005d 00350100 		.ascii	"\0005\001\000\000chSysRestoreStatusX\000\000\002\000"
 538      00636853 
 538      79735265 
 538      73746F72 
 538      65537461 
 539 0079 00000000 		.ascii	"\000\000\000\000\000\000\000\000\345\000\000\000chS"
 539      00000000 
 539      E5000000 
 539      636853
 540 0088 79734765 		.ascii	"ysGetStatusAndLockX\000\000\002\000\000\000\000\000"
 540      74537461 
 540      74757341 
 540      6E644C6F 
 540      636B5800 
 541 00a3 00000000 		.ascii	"\000\000\000\000\354\000\000\000chVTDoSetI\000\000\002"
 541      EC000000 
 541      63685654 
 541      446F5365 
 541      74490000 
 542 00b8 00000000 		.ascii	"\000\000\000\000\000\000\000\000\000\357\000\000\000"
 542      00000000 
 542      00EF0000 
 542      00
 543 00c5 63685654 		.ascii	"chVTDoResetI\000\000\002\000\000\000\000\000\000\000"
 543      446F5265 
 543      73657449 
 543      00000200 
 543      00000000 
 544 00db 0000F100 		.ascii	"\000\000\361\000\000\000_test_assert\000\000\002\000"
 544      00005F74 
ARM GAS  /tmp/ccmn0Ysq.s 			page 43


 544      6573745F 
 544      61737365 
 544      72740000 
 545 00f1 00000000 		.ascii	"\000\000\000\000\000\000\000\000\365\000\000\000chT"
 545      00000000 
 545      F5000000 
 545      636854
 546 0100 6864536C 		.ascii	"hdSleep\000\000\002\000\000\000\000\000\000\000\000"
 546      65657000 
 546      00020000 
 546      00000000 
 546      0000
 547 0112 00FD0000 		.ascii	"\000\375\000\000\000chSysIntegrityCheckI\000\000\002"
 547      00636853 
 547      7973496E 
 547      74656772 
 547      69747943 
 548 012e 00000000 		.ascii	"\000\000\000\000\000\000\000\000\000\001\001\000\000"
 548      00000000 
 548      00010100 
 548      00
 549              		.text
 550              		.section	.gnu.lto_.opts,"",%progbits
 551 0000 272D6D63 		.ascii	"'-mcpu=cortex-m4' '-mno-thumb-interwork' '-mthumb' "
 551      70753D63 
 551      6F727465 
 551      782D6D34 
 551      2720272D 
 552 0033 272D6767 		.ascii	"'-ggdb' '-O2' '-fomit-frame-pointer' '-falign-funct"
 552      64622720 
 552      272D4F32 
 552      2720272D 
 552      666F6D69 
 553 0066 696F6E73 		.ascii	"ions=16' '-ffunction-sections' '-fdata-sections' '-"
 553      3D313627 
 553      20272D66 
 553      66756E63 
 553      74696F6E 
 554 0099 666E6F2D 		.ascii	"fno-common' '-flto'\000"
 554      636F6D6D 
 554      6F6E2720 
 554      272D666C 
 554      746F2700 
 555              		.text
 556              		.cfi_sections	.debug_frame
 557              		.section	.text.sys2_execute,"ax",%progbits
 558              		.align	2
 559              		.p2align 4,,15
 560              		.thumb
 561              		.thumb_func
 562              		.type	sys2_execute, %function
 563              	sys2_execute:
 564              	.LFB231:
 565              		.file 1 "/usr/src/chibios/test/rt/testsys.c"
 566              		.loc 1 115 0
 567              		.cfi_startproc
 568              		@ args = 0, pretend = 0, frame = 0
ARM GAS  /tmp/ccmn0Ysq.s 			page 44


 569              		@ frame_needed = 0, uses_anonymous_args = 0
 570              		@ link register save eliminated.
 571              	.LVL0:
 572              	.LBB324:
 573              	.LBB325:
 574              	.LBB326:
 575              	.LBB327:
 576              		.file 2 "/usr/src/chibios/os/ext/CMSIS/include/core_cmFunc.h"
 577              		.loc 2 546 0
 578 0000 2023     		movs	r3, #32
 579              	@ 546 "/usr/src/chibios/os/ext/CMSIS/include/core_cmFunc.h" 1
 580 0002 83F31188 		MSR basepri, r3
 581              	@ 0 "" 2
 582              		.thumb
 583              	.LBE327:
 584              	.LBE326:
 585              	.LBB328:
 586              	.LBB329:
 587              		.loc 2 331 0
 588              	@ 331 "/usr/src/chibios/os/ext/CMSIS/include/core_cmFunc.h" 1
 589 0006 62B6     		cpsie i
 590              	@ 0 "" 2
 591              		.thumb
 592              	.LBE329:
 593              	.LBE328:
 594              	.LBE325:
 595              	.LBE324:
 596              	.LBB330:
 597              	.LBB331:
 598              	.LBB332:
 599              	.LBB333:
 600              		.loc 2 342 0
 601              	@ 342 "/usr/src/chibios/os/ext/CMSIS/include/core_cmFunc.h" 1
 602 0008 72B6     		cpsid i
 603              	@ 0 "" 2
 604              	.LVL1:
 605              		.thumb
 606              	.LBE333:
 607              	.LBE332:
 608              	.LBE331:
 609              	.LBE330:
 610              	.LBB334:
 611              	.LBB335:
 612              	.LBB336:
 613              	.LBB337:
 614              		.loc 2 546 0
 615              	@ 546 "/usr/src/chibios/os/ext/CMSIS/include/core_cmFunc.h" 1
 616 000a 83F31188 		MSR basepri, r3
 617              	@ 0 "" 2
 618              		.thumb
 619              	.LBE337:
 620              	.LBE336:
 621              	.LBB338:
 622              	.LBB339:
 623              		.loc 2 331 0
 624              	@ 331 "/usr/src/chibios/os/ext/CMSIS/include/core_cmFunc.h" 1
 625 000e 62B6     		cpsie i
ARM GAS  /tmp/ccmn0Ysq.s 			page 45


 626              	@ 0 "" 2
 627              	.LVL2:
 628              		.thumb
 629              	.LBE339:
 630              	.LBE338:
 631              	.LBE335:
 632              	.LBE334:
 633              	.LBB340:
 634              	.LBB341:
 635              	.LBB342:
 636              	.LBB343:
 637              		.loc 2 546 0
 638 0010 0023     		movs	r3, #0
 639              	@ 546 "/usr/src/chibios/os/ext/CMSIS/include/core_cmFunc.h" 1
 640 0012 83F31188 		MSR basepri, r3
 641              	@ 0 "" 2
 642              		.thumb
 643              	.LBE343:
 644              	.LBE342:
 645              	.LBB344:
 646              	.LBB345:
 647              		.loc 2 331 0
 648              	@ 331 "/usr/src/chibios/os/ext/CMSIS/include/core_cmFunc.h" 1
 649 0016 62B6     		cpsie i
 650              	@ 0 "" 2
 651              		.thumb
 652 0018 7047     		bx	lr
 653              	.LBE345:
 654              	.LBE344:
 655              	.LBE341:
 656              	.LBE340:
 657              		.cfi_endproc
 658              	.LFE231:
 659              		.size	sys2_execute, .-sys2_execute
 660 001a 00BF     		.section	.text.vtcb,"ax",%progbits
 661              		.align	2
 662              		.p2align 4,,15
 663              		.thumb
 664              		.thumb_func
 665              		.type	vtcb, %function
 666              	vtcb:
 667              	.LFB229:
 668              		.loc 1 53 0
 669              		.cfi_startproc
 670              		@ args = 0, pretend = 0, frame = 0
 671              		@ frame_needed = 0, uses_anonymous_args = 0
 672              	.LVL3:
 673 0000 10B5     		push	{r4, lr}
 674              		.cfi_def_cfa_offset 8
 675              		.cfi_offset 4, -8
 676              		.cfi_offset 14, -4
 677              	.LBB346:
 678              	.LBB347:
 679              	.LBB348:
 680              	.LBB349:
 681              	.LBB350:
 682              		.loc 2 546 0
ARM GAS  /tmp/ccmn0Ysq.s 			page 46


 683 0002 2023     		movs	r3, #32
 684              	@ 546 "/usr/src/chibios/os/ext/CMSIS/include/core_cmFunc.h" 1
 685 0004 83F31188 		MSR basepri, r3
 686              	@ 0 "" 2
 687              	.LVL4:
 688              		.thumb
 689              	.LBE350:
 690              	.LBE349:
 691              	.LBE348:
 692              	.LBE347:
 693              	.LBE346:
 694              	.LBB351:
 695              	.LBB352:
 696              	.LBB353:
 697              	.LBB354:
 698              	.LBB355:
 699 0008 0024     		movs	r4, #0
 700              	@ 546 "/usr/src/chibios/os/ext/CMSIS/include/core_cmFunc.h" 1
 701 000a 84F31188 		MSR basepri, r4
 702              	@ 0 "" 2
 703              	.LVL5:
 704              		.thumb
 705              	.LBE355:
 706              	.LBE354:
 707              	.LBE353:
 708              	.LBE352:
 709              	.LBE351:
 710              	.LBB356:
 711              	.LBB357:
 712              	.LBB358:
 713              	.LBB359:
 714              	.LBB360:
 715              	@ 546 "/usr/src/chibios/os/ext/CMSIS/include/core_cmFunc.h" 1
 716 000e 83F31188 		MSR basepri, r3
 717              	@ 0 "" 2
 718              		.thumb
 719              	.LBE360:
 720              	.LBE359:
 721              	.LBE358:
 722              	.LBE357:
 723              	.LBE356:
 724              		.loc 1 64 0
 725 0012 FFF7FEFF 		bl	chSysGetStatusAndLockX
 726              	.LVL6:
 727              		.loc 1 65 0
 728 0016 FFF7FEFF 		bl	chSysRestoreStatusX
 729              	.LVL7:
 730              	.LBB361:
 731              	.LBB362:
 732              	.LBB363:
 733              	.LBB364:
 734              	.LBB365:
 735              		.loc 2 546 0
 736              	@ 546 "/usr/src/chibios/os/ext/CMSIS/include/core_cmFunc.h" 1
 737 001a 84F31188 		MSR basepri, r4
 738              	@ 0 "" 2
 739              		.thumb
ARM GAS  /tmp/ccmn0Ysq.s 			page 47


 740 001e 10BD     		pop	{r4, pc}
 741              	.LBE365:
 742              	.LBE364:
 743              	.LBE363:
 744              	.LBE362:
 745              	.LBE361:
 746              		.cfi_endproc
 747              	.LFE229:
 748              		.size	vtcb, .-vtcb
 749              		.section	.text.sys3_execute,"ax",%progbits
 750              		.align	2
 751              		.p2align 4,,15
 752              		.thumb
 753              		.thumb_func
 754              		.type	sys3_execute, %function
 755              	sys3_execute:
 756              	.LFB232:
 757              		.loc 1 138 0
 758              		.cfi_startproc
 759              		@ args = 0, pretend = 0, frame = 0
 760              		@ frame_needed = 0, uses_anonymous_args = 0
 761              	.LVL8:
 762 0000 38B5     		push	{r3, r4, r5, lr}
 763              		.cfi_def_cfa_offset 16
 764              		.cfi_offset 3, -16
 765              		.cfi_offset 4, -12
 766              		.cfi_offset 5, -8
 767              		.cfi_offset 14, -4
 768              	.LBB431:
 769              	.LBB432:
 770              	.LBB433:
 771              	.LBB434:
 772              		.loc 2 546 0
 773 0002 2024     		movs	r4, #32
 774              	@ 546 "/usr/src/chibios/os/ext/CMSIS/include/core_cmFunc.h" 1
 775 0004 84F31188 		MSR basepri, r4
 776              	@ 0 "" 2
 777              		.thumb
 778              	.LBE434:
 779              	.LBE433:
 780              	.LBE432:
 781              	.LBE431:
 782              		.loc 1 142 0
 783 0008 0120     		movs	r0, #1
 784 000a FFF7FEFF 		bl	chSysIntegrityCheckI
 785              	.LVL9:
 786              	.LBB435:
 787              	.LBB436:
 788              	.LBB437:
 789              	.LBB438:
 790              	.LBB439:
 791              		.loc 2 546 0
 792 000e 0023     		movs	r3, #0
 793              	@ 546 "/usr/src/chibios/os/ext/CMSIS/include/core_cmFunc.h" 1
 794 0010 83F31188 		MSR basepri, r3
 795              	@ 0 "" 2
 796              		.thumb
ARM GAS  /tmp/ccmn0Ysq.s 			page 48


 797              	.LBE439:
 798              	.LBE438:
 799              	.LBE437:
 800              	.LBE436:
 801              	.LBE435:
 802              		.loc 1 144 0
 803 0014 80F00101 		eor	r1, r0, #1
 804 0018 C9B2     		uxtb	r1, r1
 805 001a 0120     		movs	r0, #1
 806              	.LVL10:
 807 001c FFF7FEFF 		bl	_test_assert
 808              	.LVL11:
 809 0020 0546     		mov	r5, r0
 810 0022 00B1     		cbz	r0, .L8
 811              	.L3:
 812 0024 38BD     		pop	{r3, r4, r5, pc}
 813              	.L8:
 814              	.LVL12:
 815              	.LBB440:
 816              	.LBB441:
 817              	.LBB442:
 818              	.LBB443:
 819              		.loc 2 546 0
 820              	@ 546 "/usr/src/chibios/os/ext/CMSIS/include/core_cmFunc.h" 1
 821 0026 84F31188 		MSR basepri, r4
 822              	@ 0 "" 2
 823              		.thumb
 824              	.LBE443:
 825              	.LBE442:
 826              	.LBE441:
 827              	.LBE440:
 828              		.loc 1 147 0
 829 002a 0220     		movs	r0, #2
 830 002c FFF7FEFF 		bl	chSysIntegrityCheckI
 831              	.LVL13:
 832              	.LBB444:
 833              	.LBB445:
 834              	.LBB446:
 835              	.LBB447:
 836              	.LBB448:
 837              		.loc 2 546 0
 838              	@ 546 "/usr/src/chibios/os/ext/CMSIS/include/core_cmFunc.h" 1
 839 0030 85F31188 		MSR basepri, r5
 840              	@ 0 "" 2
 841              		.thumb
 842              	.LBE448:
 843              	.LBE447:
 844              	.LBE446:
 845              	.LBE445:
 846              	.LBE444:
 847              		.loc 1 149 0
 848 0034 80F00101 		eor	r1, r0, #1
 849 0038 C9B2     		uxtb	r1, r1
 850 003a 0220     		movs	r0, #2
 851              	.LVL14:
 852 003c FFF7FEFF 		bl	_test_assert
 853              	.LVL15:
ARM GAS  /tmp/ccmn0Ysq.s 			page 49


 854 0040 0546     		mov	r5, r0
 855 0042 0028     		cmp	r0, #0
 856 0044 EED1     		bne	.L3
 857              	.LVL16:
 858              	.LBB449:
 859              	.LBB450:
 860              	.LBB451:
 861              	.LBB452:
 862              		.loc 2 546 0
 863              	@ 546 "/usr/src/chibios/os/ext/CMSIS/include/core_cmFunc.h" 1
 864 0046 84F31188 		MSR basepri, r4
 865              	@ 0 "" 2
 866              		.thumb
 867              	.LBE452:
 868              	.LBE451:
 869              	.LBE450:
 870              	.LBE449:
 871              		.loc 1 152 0
 872 004a 0420     		movs	r0, #4
 873 004c FFF7FEFF 		bl	chSysIntegrityCheckI
 874              	.LVL17:
 875              	.LBB453:
 876              	.LBB454:
 877              	.LBB455:
 878              	.LBB456:
 879              	.LBB457:
 880              		.loc 2 546 0
 881              	@ 546 "/usr/src/chibios/os/ext/CMSIS/include/core_cmFunc.h" 1
 882 0050 85F31188 		MSR basepri, r5
 883              	@ 0 "" 2
 884              		.thumb
 885              	.LBE457:
 886              	.LBE456:
 887              	.LBE455:
 888              	.LBE454:
 889              	.LBE453:
 890              		.loc 1 154 0
 891 0054 80F00101 		eor	r1, r0, #1
 892 0058 C9B2     		uxtb	r1, r1
 893 005a 0320     		movs	r0, #3
 894              	.LVL18:
 895 005c FFF7FEFF 		bl	_test_assert
 896              	.LVL19:
 897 0060 0546     		mov	r5, r0
 898 0062 0028     		cmp	r0, #0
 899 0064 DED1     		bne	.L3
 900              	.LVL20:
 901              	.LBB458:
 902              	.LBB459:
 903              	.LBB460:
 904              	.LBB461:
 905              	.LBB462:
 906              	.LBB463:
 907              		.loc 2 546 0
 908              	@ 546 "/usr/src/chibios/os/ext/CMSIS/include/core_cmFunc.h" 1
 909 0066 84F31188 		MSR basepri, r4
 910              	@ 0 "" 2
ARM GAS  /tmp/ccmn0Ysq.s 			page 50


 911              		.thumb
 912              	.LBE463:
 913              	.LBE462:
 914              	.LBE461:
 915              	.LBE460:
 916              		.loc 1 157 0
 917 006a 0820     		movs	r0, #8
 918 006c FFF7FEFF 		bl	chSysIntegrityCheckI
 919              	.LVL21:
 920              	.LBB464:
 921              	.LBB465:
 922              	.LBB466:
 923              	.LBB467:
 924              	.LBB468:
 925              		.loc 2 546 0
 926              	@ 546 "/usr/src/chibios/os/ext/CMSIS/include/core_cmFunc.h" 1
 927 0070 85F31188 		MSR basepri, r5
 928              	@ 0 "" 2
 929              		.thumb
 930              	.LBE468:
 931              	.LBE467:
 932              	.LBE466:
 933              	.LBE465:
 934              	.LBE464:
 935              		.loc 1 159 0
 936 0074 80F00101 		eor	r1, r0, #1
 937 0078 C9B2     		uxtb	r1, r1
 938 007a 0420     		movs	r0, #4
 939              	.LVL22:
 940              	.LBE459:
 941              	.LBE458:
 942              		.loc 1 160 0
 943 007c BDE83840 		pop	{r3, r4, r5, lr}
 944              	.LBB470:
 945              	.LBB469:
 946              		.loc 1 159 0
 947 0080 FFF7FEBF 		b	_test_assert
 948              	.LVL23:
 949              	.LBE469:
 950              	.LBE470:
 951              		.cfi_endproc
 952              	.LFE232:
 953              		.size	sys3_execute, .-sys3_execute
 954              		.section	.text.sys1_execute,"ax",%progbits
 955              		.align	2
 956              		.p2align 4,,15
 957              		.thumb
 958              		.thumb_func
 959              		.type	sys1_execute, %function
 960              	sys1_execute:
 961              	.LFB230:
 962              		.loc 1 69 0
 963              		.cfi_startproc
 964              		@ args = 0, pretend = 0, frame = 24
 965              		@ frame_needed = 0, uses_anonymous_args = 0
 966 0000 10B5     		push	{r4, lr}
 967              		.cfi_def_cfa_offset 8
ARM GAS  /tmp/ccmn0Ysq.s 			page 51


 968              		.cfi_offset 4, -8
 969              		.cfi_offset 14, -4
 970 0002 86B0     		sub	sp, sp, #24
 971              		.cfi_def_cfa_offset 32
 972              		.loc 1 74 0
 973 0004 FFF7FEFF 		bl	chSysGetStatusAndLockX
 974              	.LVL24:
 975              		.loc 1 75 0
 976 0008 FFF7FEFF 		bl	chSysRestoreStatusX
 977              	.LVL25:
 978              	.LBB561:
 979              	.LBB562:
 980              	.LBB563:
 981              	.LBB564:
 982              		.loc 2 546 0
 983 000c 2024     		movs	r4, #32
 984              	@ 546 "/usr/src/chibios/os/ext/CMSIS/include/core_cmFunc.h" 1
 985 000e 84F31188 		MSR basepri, r4
 986              	@ 0 "" 2
 987              		.thumb
 988              	.LBE564:
 989              	.LBE563:
 990              	.LBE562:
 991              	.LBE561:
 992              		.loc 1 79 0
 993 0012 FFF7FEFF 		bl	chSysGetStatusAndLockX
 994              	.LVL26:
 995              		.loc 1 80 0
 996 0016 FFF7FEFF 		bl	chSysRestoreStatusX
 997              	.LVL27:
 998              	.LBB565:
 999              	.LBB566:
 1000              	.LBB567:
 1001              	.LBB568:
 1002              	.LBB569:
 1003              		.loc 2 546 0
 1004 001a 0023     		movs	r3, #0
 1005              	@ 546 "/usr/src/chibios/os/ext/CMSIS/include/core_cmFunc.h" 1
 1006 001c 83F31188 		MSR basepri, r3
 1007              	@ 0 "" 2
 1008              		.thumb
 1009              	.LBE569:
 1010              	.LBE568:
 1011              	.LBE567:
 1012              	.LBE566:
 1013              	.LBE565:
 1014              	.LBB570:
 1015              	.LBB571:
 1016              	.LBB572:
 1017              	.LBB573:
 1018              	.LBB574:
 1019              	.LBB575:
 1020              		.loc 2 533 0
 1021              	@ 533 "/usr/src/chibios/os/ext/CMSIS/include/core_cmFunc.h" 1
 1022 0020 EFF31283 		MRS r3, basepri_max
 1023              	@ 0 "" 2
 1024              	.LVL28:
ARM GAS  /tmp/ccmn0Ysq.s 			page 52


 1025              		.thumb
 1026              	.LBE575:
 1027              	.LBE574:
 1028              	.LBE573:
 1029              	.LBE572:
 1030              		.file 3 "/usr/src/chibios/os/rt/include/chsys.h"
 1031              		.loc 3 422 0
 1032 0024 0BB9     		cbnz	r3, .L10
 1033              	.LVL29:
 1034              	.LBB576:
 1035              	.LBB577:
 1036              	.LBB578:
 1037              	.LBB579:
 1038              		.loc 2 546 0
 1039              	@ 546 "/usr/src/chibios/os/ext/CMSIS/include/core_cmFunc.h" 1
 1040 0026 84F31188 		MSR basepri, r4
 1041              	@ 0 "" 2
 1042              	.LVL30:
 1043              		.thumb
 1044              	.L10:
 1045              	.LBE579:
 1046              	.LBE578:
 1047              	.LBE577:
 1048              	.LBE576:
 1049              	.LBE571:
 1050              	.LBE570:
 1051              	.LBB580:
 1052              	.LBB581:
 1053              	.LBB582:
 1054              	.LBB583:
 1055              	.LBB584:
 1056              	.LBB585:
 1057              		.loc 2 533 0
 1058              	@ 533 "/usr/src/chibios/os/ext/CMSIS/include/core_cmFunc.h" 1
 1059 002a EFF31283 		MRS r3, basepri_max
 1060              	@ 0 "" 2
 1061              	.LVL31:
 1062              		.thumb
 1063              	.LBE585:
 1064              	.LBE584:
 1065              	.LBE583:
 1066              	.LBE582:
 1067              		.loc 3 422 0
 1068 002e 13B9     		cbnz	r3, .L11
 1069              	.LVL32:
 1070              	.LBB586:
 1071              	.LBB587:
 1072              	.LBB588:
 1073              	.LBB589:
 1074              		.loc 2 546 0
 1075 0030 2023     		movs	r3, #32
 1076              	.LVL33:
 1077              	@ 546 "/usr/src/chibios/os/ext/CMSIS/include/core_cmFunc.h" 1
 1078 0032 83F31188 		MSR basepri, r3
 1079              	@ 0 "" 2
 1080              	.LVL34:
 1081              		.thumb
ARM GAS  /tmp/ccmn0Ysq.s 			page 53


 1082              	.L11:
 1083              	.LBE589:
 1084              	.LBE588:
 1085              	.LBE587:
 1086              	.LBE586:
 1087              	.LBE581:
 1088              	.LBE580:
 1089              	.LBB590:
 1090              	.LBB591:
 1091              	.LBB592:
 1092              	.LBB593:
 1093              	.LBB594:
 1094 0036 0023     		movs	r3, #0
 1095              	@ 546 "/usr/src/chibios/os/ext/CMSIS/include/core_cmFunc.h" 1
 1096 0038 83F31188 		MSR basepri, r3
 1097              	@ 0 "" 2
 1098              	.LVL35:
 1099              		.thumb
 1100              	.LBE594:
 1101              	.LBE593:
 1102              	.LBE592:
 1103              	.LBE591:
 1104              	.LBE590:
 1105              	.LBB595:
 1106              	.LBB596:
 1107              	.LBB597:
 1108              	.LBB598:
 1109 003c 2022     		movs	r2, #32
 1110              	@ 546 "/usr/src/chibios/os/ext/CMSIS/include/core_cmFunc.h" 1
 1111 003e 82F31188 		MSR basepri, r2
 1112              	@ 0 "" 2
 1113              		.thumb
 1114              	.LBE598:
 1115              	.LBE597:
 1116              	.LBE596:
 1117              	.LBE595:
 1118              	.LBB599:
 1119              	.LBB600:
 1120              	.LBB601:
 1121              	.LBB602:
 1122              	.LBB603:
 1123              	.LBB604:
 1124              		.loc 2 533 0
 1125              	@ 533 "/usr/src/chibios/os/ext/CMSIS/include/core_cmFunc.h" 1
 1126 0042 EFF31282 		MRS r2, basepri_max
 1127              	@ 0 "" 2
 1128              	.LVL36:
 1129              		.thumb
 1130              	.LBE604:
 1131              	.LBE603:
 1132              	.LBE602:
 1133              	.LBE601:
 1134              		.loc 3 436 0
 1135 0046 0AB1     		cbz	r2, .L12
 1136              	.LVL37:
 1137              	.LBB605:
 1138              	.LBB606:
ARM GAS  /tmp/ccmn0Ysq.s 			page 54


 1139              	.LBB607:
 1140              	.LBB608:
 1141              	.LBB609:
 1142              		.loc 2 546 0
 1143              	@ 546 "/usr/src/chibios/os/ext/CMSIS/include/core_cmFunc.h" 1
 1144 0048 83F31188 		MSR basepri, r3
 1145              	@ 0 "" 2
 1146              	.LVL38:
 1147              		.thumb
 1148              	.L12:
 1149              	.LBE609:
 1150              	.LBE608:
 1151              	.LBE607:
 1152              	.LBE606:
 1153              	.LBE605:
 1154              	.LBE600:
 1155              	.LBE599:
 1156              	.LBB610:
 1157              	.LBB611:
 1158              	.LBB612:
 1159              	.LBB613:
 1160              	.LBB614:
 1161              	.LBB615:
 1162              		.loc 2 533 0
 1163              	@ 533 "/usr/src/chibios/os/ext/CMSIS/include/core_cmFunc.h" 1
 1164 004c EFF31283 		MRS r3, basepri_max
 1165              	@ 0 "" 2
 1166              	.LVL39:
 1167              		.thumb
 1168              	.LBE615:
 1169              	.LBE614:
 1170              	.LBE613:
 1171              	.LBE612:
 1172              		.loc 3 436 0
 1173 0050 13B1     		cbz	r3, .L13
 1174              	.LVL40:
 1175              	.LBB616:
 1176              	.LBB617:
 1177              	.LBB618:
 1178              	.LBB619:
 1179              	.LBB620:
 1180              		.loc 2 546 0
 1181 0052 0023     		movs	r3, #0
 1182              	.LVL41:
 1183              	@ 546 "/usr/src/chibios/os/ext/CMSIS/include/core_cmFunc.h" 1
 1184 0054 83F31188 		MSR basepri, r3
 1185              	@ 0 "" 2
 1186              	.LVL42:
 1187              		.thumb
 1188              	.L13:
 1189              	.LBE620:
 1190              	.LBE619:
 1191              	.LBE618:
 1192              	.LBE617:
 1193              	.LBE616:
 1194              	.LBE611:
 1195              	.LBE610:
ARM GAS  /tmp/ccmn0Ysq.s 			page 55


 1196              	.LBB621:
 1197              	.LBB622:
 1198              		.file 4 "/usr/src/chibios/os/rt/include/chvt.h"
 1199              		.loc 4 212 0
 1200 0058 0023     		movs	r3, #0
 1201 005a 0493     		str	r3, [sp, #16]
 1202              	.LVL43:
 1203              	.LBE622:
 1204              	.LBE621:
 1205              	.LBB623:
 1206              	.LBB624:
 1207              	.LBB625:
 1208              	.LBB626:
 1209              	.LBB627:
 1210              		.loc 2 546 0
 1211 005c 2023     		movs	r3, #32
 1212              	@ 546 "/usr/src/chibios/os/ext/CMSIS/include/core_cmFunc.h" 1
 1213 005e 83F31188 		MSR basepri, r3
 1214              	@ 0 "" 2
 1215              	.LVL44:
 1216              		.thumb
 1217              	.LBE627:
 1218              	.LBE626:
 1219              	.LBE625:
 1220              	.LBE624:
 1221              	.LBB628:
 1222              	.LBB629:
 1223              	.LBB630:
 1224              	.LBB631:
 1225              		.loc 4 376 0
 1226 0062 049B     		ldr	r3, [sp, #16]
 1227              		.loc 4 377 0
 1228 0064 01AC     		add	r4, sp, #4
 1229              	.LVL45:
 1230              		.loc 4 376 0
 1231 0066 13B1     		cbz	r3, .L14
 1232              		.loc 4 377 0
 1233 0068 2046     		mov	r0, r4
 1234 006a FFF7FEFF 		bl	chVTDoResetI
 1235              	.LVL46:
 1236              	.L14:
 1237              	.LBE631:
 1238              	.LBE630:
 1239              		.loc 4 424 0
 1240 006e 2046     		mov	r0, r4
 1241 0070 0121     		movs	r1, #1
 1242 0072 0C4A     		ldr	r2, .L26
 1243 0074 0023     		movs	r3, #0
 1244 0076 FFF7FEFF 		bl	chVTDoSetI
 1245              	.LVL47:
 1246              	.LBE629:
 1247              	.LBE628:
 1248              	.LBB632:
 1249              	.LBB633:
 1250              	.LBB634:
 1251              	.LBB635:
 1252              	.LBB636:
ARM GAS  /tmp/ccmn0Ysq.s 			page 56


 1253              		.loc 2 546 0
 1254 007a 0024     		movs	r4, #0
 1255              	.LVL48:
 1256              	@ 546 "/usr/src/chibios/os/ext/CMSIS/include/core_cmFunc.h" 1
 1257 007c 84F31188 		MSR basepri, r4
 1258              	@ 0 "" 2
 1259              		.thumb
 1260              	.LBE636:
 1261              	.LBE635:
 1262              	.LBE634:
 1263              	.LBE633:
 1264              	.LBE632:
 1265              	.LBE623:
 1266              		.loc 1 96 0
 1267 0080 0A20     		movs	r0, #10
 1268 0082 FFF7FEFF 		bl	chThdSleep
 1269              	.LVL49:
 1270              	.LBB637:
 1271              	.LBB638:
 1272              	.LBB639:
 1273              	.LBB640:
 1274              	.LBB641:
 1275              	.LBB642:
 1276              		.loc 2 546 0
 1277 0086 2023     		movs	r3, #32
 1278              	@ 546 "/usr/src/chibios/os/ext/CMSIS/include/core_cmFunc.h" 1
 1279 0088 83F31188 		MSR basepri, r3
 1280              	@ 0 "" 2
 1281              		.thumb
 1282              	.LBE642:
 1283              	.LBE641:
 1284              	.LBE640:
 1285              	.LBE639:
 1286              	.LBE638:
 1287              	.LBE637:
 1288              		.loc 4 354 0
 1289 008c 0499     		ldr	r1, [sp, #16]
 1290              	.LVL50:
 1291              	.LBB649:
 1292              	.LBB648:
 1293              	.LBB643:
 1294              	.LBB644:
 1295              	.LBB645:
 1296              	.LBB646:
 1297              	.LBB647:
 1298              		.loc 2 546 0
 1299              	@ 546 "/usr/src/chibios/os/ext/CMSIS/include/core_cmFunc.h" 1
 1300 008e 84F31188 		MSR basepri, r4
 1301              	@ 0 "" 2
 1302              		.thumb
 1303              	.LBE647:
 1304              	.LBE646:
 1305              	.LBE645:
 1306              	.LBE644:
 1307              	.LBE643:
 1308              	.LBE648:
 1309              	.LBE649:
ARM GAS  /tmp/ccmn0Ysq.s 			page 57


 1310              		.loc 1 98 0
 1311 0092 0B1B     		subs	r3, r1, r4
 1312 0094 5942     		rsbs	r1, r3, #0
 1313 0096 5941     		adcs	r1, r1, r3
 1314 0098 0120     		movs	r0, #1
 1315 009a FFF7FEFF 		bl	_test_assert
 1316              	.LVL51:
 1317              		.loc 1 99 0
 1318 009e 06B0     		add	sp, sp, #24
 1319              		@ sp needed
 1320 00a0 10BD     		pop	{r4, pc}
 1321              	.LVL52:
 1322              	.L27:
 1323 00a2 00BF     		.align	2
 1324              	.L26:
 1325 00a4 00000000 		.word	vtcb
 1326              		.cfi_endproc
 1327              	.LFE230:
 1328              		.size	sys1_execute, .-sys1_execute
 1329              		.global	patternsys
 1330              		.global	testsys3
 1331              		.global	testsys2
 1332              		.global	testsys1
 1333              		.section	.rodata.testsys1,"a",%progbits
 1334              		.align	2
 1335              		.type	testsys1, %object
 1336              		.size	testsys1, 16
 1337              	testsys1:
 1338 0000 30000000 		.word	.LC2
 1339 0004 00000000 		.word	0
 1340 0008 00000000 		.word	0
 1341 000c 00000000 		.word	sys1_execute
 1342              		.section	.rodata.testsys2,"a",%progbits
 1343              		.align	2
 1344              		.type	testsys2, %object
 1345              		.size	testsys2, 16
 1346              	testsys2:
 1347 0000 14000000 		.word	.LC1
 1348 0004 00000000 		.word	0
 1349 0008 00000000 		.word	0
 1350 000c 00000000 		.word	sys2_execute
 1351              		.section	.rodata.testsys3,"a",%progbits
 1352              		.align	2
 1353              		.type	testsys3, %object
 1354              		.size	testsys3, 16
 1355              	testsys3:
 1356 0000 00000000 		.word	.LC0
 1357 0004 00000000 		.word	0
 1358 0008 00000000 		.word	0
 1359 000c 00000000 		.word	sys3_execute
 1360              		.section	.rodata.str1.4,"aMS",%progbits,1
 1361              		.align	2
 1362              	.LC0:
 1363 0000 53797374 		.ascii	"System, integrity\000"
 1363      656D2C20 
 1363      696E7465 
 1363      67726974 
ARM GAS  /tmp/ccmn0Ysq.s 			page 58


 1363      7900
 1364 0012 0000     		.space	2
 1365              	.LC1:
 1366 0014 53797374 		.ascii	"System, interrupts handling\000"
 1366      656D2C20 
 1366      696E7465 
 1366      72727570 
 1366      74732068 
 1367              	.LC2:
 1368 0030 53797374 		.ascii	"System, critical zones\000"
 1368      656D2C20 
 1368      63726974 
 1368      6963616C 
 1368      207A6F6E 
 1369              		.section	.rodata.patternsys,"a",%progbits
 1370              		.align	2
 1371              		.type	patternsys, %object
 1372              		.size	patternsys, 16
 1373              	patternsys:
 1374 0000 00000000 		.word	testsys1
 1375 0004 00000000 		.word	testsys2
 1376 0008 00000000 		.word	testsys3
 1377 000c 00000000 		.word	0
 1378              		.text
 1379              	.Letext0:
 1380              		.file 5 "/usr/lib/gcc/arm-none-eabi/4.8/include/stddef.h"
 1381              		.file 6 "/usr/include/newlib/machine/_default_types.h"
 1382              		.file 7 "/usr/include/newlib/sys/_stdint.h"
 1383              		.file 8 "/usr/src/chibios/os/rt/ports/ARMCMx/compilers/GCC/chtypes.h"
 1384              		.file 9 "/usr/src/chibios/os/rt/include/chsystypes.h"
 1385              		.file 10 "/usr/src/chibios/os/rt/include/chschd.h"
 1386              		.file 11 "/usr/src/chibios/os/rt/ports/ARMCMx/chcore.h"
 1387              		.file 12 "/usr/src/chibios/os/rt/ports/ARMCMx/chcore_v7m.h"
 1388              		.file 13 "/usr/src/chibios/os/rt/include/chtm.h"
 1389              		.file 14 "/usr/src/chibios/os/rt/include/chsem.h"
 1390              		.file 15 "/usr/src/chibios/os/rt/include/chmtx.h"
 1391              		.file 16 "/usr/src/chibios/test/rt/test.h"
 1392              		.file 17 "/usr/src/chibios/os/ext/CMSIS/include/core_cm4.h"
 1393              		.file 18 "/usr/src/chibios/os/rt/include/chthreads.h"